ARM GAS  C:\Users\14122\AppData\Local\Temp\ccDiMJzZ.s 			page 1


   1              		.cpu cortex-m3
   2              		.eabi_attribute 20, 1
   3              		.eabi_attribute 21, 1
   4              		.eabi_attribute 23, 3
   5              		.eabi_attribute 24, 1
   6              		.eabi_attribute 25, 1
   7              		.eabi_attribute 26, 1
   8              		.eabi_attribute 30, 2
   9              		.eabi_attribute 34, 1
  10              		.eabi_attribute 18, 4
  11              		.file	"canBusProcess.c"
  12              		.text
  13              	.Ltext0:
  14              		.cfi_sections	.debug_frame
  15              		.global	__aeabi_i2f
  16              		.global	__aeabi_fmul
  17              		.section	.text.can_processEncoder,"ax",%progbits
  18              		.align	1
  19              		.p2align 4,,15
  20              		.syntax unified
  21              		.thumb
  22              		.thumb_func
  23              		.fpu softvfp
  24              		.type	can_processEncoder, %function
  25              	can_processEncoder:
  26              	.LFB254:
  27              		.file 1 "./src/canBusProcess.c"
  28              		.loc 1 38 0
  29              		.cfi_startproc
  30              		@ args = 0, pretend = 0, frame = 0
  31              		@ frame_needed = 0, uses_anonymous_args = 0
  32              	.LVL0:
  33 0000 70B5     		push	{r4, r5, r6, lr}
  34              		.cfi_def_cfa_offset 16
  35              		.cfi_offset 4, -16
  36              		.cfi_offset 5, -12
  37              		.cfi_offset 6, -8
  38              		.cfi_offset 14, -4
  39              		.loc 1 38 0
  40 0002 0446     		mov	r4, r0
  41              		.loc 1 39 0
  42 0004 0088     		ldrh	r0, [r0]
  43              	.LVL1:
  44              	.LBB48:
  45              	.LBB49:
  46              	.LBB50:
  47              	.LBB51:
  48              		.file 2 ".//os/common/ext/ARM/CMSIS/Core/Include/cmsis_gcc.h"
  49              		.loc 2 493 0
  50 0006 2023     		movs	r3, #32
  51              	.LBE51:
  52              	.LBE50:
  53              	.LBE49:
  54              	.LBE48:
  55              		.loc 1 39 0
  56 0008 80B2     		uxth	r0, r0
  57              	.LVL2:
ARM GAS  C:\Users\14122\AppData\Local\Temp\ccDiMJzZ.s 			page 2


  58              	.LBB55:
  59              	.LBB54:
  60              	.LBB53:
  61              	.LBB52:
  62              		.loc 2 493 0
  63              		.syntax unified
  64              	@ 493 ".//os/common/ext/ARM/CMSIS/Core/Include/cmsis_gcc.h" 1
  65 000a 83F31188 		MSR basepri, r3
  66              	@ 0 "" 2
  67              	.LVL3:
  68              		.thumb
  69              		.syntax unified
  70              	.LBE52:
  71              	.LBE53:
  72              	.LBE54:
  73              	.LBE55:
  74              		.loc 1 42 0
  75 000e 0125     		movs	r5, #1
  76              		.loc 1 44 0
  77 0010 8E7C     		ldrb	r6, [r1, #18]	@ zero_extendqisi2
  78              		.loc 1 43 0
  79 0012 0B7C     		ldrb	r3, [r1, #16]	@ zero_extendqisi2
  80              		.loc 1 44 0
  81 0014 CA7C     		ldrb	r2, [r1, #19]	@ zero_extendqisi2
  82              		.loc 1 42 0
  83 0016 2575     		strb	r5, [r4, #20]
  84              		.loc 1 43 0
  85 0018 4D7C     		ldrb	r5, [r1, #17]	@ zero_extendqisi2
  86              		.loc 1 44 0
  87 001a 42EA0622 		orr	r2, r2, r6, lsl #8
  88              		.loc 1 43 0
  89 001e 45EA0325 		orr	r5, r5, r3, lsl #8
  90              		.loc 1 45 0
  91 0022 0E7D     		ldrb	r6, [r1, #20]	@ zero_extendqisi2
  92 0024 4B7D     		ldrb	r3, [r1, #21]	@ zero_extendqisi2
  93              		.loc 1 46 0
  94 0026 897D     		ldrb	r1, [r1, #22]	@ zero_extendqisi2
  95              	.LVL4:
  96              		.loc 1 45 0
  97 0028 43EA0623 		orr	r3, r3, r6, lsl #8
  98 002c 1BB2     		sxth	r3, r3
  99              		.loc 1 44 0
 100 002e 12B2     		sxth	r2, r2
 101              		.loc 1 43 0
 102 0030 2580     		strh	r5, [r4]	@ movhi
 103              		.loc 1 44 0
 104 0032 6280     		strh	r2, [r4, #2]	@ movhi
 105              		.loc 1 45 0
 106 0034 A380     		strh	r3, [r4, #4]	@ movhi
 107              		.loc 1 46 0
 108 0036 A171     		strb	r1, [r4, #6]
 109              		.loc 1 48 0
 110 0038 2388     		ldrh	r3, [r4]
 111 003a 1B1A     		subs	r3, r3, r0
 112 003c B3F5805F 		cmp	r3, #4096
 113 0040 17DC     		bgt	.L6
 114              		.loc 1 49 0
ARM GAS  C:\Users\14122\AppData\Local\Temp\ccDiMJzZ.s 			page 3


 115 0042 2388     		ldrh	r3, [r4]
 116 0044 181A     		subs	r0, r3, r0
 117              	.LVL5:
 118 0046 10F5805F 		cmn	r0, #4096
 119 004a 02DA     		bge	.L3
 120              		.loc 1 49 0 is_stmt 0 discriminator 1
 121 004c A368     		ldr	r3, [r4, #8]
 122 004e 0133     		adds	r3, r3, #1
 123 0050 A360     		str	r3, [r4, #8]
 124              	.L3:
 125              		.loc 1 51 0 is_stmt 1
 126 0052 A268     		ldr	r2, [r4, #8]
 127 0054 2388     		ldrh	r3, [r4]
 128 0056 03EB4233 		add	r3, r3, r2, lsl #13
 129 005a E360     		str	r3, [r4, #12]
 130              		.loc 1 52 0
 131 005c E068     		ldr	r0, [r4, #12]
 132 005e FFF7FEFF 		bl	__aeabi_i2f
 133              	.LVL6:
 134 0062 0649     		ldr	r1, .L7
 135 0064 FFF7FEFF 		bl	__aeabi_fmul
 136              	.LVL7:
 137              	.LBB56:
 138              	.LBB57:
 139              	.LBB58:
 140              	.LBB59:
 141              	.LBB60:
 142              		.loc 2 493 0
 143 0068 0023     		movs	r3, #0
 144              	.LBE60:
 145              	.LBE59:
 146              	.LBE58:
 147              	.LBE57:
 148              	.LBE56:
 149              		.loc 1 52 0
 150 006a 2061     		str	r0, [r4, #16]	@ float
 151              	.LVL8:
 152              	.LBB65:
 153              	.LBB64:
 154              	.LBB63:
 155              	.LBB62:
 156              	.LBB61:
 157              		.loc 2 493 0
 158              		.syntax unified
 159              	@ 493 ".//os/common/ext/ARM/CMSIS/Core/Include/cmsis_gcc.h" 1
 160 006c 83F31188 		MSR basepri, r3
 161              	@ 0 "" 2
 162              	.LVL9:
 163              		.thumb
 164              		.syntax unified
 165              	.LBE61:
 166              	.LBE62:
 167              	.LBE63:
 168              	.LBE64:
 169              	.LBE65:
 170              		.loc 1 55 0
 171 0070 70BD     		pop	{r4, r5, r6, pc}
ARM GAS  C:\Users\14122\AppData\Local\Temp\ccDiMJzZ.s 			page 4


 172              	.LVL10:
 173              	.L6:
 174              		.loc 1 48 0 discriminator 1
 175 0072 A368     		ldr	r3, [r4, #8]
 176 0074 013B     		subs	r3, r3, #1
 177 0076 A360     		str	r3, [r4, #8]
 178 0078 EBE7     		b	.L3
 179              	.L8:
 180 007a 00BF     		.align	2
 181              	.L7:
 182 007c DB0F493A 		.word	977866715
 183              		.cfi_endproc
 184              	.LFE254:
 185              		.size	can_processEncoder, .-can_processEncoder
 186              		.section	.text.can_rx,"ax",%progbits
 187              		.align	1
 188              		.p2align 4,,15
 189              		.syntax unified
 190              		.thumb
 191              		.thumb_func
 192              		.fpu softvfp
 193              		.type	can_rx, %function
 194              	can_rx:
 195              	.LFB256:
 196              		.loc 1 88 0
 197              		.cfi_startproc
 198              		@ args = 0, pretend = 0, frame = 48
 199              		@ frame_needed = 0, uses_anonymous_args = 0
 200              	.LVL11:
 201 0000 2DE9F043 		push	{r4, r5, r6, r7, r8, r9, lr}
 202              		.cfi_def_cfa_offset 28
 203              		.cfi_offset 4, -28
 204              		.cfi_offset 5, -24
 205              		.cfi_offset 6, -20
 206              		.cfi_offset 7, -16
 207              		.cfi_offset 8, -12
 208              		.cfi_offset 9, -8
 209              		.cfi_offset 14, -4
 210              	.LBB77:
 211              	.LBB78:
 212              		.file 3 ".//os/rt/include/chregistry.h"
 213              		.loc 3 136 0
 214 0004 274D     		ldr	r5, .L27
 215 0006 284A     		ldr	r2, .L27+4
 216 0008 AB69     		ldr	r3, [r5, #24]
 217              	.LBE78:
 218              	.LBE77:
 219              		.loc 1 88 0
 220 000a 8DB0     		sub	sp, sp, #52
 221              		.cfi_def_cfa_offset 80
 222              		.loc 1 96 0
 223 000c 00F11809 		add	r9, r0, #24
 224              	.LBB80:
 225              	.LBB79:
 226              		.loc 3 136 0
 227 0010 9A61     		str	r2, [r3, #24]
 228              	.LBE79:
ARM GAS  C:\Users\14122\AppData\Local\Temp\ccDiMJzZ.s 			page 5


 229              	.LBE80:
 230              		.loc 1 88 0
 231 0012 0446     		mov	r4, r0
 232              	.LVL12:
 233              	.LBB81:
 234              	.LBB82:
 235              	.LBB83:
 236              		.file 4 ".//os/rt/include/chevents.h"
 237              		.loc 4 194 0
 238 0014 01A9     		add	r1, sp, #4
 239              	.LVL13:
 240 0016 4846     		mov	r0, r9
 241              	.LVL14:
 242 0018 4FF0FF33 		mov	r3, #-1
 243 001c 0122     		movs	r2, #1
 244 001e FFF7FEFF 		bl	chEvtRegisterMaskWithFlags
 245              	.LVL15:
 246              	.LBE83:
 247              	.LBE82:
 248              	.LBE81:
 249              	.LBB84:
 250              	.LBB85:
 251              		.loc 1 77 0
 252 0022 224E     		ldr	r6, .L27+8
 253              		.loc 1 73 0
 254 0024 A6F11808 		sub	r8, r6, #24
 255              		.loc 1 69 0
 256 0028 A6F13007 		sub	r7, r6, #48
 257              	.L11:
 258              	.LBE85:
 259              	.LBE84:
 260              	.LBB87:
 261              	.LBB88:
 262              		.file 5 ".//os/rt/include/chthreads.h"
 263              		.loc 5 347 0
 264 002c AB69     		ldr	r3, [r5, #24]
 265              	.LBE88:
 266              	.LBE87:
 267              		.loc 1 97 0
 268 002e 93F82130 		ldrb	r3, [r3, #33]	@ zero_extendqisi2
 269 0032 5B07     		lsls	r3, r3, #29
 270 0034 2FD4     		bmi	.L26
 271              		.loc 1 99 0
 272 0036 C821     		movs	r1, #200
 273 0038 4FF0FF30 		mov	r0, #-1
 274 003c FFF7FEFF 		bl	chEvtWaitAnyTimeout
 275              	.LVL16:
 276 0040 0028     		cmp	r0, #0
 277 0042 F3D0     		beq	.L11
 278              	.L13:
 279              		.loc 1 101 0
 280 0044 0023     		movs	r3, #0
 281 0046 06AA     		add	r2, sp, #24
 282 0048 1946     		mov	r1, r3
 283 004a 2046     		mov	r0, r4
 284 004c FFF7FEFF 		bl	canReceiveTimeout
 285              	.LVL17:
ARM GAS  C:\Users\14122\AppData\Local\Temp\ccDiMJzZ.s 			page 6


 286 0050 0028     		cmp	r0, #0
 287 0052 EBD1     		bne	.L11
 288              	.LBB89:
 289              	.LBB86:
 290              		.loc 1 59 0
 291 0054 6FF40072 		mvn	r2, #512
 292 0058 BDF82030 		ldrh	r3, [sp, #32]
 293 005c C3F30A03 		ubfx	r3, r3, #0, #11
 294 0060 1344     		add	r3, r3, r2
 295 0062 032B     		cmp	r3, #3
 296 0064 EED8     		bhi	.L13
 297 0066 DFE803F0 		tbb	[pc, r3]
 298              	.L15:
 299 006a 11       		.byte	(.L14-.L15)/2
 300 006b 0C       		.byte	(.L16-.L15)/2
 301 006c 07       		.byte	(.L17-.L15)/2
 302 006d 02       		.byte	(.L18-.L15)/2
 303              		.p2align 1
 304              	.L18:
 305              		.loc 1 77 0
 306 006e 06A9     		add	r1, sp, #24
 307              	.LVL18:
 308 0070 3046     		mov	r0, r6
 309 0072 FFF7FEFF 		bl	can_processEncoder
 310              	.LVL19:
 311 0076 E5E7     		b	.L13
 312              	.L17:
 313              		.loc 1 73 0
 314 0078 06A9     		add	r1, sp, #24
 315              	.LVL20:
 316 007a 4046     		mov	r0, r8
 317 007c FFF7FEFF 		bl	can_processEncoder
 318              	.LVL21:
 319 0080 E0E7     		b	.L13
 320              	.L16:
 321              		.loc 1 69 0
 322 0082 06A9     		add	r1, sp, #24
 323              	.LVL22:
 324 0084 3846     		mov	r0, r7
 325 0086 FFF7FEFF 		bl	can_processEncoder
 326              	.LVL23:
 327 008a DBE7     		b	.L13
 328              	.L14:
 329              		.loc 1 62 0
 330 008c 06A9     		add	r1, sp, #24
 331              	.LVL24:
 332 008e 0848     		ldr	r0, .L27+12
 333 0090 FFF7FEFF 		bl	can_processEncoder
 334              	.LVL25:
 335 0094 D6E7     		b	.L13
 336              	.LVL26:
 337              	.L26:
 338              	.LBE86:
 339              	.LBE89:
 340              		.loc 1 107 0
 341 0096 01A9     		add	r1, sp, #4
 342              	.LVL27:
ARM GAS  C:\Users\14122\AppData\Local\Temp\ccDiMJzZ.s 			page 7


 343 0098 4846     		mov	r0, r9
 344 009a FFF7FEFF 		bl	chEvtUnregister
 345              	.LVL28:
 346              		.loc 1 108 0
 347 009e 0DB0     		add	sp, sp, #52
 348              		.cfi_def_cfa_offset 28
 349              		@ sp needed
 350 00a0 BDE8F083 		pop	{r4, r5, r6, r7, r8, r9, pc}
 351              	.LVL29:
 352              	.L28:
 353              		.align	2
 354              	.L27:
 355 00a4 00000000 		.word	ch
 356 00a8 00000000 		.word	.LC0
 357 00ac 48000000 		.word	.LANCHOR0+72
 358 00b0 00000000 		.word	.LANCHOR0
 359              		.cfi_endproc
 360              	.LFE256:
 361              		.size	can_rx, .-can_rx
 362              		.section	.text.can_getEncoder,"ax",%progbits
 363              		.align	1
 364              		.p2align 4,,15
 365              		.global	can_getEncoder
 366              		.syntax unified
 367              		.thumb
 368              		.thumb_func
 369              		.fpu softvfp
 370              		.type	can_getEncoder, %function
 371              	can_getEncoder:
 372              	.LFB253:
 373              		.loc 1 30 0
 374              		.cfi_startproc
 375              		@ args = 0, pretend = 0, frame = 0
 376              		@ frame_needed = 0, uses_anonymous_args = 0
 377              		@ link register save eliminated.
 378              		.loc 1 32 0
 379 0000 0048     		ldr	r0, .L30
 380 0002 7047     		bx	lr
 381              	.L31:
 382              		.align	2
 383              	.L30:
 384 0004 00000000 		.word	.LANCHOR0
 385              		.cfi_endproc
 386              	.LFE253:
 387              		.size	can_getEncoder, .-can_getEncoder
 388              		.section	.text.can_motorSetCurrent,"ax",%progbits
 389              		.align	1
 390              		.p2align 4,,15
 391              		.global	can_motorSetCurrent
 392              		.syntax unified
 393              		.thumb
 394              		.thumb_func
 395              		.fpu softvfp
 396              		.type	can_motorSetCurrent, %function
 397              	can_motorSetCurrent:
 398              	.LFB257:
 399              		.loc 1 123 0
ARM GAS  C:\Users\14122\AppData\Local\Temp\ccDiMJzZ.s 			page 8


 400              		.cfi_startproc
 401              		@ args = 4, pretend = 0, frame = 16
 402              		@ frame_needed = 0, uses_anonymous_args = 0
 403              	.LVL30:
 404 0000 70B5     		push	{r4, r5, r6, lr}
 405              		.cfi_def_cfa_offset 16
 406              		.cfi_offset 4, -16
 407              		.cfi_offset 5, -12
 408              		.cfi_offset 6, -8
 409              		.cfi_offset 14, -4
 410              		.loc 1 129 0
 411 0002 0826     		movs	r6, #8
 412              		.loc 1 123 0
 413 0004 84B0     		sub	sp, sp, #16
 414              		.cfi_def_cfa_offset 32
 415              		.loc 1 126 0
 416 0006 9DF80040 		ldrb	r4, [sp]	@ zero_extendqisi2
 417              		.loc 1 127 0
 418 000a 019D     		ldr	r5, [sp, #4]
 419              		.loc 1 129 0
 420 000c 04F0CF04 		and	r4, r4, #207
 421 0010 66F30304 		bfi	r4, r6, #0, #4
 422              		.loc 1 127 0
 423 0014 60F31C05 		bfi	r5, r0, #0, #29
 424              		.loc 1 129 0
 425 0018 8DF80040 		strb	r4, [sp]
 426              	.LVL31:
 427              		.loc 1 127 0
 428 001c 0195     		str	r5, [sp, #4]
 429              		.loc 1 123 0
 430 001e BDF92000 		ldrsh	r0, [sp, #32]
 431              	.LVL32:
 432              	.LBB90:
 433              	.LBB91:
 434              	.LBB92:
 435              	.LBB93:
 436              		.loc 2 493 0
 437 0022 2024     		movs	r4, #32
 438              		.syntax unified
 439              	@ 493 ".//os/common/ext/ARM/CMSIS/Core/Include/cmsis_gcc.h" 1
 440 0024 84F31188 		MSR basepri, r4
 441              	@ 0 "" 2
 442              	.LVL33:
 443              		.thumb
 444              		.syntax unified
 445              	.LBE93:
 446              	.LBE92:
 447              	.LBE91:
 448              	.LBE90:
 449              		.loc 1 134 0
 450 0028 41FA06F6 		asr	r6, r1, r6
 451              		.loc 1 137 0
 452 002c 1512     		asrs	r5, r2, #8
 453              		.loc 1 140 0
 454 002e 1C12     		asrs	r4, r3, #8
 455              		.loc 1 135 0
 456 0030 8DF80910 		strb	r1, [sp, #9]
ARM GAS  C:\Users\14122\AppData\Local\Temp\ccDiMJzZ.s 			page 9


 457              		.loc 1 143 0
 458 0034 0112     		asrs	r1, r0, #8
 459              	.LVL34:
 460 0036 8DF80E10 		strb	r1, [sp, #14]
 461              		.loc 1 134 0
 462 003a 8DF80860 		strb	r6, [sp, #8]
 463              		.loc 1 138 0
 464 003e 8DF80B20 		strb	r2, [sp, #11]
 465              		.loc 1 137 0
 466 0042 8DF80A50 		strb	r5, [sp, #10]
 467              		.loc 1 141 0
 468 0046 8DF80D30 		strb	r3, [sp, #13]
 469              		.loc 1 140 0
 470 004a 8DF80C40 		strb	r4, [sp, #12]
 471              		.loc 1 144 0
 472 004e 8DF80F00 		strb	r0, [sp, #15]
 473              	.LVL35:
 474              	.LBB94:
 475              	.LBB95:
 476              	.LBB96:
 477              	.LBB97:
 478              	.LBB98:
 479              		.loc 2 493 0
 480 0052 0021     		movs	r1, #0
 481              		.syntax unified
 482              	@ 493 ".//os/common/ext/ARM/CMSIS/Core/Include/cmsis_gcc.h" 1
 483 0054 81F31188 		MSR basepri, r1
 484              	@ 0 "" 2
 485              	.LVL36:
 486              		.thumb
 487              		.syntax unified
 488              	.LBE98:
 489              	.LBE97:
 490              	.LBE96:
 491              	.LBE95:
 492              	.LBE94:
 493              		.loc 1 148 0
 494 0058 C823     		movs	r3, #200
 495              	.LVL37:
 496 005a 6A46     		mov	r2, sp
 497              	.LVL38:
 498 005c 0248     		ldr	r0, .L34
 499 005e FFF7FEFF 		bl	canTransmitTimeout
 500              	.LVL39:
 501              		.loc 1 149 0
 502 0062 04B0     		add	sp, sp, #16
 503              		.cfi_def_cfa_offset 16
 504              		@ sp needed
 505 0064 70BD     		pop	{r4, r5, r6, pc}
 506              	.LVL40:
 507              	.L35:
 508 0066 00BF     		.align	2
 509              	.L34:
 510 0068 00000000 		.word	CAND1
 511              		.cfi_endproc
 512              	.LFE257:
 513              		.size	can_motorSetCurrent, .-can_motorSetCurrent
ARM GAS  C:\Users\14122\AppData\Local\Temp\ccDiMJzZ.s 			page 10


 514              		.section	.text.can_processInit,"ax",%progbits
 515              		.align	1
 516              		.p2align 4,,15
 517              		.global	can_processInit
 518              		.syntax unified
 519              		.thumb
 520              		.thumb_func
 521              		.fpu softvfp
 522              		.type	can_processInit, %function
 523              	can_processInit:
 524              	.LFB258:
 525              		.loc 1 153 0
 526              		.cfi_startproc
 527              		@ args = 0, pretend = 0, frame = 0
 528              		@ frame_needed = 0, uses_anonymous_args = 0
 529 0000 70B5     		push	{r4, r5, r6, lr}
 530              		.cfi_def_cfa_offset 16
 531              		.cfi_offset 4, -16
 532              		.cfi_offset 5, -12
 533              		.cfi_offset 6, -8
 534              		.cfi_offset 14, -4
 535              		.loc 1 154 0
 536 0002 6022     		movs	r2, #96
 537 0004 0021     		movs	r1, #0
 538              		.loc 1 153 0
 539 0006 82B0     		sub	sp, sp, #8
 540              		.cfi_def_cfa_offset 24
 541              		.loc 1 154 0
 542 0008 1748     		ldr	r0, .L40
 543 000a FFF7FEFF 		bl	memset
 544              	.LVL41:
 545 000e 0022     		movs	r2, #0
 546 0010 164D     		ldr	r5, .L40+4
 547              		.loc 1 163 0
 548 0012 1646     		mov	r6, r2
 549 0014 2946     		mov	r1, r5
 550              	.LVL42:
 551              	.L37:
 552              		.loc 1 159 0 discriminator 3
 553 0016 02EB4204 		add	r4, r2, r2, lsl #1
 554 001a 05EB8400 		add	r0, r5, r4, lsl #2
 555              		.loc 1 160 0 discriminator 3
 556 001e 8378     		ldrb	r3, [r0, #2]	@ zero_extendqisi2
 557              		.loc 1 159 0 discriminator 3
 558 0020 25F82420 		strh	r2, [r5, r4, lsl #2]	@ movhi
 559              		.loc 1 161 0 discriminator 3
 560 0024 03F0FE03 		and	r3, r3, #254
 561              		.loc 1 162 0 discriminator 3
 562 0028 43F00203 		orr	r3, r3, #2
 563 002c 0132     		adds	r2, r2, #1
 564              	.LVL43:
 565 002e 6FF38203 		bfc	r3, #2, #1
 566              		.loc 1 157 0 discriminator 3
 567 0032 1C2A     		cmp	r2, #28
 568              		.loc 1 162 0 discriminator 3
 569 0034 8370     		strb	r3, [r0, #2]
 570              		.loc 1 164 0 discriminator 3
ARM GAS  C:\Users\14122\AppData\Local\Temp\ccDiMJzZ.s 			page 11


 571 0036 C1E90166 		strd	r6, r6, [r1, #4]
 572 003a 01F10C01 		add	r1, r1, #12
 573              		.loc 1 157 0 discriminator 3
 574 003e EAD1     		bne	.L37
 575              		.loc 1 166 0
 576 0040 0B4C     		ldr	r4, .L40+8
 577 0042 0A4B     		ldr	r3, .L40+4
 578 0044 2046     		mov	r0, r4
 579 0046 0E21     		movs	r1, #14
 580 0048 FFF7FEFF 		bl	canSTM32SetFilters
 581              	.LVL44:
 582              		.loc 1 168 0
 583 004c 2046     		mov	r0, r4
 584 004e 0949     		ldr	r1, .L40+12
 585 0050 FFF7FEFF 		bl	canStart
 586              	.LVL45:
 587              		.loc 1 172 0
 588 0054 0094     		str	r4, [sp]
 589 0056 084B     		ldr	r3, .L40+16
 590 0058 8722     		movs	r2, #135
 591 005a 4FF4E471 		mov	r1, #456
 592 005e 0748     		ldr	r0, .L40+20
 593 0060 FFF7FEFF 		bl	chThdCreateStatic
 594              	.LVL46:
 595              		.loc 1 174 0
 596 0064 02B0     		add	sp, sp, #8
 597              		.cfi_def_cfa_offset 16
 598              		@ sp needed
 599 0066 70BD     		pop	{r4, r5, r6, pc}
 600              	.L41:
 601              		.align	2
 602              	.L40:
 603 0068 00000000 		.word	.LANCHOR0
 604 006c 00000000 		.word	.LANCHOR1
 605 0070 00000000 		.word	CAND1
 606 0074 00000000 		.word	.LANCHOR2
 607 0078 00000000 		.word	can_rx
 608 007c 00000000 		.word	.LANCHOR3
 609              		.cfi_endproc
 610              	.LFE258:
 611              		.size	can_processInit, .-can_processInit
 612              		.global	_encoder
 613              		.section	.bss._encoder,"aw",%nobits
 614              		.align	2
 615              		.set	.LANCHOR0,. + 0
 616              		.type	_encoder, %object
 617              		.size	_encoder, 96
 618              	_encoder:
 619 0000 00000000 		.space	96
 619      00000000 
 619      00000000 
 619      00000000 
 619      00000000 
 620              		.section	.bss.can_rx1_wa,"aw",%nobits
 621              		.align	3
 622              		.set	.LANCHOR3,. + 0
 623              		.type	can_rx1_wa, %object
ARM GAS  C:\Users\14122\AppData\Local\Temp\ccDiMJzZ.s 			page 12


 624              		.size	can_rx1_wa, 456
 625              	can_rx1_wa:
 626 0000 00000000 		.space	456
 626      00000000 
 626      00000000 
 626      00000000 
 626      00000000 
 627              		.section	.bss.canfilter,"aw",%nobits
 628              		.align	2
 629              		.set	.LANCHOR1,. + 0
 630              		.type	canfilter, %object
 631              		.size	canfilter, 336
 632              	canfilter:
 633 0000 00000000 		.space	336
 633      00000000 
 633      00000000 
 633      00000000 
 633      00000000 
 634              		.section	.rodata.can_rx.str1.4,"aMS",%progbits,1
 635              		.align	2
 636              	.LC0:
 637 0000 63616E20 		.ascii	"can receiver\000"
 637      72656365 
 637      69766572 
 637      00
 638              		.section	.rodata.cancfg,"a",%progbits
 639              		.align	2
 640              		.set	.LANCHOR2,. + 0
 641              		.type	cancfg, %object
 642              		.size	cancfg, 8
 643              	cancfg:
 644 0000 64000000 		.word	100
 645 0004 02001800 		.word	1572866
 646              		.text
 647              	.Letext0:
 648              		.file 6 "c:\\chibistudio\\tools\\gnu tools arm embedded\\7.0 2017q4\\lib\\gcc\\arm-none-eabi\\7.2.
 649              		.file 7 "c:\\chibistudio\\tools\\gnu tools arm embedded\\7.0 2017q4\\arm-none-eabi\\include\\machi
 650              		.file 8 "c:\\chibistudio\\tools\\gnu tools arm embedded\\7.0 2017q4\\arm-none-eabi\\include\\sys\\
 651              		.file 9 ".//os/common/ports/ARMCMx/compilers/GCC/chtypes.h"
 652              		.file 10 ".//os/rt/include/chsystypes.h"
 653              		.file 11 ".//os/rt/include/chschd.h"
 654              		.file 12 ".//os/rt/include/chtime.h"
 655              		.file 13 ".//os/common/ext/ARM/CMSIS/Core/Include/core_cm3.h"
 656              		.file 14 ".//os/common/ext/ST/STM32F1xx/system_stm32f1xx.h"
 657              		.file 15 ".//os/common/ext/ST/STM32F1xx/stm32f103xb.h"
 658              		.file 16 ".//os/common/ports/ARMCMx/chcore.h"
 659              		.file 17 ".//os/common/ports/ARMCMx/chcore_v7m.h"
 660              		.file 18 ".//os/rt/include/chsem.h"
 661              		.file 19 ".//os/rt/include/chmtx.h"
 662              		.file 20 ".//os/rt/include/chsys.h"
 663              		.file 21 ".//os/lib/include/chmemcore.h"
 664              		.file 22 ".//os/lib/include/chmempools.h"
 665              		.file 23 ".//os/lib/include/chfactory.h"
 666              		.file 24 ".//os/hal/ports/STM32/LLD/DMAv1/stm32_dma.h"
 667              		.file 25 ".//os/hal/include/hal_pal.h"
 668              		.file 26 ".//os/hal/ports/STM32/LLD/GPIOv1/hal_pal_lld.h"
 669              		.file 27 ".//os/hal/include/hal_can.h"
ARM GAS  C:\Users\14122\AppData\Local\Temp\ccDiMJzZ.s 			page 13


 670              		.file 28 ".//os/hal/ports/STM32/LLD/CANv1/hal_can_lld.h"
 671              		.file 29 ".//os/hal/include/hal_uart.h"
 672              		.file 30 ".//os/hal/ports/STM32/LLD/USARTv1/hal_uart_lld.h"
 673              		.file 31 "c:\\chibistudio\\tools\\gnu tools arm embedded\\7.0 2017q4\\arm-none-eabi\\include\\sys\
 674              		.file 32 "c:\\chibistudio\\tools\\gnu tools arm embedded\\7.0 2017q4\\arm-none-eabi\\include\\sys\
 675              		.file 33 "c:\\chibistudio\\tools\\gnu tools arm embedded\\7.0 2017q4\\arm-none-eabi\\include\\sys\
 676              		.file 34 "./src/canBusProcess.h"
 677              		.file 35 "<built-in>"