ARM GAS  C:\Users\14122\AppData\Local\Temp\ccQMY3Ij.s 			page 1


   1              		.cpu cortex-m3
   2              		.eabi_attribute 20, 1
   3              		.eabi_attribute 21, 1
   4              		.eabi_attribute 23, 3
   5              		.eabi_attribute 24, 1
   6              		.eabi_attribute 25, 1
   7              		.eabi_attribute 26, 1
   8              		.eabi_attribute 30, 2
   9              		.eabi_attribute 34, 1
  10              		.eabi_attribute 18, 4
  11              		.file	"chcond.c"
  12              		.text
  13              	.Ltext0:
  14              		.cfi_sections	.debug_frame
  15              		.section	.text.chCondObjectInit,"ax",%progbits
  16              		.align	1
  17              		.p2align 4,,15
  18              		.global	chCondObjectInit
  19              		.syntax unified
  20              		.thumb
  21              		.thumb_func
  22              		.fpu softvfp
  23              		.type	chCondObjectInit, %function
  24              	chCondObjectInit:
  25              	.LFB220:
  26              		.file 1 ".//os/rt/src/chcond.c"
  27              		.loc 1 75 0
  28              		.cfi_startproc
  29              		@ args = 0, pretend = 0, frame = 0
  30              		@ frame_needed = 0, uses_anonymous_args = 0
  31              		@ link register save eliminated.
  32              	.LVL0:
  33              	.LBB89:
  34              	.LBB90:
  35              		.file 2 ".//os/rt/include/chschd.h"
  36              		.loc 2 540 0
  37 0000 C0E90000 		strd	r0, r0, [r0]
  38              	.LVL1:
  39              	.LBE90:
  40              	.LBE89:
  41              		.loc 1 80 0
  42 0004 7047     		bx	lr
  43              		.cfi_endproc
  44              	.LFE220:
  45              		.size	chCondObjectInit, .-chCondObjectInit
  46 0006 00BF     		.section	.text.chCondSignal,"ax",%progbits
  47              		.align	1
  48              		.p2align 4,,15
  49              		.global	chCondSignal
  50              		.syntax unified
  51              		.thumb
  52              		.thumb_func
  53              		.fpu softvfp
  54              		.type	chCondSignal, %function
  55              	chCondSignal:
  56              	.LFB221:
  57              		.loc 1 89 0
ARM GAS  C:\Users\14122\AppData\Local\Temp\ccQMY3Ij.s 			page 2


  58              		.cfi_startproc
  59              		@ args = 0, pretend = 0, frame = 0
  60              		@ frame_needed = 0, uses_anonymous_args = 0
  61              	.LVL2:
  62              	.LBB91:
  63              	.LBB92:
  64              	.LBB93:
  65              	.LBB94:
  66              		.file 3 ".//os/common/ext/ARM/CMSIS/Core/Include/cmsis_gcc.h"
  67              		.loc 3 493 0
  68 0000 2023     		movs	r3, #32
  69              		.syntax unified
  70              	@ 493 ".//os/common/ext/ARM/CMSIS/Core/Include/cmsis_gcc.h" 1
  71 0002 83F31188 		MSR basepri, r3
  72              	@ 0 "" 2
  73              	.LVL3:
  74              		.thumb
  75              		.syntax unified
  76              	.LBE94:
  77              	.LBE93:
  78              	.LBE92:
  79              	.LBE91:
  80              	.LBB95:
  81              	.LBB96:
  82              		.loc 2 566 0
  83 0006 0268     		ldr	r2, [r0]
  84              	.LVL4:
  85              	.LBE96:
  86              	.LBE95:
  87              		.loc 1 94 0
  88 0008 9042     		cmp	r0, r2
  89 000a 0CD0     		beq	.L6
  90 000c 0346     		mov	r3, r0
  91              	.LVL5:
  92              		.loc 1 89 0
  93 000e 10B5     		push	{r4, lr}
  94              		.cfi_def_cfa_offset 8
  95              		.cfi_offset 4, -8
  96              		.cfi_offset 14, -4
  97              	.LBB97:
  98              	.LBB98:
  99              		.loc 2 609 0
 100 0010 1468     		ldr	r4, [r2]
 101              	.LBE98:
 102              	.LBE97:
 103              		.loc 1 95 0
 104 0012 1046     		mov	r0, r2
 105              	.LVL6:
 106              	.LBB101:
 107              	.LBB99:
 108              		.loc 2 609 0
 109 0014 1C60     		str	r4, [r3]
 110              	.LBE99:
 111              	.LBE101:
 112              		.loc 1 95 0
 113 0016 0021     		movs	r1, #0
 114              	.LBB102:
ARM GAS  C:\Users\14122\AppData\Local\Temp\ccQMY3Ij.s 			page 3


 115              	.LBB100:
 116              		.loc 2 610 0
 117 0018 6360     		str	r3, [r4, #4]
 118              	.LVL7:
 119              	.LBE100:
 120              	.LBE102:
 121              		.loc 1 95 0
 122 001a FFF7FEFF 		bl	chSchWakeupS
 123              	.LVL8:
 124              	.LBB103:
 125              	.LBB104:
 126              	.LBB105:
 127              	.LBB106:
 128              	.LBB107:
 129              		.loc 3 493 0
 130 001e 0023     		movs	r3, #0
 131              		.syntax unified
 132              	@ 493 ".//os/common/ext/ARM/CMSIS/Core/Include/cmsis_gcc.h" 1
 133 0020 83F31188 		MSR basepri, r3
 134              	@ 0 "" 2
 135              	.LVL9:
 136              		.thumb
 137              		.syntax unified
 138              	.LBE107:
 139              	.LBE106:
 140              	.LBE105:
 141              	.LBE104:
 142              	.LBE103:
 143              		.loc 1 98 0
 144 0024 10BD     		pop	{r4, pc}
 145              	.LVL10:
 146              	.L6:
 147              		.cfi_def_cfa_offset 0
 148              		.cfi_restore 4
 149              		.cfi_restore 14
 150              	.LBB112:
 151              	.LBB111:
 152              	.LBB110:
 153              	.LBB109:
 154              	.LBB108:
 155              		.loc 3 493 0
 156 0026 0023     		movs	r3, #0
 157              		.syntax unified
 158              	@ 493 ".//os/common/ext/ARM/CMSIS/Core/Include/cmsis_gcc.h" 1
 159 0028 83F31188 		MSR basepri, r3
 160              	@ 0 "" 2
 161              	.LVL11:
 162              		.thumb
 163              		.syntax unified
 164 002c 7047     		bx	lr
 165              	.LBE108:
 166              	.LBE109:
 167              	.LBE110:
 168              	.LBE111:
 169              	.LBE112:
 170              		.cfi_endproc
 171              	.LFE221:
ARM GAS  C:\Users\14122\AppData\Local\Temp\ccQMY3Ij.s 			page 4


 172              		.size	chCondSignal, .-chCondSignal
 173 002e 00BF     		.section	.text.chCondSignalI,"ax",%progbits
 174              		.align	1
 175              		.p2align 4,,15
 176              		.global	chCondSignalI
 177              		.syntax unified
 178              		.thumb
 179              		.thumb_func
 180              		.fpu softvfp
 181              		.type	chCondSignalI, %function
 182              	chCondSignalI:
 183              	.LFB222:
 184              		.loc 1 111 0
 185              		.cfi_startproc
 186              		@ args = 0, pretend = 0, frame = 0
 187              		@ frame_needed = 0, uses_anonymous_args = 0
 188              		@ link register save eliminated.
 189              	.LVL12:
 190              	.LBB113:
 191              	.LBB114:
 192              		.loc 2 566 0
 193 0000 0268     		ldr	r2, [r0]
 194              	.LVL13:
 195              	.LBE114:
 196              	.LBE113:
 197              		.loc 1 116 0
 198 0002 9042     		cmp	r0, r2
 199 0004 0AD0     		beq	.L9
 200              		.loc 1 111 0
 201 0006 10B4     		push	{r4}
 202              		.cfi_def_cfa_offset 4
 203              		.cfi_offset 4, -4
 204 0008 0346     		mov	r3, r0
 205              	.LVL14:
 206              	.LBB115:
 207              		.loc 1 118 0
 208 000a 0024     		movs	r4, #0
 209              	.LBB116:
 210              	.LBB117:
 211              		.loc 2 609 0
 212 000c 1168     		ldr	r1, [r2]
 213              	.LBE117:
 214              	.LBE116:
 215              		.loc 1 119 0
 216 000e 1046     		mov	r0, r2
 217              	.LVL15:
 218              	.LBB119:
 219              	.LBB118:
 220              		.loc 2 609 0
 221 0010 1960     		str	r1, [r3]
 222              		.loc 2 610 0
 223 0012 4B60     		str	r3, [r1, #4]
 224              	.LVL16:
 225              	.LBE118:
 226              	.LBE119:
 227              		.loc 1 118 0
 228 0014 5462     		str	r4, [r2, #36]
ARM GAS  C:\Users\14122\AppData\Local\Temp\ccQMY3Ij.s 			page 5


 229              	.LBE115:
 230              		.loc 1 121 0
 231 0016 10BC     		pop	{r4}
 232              		.cfi_restore 4
 233              		.cfi_def_cfa_offset 0
 234              	.LBB120:
 235              		.loc 1 119 0
 236 0018 FFF7FEBF 		b	chSchReadyI
 237              	.LVL17:
 238              	.L9:
 239 001c 7047     		bx	lr
 240              	.LBE120:
 241              		.cfi_endproc
 242              	.LFE222:
 243              		.size	chCondSignalI, .-chCondSignalI
 244 001e 00BF     		.section	.text.chCondBroadcast,"ax",%progbits
 245              		.align	1
 246              		.p2align 4,,15
 247              		.global	chCondBroadcast
 248              		.syntax unified
 249              		.thumb
 250              		.thumb_func
 251              		.fpu softvfp
 252              		.type	chCondBroadcast, %function
 253              	chCondBroadcast:
 254              	.LFB223:
 255              		.loc 1 130 0
 256              		.cfi_startproc
 257              		@ args = 0, pretend = 0, frame = 0
 258              		@ frame_needed = 0, uses_anonymous_args = 0
 259              	.LVL18:
 260 0000 38B5     		push	{r3, r4, r5, lr}
 261              		.cfi_def_cfa_offset 16
 262              		.cfi_offset 3, -16
 263              		.cfi_offset 4, -12
 264              		.cfi_offset 5, -8
 265              		.cfi_offset 14, -4
 266              	.LBB121:
 267              	.LBB122:
 268              	.LBB123:
 269              	.LBB124:
 270              		.loc 3 493 0
 271 0002 2023     		movs	r3, #32
 272              		.syntax unified
 273              	@ 493 ".//os/common/ext/ARM/CMSIS/Core/Include/cmsis_gcc.h" 1
 274 0004 83F31188 		MSR basepri, r3
 275              	@ 0 "" 2
 276              	.LVL19:
 277              		.thumb
 278              		.syntax unified
 279              	.LBE124:
 280              	.LBE123:
 281              	.LBE122:
 282              	.LBE121:
 283              	.LBB125:
 284              	.LBB126:
 285              	.LBB127:
ARM GAS  C:\Users\14122\AppData\Local\Temp\ccQMY3Ij.s 			page 6


 286              	.LBB128:
 287              		.loc 2 566 0
 288 0008 0368     		ldr	r3, [r0]
 289              	.LVL20:
 290              	.LBE128:
 291              	.LBE127:
 292              		.loc 1 157 0
 293 000a 9842     		cmp	r0, r3
 294 000c 0CD0     		beq	.L15
 295 000e 0446     		mov	r4, r0
 296              		.loc 1 158 0
 297 0010 6FF00105 		mvn	r5, #1
 298              	.LVL21:
 299              	.L16:
 300              	.LBB130:
 301              	.LBB131:
 302              		.loc 2 609 0
 303 0014 1A68     		ldr	r2, [r3]
 304              	.LBE131:
 305              	.LBE130:
 306              		.loc 1 158 0
 307 0016 1846     		mov	r0, r3
 308              	.LBB133:
 309              	.LBB132:
 310              		.loc 2 609 0
 311 0018 2260     		str	r2, [r4]
 312              		.loc 2 610 0
 313 001a 5460     		str	r4, [r2, #4]
 314              	.LVL22:
 315              	.LBE132:
 316              	.LBE133:
 317              		.loc 1 158 0
 318 001c FFF7FEFF 		bl	chSchReadyI
 319              	.LVL23:
 320              	.LBB134:
 321              	.LBB129:
 322              		.loc 2 566 0
 323 0020 2368     		ldr	r3, [r4]
 324              	.LBE129:
 325              	.LBE134:
 326              		.loc 1 158 0
 327 0022 4562     		str	r5, [r0, #36]
 328              		.loc 1 157 0
 329 0024 A342     		cmp	r3, r4
 330 0026 F5D1     		bne	.L16
 331              	.LVL24:
 332              	.L15:
 333              	.LBE126:
 334              	.LBE125:
 335              		.loc 1 134 0
 336 0028 FFF7FEFF 		bl	chSchRescheduleS
 337              	.LVL25:
 338              	.LBB135:
 339              	.LBB136:
 340              	.LBB137:
 341              	.LBB138:
 342              	.LBB139:
ARM GAS  C:\Users\14122\AppData\Local\Temp\ccQMY3Ij.s 			page 7


 343              		.loc 3 493 0
 344 002c 0023     		movs	r3, #0
 345              		.syntax unified
 346              	@ 493 ".//os/common/ext/ARM/CMSIS/Core/Include/cmsis_gcc.h" 1
 347 002e 83F31188 		MSR basepri, r3
 348              	@ 0 "" 2
 349              	.LVL26:
 350              		.thumb
 351              		.syntax unified
 352              	.LBE139:
 353              	.LBE138:
 354              	.LBE137:
 355              	.LBE136:
 356              	.LBE135:
 357              		.loc 1 136 0
 358 0032 38BD     		pop	{r3, r4, r5, pc}
 359              		.cfi_endproc
 360              	.LFE223:
 361              		.size	chCondBroadcast, .-chCondBroadcast
 362              		.section	.text.chCondBroadcastI,"ax",%progbits
 363              		.align	1
 364              		.p2align 4,,15
 365              		.global	chCondBroadcastI
 366              		.syntax unified
 367              		.thumb
 368              		.thumb_func
 369              		.fpu softvfp
 370              		.type	chCondBroadcastI, %function
 371              	chCondBroadcastI:
 372              	.LFB224:
 373              		.loc 1 149 0
 374              		.cfi_startproc
 375              		@ args = 0, pretend = 0, frame = 0
 376              		@ frame_needed = 0, uses_anonymous_args = 0
 377              	.LVL27:
 378 0000 38B5     		push	{r3, r4, r5, lr}
 379              		.cfi_def_cfa_offset 16
 380              		.cfi_offset 3, -16
 381              		.cfi_offset 4, -12
 382              		.cfi_offset 5, -8
 383              		.cfi_offset 14, -4
 384              	.LBB140:
 385              	.LBB141:
 386              		.loc 2 566 0
 387 0002 0368     		ldr	r3, [r0]
 388              	.LVL28:
 389              	.LBE141:
 390              	.LBE140:
 391              		.loc 1 157 0
 392 0004 8342     		cmp	r3, r0
 393 0006 0CD0     		beq	.L19
 394 0008 0446     		mov	r4, r0
 395              		.loc 1 158 0
 396 000a 6FF00105 		mvn	r5, #1
 397              	.LVL29:
 398              	.L21:
 399              	.LBB143:
ARM GAS  C:\Users\14122\AppData\Local\Temp\ccQMY3Ij.s 			page 8


 400              	.LBB144:
 401              		.loc 2 609 0
 402 000e 1A68     		ldr	r2, [r3]
 403              	.LBE144:
 404              	.LBE143:
 405              		.loc 1 158 0
 406 0010 1846     		mov	r0, r3
 407              	.LBB146:
 408              	.LBB145:
 409              		.loc 2 609 0
 410 0012 2260     		str	r2, [r4]
 411              		.loc 2 610 0
 412 0014 5460     		str	r4, [r2, #4]
 413              	.LVL30:
 414              	.LBE145:
 415              	.LBE146:
 416              		.loc 1 158 0
 417 0016 FFF7FEFF 		bl	chSchReadyI
 418              	.LVL31:
 419              	.LBB147:
 420              	.LBB142:
 421              		.loc 2 566 0
 422 001a 2368     		ldr	r3, [r4]
 423              	.LBE142:
 424              	.LBE147:
 425              		.loc 1 158 0
 426 001c 4562     		str	r5, [r0, #36]
 427              		.loc 1 157 0
 428 001e A342     		cmp	r3, r4
 429 0020 F5D1     		bne	.L21
 430              	.LVL32:
 431              	.L19:
 432              		.loc 1 160 0
 433 0022 38BD     		pop	{r3, r4, r5, pc}
 434              		.cfi_endproc
 435              	.LFE224:
 436              		.size	chCondBroadcastI, .-chCondBroadcastI
 437              		.section	.text.chCondWaitS,"ax",%progbits
 438              		.align	1
 439              		.p2align 4,,15
 440              		.global	chCondWaitS
 441              		.syntax unified
 442              		.thumb
 443              		.thumb_func
 444              		.fpu softvfp
 445              		.type	chCondWaitS, %function
 446              	chCondWaitS:
 447              	.LFB226:
 448              		.loc 1 205 0
 449              		.cfi_startproc
 450              		@ args = 0, pretend = 0, frame = 0
 451              		@ frame_needed = 0, uses_anonymous_args = 0
 452              	.LVL33:
 453 0000 F8B5     		push	{r3, r4, r5, r6, r7, lr}
 454              		.cfi_def_cfa_offset 24
 455              		.cfi_offset 3, -24
 456              		.cfi_offset 4, -20
ARM GAS  C:\Users\14122\AppData\Local\Temp\ccQMY3Ij.s 			page 9


 457              		.cfi_offset 5, -16
 458              		.cfi_offset 6, -12
 459              		.cfi_offset 7, -8
 460              		.cfi_offset 14, -4
 461              		.loc 1 205 0
 462 0002 0546     		mov	r5, r0
 463              		.loc 1 206 0
 464 0004 104B     		ldr	r3, .L31
 465              		.loc 1 220 0
 466 0006 2E46     		mov	r6, r5
 467              		.loc 1 206 0
 468 0008 9C69     		ldr	r4, [r3, #24]
 469              	.LVL34:
 470              	.LBB148:
 471              	.LBB149:
 472              		.file 4 ".//os/rt/include/chmtx.h"
 473              		.loc 4 145 0
 474 000a A76B     		ldr	r7, [r4, #56]
 475              	.LBE149:
 476              	.LBE148:
 477              		.loc 1 215 0
 478 000c 3846     		mov	r0, r7
 479              	.LVL35:
 480 000e FFF7FEFF 		bl	chMtxUnlockS
 481              	.LVL36:
 482              		.loc 1 220 0
 483 0012 2B46     		mov	r3, r5
 484              		.loc 1 219 0
 485 0014 6562     		str	r5, [r4, #36]
 486 0016 03E0     		b	.L26
 487              	.LVL37:
 488              	.L30:
 489              	.LBB150:
 490              	.LBB151:
 491              		.loc 2 591 0
 492 0018 9968     		ldr	r1, [r3, #8]
 493 001a A268     		ldr	r2, [r4, #8]
 494 001c 9142     		cmp	r1, r2
 495 001e 10D3     		bcc	.L29
 496              	.LVL38:
 497              	.L26:
 498              		.loc 2 590 0
 499 0020 1B68     		ldr	r3, [r3]
 500              	.LVL39:
 501              		.loc 2 591 0
 502 0022 9D42     		cmp	r5, r3
 503 0024 F8D1     		bne	.L30
 504              	.L25:
 505              		.loc 2 593 0
 506 0026 7368     		ldr	r3, [r6, #4]
 507              	.LVL40:
 508              	.LBE151:
 509              	.LBE150:
 510              		.loc 1 221 0
 511 0028 0720     		movs	r0, #7
 512              	.LBB154:
 513              	.LBB152:
ARM GAS  C:\Users\14122\AppData\Local\Temp\ccQMY3Ij.s 			page 10


 514              		.loc 2 593 0
 515 002a C4E90063 		strd	r6, r3, [r4]
 516              		.loc 2 594 0
 517 002e 1C60     		str	r4, [r3]
 518              		.loc 2 595 0
 519 0030 7460     		str	r4, [r6, #4]
 520              	.LVL41:
 521              	.LBE152:
 522              	.LBE154:
 523              		.loc 1 221 0
 524 0032 FFF7FEFF 		bl	chSchGoSleepS
 525              	.LVL42:
 526              		.loc 1 222 0
 527 0036 646A     		ldr	r4, [r4, #36]
 528              	.LVL43:
 529              		.loc 1 223 0
 530 0038 3846     		mov	r0, r7
 531 003a FFF7FEFF 		bl	chMtxLockS
 532              	.LVL44:
 533              		.loc 1 226 0
 534 003e 2046     		mov	r0, r4
 535 0040 F8BD     		pop	{r3, r4, r5, r6, r7, pc}
 536              	.LVL45:
 537              	.L29:
 538              	.LBB155:
 539              	.LBB153:
 540              		.loc 2 590 0
 541 0042 1E46     		mov	r6, r3
 542 0044 EFE7     		b	.L25
 543              	.L32:
 544 0046 00BF     		.align	2
 545              	.L31:
 546 0048 00000000 		.word	ch
 547              	.LBE153:
 548              	.LBE155:
 549              		.cfi_endproc
 550              	.LFE226:
 551              		.size	chCondWaitS, .-chCondWaitS
 552              		.section	.text.chCondWait,"ax",%progbits
 553              		.align	1
 554              		.p2align 4,,15
 555              		.global	chCondWait
 556              		.syntax unified
 557              		.thumb
 558              		.thumb_func
 559              		.fpu softvfp
 560              		.type	chCondWait, %function
 561              	chCondWait:
 562              	.LFB225:
 563              		.loc 1 179 0
 564              		.cfi_startproc
 565              		@ args = 0, pretend = 0, frame = 0
 566              		@ frame_needed = 0, uses_anonymous_args = 0
 567              	.LVL46:
 568 0000 08B5     		push	{r3, lr}
 569              		.cfi_def_cfa_offset 8
 570              		.cfi_offset 3, -8
ARM GAS  C:\Users\14122\AppData\Local\Temp\ccQMY3Ij.s 			page 11


 571              		.cfi_offset 14, -4
 572              	.LBB156:
 573              	.LBB157:
 574              	.LBB158:
 575              	.LBB159:
 576              		.loc 3 493 0
 577 0002 2023     		movs	r3, #32
 578              		.syntax unified
 579              	@ 493 ".//os/common/ext/ARM/CMSIS/Core/Include/cmsis_gcc.h" 1
 580 0004 83F31188 		MSR basepri, r3
 581              	@ 0 "" 2
 582              	.LVL47:
 583              		.thumb
 584              		.syntax unified
 585              	.LBE159:
 586              	.LBE158:
 587              	.LBE157:
 588              	.LBE156:
 589              		.loc 1 183 0
 590 0008 FFF7FEFF 		bl	chCondWaitS
 591              	.LVL48:
 592              	.LBB160:
 593              	.LBB161:
 594              	.LBB162:
 595              	.LBB163:
 596              	.LBB164:
 597              		.loc 3 493 0
 598 000c 0023     		movs	r3, #0
 599              		.syntax unified
 600              	@ 493 ".//os/common/ext/ARM/CMSIS/Core/Include/cmsis_gcc.h" 1
 601 000e 83F31188 		MSR basepri, r3
 602              	@ 0 "" 2
 603              	.LVL49:
 604              		.thumb
 605              		.syntax unified
 606              	.LBE164:
 607              	.LBE163:
 608              	.LBE162:
 609              	.LBE161:
 610              	.LBE160:
 611              		.loc 1 186 0
 612 0012 08BD     		pop	{r3, pc}
 613              		.cfi_endproc
 614              	.LFE225:
 615              		.size	chCondWait, .-chCondWait
 616              		.section	.text.chCondWaitTimeoutS,"ax",%progbits
 617              		.align	1
 618              		.p2align 4,,15
 619              		.global	chCondWaitTimeoutS
 620              		.syntax unified
 621              		.thumb
 622              		.thumb_func
 623              		.fpu softvfp
 624              		.type	chCondWaitTimeoutS, %function
 625              	chCondWaitTimeoutS:
 626              	.LFB228:
 627              		.loc 1 295 0
ARM GAS  C:\Users\14122\AppData\Local\Temp\ccQMY3Ij.s 			page 12


 628              		.cfi_startproc
 629              		@ args = 0, pretend = 0, frame = 0
 630              		@ frame_needed = 0, uses_anonymous_args = 0
 631              	.LVL50:
 632 0000 2DE9F041 		push	{r4, r5, r6, r7, r8, lr}
 633              		.cfi_def_cfa_offset 24
 634              		.cfi_offset 4, -24
 635              		.cfi_offset 5, -20
 636              		.cfi_offset 6, -16
 637              		.cfi_offset 7, -12
 638              		.cfi_offset 8, -8
 639              		.cfi_offset 14, -4
 640              		.loc 1 295 0
 641 0004 0546     		mov	r5, r0
 642              	.LBB165:
 643              	.LBB166:
 644              	.LBB167:
 645              	.LBB168:
 646              		.file 5 ".//os/rt/include/chthreads.h"
 647              		.loc 5 274 0
 648 0006 134C     		ldr	r4, .L46
 649              	.LBE168:
 650              	.LBE167:
 651              	.LBE166:
 652              	.LBE165:
 653              		.loc 1 295 0
 654 0008 8846     		mov	r8, r1
 655              	.LBB171:
 656              	.LBB169:
 657              		.loc 4 145 0
 658 000a A369     		ldr	r3, [r4, #24]
 659              	.LBE169:
 660              	.LBE171:
 661              		.loc 1 309 0
 662 000c 2E46     		mov	r6, r5
 663              	.LBB172:
 664              	.LBB170:
 665              		.loc 4 145 0
 666 000e 9F6B     		ldr	r7, [r3, #56]
 667              	.LBE170:
 668              	.LBE172:
 669              		.loc 1 304 0
 670 0010 3846     		mov	r0, r7
 671              	.LVL51:
 672 0012 FFF7FEFF 		bl	chMtxUnlockS
 673              	.LVL52:
 674              		.loc 1 308 0
 675 0016 A469     		ldr	r4, [r4, #24]
 676              	.LVL53:
 677              		.loc 1 309 0
 678 0018 2B46     		mov	r3, r5
 679              		.loc 1 308 0
 680 001a 6562     		str	r5, [r4, #36]
 681 001c 03E0     		b	.L37
 682              	.LVL54:
 683              	.L45:
 684              	.LBB173:
ARM GAS  C:\Users\14122\AppData\Local\Temp\ccQMY3Ij.s 			page 13


 685              	.LBB174:
 686              		.loc 2 591 0
 687 001e 9868     		ldr	r0, [r3, #8]
 688 0020 A268     		ldr	r2, [r4, #8]
 689 0022 9042     		cmp	r0, r2
 690 0024 14D3     		bcc	.L44
 691              	.LVL55:
 692              	.L37:
 693              		.loc 2 590 0
 694 0026 1B68     		ldr	r3, [r3]
 695              	.LVL56:
 696              		.loc 2 591 0
 697 0028 9D42     		cmp	r5, r3
 698 002a F8D1     		bne	.L45
 699              	.L36:
 700              		.loc 2 593 0
 701 002c 7368     		ldr	r3, [r6, #4]
 702              	.LVL57:
 703              	.LBE174:
 704              	.LBE173:
 705              		.loc 1 310 0
 706 002e 4146     		mov	r1, r8
 707              	.LBB178:
 708              	.LBB175:
 709              		.loc 2 593 0
 710 0030 6360     		str	r3, [r4, #4]
 711              		.loc 2 592 0
 712 0032 2660     		str	r6, [r4]
 713              	.LBE175:
 714              	.LBE178:
 715              		.loc 1 310 0
 716 0034 0720     		movs	r0, #7
 717              	.LBB179:
 718              	.LBB176:
 719              		.loc 2 594 0
 720 0036 1C60     		str	r4, [r3]
 721              		.loc 2 595 0
 722 0038 7460     		str	r4, [r6, #4]
 723              	.LVL58:
 724              	.LBE176:
 725              	.LBE179:
 726              		.loc 1 310 0
 727 003a FFF7FEFF 		bl	chSchGoSleepTimeoutS
 728              	.LVL59:
 729              		.loc 1 311 0
 730 003e 431C     		adds	r3, r0, #1
 731              		.loc 1 310 0
 732 0040 0446     		mov	r4, r0
 733              	.LVL60:
 734              		.loc 1 311 0
 735 0042 02D0     		beq	.L35
 736              		.loc 1 312 0
 737 0044 3846     		mov	r0, r7
 738              	.LVL61:
 739 0046 FFF7FEFF 		bl	chMtxLockS
 740              	.LVL62:
 741              	.L35:
ARM GAS  C:\Users\14122\AppData\Local\Temp\ccQMY3Ij.s 			page 14


 742              		.loc 1 316 0
 743 004a 2046     		mov	r0, r4
 744 004c BDE8F081 		pop	{r4, r5, r6, r7, r8, pc}
 745              	.LVL63:
 746              	.L44:
 747              	.LBB180:
 748              	.LBB177:
 749              		.loc 2 590 0
 750 0050 1E46     		mov	r6, r3
 751 0052 EBE7     		b	.L36
 752              	.L47:
 753              		.align	2
 754              	.L46:
 755 0054 00000000 		.word	ch
 756              	.LBE177:
 757              	.LBE180:
 758              		.cfi_endproc
 759              	.LFE228:
 760              		.size	chCondWaitTimeoutS, .-chCondWaitTimeoutS
 761              		.section	.text.chCondWaitTimeout,"ax",%progbits
 762              		.align	1
 763              		.p2align 4,,15
 764              		.global	chCondWaitTimeout
 765              		.syntax unified
 766              		.thumb
 767              		.thumb_func
 768              		.fpu softvfp
 769              		.type	chCondWaitTimeout, %function
 770              	chCondWaitTimeout:
 771              	.LFB227:
 772              		.loc 1 257 0
 773              		.cfi_startproc
 774              		@ args = 0, pretend = 0, frame = 0
 775              		@ frame_needed = 0, uses_anonymous_args = 0
 776              	.LVL64:
 777 0000 08B5     		push	{r3, lr}
 778              		.cfi_def_cfa_offset 8
 779              		.cfi_offset 3, -8
 780              		.cfi_offset 14, -4
 781              	.LBB181:
 782              	.LBB182:
 783              	.LBB183:
 784              	.LBB184:
 785              		.loc 3 493 0
 786 0002 2023     		movs	r3, #32
 787              		.syntax unified
 788              	@ 493 ".//os/common/ext/ARM/CMSIS/Core/Include/cmsis_gcc.h" 1
 789 0004 83F31188 		MSR basepri, r3
 790              	@ 0 "" 2
 791              	.LVL65:
 792              		.thumb
 793              		.syntax unified
 794              	.LBE184:
 795              	.LBE183:
 796              	.LBE182:
 797              	.LBE181:
 798              		.loc 1 261 0
ARM GAS  C:\Users\14122\AppData\Local\Temp\ccQMY3Ij.s 			page 15


 799 0008 FFF7FEFF 		bl	chCondWaitTimeoutS
 800              	.LVL66:
 801              	.LBB185:
 802              	.LBB186:
 803              	.LBB187:
 804              	.LBB188:
 805              	.LBB189:
 806              		.loc 3 493 0
 807 000c 0023     		movs	r3, #0
 808              		.syntax unified
 809              	@ 493 ".//os/common/ext/ARM/CMSIS/Core/Include/cmsis_gcc.h" 1
 810 000e 83F31188 		MSR basepri, r3
 811              	@ 0 "" 2
 812              	.LVL67:
 813              		.thumb
 814              		.syntax unified
 815              	.LBE189:
 816              	.LBE188:
 817              	.LBE187:
 818              	.LBE186:
 819              	.LBE185:
 820              		.loc 1 265 0
 821 0012 08BD     		pop	{r3, pc}
 822              		.cfi_endproc
 823              	.LFE227:
 824              		.size	chCondWaitTimeout, .-chCondWaitTimeout
 825              		.text
 826              	.Letext0:
 827              		.file 6 "c:\\chibistudio\\tools\\gnu tools arm embedded\\7.0 2017q4\\lib\\gcc\\arm-none-eabi\\7.2.
 828              		.file 7 "c:\\chibistudio\\tools\\gnu tools arm embedded\\7.0 2017q4\\arm-none-eabi\\include\\machi
 829              		.file 8 "c:\\chibistudio\\tools\\gnu tools arm embedded\\7.0 2017q4\\arm-none-eabi\\include\\sys\\
 830              		.file 9 ".//os/common/ports/ARMCMx/compilers/GCC/chtypes.h"
 831              		.file 10 ".//os/rt/include/chsystypes.h"
 832              		.file 11 ".//os/rt/include/chtime.h"
 833              		.file 12 ".//os/common/ext/ARM/CMSIS/Core/Include/core_cm3.h"
 834              		.file 13 ".//os/common/ext/ST/STM32F1xx/system_stm32f1xx.h"
 835              		.file 14 ".//os/common/ports/ARMCMx/chcore.h"
 836              		.file 15 ".//os/common/ports/ARMCMx/chcore_v7m.h"
 837              		.file 16 ".//os/rt/include/chsem.h"
 838              		.file 17 ".//os/rt/include/chsys.h"
 839              		.file 18 ".//os/rt/include/chregistry.h"
 840              		.file 19 ".//os/rt/include/chcond.h"
 841              		.file 20 ".//os/lib/include/chmemcore.h"
 842              		.file 21 ".//os/lib/include/chmempools.h"
 843              		.file 22 ".//os/lib/include/chfactory.h"