ARM GAS  C:\Users\14122\AppData\Local\Temp\ccspwOwR.s 			page 1


   1              		.cpu cortex-m3
   2              		.eabi_attribute 20, 1
   3              		.eabi_attribute 21, 1
   4              		.eabi_attribute 23, 3
   5              		.eabi_attribute 24, 1
   6              		.eabi_attribute 25, 1
   7              		.eabi_attribute 26, 1
   8              		.eabi_attribute 30, 2
   9              		.eabi_attribute 34, 1
  10              		.eabi_attribute 18, 4
  11              		.file	"chcore_v7m.c"
  12              		.text
  13              	.Ltext0:
  14              		.cfi_sections	.debug_frame
  15              		.section	.text.SVC_Handler,"ax",%progbits
  16              		.align	1
  17              		.p2align 4,,15
  18              		.global	SVC_Handler
  19              		.syntax unified
  20              		.thumb
  21              		.thumb_func
  22              		.fpu softvfp
  23              		.type	SVC_Handler, %function
  24              	SVC_Handler:
  25              	.LFB220:
  26              		.file 1 ".//os/common/ports/ARMCMx/chcore_v7m.c"
  27              		.loc 1 62 0
  28              		.cfi_startproc
  29              		@ args = 0, pretend = 0, frame = 0
  30              		@ frame_needed = 0, uses_anonymous_args = 0
  31              		@ link register save eliminated.
  32              	.LBB47:
  33              	.LBB48:
  34              		.file 2 ".//os/common/ext/ARM/CMSIS/Core/Include/cmsis_gcc.h"
  35              		.loc 2 251 0
  36              		.syntax unified
  37              	@ 251 ".//os/common/ext/ARM/CMSIS/Core/Include/cmsis_gcc.h" 1
  38 0000 EFF30983 		MRS r3, psp
  39              	@ 0 "" 2
  40              	.LVL0:
  41              		.thumb
  42              		.syntax unified
  43              	.LBE48:
  44              	.LBE47:
  45              		.loc 1 76 0
  46 0004 2033     		adds	r3, r3, #32
  47              	.LVL1:
  48              	.LBB49:
  49              	.LBB50:
  50              		.loc 2 279 0
  51              		.syntax unified
  52              	@ 279 ".//os/common/ext/ARM/CMSIS/Core/Include/cmsis_gcc.h" 1
  53 0006 83F30988 		MSR psp, r3
  54              	@ 0 "" 2
  55              	.LVL2:
  56              		.thumb
  57              		.syntax unified
ARM GAS  C:\Users\14122\AppData\Local\Temp\ccspwOwR.s 			page 2


  58              	.LBE50:
  59              	.LBE49:
  60              	.LBB51:
  61              	.LBB52:
  62              	.LBB53:
  63              	.LBB54:
  64              		.loc 2 493 0
  65 000a 0023     		movs	r3, #0
  66              	.LVL3:
  67              		.syntax unified
  68              	@ 493 ".//os/common/ext/ARM/CMSIS/Core/Include/cmsis_gcc.h" 1
  69 000c 83F31188 		MSR basepri, r3
  70              	@ 0 "" 2
  71              	.LVL4:
  72              		.thumb
  73              		.syntax unified
  74              	.LBE54:
  75              	.LBE53:
  76              	.LBE52:
  77              	.LBE51:
  78              		.loc 1 83 0
  79 0010 7047     		bx	lr
  80              		.cfi_endproc
  81              	.LFE220:
  82              		.size	SVC_Handler, .-SVC_Handler
  83 0012 00BF     		.section	.text._port_irq_epilogue,"ax",%progbits
  84              		.align	1
  85              		.p2align 4,,15
  86              		.global	_port_irq_epilogue
  87              		.syntax unified
  88              		.thumb
  89              		.thumb_func
  90              		.fpu softvfp
  91              		.type	_port_irq_epilogue, %function
  92              	_port_irq_epilogue:
  93              	.LFB221:
  94              		.loc 1 122 0
  95              		.cfi_startproc
  96              		@ args = 0, pretend = 0, frame = 0
  97              		@ frame_needed = 0, uses_anonymous_args = 0
  98              	.LVL5:
  99              	.LBB55:
 100              	.LBB56:
 101              	.LBB57:
 102              	.LBB58:
 103              		.loc 2 493 0
 104 0000 2023     		movs	r3, #32
 105              		.syntax unified
 106              	@ 493 ".//os/common/ext/ARM/CMSIS/Core/Include/cmsis_gcc.h" 1
 107 0002 83F31188 		MSR basepri, r3
 108              	@ 0 "" 2
 109              	.LVL6:
 110              		.thumb
 111              		.syntax unified
 112              	.LBE58:
 113              	.LBE57:
 114              	.LBE56:
ARM GAS  C:\Users\14122\AppData\Local\Temp\ccspwOwR.s 			page 3


 115              	.LBE55:
 116              		.loc 1 125 0
 117 0006 0F4B     		ldr	r3, .L12
 118 0008 5B68     		ldr	r3, [r3, #4]
 119 000a 13F40063 		ands	r3, r3, #2048
 120 000e 02D1     		bne	.L11
 121              	.LVL7:
 122              	.LBB59:
 123              	.LBB60:
 124              	.LBB61:
 125              	.LBB62:
 126              		.loc 2 493 0
 127              		.syntax unified
 128              	@ 493 ".//os/common/ext/ARM/CMSIS/Core/Include/cmsis_gcc.h" 1
 129 0010 83F31188 		MSR basepri, r3
 130              	@ 0 "" 2
 131              	.LVL8:
 132              		.thumb
 133              		.syntax unified
 134 0014 7047     		bx	lr
 135              	.L11:
 136              	.LBE62:
 137              	.LBE61:
 138              	.LBE60:
 139              	.LBE59:
 140              		.loc 1 122 0
 141 0016 10B5     		push	{r4, lr}
 142              		.cfi_def_cfa_offset 8
 143              		.cfi_offset 4, -8
 144              		.cfi_offset 14, -4
 145              	.LBB63:
 146              	.LBB64:
 147              	.LBB65:
 148              		.loc 2 251 0
 149              		.syntax unified
 150              	@ 251 ".//os/common/ext/ARM/CMSIS/Core/Include/cmsis_gcc.h" 1
 151 0018 EFF30984 		MRS r4, psp
 152              	@ 0 "" 2
 153              	.LVL9:
 154              		.thumb
 155              		.syntax unified
 156              	.LBE65:
 157              	.LBE64:
 158              		.loc 1 141 0
 159 001c 4FF08072 		mov	r2, #16777216
 160              		.loc 1 138 0
 161 0020 A4F12003 		sub	r3, r4, #32
 162              	.LVL10:
 163              		.loc 1 141 0
 164 0024 44F8042C 		str	r2, [r4, #-4]
 165              	.LVL11:
 166              	.LBB66:
 167              	.LBB67:
 168              		.loc 2 279 0
 169              		.syntax unified
 170              	@ 279 ".//os/common/ext/ARM/CMSIS/Core/Include/cmsis_gcc.h" 1
 171 0028 83F30988 		MSR psp, r3
ARM GAS  C:\Users\14122\AppData\Local\Temp\ccspwOwR.s 			page 4


 172              	@ 0 "" 2
 173              	.LVL12:
 174              		.thumb
 175              		.syntax unified
 176              	.LBE67:
 177              	.LBE66:
 178              		.loc 1 151 0
 179 002c FFF7FEFF 		bl	chSchIsPreemptionRequired
 180              	.LVL13:
 181 0030 18B1     		cbz	r0, .L5
 182              		.loc 1 153 0
 183 0032 054B     		ldr	r3, .L12+4
 184 0034 44F8083C 		str	r3, [r4, #-8]
 185              	.LBE63:
 186              		.loc 1 166 0
 187 0038 10BD     		pop	{r4, pc}
 188              	.LVL14:
 189              	.L5:
 190              	.LBB68:
 191              		.loc 1 158 0
 192 003a 044B     		ldr	r3, .L12+8
 193 003c 44F8083C 		str	r3, [r4, #-8]
 194              	.LBE68:
 195              		.loc 1 166 0
 196 0040 10BD     		pop	{r4, pc}
 197              	.LVL15:
 198              	.L13:
 199 0042 00BF     		.align	2
 200              	.L12:
 201 0044 00ED00E0 		.word	-536810240
 202 0048 00000000 		.word	_port_switch_from_isr
 203 004c 00000000 		.word	_port_exit_from_isr
 204              		.cfi_endproc
 205              	.LFE221:
 206              		.size	_port_irq_epilogue, .-_port_irq_epilogue
 207              		.text
 208              	.Letext0:
 209              		.file 3 "c:\\chibistudio\\tools\\gnu tools arm embedded\\7.0 2017q4\\lib\\gcc\\arm-none-eabi\\7.2.
 210              		.file 4 "c:\\chibistudio\\tools\\gnu tools arm embedded\\7.0 2017q4\\arm-none-eabi\\include\\machi
 211              		.file 5 "c:\\chibistudio\\tools\\gnu tools arm embedded\\7.0 2017q4\\arm-none-eabi\\include\\sys\\
 212              		.file 6 ".//os/common/ports/ARMCMx/compilers/GCC/chtypes.h"
 213              		.file 7 ".//os/rt/include/chsystypes.h"
 214              		.file 8 ".//os/rt/include/chschd.h"
 215              		.file 9 ".//os/rt/include/chtime.h"
 216              		.file 10 ".//os/common/ext/ARM/CMSIS/Core/Include/core_cm3.h"
 217              		.file 11 ".//os/common/ext/ST/STM32F1xx/system_stm32f1xx.h"
 218              		.file 12 ".//os/common/ports/ARMCMx/chcore.h"
 219              		.file 13 ".//os/common/ports/ARMCMx/chcore_v7m.h"
 220              		.file 14 ".//os/rt/include/chsem.h"
 221              		.file 15 ".//os/rt/include/chmtx.h"
 222              		.file 16 ".//os/rt/include/chsys.h"
 223              		.file 17 ".//os/rt/include/chregistry.h"
 224              		.file 18 ".//os/lib/include/chmemcore.h"
 225              		.file 19 ".//os/lib/include/chmempools.h"
 226              		.file 20 ".//os/lib/include/chfactory.h"
 227              		.section	.debug_info,"",%progbits
 228              	.Ldebug_info0:
ARM GAS  C:\Users\14122\AppData\Local\Temp\ccspwOwR.s 			page 5


 229 0000 880D0000 		.4byte	0xd88
 230 0004 0400     		.2byte	0x4
 231 0006 00000000 		.4byte	.Ldebug_abbrev0
 232 000a 04       		.byte	0x4
 233 000b 01       		.uleb128 0x1
 234 000c 59050000 		.4byte	.LASF171
 235 0010 0C       		.byte	0xc
 236 0011 9C010000 		.4byte	.LASF172
 237 0015 19010000 		.4byte	.LASF173
 238 0019 18000000 		.4byte	.Ldebug_ranges0+0x18
 239 001d 00000000 		.4byte	0
 240 0021 00000000 		.4byte	.Ldebug_line0
 241 0025 02       		.uleb128 0x2
 242 0026 04       		.byte	0x4
 243 0027 05       		.byte	0x5
 244 0028 696E7400 		.ascii	"int\000"
 245 002c 03       		.uleb128 0x3
 246 002d 02030000 		.4byte	.LASF4
 247 0031 03       		.byte	0x3
 248 0032 D8       		.byte	0xd8
 249 0033 37000000 		.4byte	0x37
 250 0037 04       		.uleb128 0x4
 251 0038 04       		.byte	0x4
 252 0039 07       		.byte	0x7
 253 003a 84000000 		.4byte	.LASF0
 254 003e 04       		.uleb128 0x4
 255 003f 08       		.byte	0x8
 256 0040 05       		.byte	0x5
 257 0041 33040000 		.4byte	.LASF1
 258 0045 04       		.uleb128 0x4
 259 0046 08       		.byte	0x8
 260 0047 04       		.byte	0x4
 261 0048 C0040000 		.4byte	.LASF2
 262 004c 04       		.uleb128 0x4
 263 004d 01       		.byte	0x1
 264 004e 06       		.byte	0x6
 265 004f 81070000 		.4byte	.LASF3
 266 0053 03       		.uleb128 0x3
 267 0054 3F060000 		.4byte	.LASF5
 268 0058 04       		.byte	0x4
 269 0059 2B       		.byte	0x2b
 270 005a 5E000000 		.4byte	0x5e
 271 005e 04       		.uleb128 0x4
 272 005f 01       		.byte	0x1
 273 0060 08       		.byte	0x8
 274 0061 EE060000 		.4byte	.LASF6
 275 0065 04       		.uleb128 0x4
 276 0066 02       		.byte	0x2
 277 0067 05       		.byte	0x5
 278 0068 13050000 		.4byte	.LASF7
 279 006c 03       		.uleb128 0x3
 280 006d 7B020000 		.4byte	.LASF8
 281 0071 04       		.byte	0x4
 282 0072 39       		.byte	0x39
 283 0073 77000000 		.4byte	0x77
 284 0077 04       		.uleb128 0x4
 285 0078 02       		.byte	0x2
ARM GAS  C:\Users\14122\AppData\Local\Temp\ccspwOwR.s 			page 6


 286 0079 07       		.byte	0x7
 287 007a 93070000 		.4byte	.LASF9
 288 007e 03       		.uleb128 0x3
 289 007f BB000000 		.4byte	.LASF10
 290 0083 04       		.byte	0x4
 291 0084 4D       		.byte	0x4d
 292 0085 89000000 		.4byte	0x89
 293 0089 04       		.uleb128 0x4
 294 008a 04       		.byte	0x4
 295 008b 05       		.byte	0x5
 296 008c 22050000 		.4byte	.LASF11
 297 0090 03       		.uleb128 0x3
 298 0091 FC060000 		.4byte	.LASF12
 299 0095 04       		.byte	0x4
 300 0096 4F       		.byte	0x4f
 301 0097 9B000000 		.4byte	0x9b
 302 009b 04       		.uleb128 0x4
 303 009c 04       		.byte	0x4
 304 009d 07       		.byte	0x7
 305 009e 9E060000 		.4byte	.LASF13
 306 00a2 03       		.uleb128 0x3
 307 00a3 43030000 		.4byte	.LASF14
 308 00a7 04       		.byte	0x4
 309 00a8 69       		.byte	0x69
 310 00a9 AD000000 		.4byte	0xad
 311 00ad 04       		.uleb128 0x4
 312 00ae 08       		.byte	0x8
 313 00af 07       		.byte	0x7
 314 00b0 4A020000 		.4byte	.LASF15
 315 00b4 03       		.uleb128 0x3
 316 00b5 E5030000 		.4byte	.LASF16
 317 00b9 05       		.byte	0x5
 318 00ba 18       		.byte	0x18
 319 00bb 53000000 		.4byte	0x53
 320 00bf 05       		.uleb128 0x5
 321 00c0 B4000000 		.4byte	0xb4
 322 00c4 06       		.uleb128 0x6
 323 00c5 B4000000 		.4byte	0xb4
 324 00c9 03       		.uleb128 0x3
 325 00ca CC040000 		.4byte	.LASF17
 326 00ce 05       		.byte	0x5
 327 00cf 24       		.byte	0x24
 328 00d0 6C000000 		.4byte	0x6c
 329 00d4 03       		.uleb128 0x3
 330 00d5 C3060000 		.4byte	.LASF18
 331 00d9 05       		.byte	0x5
 332 00da 2C       		.byte	0x2c
 333 00db 7E000000 		.4byte	0x7e
 334 00df 05       		.uleb128 0x5
 335 00e0 D4000000 		.4byte	0xd4
 336 00e4 03       		.uleb128 0x3
 337 00e5 E6010000 		.4byte	.LASF19
 338 00e9 05       		.byte	0x5
 339 00ea 30       		.byte	0x30
 340 00eb 90000000 		.4byte	0x90
 341 00ef 05       		.uleb128 0x5
 342 00f0 E4000000 		.4byte	0xe4
ARM GAS  C:\Users\14122\AppData\Local\Temp\ccspwOwR.s 			page 7


 343 00f4 06       		.uleb128 0x6
 344 00f5 EF000000 		.4byte	0xef
 345 00f9 03       		.uleb128 0x3
 346 00fa 30060000 		.4byte	.LASF20
 347 00fe 05       		.byte	0x5
 348 00ff 3C       		.byte	0x3c
 349 0100 A2000000 		.4byte	0xa2
 350 0104 03       		.uleb128 0x3
 351 0105 A6040000 		.4byte	.LASF21
 352 0109 06       		.byte	0x6
 353 010a 2A       		.byte	0x2a
 354 010b B4000000 		.4byte	0xb4
 355 010f 03       		.uleb128 0x3
 356 0110 D6030000 		.4byte	.LASF22
 357 0114 06       		.byte	0x6
 358 0115 2B       		.byte	0x2b
 359 0116 B4000000 		.4byte	0xb4
 360 011a 03       		.uleb128 0x3
 361 011b 96060000 		.4byte	.LASF23
 362 011f 06       		.byte	0x6
 363 0120 2C       		.byte	0x2c
 364 0121 B4000000 		.4byte	0xb4
 365 0125 03       		.uleb128 0x3
 366 0126 20020000 		.4byte	.LASF24
 367 012a 06       		.byte	0x6
 368 012b 2E       		.byte	0x2e
 369 012c E4000000 		.4byte	0xe4
 370 0130 03       		.uleb128 0x3
 371 0131 46040000 		.4byte	.LASF25
 372 0135 06       		.byte	0x6
 373 0136 2F       		.byte	0x2f
 374 0137 D4000000 		.4byte	0xd4
 375 013b 03       		.uleb128 0x3
 376 013c FC010000 		.4byte	.LASF26
 377 0140 06       		.byte	0x6
 378 0141 31       		.byte	0x31
 379 0142 E4000000 		.4byte	0xe4
 380 0146 03       		.uleb128 0x3
 381 0147 86020000 		.4byte	.LASF27
 382 014b 06       		.byte	0x6
 383 014c 33       		.byte	0x33
 384 014d D4000000 		.4byte	0xd4
 385 0151 03       		.uleb128 0x3
 386 0152 AE040000 		.4byte	.LASF28
 387 0156 06       		.byte	0x6
 388 0157 34       		.byte	0x34
 389 0158 E4000000 		.4byte	0xe4
 390 015c 03       		.uleb128 0x3
 391 015d E5020000 		.4byte	.LASF29
 392 0161 07       		.byte	0x7
 393 0162 34       		.byte	0x34
 394 0163 67010000 		.4byte	0x167
 395 0167 07       		.uleb128 0x7
 396 0168 05040000 		.4byte	.LASF47
 397 016c 44       		.byte	0x44
 398 016d 08       		.byte	0x8
 399 016e 8E       		.byte	0x8e
ARM GAS  C:\Users\14122\AppData\Local\Temp\ccspwOwR.s 			page 8


 400 016f 45020000 		.4byte	0x245
 401 0173 08       		.uleb128 0x8
 402 0174 BD060000 		.4byte	.LASF30
 403 0178 08       		.byte	0x8
 404 0179 8F       		.byte	0x8f
 405 017a 7A020000 		.4byte	0x27a
 406 017e 00       		.byte	0
 407 017f 08       		.uleb128 0x8
 408 0180 92030000 		.4byte	.LASF31
 409 0184 08       		.byte	0x8
 410 0185 90       		.byte	0x90
 411 0186 25010000 		.4byte	0x125
 412 018a 08       		.byte	0x8
 413 018b 09       		.uleb128 0x9
 414 018c 63747800 		.ascii	"ctx\000"
 415 0190 08       		.byte	0x8
 416 0191 91       		.byte	0x91
 417 0192 66060000 		.4byte	0x666
 418 0196 0C       		.byte	0xc
 419 0197 08       		.uleb128 0x8
 420 0198 D3060000 		.4byte	.LASF32
 421 019c 08       		.byte	0x8
 422 019d 93       		.byte	0x93
 423 019e 50020000 		.4byte	0x250
 424 01a2 10       		.byte	0x10
 425 01a3 08       		.uleb128 0x8
 426 01a4 E9070000 		.4byte	.LASF33
 427 01a8 08       		.byte	0x8
 428 01a9 94       		.byte	0x94
 429 01aa 50020000 		.4byte	0x250
 430 01ae 14       		.byte	0x14
 431 01af 08       		.uleb128 0x8
 432 01b0 6B060000 		.4byte	.LASF34
 433 01b4 08       		.byte	0x8
 434 01b5 9B       		.byte	0x9b
 435 01b6 3B080000 		.4byte	0x83b
 436 01ba 18       		.byte	0x18
 437 01bb 08       		.uleb128 0x8
 438 01bc B8030000 		.4byte	.LASF35
 439 01c0 08       		.byte	0x8
 440 01c1 A4       		.byte	0xa4
 441 01c2 52080000 		.4byte	0x852
 442 01c6 1C       		.byte	0x1c
 443 01c7 08       		.uleb128 0x8
 444 01c8 4F070000 		.4byte	.LASF36
 445 01cc 08       		.byte	0x8
 446 01cd A9       		.byte	0xa9
 447 01ce 0F010000 		.4byte	0x10f
 448 01d2 20       		.byte	0x20
 449 01d3 08       		.uleb128 0x8
 450 01d4 62000000 		.4byte	.LASF37
 451 01d8 08       		.byte	0x8
 452 01d9 AD       		.byte	0xad
 453 01da 04010000 		.4byte	0x104
 454 01de 21       		.byte	0x21
 455 01df 08       		.uleb128 0x8
 456 01e0 C5000000 		.4byte	.LASF38
ARM GAS  C:\Users\14122\AppData\Local\Temp\ccspwOwR.s 			page 9


 457 01e4 08       		.byte	0x8
 458 01e5 B2       		.byte	0xb2
 459 01e6 1A010000 		.4byte	0x11a
 460 01ea 22       		.byte	0x22
 461 01eb 0A       		.uleb128 0xa
 462 01ec 7500     		.ascii	"u\000"
 463 01ee 08       		.byte	0x8
 464 01ef 0301     		.2byte	0x103
 465 01f1 71070000 		.4byte	0x771
 466 01f5 24       		.byte	0x24
 467 01f6 0B       		.uleb128 0xb
 468 01f7 07070000 		.4byte	.LASF39
 469 01fb 08       		.byte	0x8
 470 01fc 0801     		.2byte	0x108
 471 01fe 56020000 		.4byte	0x256
 472 0202 28       		.byte	0x28
 473 0203 0B       		.uleb128 0xb
 474 0204 FC030000 		.4byte	.LASF40
 475 0208 08       		.byte	0x8
 476 0209 0E01     		.2byte	0x10e
 477 020b 7A020000 		.4byte	0x27a
 478 020f 2C       		.byte	0x2c
 479 0210 0B       		.uleb128 0xb
 480 0211 7B000000 		.4byte	.LASF41
 481 0215 08       		.byte	0x8
 482 0216 1401     		.2byte	0x114
 483 0218 3B010000 		.4byte	0x13b
 484 021c 34       		.byte	0x34
 485 021d 0B       		.uleb128 0xb
 486 021e BE020000 		.4byte	.LASF42
 487 0222 08       		.byte	0x8
 488 0223 1B01     		.2byte	0x11b
 489 0225 35080000 		.4byte	0x835
 490 0229 38       		.byte	0x38
 491 022a 0B       		.uleb128 0xb
 492 022b 72000000 		.4byte	.LASF43
 493 022f 08       		.byte	0x8
 494 0230 1F01     		.2byte	0x11f
 495 0232 25010000 		.4byte	0x125
 496 0236 3C       		.byte	0x3c
 497 0237 0B       		.uleb128 0xb
 498 0238 09080000 		.4byte	.LASF44
 499 023c 08       		.byte	0x8
 500 023d 2601     		.2byte	0x126
 501 023f 2D030000 		.4byte	0x32d
 502 0243 40       		.byte	0x40
 503 0244 00       		.byte	0
 504 0245 03       		.uleb128 0x3
 505 0246 A5030000 		.4byte	.LASF45
 506 024a 07       		.byte	0x7
 507 024b 39       		.byte	0x39
 508 024c 50020000 		.4byte	0x250
 509 0250 0C       		.uleb128 0xc
 510 0251 04       		.byte	0x4
 511 0252 5C010000 		.4byte	0x15c
 512 0256 03       		.uleb128 0x3
 513 0257 9E000000 		.4byte	.LASF46
ARM GAS  C:\Users\14122\AppData\Local\Temp\ccspwOwR.s 			page 10


 514 025b 07       		.byte	0x7
 515 025c 3E       		.byte	0x3e
 516 025d 61020000 		.4byte	0x261
 517 0261 07       		.uleb128 0x7
 518 0262 00000000 		.4byte	.LASF48
 519 0266 04       		.byte	0x4
 520 0267 08       		.byte	0x8
 521 0268 7C       		.byte	0x7c
 522 0269 7A020000 		.4byte	0x27a
 523 026d 08       		.uleb128 0x8
 524 026e 91000000 		.4byte	.LASF49
 525 0272 08       		.byte	0x8
 526 0273 7D       		.byte	0x7d
 527 0274 50020000 		.4byte	0x250
 528 0278 00       		.byte	0
 529 0279 00       		.byte	0
 530 027a 03       		.uleb128 0x3
 531 027b 9F020000 		.4byte	.LASF50
 532 027f 07       		.byte	0x7
 533 0280 45       		.byte	0x45
 534 0281 85020000 		.4byte	0x285
 535 0285 07       		.uleb128 0x7
 536 0286 78010000 		.4byte	.LASF51
 537 028a 08       		.byte	0x8
 538 028b 08       		.byte	0x8
 539 028c 83       		.byte	0x83
 540 028d AA020000 		.4byte	0x2aa
 541 0291 08       		.uleb128 0x8
 542 0292 91000000 		.4byte	.LASF49
 543 0296 08       		.byte	0x8
 544 0297 84       		.byte	0x84
 545 0298 50020000 		.4byte	0x250
 546 029c 00       		.byte	0
 547 029d 08       		.uleb128 0x8
 548 029e 73010000 		.4byte	.LASF52
 549 02a2 08       		.byte	0x8
 550 02a3 85       		.byte	0x85
 551 02a4 50020000 		.4byte	0x250
 552 02a8 04       		.byte	0x4
 553 02a9 00       		.byte	0
 554 02aa 03       		.uleb128 0x3
 555 02ab B0060000 		.4byte	.LASF53
 556 02af 07       		.byte	0x7
 557 02b0 4C       		.byte	0x4c
 558 02b1 B5020000 		.4byte	0x2b5
 559 02b5 0D       		.uleb128 0xd
 560 02b6 0B010000 		.4byte	.LASF54
 561 02ba 1C       		.byte	0x1c
 562 02bb 08       		.byte	0x8
 563 02bc 5E01     		.2byte	0x15e
 564 02be 11030000 		.4byte	0x311
 565 02c2 0B       		.uleb128 0xb
 566 02c3 BD060000 		.4byte	.LASF30
 567 02c7 08       		.byte	0x8
 568 02c8 5F01     		.2byte	0x15f
 569 02ca 7A020000 		.4byte	0x27a
 570 02ce 00       		.byte	0
ARM GAS  C:\Users\14122\AppData\Local\Temp\ccspwOwR.s 			page 11


 571 02cf 0B       		.uleb128 0xb
 572 02d0 92030000 		.4byte	.LASF31
 573 02d4 08       		.byte	0x8
 574 02d5 6001     		.2byte	0x160
 575 02d7 25010000 		.4byte	0x125
 576 02db 08       		.byte	0x8
 577 02dc 0A       		.uleb128 0xa
 578 02dd 63747800 		.ascii	"ctx\000"
 579 02e1 08       		.byte	0x8
 580 02e2 6201     		.2byte	0x162
 581 02e4 66060000 		.4byte	0x666
 582 02e8 0C       		.byte	0xc
 583 02e9 0B       		.uleb128 0xb
 584 02ea D3060000 		.4byte	.LASF32
 585 02ee 08       		.byte	0x8
 586 02ef 6501     		.2byte	0x165
 587 02f1 50020000 		.4byte	0x250
 588 02f5 10       		.byte	0x10
 589 02f6 0B       		.uleb128 0xb
 590 02f7 E9070000 		.4byte	.LASF33
 591 02fb 08       		.byte	0x8
 592 02fc 6601     		.2byte	0x166
 593 02fe 50020000 		.4byte	0x250
 594 0302 14       		.byte	0x14
 595 0303 0B       		.uleb128 0xb
 596 0304 C1070000 		.4byte	.LASF55
 597 0308 08       		.byte	0x8
 598 0309 6901     		.2byte	0x169
 599 030b 50020000 		.4byte	0x250
 600 030f 18       		.byte	0x18
 601 0310 00       		.byte	0
 602 0311 03       		.uleb128 0x3
 603 0312 CD010000 		.4byte	.LASF56
 604 0316 07       		.byte	0x7
 605 0317 51       		.byte	0x51
 606 0318 1C030000 		.4byte	0x31c
 607 031c 0C       		.uleb128 0xc
 608 031d 04       		.byte	0x4
 609 031e 22030000 		.4byte	0x322
 610 0322 0E       		.uleb128 0xe
 611 0323 2D030000 		.4byte	0x32d
 612 0327 0F       		.uleb128 0xf
 613 0328 2D030000 		.4byte	0x32d
 614 032c 00       		.byte	0
 615 032d 10       		.uleb128 0x10
 616 032e 04       		.byte	0x4
 617 032f 03       		.uleb128 0x3
 618 0330 5A040000 		.4byte	.LASF57
 619 0334 07       		.byte	0x7
 620 0335 56       		.byte	0x56
 621 0336 3A030000 		.4byte	0x33a
 622 033a 0D       		.uleb128 0xd
 623 033b 28020000 		.4byte	.LASF58
 624 033f 14       		.byte	0x14
 625 0340 08       		.byte	0x8
 626 0341 3901     		.2byte	0x139
 627 0343 89030000 		.4byte	0x389
ARM GAS  C:\Users\14122\AppData\Local\Temp\ccspwOwR.s 			page 12


 628 0347 0B       		.uleb128 0xb
 629 0348 91000000 		.4byte	.LASF49
 630 034c 08       		.byte	0x8
 631 034d 3A01     		.2byte	0x13a
 632 034f 58080000 		.4byte	0x858
 633 0353 00       		.byte	0
 634 0354 0B       		.uleb128 0xb
 635 0355 73010000 		.4byte	.LASF52
 636 0359 08       		.byte	0x8
 637 035a 3B01     		.2byte	0x13b
 638 035c 58080000 		.4byte	0x858
 639 0360 04       		.byte	0x4
 640 0361 0B       		.uleb128 0xb
 641 0362 8D070000 		.4byte	.LASF59
 642 0366 08       		.byte	0x8
 643 0367 3C01     		.2byte	0x13c
 644 0369 54040000 		.4byte	0x454
 645 036d 08       		.byte	0x8
 646 036e 0B       		.uleb128 0xb
 647 036f 67010000 		.4byte	.LASF60
 648 0373 08       		.byte	0x8
 649 0374 3D01     		.2byte	0x13d
 650 0376 11030000 		.4byte	0x311
 651 037a 0C       		.byte	0xc
 652 037b 0A       		.uleb128 0xa
 653 037c 70617200 		.ascii	"par\000"
 654 0380 08       		.byte	0x8
 655 0381 3F01     		.2byte	0x13f
 656 0383 2D030000 		.4byte	0x32d
 657 0387 10       		.byte	0x10
 658 0388 00       		.byte	0
 659 0389 03       		.uleb128 0x3
 660 038a 0F070000 		.4byte	.LASF61
 661 038e 07       		.byte	0x7
 662 038f 5B       		.byte	0x5b
 663 0390 94030000 		.4byte	0x394
 664 0394 0D       		.uleb128 0xd
 665 0395 C6020000 		.4byte	.LASF62
 666 0399 10       		.byte	0x10
 667 039a 08       		.byte	0x8
 668 039b 4901     		.2byte	0x149
 669 039d D6030000 		.4byte	0x3d6
 670 03a1 0B       		.uleb128 0xb
 671 03a2 91000000 		.4byte	.LASF49
 672 03a6 08       		.byte	0x8
 673 03a7 4A01     		.2byte	0x14a
 674 03a9 58080000 		.4byte	0x858
 675 03ad 00       		.byte	0
 676 03ae 0B       		.uleb128 0xb
 677 03af 73010000 		.4byte	.LASF52
 678 03b3 08       		.byte	0x8
 679 03b4 4C01     		.2byte	0x14c
 680 03b6 58080000 		.4byte	0x858
 681 03ba 04       		.byte	0x4
 682 03bb 0B       		.uleb128 0xb
 683 03bc 8D070000 		.4byte	.LASF59
 684 03c0 08       		.byte	0x8
ARM GAS  C:\Users\14122\AppData\Local\Temp\ccspwOwR.s 			page 13


 685 03c1 4E01     		.2byte	0x14e
 686 03c3 54040000 		.4byte	0x454
 687 03c7 08       		.byte	0x8
 688 03c8 0B       		.uleb128 0xb
 689 03c9 27060000 		.4byte	.LASF63
 690 03cd 08       		.byte	0x8
 691 03ce 5601     		.2byte	0x156
 692 03d0 49040000 		.4byte	0x449
 693 03d4 0C       		.byte	0xc
 694 03d5 00       		.byte	0
 695 03d6 03       		.uleb128 0x3
 696 03d7 24040000 		.4byte	.LASF64
 697 03db 07       		.byte	0x7
 698 03dc 60       		.byte	0x60
 699 03dd E1030000 		.4byte	0x3e1
 700 03e1 0D       		.uleb128 0xd
 701 03e2 D6010000 		.4byte	.LASF65
 702 03e6 04       		.byte	0x4
 703 03e7 08       		.byte	0x8
 704 03e8 7001     		.2byte	0x170
 705 03ea FC030000 		.4byte	0x3fc
 706 03ee 0B       		.uleb128 0xb
 707 03ef 9C040000 		.4byte	.LASF66
 708 03f3 08       		.byte	0x8
 709 03f4 7801     		.2byte	0x178
 710 03f6 41080000 		.4byte	0x841
 711 03fa 00       		.byte	0
 712 03fb 00       		.byte	0
 713 03fc 03       		.uleb128 0x3
 714 03fd 68070000 		.4byte	.LASF67
 715 0401 07       		.byte	0x7
 716 0402 65       		.byte	0x65
 717 0403 07040000 		.4byte	0x407
 718 0407 0D       		.uleb128 0xd
 719 0408 4F050000 		.4byte	.LASF68
 720 040c 74       		.byte	0x74
 721 040d 08       		.byte	0x8
 722 040e 9001     		.2byte	0x190
 723 0410 49040000 		.4byte	0x449
 724 0414 0B       		.uleb128 0xb
 725 0415 39060000 		.4byte	.LASF69
 726 0419 08       		.byte	0x8
 727 041a 9401     		.2byte	0x194
 728 041c AA020000 		.4byte	0x2aa
 729 0420 00       		.byte	0
 730 0421 0B       		.uleb128 0xb
 731 0422 E4000000 		.4byte	.LASF70
 732 0426 08       		.byte	0x8
 733 0427 9801     		.2byte	0x198
 734 0429 89030000 		.4byte	0x389
 735 042d 1C       		.byte	0x1c
 736 042e 0A       		.uleb128 0xa
 737 042f 64626700 		.ascii	"dbg\000"
 738 0433 08       		.byte	0x8
 739 0434 9C01     		.2byte	0x19c
 740 0436 D6030000 		.4byte	0x3d6
 741 043a 2C       		.byte	0x2c
ARM GAS  C:\Users\14122\AppData\Local\Temp\ccspwOwR.s 			page 14


 742 043b 0B       		.uleb128 0xb
 743 043c B5040000 		.4byte	.LASF71
 744 0440 08       		.byte	0x8
 745 0441 A001     		.2byte	0x1a0
 746 0443 5C010000 		.4byte	0x15c
 747 0447 30       		.byte	0x30
 748 0448 00       		.byte	0
 749 0449 03       		.uleb128 0x3
 750 044a 68000000 		.4byte	.LASF72
 751 044e 09       		.byte	0x9
 752 044f 6F       		.byte	0x6f
 753 0450 C9000000 		.4byte	0xc9
 754 0454 03       		.uleb128 0x3
 755 0455 85040000 		.4byte	.LASF73
 756 0459 09       		.byte	0x9
 757 045a 79       		.byte	0x79
 758 045b E4000000 		.4byte	0xe4
 759 045f 11       		.uleb128 0x11
 760 0460 8C       		.byte	0x8c
 761 0461 0A       		.byte	0xa
 762 0462 7601     		.2byte	0x176
 763 0464 7A050000 		.4byte	0x57a
 764 0468 0B       		.uleb128 0xb
 765 0469 1C030000 		.4byte	.LASF74
 766 046d 0A       		.byte	0xa
 767 046e 7801     		.2byte	0x178
 768 0470 F4000000 		.4byte	0xf4
 769 0474 00       		.byte	0
 770 0475 0B       		.uleb128 0xb
 771 0476 D1030000 		.4byte	.LASF75
 772 047a 0A       		.byte	0xa
 773 047b 7901     		.2byte	0x179
 774 047d EF000000 		.4byte	0xef
 775 0481 04       		.byte	0x4
 776 0482 0B       		.uleb128 0xb
 777 0483 80060000 		.4byte	.LASF76
 778 0487 0A       		.byte	0xa
 779 0488 7A01     		.2byte	0x17a
 780 048a EF000000 		.4byte	0xef
 781 048e 08       		.byte	0x8
 782 048f 0B       		.uleb128 0xb
 783 0490 DF030000 		.4byte	.LASF77
 784 0494 0A       		.byte	0xa
 785 0495 7B01     		.2byte	0x17b
 786 0497 EF000000 		.4byte	0xef
 787 049b 0C       		.byte	0xc
 788 049c 0A       		.uleb128 0xa
 789 049d 53435200 		.ascii	"SCR\000"
 790 04a1 0A       		.byte	0xa
 791 04a2 7C01     		.2byte	0x17c
 792 04a4 EF000000 		.4byte	0xef
 793 04a8 10       		.byte	0x10
 794 04a9 0A       		.uleb128 0xa
 795 04aa 43435200 		.ascii	"CCR\000"
 796 04ae 0A       		.byte	0xa
 797 04af 7D01     		.2byte	0x17d
 798 04b1 EF000000 		.4byte	0xef
ARM GAS  C:\Users\14122\AppData\Local\Temp\ccspwOwR.s 			page 15


 799 04b5 14       		.byte	0x14
 800 04b6 0A       		.uleb128 0xa
 801 04b7 53485000 		.ascii	"SHP\000"
 802 04bb 0A       		.byte	0xa
 803 04bc 7E01     		.2byte	0x17e
 804 04be 8A050000 		.4byte	0x58a
 805 04c2 18       		.byte	0x18
 806 04c3 0B       		.uleb128 0xb
 807 04c4 02050000 		.4byte	.LASF78
 808 04c8 0A       		.byte	0xa
 809 04c9 7F01     		.2byte	0x17f
 810 04cb EF000000 		.4byte	0xef
 811 04cf 24       		.byte	0x24
 812 04d0 0B       		.uleb128 0xb
 813 04d1 55040000 		.4byte	.LASF79
 814 04d5 0A       		.byte	0xa
 815 04d6 8001     		.2byte	0x180
 816 04d8 EF000000 		.4byte	0xef
 817 04dc 28       		.byte	0x28
 818 04dd 0B       		.uleb128 0xb
 819 04de 8D030000 		.4byte	.LASF80
 820 04e2 0A       		.byte	0xa
 821 04e3 8101     		.2byte	0x181
 822 04e5 EF000000 		.4byte	0xef
 823 04e9 2C       		.byte	0x2c
 824 04ea 0B       		.uleb128 0xb
 825 04eb AD000000 		.4byte	.LASF81
 826 04ef 0A       		.byte	0xa
 827 04f0 8201     		.2byte	0x182
 828 04f2 EF000000 		.4byte	0xef
 829 04f6 30       		.byte	0x30
 830 04f7 0B       		.uleb128 0xb
 831 04f8 E8040000 		.4byte	.LASF82
 832 04fc 0A       		.byte	0xa
 833 04fd 8301     		.2byte	0x183
 834 04ff EF000000 		.4byte	0xef
 835 0503 34       		.byte	0x34
 836 0504 0B       		.uleb128 0xb
 837 0505 70060000 		.4byte	.LASF83
 838 0509 0A       		.byte	0xa
 839 050a 8401     		.2byte	0x184
 840 050c EF000000 		.4byte	0xef
 841 0510 38       		.byte	0x38
 842 0511 0B       		.uleb128 0xb
 843 0512 4E030000 		.4byte	.LASF84
 844 0516 0A       		.byte	0xa
 845 0517 8501     		.2byte	0x185
 846 0519 EF000000 		.4byte	0xef
 847 051d 3C       		.byte	0x3c
 848 051e 0A       		.uleb128 0xa
 849 051f 50465200 		.ascii	"PFR\000"
 850 0523 0A       		.byte	0xa
 851 0524 8601     		.2byte	0x186
 852 0526 A4050000 		.4byte	0x5a4
 853 052a 40       		.byte	0x40
 854 052b 0A       		.uleb128 0xa
 855 052c 44465200 		.ascii	"DFR\000"
ARM GAS  C:\Users\14122\AppData\Local\Temp\ccspwOwR.s 			page 16


 856 0530 0A       		.byte	0xa
 857 0531 8701     		.2byte	0x187
 858 0533 F4000000 		.4byte	0xf4
 859 0537 48       		.byte	0x48
 860 0538 0A       		.uleb128 0xa
 861 0539 41445200 		.ascii	"ADR\000"
 862 053d 0A       		.byte	0xa
 863 053e 8801     		.2byte	0x188
 864 0540 F4000000 		.4byte	0xf4
 865 0544 4C       		.byte	0x4c
 866 0545 0B       		.uleb128 0xb
 867 0546 F7010000 		.4byte	.LASF85
 868 054a 0A       		.byte	0xa
 869 054b 8901     		.2byte	0x189
 870 054d BE050000 		.4byte	0x5be
 871 0551 50       		.byte	0x50
 872 0552 0B       		.uleb128 0xb
 873 0553 DE070000 		.4byte	.LASF86
 874 0557 0A       		.byte	0xa
 875 0558 8A01     		.2byte	0x18a
 876 055a D8050000 		.4byte	0x5d8
 877 055e 60       		.byte	0x60
 878 055f 0B       		.uleb128 0xb
 879 0560 F8040000 		.4byte	.LASF87
 880 0564 0A       		.byte	0xa
 881 0565 8B01     		.2byte	0x18b
 882 0567 DD050000 		.4byte	0x5dd
 883 056b 74       		.byte	0x74
 884 056c 0B       		.uleb128 0xb
 885 056d 19000000 		.4byte	.LASF88
 886 0571 0A       		.byte	0xa
 887 0572 8C01     		.2byte	0x18c
 888 0574 EF000000 		.4byte	0xef
 889 0578 88       		.byte	0x88
 890 0579 00       		.byte	0
 891 057a 12       		.uleb128 0x12
 892 057b BF000000 		.4byte	0xbf
 893 057f 8A050000 		.4byte	0x58a
 894 0583 13       		.uleb128 0x13
 895 0584 37000000 		.4byte	0x37
 896 0588 0B       		.byte	0xb
 897 0589 00       		.byte	0
 898 058a 05       		.uleb128 0x5
 899 058b 7A050000 		.4byte	0x57a
 900 058f 12       		.uleb128 0x12
 901 0590 F4000000 		.4byte	0xf4
 902 0594 9F050000 		.4byte	0x59f
 903 0598 13       		.uleb128 0x13
 904 0599 37000000 		.4byte	0x37
 905 059d 01       		.byte	0x1
 906 059e 00       		.byte	0
 907 059f 06       		.uleb128 0x6
 908 05a0 8F050000 		.4byte	0x58f
 909 05a4 05       		.uleb128 0x5
 910 05a5 9F050000 		.4byte	0x59f
 911 05a9 12       		.uleb128 0x12
 912 05aa F4000000 		.4byte	0xf4
ARM GAS  C:\Users\14122\AppData\Local\Temp\ccspwOwR.s 			page 17


 913 05ae B9050000 		.4byte	0x5b9
 914 05b2 13       		.uleb128 0x13
 915 05b3 37000000 		.4byte	0x37
 916 05b7 03       		.byte	0x3
 917 05b8 00       		.byte	0
 918 05b9 06       		.uleb128 0x6
 919 05ba A9050000 		.4byte	0x5a9
 920 05be 05       		.uleb128 0x5
 921 05bf B9050000 		.4byte	0x5b9
 922 05c3 12       		.uleb128 0x12
 923 05c4 F4000000 		.4byte	0xf4
 924 05c8 D3050000 		.4byte	0x5d3
 925 05cc 13       		.uleb128 0x13
 926 05cd 37000000 		.4byte	0x37
 927 05d1 04       		.byte	0x4
 928 05d2 00       		.byte	0
 929 05d3 06       		.uleb128 0x6
 930 05d4 C3050000 		.4byte	0x5c3
 931 05d8 05       		.uleb128 0x5
 932 05d9 D3050000 		.4byte	0x5d3
 933 05dd 12       		.uleb128 0x12
 934 05de E4000000 		.4byte	0xe4
 935 05e2 ED050000 		.4byte	0x5ed
 936 05e6 13       		.uleb128 0x13
 937 05e7 37000000 		.4byte	0x37
 938 05eb 04       		.byte	0x4
 939 05ec 00       		.byte	0
 940 05ed 14       		.uleb128 0x14
 941 05ee 55060000 		.4byte	.LASF89
 942 05f2 0A       		.byte	0xa
 943 05f3 8D01     		.2byte	0x18d
 944 05f5 5F040000 		.4byte	0x45f
 945 05f9 15       		.uleb128 0x15
 946 05fa 37050000 		.4byte	.LASF90
 947 05fe 0A       		.byte	0xa
 948 05ff 4007     		.2byte	0x740
 949 0601 DF000000 		.4byte	0xdf
 950 0605 16       		.uleb128 0x16
 951 0606 1F000000 		.4byte	.LASF91
 952 060a 0B       		.byte	0xb
 953 060b 45       		.byte	0x45
 954 060c E4000000 		.4byte	0xe4
 955 0610 12       		.uleb128 0x12
 956 0611 C4000000 		.4byte	0xc4
 957 0615 20060000 		.4byte	0x620
 958 0619 13       		.uleb128 0x13
 959 061a 37000000 		.4byte	0x37
 960 061e 0F       		.byte	0xf
 961 061f 00       		.byte	0
 962 0620 06       		.uleb128 0x6
 963 0621 10060000 		.4byte	0x610
 964 0625 16       		.uleb128 0x16
 965 0626 77040000 		.4byte	.LASF92
 966 062a 0B       		.byte	0xb
 967 062b 46       		.byte	0x46
 968 062c 20060000 		.4byte	0x620
 969 0630 12       		.uleb128 0x12
ARM GAS  C:\Users\14122\AppData\Local\Temp\ccspwOwR.s 			page 18


 970 0631 C4000000 		.4byte	0xc4
 971 0635 40060000 		.4byte	0x640
 972 0639 13       		.uleb128 0x13
 973 063a 37000000 		.4byte	0x37
 974 063e 07       		.byte	0x7
 975 063f 00       		.byte	0
 976 0640 06       		.uleb128 0x6
 977 0641 30060000 		.4byte	0x630
 978 0645 16       		.uleb128 0x16
 979 0646 53030000 		.4byte	.LASF93
 980 064a 0B       		.byte	0xb
 981 064b 47       		.byte	0x47
 982 064c 40060000 		.4byte	0x640
 983 0650 03       		.uleb128 0x3
 984 0651 4E000000 		.4byte	.LASF94
 985 0655 0C       		.byte	0xc
 986 0656 65       		.byte	0x65
 987 0657 2D030000 		.4byte	0x32d
 988 065b 03       		.uleb128 0x3
 989 065c A6070000 		.4byte	.LASF95
 990 0660 0C       		.byte	0xc
 991 0661 6D       		.byte	0x6d
 992 0662 F9000000 		.4byte	0xf9
 993 0666 07       		.uleb128 0x7
 994 0667 EB000000 		.4byte	.LASF96
 995 066b 04       		.byte	0x4
 996 066c 0C       		.byte	0xc
 997 066d 89       		.byte	0x89
 998 066e 7E060000 		.4byte	0x67e
 999 0672 09       		.uleb128 0x9
 1000 0673 737000   		.ascii	"sp\000"
 1001 0676 0C       		.byte	0xc
 1002 0677 8A       		.byte	0x8a
 1003 0678 FA060000 		.4byte	0x6fa
 1004 067c 00       		.byte	0
 1005 067d 00       		.byte	0
 1006 067e 0D       		.uleb128 0xd
 1007 067f 2B050000 		.4byte	.LASF97
 1008 0683 24       		.byte	0x24
 1009 0684 0D       		.byte	0xd
 1010 0685 5901     		.2byte	0x159
 1011 0687 FA060000 		.4byte	0x6fa
 1012 068b 0A       		.uleb128 0xa
 1013 068c 723400   		.ascii	"r4\000"
 1014 068f 0D       		.byte	0xd
 1015 0690 6C01     		.2byte	0x16c
 1016 0692 50060000 		.4byte	0x650
 1017 0696 00       		.byte	0
 1018 0697 0A       		.uleb128 0xa
 1019 0698 723500   		.ascii	"r5\000"
 1020 069b 0D       		.byte	0xd
 1021 069c 6D01     		.2byte	0x16d
 1022 069e 50060000 		.4byte	0x650
 1023 06a2 04       		.byte	0x4
 1024 06a3 0A       		.uleb128 0xa
 1025 06a4 723600   		.ascii	"r6\000"
 1026 06a7 0D       		.byte	0xd
ARM GAS  C:\Users\14122\AppData\Local\Temp\ccspwOwR.s 			page 19


 1027 06a8 6E01     		.2byte	0x16e
 1028 06aa 50060000 		.4byte	0x650
 1029 06ae 08       		.byte	0x8
 1030 06af 0A       		.uleb128 0xa
 1031 06b0 723700   		.ascii	"r7\000"
 1032 06b3 0D       		.byte	0xd
 1033 06b4 6F01     		.2byte	0x16f
 1034 06b6 50060000 		.4byte	0x650
 1035 06ba 0C       		.byte	0xc
 1036 06bb 0A       		.uleb128 0xa
 1037 06bc 723800   		.ascii	"r8\000"
 1038 06bf 0D       		.byte	0xd
 1039 06c0 7001     		.2byte	0x170
 1040 06c2 50060000 		.4byte	0x650
 1041 06c6 10       		.byte	0x10
 1042 06c7 0A       		.uleb128 0xa
 1043 06c8 723900   		.ascii	"r9\000"
 1044 06cb 0D       		.byte	0xd
 1045 06cc 7101     		.2byte	0x171
 1046 06ce 50060000 		.4byte	0x650
 1047 06d2 14       		.byte	0x14
 1048 06d3 0A       		.uleb128 0xa
 1049 06d4 72313000 		.ascii	"r10\000"
 1050 06d8 0D       		.byte	0xd
 1051 06d9 7201     		.2byte	0x172
 1052 06db 50060000 		.4byte	0x650
 1053 06df 18       		.byte	0x18
 1054 06e0 0A       		.uleb128 0xa
 1055 06e1 72313100 		.ascii	"r11\000"
 1056 06e5 0D       		.byte	0xd
 1057 06e6 7301     		.2byte	0x173
 1058 06e8 50060000 		.4byte	0x650
 1059 06ec 1C       		.byte	0x1c
 1060 06ed 0A       		.uleb128 0xa
 1061 06ee 6C7200   		.ascii	"lr\000"
 1062 06f1 0D       		.byte	0xd
 1063 06f2 7401     		.2byte	0x174
 1064 06f4 50060000 		.4byte	0x650
 1065 06f8 20       		.byte	0x20
 1066 06f9 00       		.byte	0
 1067 06fa 0C       		.uleb128 0xc
 1068 06fb 04       		.byte	0x4
 1069 06fc 7E060000 		.4byte	0x67e
 1070 0700 0D       		.uleb128 0xd
 1071 0701 49060000 		.4byte	.LASF98
 1072 0705 20       		.byte	0x20
 1073 0706 0D       		.byte	0xd
 1074 0707 3A01     		.2byte	0x13a
 1075 0709 71070000 		.4byte	0x771
 1076 070d 0A       		.uleb128 0xa
 1077 070e 723000   		.ascii	"r0\000"
 1078 0711 0D       		.byte	0xd
 1079 0712 3B01     		.2byte	0x13b
 1080 0714 50060000 		.4byte	0x650
 1081 0718 00       		.byte	0
 1082 0719 0A       		.uleb128 0xa
 1083 071a 723100   		.ascii	"r1\000"
ARM GAS  C:\Users\14122\AppData\Local\Temp\ccspwOwR.s 			page 20


 1084 071d 0D       		.byte	0xd
 1085 071e 3C01     		.2byte	0x13c
 1086 0720 50060000 		.4byte	0x650
 1087 0724 04       		.byte	0x4
 1088 0725 0A       		.uleb128 0xa
 1089 0726 723200   		.ascii	"r2\000"
 1090 0729 0D       		.byte	0xd
 1091 072a 3D01     		.2byte	0x13d
 1092 072c 50060000 		.4byte	0x650
 1093 0730 08       		.byte	0x8
 1094 0731 0A       		.uleb128 0xa
 1095 0732 723300   		.ascii	"r3\000"
 1096 0735 0D       		.byte	0xd
 1097 0736 3E01     		.2byte	0x13e
 1098 0738 50060000 		.4byte	0x650
 1099 073c 0C       		.byte	0xc
 1100 073d 0A       		.uleb128 0xa
 1101 073e 72313200 		.ascii	"r12\000"
 1102 0742 0D       		.byte	0xd
 1103 0743 3F01     		.2byte	0x13f
 1104 0745 50060000 		.4byte	0x650
 1105 0749 10       		.byte	0x10
 1106 074a 0B       		.uleb128 0xb
 1107 074b 55070000 		.4byte	.LASF99
 1108 074f 0D       		.byte	0xd
 1109 0750 4001     		.2byte	0x140
 1110 0752 50060000 		.4byte	0x650
 1111 0756 14       		.byte	0x14
 1112 0757 0A       		.uleb128 0xa
 1113 0758 706300   		.ascii	"pc\000"
 1114 075b 0D       		.byte	0xd
 1115 075c 4101     		.2byte	0x141
 1116 075e 50060000 		.4byte	0x650
 1117 0762 18       		.byte	0x18
 1118 0763 0B       		.uleb128 0xb
 1119 0764 91060000 		.4byte	.LASF100
 1120 0768 0D       		.byte	0xd
 1121 0769 4201     		.2byte	0x142
 1122 076b 50060000 		.4byte	0x650
 1123 076f 1C       		.byte	0x1c
 1124 0770 00       		.byte	0
 1125 0771 17       		.uleb128 0x17
 1126 0772 04       		.byte	0x4
 1127 0773 08       		.byte	0x8
 1128 0774 C6       		.byte	0xc6
 1129 0775 D3070000 		.4byte	0x7d3
 1130 0779 18       		.uleb128 0x18
 1131 077a 09030000 		.4byte	.LASF101
 1132 077e 08       		.byte	0x8
 1133 077f CD       		.byte	0xcd
 1134 0780 30010000 		.4byte	0x130
 1135 0784 18       		.uleb128 0x18
 1136 0785 F7070000 		.4byte	.LASF102
 1137 0789 08       		.byte	0x8
 1138 078a D4       		.byte	0xd4
 1139 078b 30010000 		.4byte	0x130
 1140 078f 18       		.uleb128 0x18
ARM GAS  C:\Users\14122\AppData\Local\Temp\ccspwOwR.s 			page 21


 1141 0790 D3000000 		.4byte	.LASF103
 1142 0794 08       		.byte	0x8
 1143 0795 DB       		.byte	0xdb
 1144 0796 2D030000 		.4byte	0x32d
 1145 079a 18       		.uleb128 0x18
 1146 079b 7B070000 		.4byte	.LASF104
 1147 079f 08       		.byte	0x8
 1148 07a0 E2       		.byte	0xe2
 1149 07a1 D3070000 		.4byte	0x7d3
 1150 07a5 18       		.uleb128 0x18
 1151 07a6 EF010000 		.4byte	.LASF105
 1152 07aa 08       		.byte	0x8
 1153 07ab E7       		.byte	0xe7
 1154 07ac 30010000 		.4byte	0x130
 1155 07b0 18       		.uleb128 0x18
 1156 07b1 74070000 		.4byte	.LASF106
 1157 07b5 08       		.byte	0x8
 1158 07b6 F0       		.byte	0xf0
 1159 07b7 FE070000 		.4byte	0x7fe
 1160 07bb 18       		.uleb128 0x18
 1161 07bc 2F000000 		.4byte	.LASF107
 1162 07c0 08       		.byte	0x8
 1163 07c1 F9       		.byte	0xf9
 1164 07c2 35080000 		.4byte	0x835
 1165 07c6 19       		.uleb128 0x19
 1166 07c7 6C010000 		.4byte	.LASF108
 1167 07cb 08       		.byte	0x8
 1168 07cc 0101     		.2byte	0x101
 1169 07ce 3B010000 		.4byte	0x13b
 1170 07d2 00       		.byte	0
 1171 07d3 0C       		.uleb128 0xc
 1172 07d4 04       		.byte	0x4
 1173 07d5 45020000 		.4byte	0x245
 1174 07d9 07       		.uleb128 0x7
 1175 07da 13020000 		.4byte	.LASF109
 1176 07de 0C       		.byte	0xc
 1177 07df 0E       		.byte	0xe
 1178 07e0 34       		.byte	0x34
 1179 07e1 FE070000 		.4byte	0x7fe
 1180 07e5 08       		.uleb128 0x8
 1181 07e6 BD060000 		.4byte	.LASF30
 1182 07ea 0E       		.byte	0xe
 1183 07eb 35       		.byte	0x35
 1184 07ec 7A020000 		.4byte	0x27a
 1185 07f0 00       		.byte	0
 1186 07f1 09       		.uleb128 0x9
 1187 07f2 636E7400 		.ascii	"cnt\000"
 1188 07f6 0E       		.byte	0xe
 1189 07f7 37       		.byte	0x37
 1190 07f8 46010000 		.4byte	0x146
 1191 07fc 08       		.byte	0x8
 1192 07fd 00       		.byte	0
 1193 07fe 0C       		.uleb128 0xc
 1194 07ff 04       		.byte	0x4
 1195 0800 D9070000 		.4byte	0x7d9
 1196 0804 07       		.uleb128 0x7
 1197 0805 3A030000 		.4byte	.LASF110
ARM GAS  C:\Users\14122\AppData\Local\Temp\ccspwOwR.s 			page 22


 1198 0809 10       		.byte	0x10
 1199 080a 0F       		.byte	0xf
 1200 080b 39       		.byte	0x39
 1201 080c 35080000 		.4byte	0x835
 1202 0810 08       		.uleb128 0x8
 1203 0811 BD060000 		.4byte	.LASF30
 1204 0815 0F       		.byte	0xf
 1205 0816 3A       		.byte	0x3a
 1206 0817 7A020000 		.4byte	0x27a
 1207 081b 00       		.byte	0
 1208 081c 08       		.uleb128 0x8
 1209 081d 99020000 		.4byte	.LASF111
 1210 0821 0F       		.byte	0xf
 1211 0822 3C       		.byte	0x3c
 1212 0823 50020000 		.4byte	0x250
 1213 0827 08       		.byte	0x8
 1214 0828 08       		.uleb128 0x8
 1215 0829 91000000 		.4byte	.LASF49
 1216 082d 0F       		.byte	0xf
 1217 082e 3E       		.byte	0x3e
 1218 082f 97090000 		.4byte	0x997
 1219 0833 0C       		.byte	0xc
 1220 0834 00       		.byte	0
 1221 0835 0C       		.uleb128 0xc
 1222 0836 04       		.byte	0x4
 1223 0837 04080000 		.4byte	0x804
 1224 083b 0C       		.uleb128 0xc
 1225 083c 04       		.byte	0x4
 1226 083d 4D080000 		.4byte	0x84d
 1227 0841 05       		.uleb128 0x5
 1228 0842 3B080000 		.4byte	0x83b
 1229 0846 04       		.uleb128 0x4
 1230 0847 01       		.byte	0x1
 1231 0848 08       		.byte	0x8
 1232 0849 A0030000 		.4byte	.LASF112
 1233 084d 06       		.uleb128 0x6
 1234 084e 46080000 		.4byte	0x846
 1235 0852 0C       		.uleb128 0xc
 1236 0853 04       		.byte	0x4
 1237 0854 5B060000 		.4byte	0x65b
 1238 0858 0C       		.uleb128 0xc
 1239 0859 04       		.byte	0x4
 1240 085a 2F030000 		.4byte	0x32f
 1241 085e 1A       		.uleb128 0x1a
 1242 085f 636800   		.ascii	"ch\000"
 1243 0862 08       		.byte	0x8
 1244 0863 C701     		.2byte	0x1c7
 1245 0865 FC030000 		.4byte	0x3fc
 1246 0869 12       		.uleb128 0x12
 1247 086a 5B060000 		.4byte	0x65b
 1248 086e 74080000 		.4byte	0x874
 1249 0872 1B       		.uleb128 0x1b
 1250 0873 00       		.byte	0
 1251 0874 15       		.uleb128 0x15
 1252 0875 BF030000 		.4byte	.LASF113
 1253 0879 10       		.byte	0x10
 1254 087a 1701     		.2byte	0x117
ARM GAS  C:\Users\14122\AppData\Local\Temp\ccspwOwR.s 			page 23


 1255 087c 69080000 		.4byte	0x869
 1256 0880 1C       		.uleb128 0x1c
 1257 0881 16       		.byte	0x16
 1258 0882 11       		.byte	0x11
 1259 0883 34       		.byte	0x34
 1260 0884 61090000 		.4byte	0x961
 1261 0888 08       		.uleb128 0x8
 1262 0889 75060000 		.4byte	.LASF114
 1263 088d 11       		.byte	0x11
 1264 088e 35       		.byte	0x35
 1265 088f 61090000 		.4byte	0x961
 1266 0893 00       		.byte	0
 1267 0894 08       		.uleb128 0x8
 1268 0895 41040000 		.4byte	.LASF115
 1269 0899 11       		.byte	0x11
 1270 089a 36       		.byte	0x36
 1271 089b B4000000 		.4byte	0xb4
 1272 089f 04       		.byte	0x4
 1273 08a0 08       		.uleb128 0x8
 1274 08a1 6A040000 		.4byte	.LASF116
 1275 08a5 11       		.byte	0x11
 1276 08a6 37       		.byte	0x37
 1277 08a7 B4000000 		.4byte	0xb4
 1278 08ab 05       		.byte	0x5
 1279 08ac 08       		.uleb128 0x8
 1280 08ad 96000000 		.4byte	.LASF117
 1281 08b1 11       		.byte	0x11
 1282 08b2 38       		.byte	0x38
 1283 08b3 C9000000 		.4byte	0xc9
 1284 08b7 06       		.byte	0x6
 1285 08b8 08       		.uleb128 0x8
 1286 08b9 6F040000 		.4byte	.LASF118
 1287 08bd 11       		.byte	0x11
 1288 08be 39       		.byte	0x39
 1289 08bf B4000000 		.4byte	0xb4
 1290 08c3 08       		.byte	0x8
 1291 08c4 08       		.uleb128 0x8
 1292 08c5 10000000 		.4byte	.LASF119
 1293 08c9 11       		.byte	0x11
 1294 08ca 3A       		.byte	0x3a
 1295 08cb B4000000 		.4byte	0xb4
 1296 08cf 09       		.byte	0x9
 1297 08d0 08       		.uleb128 0x8
 1298 08d1 08020000 		.4byte	.LASF120
 1299 08d5 11       		.byte	0x11
 1300 08d6 3B       		.byte	0x3b
 1301 08d7 B4000000 		.4byte	0xb4
 1302 08db 0A       		.byte	0xa
 1303 08dc 08       		.uleb128 0x8
 1304 08dd DF040000 		.4byte	.LASF121
 1305 08e1 11       		.byte	0x11
 1306 08e2 3C       		.byte	0x3c
 1307 08e3 B4000000 		.4byte	0xb4
 1308 08e7 0B       		.byte	0xb
 1309 08e8 08       		.uleb128 0x8
 1310 08e9 6D030000 		.4byte	.LASF122
 1311 08ed 11       		.byte	0x11
ARM GAS  C:\Users\14122\AppData\Local\Temp\ccspwOwR.s 			page 24


 1312 08ee 3D       		.byte	0x3d
 1313 08ef B4000000 		.4byte	0xb4
 1314 08f3 0C       		.byte	0xc
 1315 08f4 08       		.uleb128 0x8
 1316 08f5 C3010000 		.4byte	.LASF123
 1317 08f9 11       		.byte	0x11
 1318 08fa 3E       		.byte	0x3e
 1319 08fb B4000000 		.4byte	0xb4
 1320 08ff 0D       		.byte	0xd
 1321 0900 08       		.uleb128 0x8
 1322 0901 EE020000 		.4byte	.LASF124
 1323 0905 11       		.byte	0x11
 1324 0906 3F       		.byte	0x3f
 1325 0907 B4000000 		.4byte	0xb4
 1326 090b 0E       		.byte	0xe
 1327 090c 08       		.uleb128 0x8
 1328 090d 1B040000 		.4byte	.LASF125
 1329 0911 11       		.byte	0x11
 1330 0912 40       		.byte	0x40
 1331 0913 B4000000 		.4byte	0xb4
 1332 0917 0F       		.byte	0xf
 1333 0918 08       		.uleb128 0x8
 1334 0919 8C020000 		.4byte	.LASF126
 1335 091d 11       		.byte	0x11
 1336 091e 41       		.byte	0x41
 1337 091f B4000000 		.4byte	0xb4
 1338 0923 10       		.byte	0x10
 1339 0924 08       		.uleb128 0x8
 1340 0925 F8020000 		.4byte	.LASF127
 1341 0929 11       		.byte	0x11
 1342 092a 42       		.byte	0x42
 1343 092b B4000000 		.4byte	0xb4
 1344 092f 11       		.byte	0x11
 1345 0930 08       		.uleb128 0x8
 1346 0931 83030000 		.4byte	.LASF128
 1347 0935 11       		.byte	0x11
 1348 0936 43       		.byte	0x43
 1349 0937 B4000000 		.4byte	0xb4
 1350 093b 12       		.byte	0x12
 1351 093c 08       		.uleb128 0x8
 1352 093d B1070000 		.4byte	.LASF129
 1353 0941 11       		.byte	0x11
 1354 0942 44       		.byte	0x44
 1355 0943 B4000000 		.4byte	0xb4
 1356 0947 13       		.byte	0x13
 1357 0948 08       		.uleb128 0x8
 1358 0949 85060000 		.4byte	.LASF130
 1359 094d 11       		.byte	0x11
 1360 094e 45       		.byte	0x45
 1361 094f B4000000 		.4byte	0xb4
 1362 0953 14       		.byte	0x14
 1363 0954 08       		.uleb128 0x8
 1364 0955 CA000000 		.4byte	.LASF131
 1365 0959 11       		.byte	0x11
 1366 095a 46       		.byte	0x46
 1367 095b B4000000 		.4byte	0xb4
 1368 095f 15       		.byte	0x15
ARM GAS  C:\Users\14122\AppData\Local\Temp\ccspwOwR.s 			page 25


 1369 0960 00       		.byte	0
 1370 0961 12       		.uleb128 0x12
 1371 0962 46080000 		.4byte	0x846
 1372 0966 71090000 		.4byte	0x971
 1373 096a 13       		.uleb128 0x13
 1374 096b 37000000 		.4byte	0x37
 1375 096f 03       		.byte	0x3
 1376 0970 00       		.byte	0
 1377 0971 03       		.uleb128 0x3
 1378 0972 D5040000 		.4byte	.LASF132
 1379 0976 11       		.byte	0x11
 1380 0977 47       		.byte	0x47
 1381 0978 80080000 		.4byte	0x880
 1382 097c 06       		.uleb128 0x6
 1383 097d 71090000 		.4byte	0x971
 1384 0981 16       		.uleb128 0x16
 1385 0982 C9070000 		.4byte	.LASF133
 1386 0986 11       		.byte	0x11
 1387 0987 6C       		.byte	0x6c
 1388 0988 7C090000 		.4byte	0x97c
 1389 098c 03       		.uleb128 0x3
 1390 098d CB060000 		.4byte	.LASF134
 1391 0991 0F       		.byte	0xf
 1392 0992 34       		.byte	0x34
 1393 0993 04080000 		.4byte	0x804
 1394 0997 0C       		.uleb128 0xc
 1395 0998 04       		.byte	0x4
 1396 0999 8C090000 		.4byte	0x98c
 1397 099d 04       		.uleb128 0x4
 1398 099e 01       		.byte	0x1
 1399 099f 02       		.byte	0x2
 1400 09a0 22030000 		.4byte	.LASF135
 1401 09a4 03       		.uleb128 0x3
 1402 09a5 5E060000 		.4byte	.LASF136
 1403 09a9 12       		.byte	0x12
 1404 09aa 47       		.byte	0x47
 1405 09ab AF090000 		.4byte	0x9af
 1406 09af 0C       		.uleb128 0xc
 1407 09b0 04       		.byte	0x4
 1408 09b1 B5090000 		.4byte	0x9b5
 1409 09b5 1D       		.uleb128 0x1d
 1410 09b6 2D030000 		.4byte	0x32d
 1411 09ba C9090000 		.4byte	0x9c9
 1412 09be 0F       		.uleb128 0xf
 1413 09bf 2C000000 		.4byte	0x2c
 1414 09c3 0F       		.uleb128 0xf
 1415 09c4 37000000 		.4byte	0x37
 1416 09c8 00       		.byte	0
 1417 09c9 1C       		.uleb128 0x1c
 1418 09ca 08       		.byte	0x8
 1419 09cb 12       		.byte	0x12
 1420 09cc 51       		.byte	0x51
 1421 09cd EA090000 		.4byte	0x9ea
 1422 09d1 08       		.uleb128 0x8
 1423 09d2 EF070000 		.4byte	.LASF137
 1424 09d6 12       		.byte	0x12
 1425 09d7 55       		.byte	0x55
ARM GAS  C:\Users\14122\AppData\Local\Temp\ccspwOwR.s 			page 26


 1426 09d8 EA090000 		.4byte	0x9ea
 1427 09dc 00       		.byte	0
 1428 09dd 08       		.uleb128 0x8
 1429 09de BA070000 		.4byte	.LASF138
 1430 09e2 12       		.byte	0x12
 1431 09e3 59       		.byte	0x59
 1432 09e4 EA090000 		.4byte	0x9ea
 1433 09e8 04       		.byte	0x4
 1434 09e9 00       		.byte	0
 1435 09ea 0C       		.uleb128 0xc
 1436 09eb 04       		.byte	0x4
 1437 09ec B4000000 		.4byte	0xb4
 1438 09f0 03       		.uleb128 0x3
 1439 09f1 39020000 		.4byte	.LASF139
 1440 09f5 12       		.byte	0x12
 1441 09f6 5A       		.byte	0x5a
 1442 09f7 C9090000 		.4byte	0x9c9
 1443 09fb 16       		.uleb128 0x16
 1444 09fc 08050000 		.4byte	.LASF140
 1445 0a00 12       		.byte	0x12
 1446 0a01 65       		.byte	0x65
 1447 0a02 F0090000 		.4byte	0x9f0
 1448 0a06 07       		.uleb128 0x7
 1449 0a07 5C070000 		.4byte	.LASF141
 1450 0a0b 04       		.byte	0x4
 1451 0a0c 13       		.byte	0x13
 1452 0a0d 38       		.byte	0x38
 1453 0a0e 1F0A0000 		.4byte	0xa1f
 1454 0a12 08       		.uleb128 0x8
 1455 0a13 91000000 		.4byte	.LASF49
 1456 0a17 13       		.byte	0x13
 1457 0a18 39       		.byte	0x39
 1458 0a19 1F0A0000 		.4byte	0xa1f
 1459 0a1d 00       		.byte	0
 1460 0a1e 00       		.byte	0
 1461 0a1f 0C       		.uleb128 0xc
 1462 0a20 04       		.byte	0x4
 1463 0a21 060A0000 		.4byte	0xa06
 1464 0a25 1C       		.uleb128 0x1c
 1465 0a26 10       		.byte	0x10
 1466 0a27 13       		.byte	0x13
 1467 0a28 40       		.byte	0x40
 1468 0a29 5E0A0000 		.4byte	0xa5e
 1469 0a2d 08       		.uleb128 0x8
 1470 0a2e 91000000 		.4byte	.LASF49
 1471 0a32 13       		.byte	0x13
 1472 0a33 41       		.byte	0x41
 1473 0a34 1F0A0000 		.4byte	0xa1f
 1474 0a38 00       		.byte	0
 1475 0a39 08       		.uleb128 0x8
 1476 0a3a 10030000 		.4byte	.LASF142
 1477 0a3e 13       		.byte	0x13
 1478 0a3f 42       		.byte	0x42
 1479 0a40 2C000000 		.4byte	0x2c
 1480 0a44 04       		.byte	0x4
 1481 0a45 08       		.uleb128 0x8
 1482 0a46 E3070000 		.4byte	.LASF143
ARM GAS  C:\Users\14122\AppData\Local\Temp\ccspwOwR.s 			page 27


 1483 0a4a 13       		.byte	0x13
 1484 0a4b 44       		.byte	0x44
 1485 0a4c 37000000 		.4byte	0x37
 1486 0a50 08       		.byte	0x8
 1487 0a51 08       		.uleb128 0x8
 1488 0a52 1E060000 		.4byte	.LASF144
 1489 0a56 13       		.byte	0x13
 1490 0a57 45       		.byte	0x45
 1491 0a58 A4090000 		.4byte	0x9a4
 1492 0a5c 0C       		.byte	0xc
 1493 0a5d 00       		.byte	0
 1494 0a5e 03       		.uleb128 0x3
 1495 0a5f 36000000 		.4byte	.LASF145
 1496 0a63 13       		.byte	0x13
 1497 0a64 47       		.byte	0x47
 1498 0a65 250A0000 		.4byte	0xa25
 1499 0a69 07       		.uleb128 0x7
 1500 0a6a ED030000 		.4byte	.LASF146
 1501 0a6e 10       		.byte	0x10
 1502 0a6f 14       		.byte	0x14
 1503 0a70 93       		.byte	0x93
 1504 0a71 9A0A0000 		.4byte	0xa9a
 1505 0a75 08       		.uleb128 0x8
 1506 0a76 91000000 		.4byte	.LASF49
 1507 0a7a 14       		.byte	0x14
 1508 0a7b 97       		.byte	0x97
 1509 0a7c 9A0A0000 		.4byte	0xa9a
 1510 0a80 00       		.byte	0
 1511 0a81 08       		.uleb128 0x8
 1512 0a82 C5000000 		.4byte	.LASF38
 1513 0a86 14       		.byte	0x14
 1514 0a87 9B       		.byte	0x9b
 1515 0a88 51010000 		.4byte	0x151
 1516 0a8c 04       		.byte	0x4
 1517 0a8d 08       		.uleb128 0x8
 1518 0a8e 6B060000 		.4byte	.LASF34
 1519 0a92 14       		.byte	0x14
 1520 0a93 9D       		.byte	0x9d
 1521 0a94 A00A0000 		.4byte	0xaa0
 1522 0a98 08       		.byte	0x8
 1523 0a99 00       		.byte	0
 1524 0a9a 0C       		.uleb128 0xc
 1525 0a9b 04       		.byte	0x4
 1526 0a9c 690A0000 		.4byte	0xa69
 1527 0aa0 12       		.uleb128 0x12
 1528 0aa1 46080000 		.4byte	0x846
 1529 0aa5 B00A0000 		.4byte	0xab0
 1530 0aa9 13       		.uleb128 0x13
 1531 0aaa 37000000 		.4byte	0x37
 1532 0aae 07       		.byte	0x7
 1533 0aaf 00       		.byte	0
 1534 0ab0 03       		.uleb128 0x3
 1535 0ab1 25070000 		.4byte	.LASF147
 1536 0ab5 14       		.byte	0x14
 1537 0ab6 A1       		.byte	0xa1
 1538 0ab7 690A0000 		.4byte	0xa69
 1539 0abb 07       		.uleb128 0x7
ARM GAS  C:\Users\14122\AppData\Local\Temp\ccspwOwR.s 			page 28


 1540 0abc 0F040000 		.4byte	.LASF148
 1541 0ac0 04       		.byte	0x4
 1542 0ac1 14       		.byte	0x14
 1543 0ac2 A6       		.byte	0xa6
 1544 0ac3 D40A0000 		.4byte	0xad4
 1545 0ac7 08       		.uleb128 0x8
 1546 0ac8 91000000 		.4byte	.LASF49
 1547 0acc 14       		.byte	0x14
 1548 0acd A7       		.byte	0xa7
 1549 0ace D40A0000 		.4byte	0xad4
 1550 0ad2 00       		.byte	0
 1551 0ad3 00       		.byte	0
 1552 0ad4 0C       		.uleb128 0xc
 1553 0ad5 04       		.byte	0x4
 1554 0ad6 B00A0000 		.4byte	0xab0
 1555 0ada 03       		.uleb128 0x3
 1556 0adb 57000000 		.4byte	.LASF149
 1557 0adf 14       		.byte	0x14
 1558 0ae0 A8       		.byte	0xa8
 1559 0ae1 BB0A0000 		.4byte	0xabb
 1560 0ae5 0D       		.uleb128 0xd
 1561 0ae6 89010000 		.4byte	.LASF150
 1562 0aea 44       		.byte	0x44
 1563 0aeb 14       		.byte	0x14
 1564 0aec 1101     		.2byte	0x111
 1565 0aee 5B0B0000 		.4byte	0xb5b
 1566 0af2 0A       		.uleb128 0xa
 1567 0af3 6D747800 		.ascii	"mtx\000"
 1568 0af7 14       		.byte	0x14
 1569 0af8 1601     		.2byte	0x116
 1570 0afa 8C090000 		.4byte	0x98c
 1571 0afe 00       		.byte	0
 1572 0aff 0B       		.uleb128 0xb
 1573 0b00 B2000000 		.4byte	.LASF151
 1574 0b04 14       		.byte	0x14
 1575 0b05 1D01     		.2byte	0x11d
 1576 0b07 DA0A0000 		.4byte	0xada
 1577 0b0b 10       		.byte	0x10
 1578 0b0c 0B       		.uleb128 0xb
 1579 0b0d 4C040000 		.4byte	.LASF152
 1580 0b11 14       		.byte	0x14
 1581 0b12 2101     		.2byte	0x121
 1582 0b14 5E0A0000 		.4byte	0xa5e
 1583 0b18 14       		.byte	0x14
 1584 0b19 0B       		.uleb128 0xb
 1585 0b1a 93040000 		.4byte	.LASF153
 1586 0b1e 14       		.byte	0x14
 1587 0b1f 2601     		.2byte	0x126
 1588 0b21 DA0A0000 		.4byte	0xada
 1589 0b25 24       		.byte	0x24
 1590 0b26 0B       		.uleb128 0xb
 1591 0b27 00080000 		.4byte	.LASF154
 1592 0b2b 14       		.byte	0x14
 1593 0b2c 2C01     		.2byte	0x12c
 1594 0b2e DA0A0000 		.4byte	0xada
 1595 0b32 28       		.byte	0x28
 1596 0b33 0B       		.uleb128 0xb
ARM GAS  C:\Users\14122\AppData\Local\Temp\ccspwOwR.s 			page 29


 1597 0b34 97030000 		.4byte	.LASF155
 1598 0b38 14       		.byte	0x14
 1599 0b39 3001     		.2byte	0x130
 1600 0b3b 5E0A0000 		.4byte	0xa5e
 1601 0b3f 2C       		.byte	0x2c
 1602 0b40 0B       		.uleb128 0xb
 1603 0b41 46070000 		.4byte	.LASF156
 1604 0b45 14       		.byte	0x14
 1605 0b46 3601     		.2byte	0x136
 1606 0b48 DA0A0000 		.4byte	0xada
 1607 0b4c 3C       		.byte	0x3c
 1608 0b4d 0B       		.uleb128 0xb
 1609 0b4e 44000000 		.4byte	.LASF157
 1610 0b52 14       		.byte	0x14
 1611 0b53 3C01     		.2byte	0x13c
 1612 0b55 DA0A0000 		.4byte	0xada
 1613 0b59 40       		.byte	0x40
 1614 0b5a 00       		.byte	0
 1615 0b5b 14       		.uleb128 0x14
 1616 0b5c 28030000 		.4byte	.LASF158
 1617 0b60 14       		.byte	0x14
 1618 0b61 3E01     		.2byte	0x13e
 1619 0b63 E50A0000 		.4byte	0xae5
 1620 0b67 15       		.uleb128 0x15
 1621 0b68 44050000 		.4byte	.LASF159
 1622 0b6c 14       		.byte	0x14
 1623 0b6d 4901     		.2byte	0x149
 1624 0b6f 5B0B0000 		.4byte	0xb5b
 1625 0b73 1E       		.uleb128 0x1e
 1626 0b74 33070000 		.4byte	.LASF160
 1627 0b78 01       		.byte	0x1
 1628 0b79 7A       		.byte	0x7a
 1629 0b7a 00000000 		.4byte	.LFB221
 1630 0b7e 50000000 		.4byte	.LFE221-.LFB221
 1631 0b82 01       		.uleb128 0x1
 1632 0b83 9C       		.byte	0x9c
 1633 0b84 650C0000 		.4byte	0xc65
 1634 0b88 1F       		.uleb128 0x1f
 1635 0b89 00000000 		.4byte	.Ldebug_ranges0+0
 1636 0b8d EA0B0000 		.4byte	0xbea
 1637 0b91 20       		.uleb128 0x20
 1638 0b92 1D050000 		.4byte	.LASF162
 1639 0b96 01       		.byte	0x1
 1640 0b97 7E       		.byte	0x7e
 1641 0b98 650C0000 		.4byte	0xc65
 1642 0b9c 00000000 		.4byte	.LLST5
 1643 0ba0 21       		.uleb128 0x21
 1644 0ba1 630D0000 		.4byte	0xd63
 1645 0ba5 18000000 		.4byte	.LBB64
 1646 0ba9 04000000 		.4byte	.LBE64-.LBB64
 1647 0bad 01       		.byte	0x1
 1648 0bae 86       		.byte	0x86
 1649 0baf C30B0000 		.4byte	0xbc3
 1650 0bb3 22       		.uleb128 0x22
 1651 0bb4 18000000 		.4byte	.LBB65
 1652 0bb8 04000000 		.4byte	.LBE65-.LBB65
 1653 0bbc 23       		.uleb128 0x23
ARM GAS  C:\Users\14122\AppData\Local\Temp\ccspwOwR.s 			page 30


 1654 0bbd 730D0000 		.4byte	0xd73
 1655 0bc1 00       		.byte	0
 1656 0bc2 00       		.byte	0
 1657 0bc3 21       		.uleb128 0x21
 1658 0bc4 490D0000 		.4byte	0xd49
 1659 0bc8 28000000 		.4byte	.LBB66
 1660 0bcc 04000000 		.4byte	.LBE66-.LBB66
 1661 0bd0 01       		.byte	0x1
 1662 0bd1 93       		.byte	0x93
 1663 0bd2 E00B0000 		.4byte	0xbe0
 1664 0bd6 24       		.uleb128 0x24
 1665 0bd7 560D0000 		.4byte	0xd56
 1666 0bdb 2D000000 		.4byte	.LLST6
 1667 0bdf 00       		.byte	0
 1668 0be0 25       		.uleb128 0x25
 1669 0be1 30000000 		.4byte	.LVL13
 1670 0be5 7F0D0000 		.4byte	0xd7f
 1671 0be9 00       		.byte	0
 1672 0bea 21       		.uleb128 0x21
 1673 0beb 140D0000 		.4byte	0xd14
 1674 0bef 00000000 		.4byte	.LBB55
 1675 0bf3 06000000 		.4byte	.LBE55-.LBB55
 1676 0bf7 01       		.byte	0x1
 1677 0bf8 7C       		.byte	0x7c
 1678 0bf9 290C0000 		.4byte	0xc29
 1679 0bfd 26       		.uleb128 0x26
 1680 0bfe 260D0000 		.4byte	0xd26
 1681 0c02 00000000 		.4byte	.LBB56
 1682 0c06 06000000 		.4byte	.LBE56-.LBB56
 1683 0c0a 0D       		.byte	0xd
 1684 0c0b 7B02     		.2byte	0x27b
 1685 0c0d 26       		.uleb128 0x26
 1686 0c0e 2F0D0000 		.4byte	0xd2f
 1687 0c12 00000000 		.4byte	.LBB57
 1688 0c16 06000000 		.4byte	.LBE57-.LBB57
 1689 0c1a 0D       		.byte	0xd
 1690 0c1b 5A02     		.2byte	0x25a
 1691 0c1d 24       		.uleb128 0x24
 1692 0c1e 3C0D0000 		.4byte	0xd3c
 1693 0c22 40000000 		.4byte	.LLST3
 1694 0c26 00       		.byte	0
 1695 0c27 00       		.byte	0
 1696 0c28 00       		.byte	0
 1697 0c29 27       		.uleb128 0x27
 1698 0c2a 0B0D0000 		.4byte	0xd0b
 1699 0c2e 10000000 		.4byte	.LBB59
 1700 0c32 06000000 		.4byte	.LBE59-.LBB59
 1701 0c36 01       		.byte	0x1
 1702 0c37 A5       		.byte	0xa5
 1703 0c38 26       		.uleb128 0x26
 1704 0c39 1D0D0000 		.4byte	0xd1d
 1705 0c3d 10000000 		.4byte	.LBB60
 1706 0c41 06000000 		.4byte	.LBE60-.LBB60
 1707 0c45 0D       		.byte	0xd
 1708 0c46 8602     		.2byte	0x286
 1709 0c48 26       		.uleb128 0x26
 1710 0c49 2F0D0000 		.4byte	0xd2f
ARM GAS  C:\Users\14122\AppData\Local\Temp\ccspwOwR.s 			page 31


 1711 0c4d 10000000 		.4byte	.LBB61
 1712 0c51 06000000 		.4byte	.LBE61-.LBB61
 1713 0c55 0D       		.byte	0xd
 1714 0c56 6D02     		.2byte	0x26d
 1715 0c58 24       		.uleb128 0x24
 1716 0c59 3C0D0000 		.4byte	0xd3c
 1717 0c5d 55000000 		.4byte	.LLST4
 1718 0c61 00       		.byte	0
 1719 0c62 00       		.byte	0
 1720 0c63 00       		.byte	0
 1721 0c64 00       		.byte	0
 1722 0c65 0C       		.uleb128 0xc
 1723 0c66 04       		.byte	0x4
 1724 0c67 00070000 		.4byte	0x700
 1725 0c6b 1E       		.uleb128 0x1e
 1726 0c6c 61030000 		.4byte	.LASF161
 1727 0c70 01       		.byte	0x1
 1728 0c71 3E       		.byte	0x3e
 1729 0c72 00000000 		.4byte	.LFB220
 1730 0c76 12000000 		.4byte	.LFE220-.LFB220
 1731 0c7a 01       		.uleb128 0x1
 1732 0c7b 9C       		.byte	0x9c
 1733 0c7c 0B0D0000 		.4byte	0xd0b
 1734 0c80 20       		.uleb128 0x20
 1735 0c81 1D050000 		.4byte	.LASF162
 1736 0c85 01       		.byte	0x1
 1737 0c86 40       		.byte	0x40
 1738 0c87 650C0000 		.4byte	0xc65
 1739 0c8b 69000000 		.4byte	.LLST0
 1740 0c8f 21       		.uleb128 0x21
 1741 0c90 630D0000 		.4byte	0xd63
 1742 0c94 00000000 		.4byte	.LBB47
 1743 0c98 04000000 		.4byte	.LBE47-.LBB47
 1744 0c9c 01       		.byte	0x1
 1745 0c9d 48       		.byte	0x48
 1746 0c9e B20C0000 		.4byte	0xcb2
 1747 0ca2 22       		.uleb128 0x22
 1748 0ca3 00000000 		.4byte	.LBB48
 1749 0ca7 04000000 		.4byte	.LBE48-.LBB48
 1750 0cab 23       		.uleb128 0x23
 1751 0cac 730D0000 		.4byte	0xd73
 1752 0cb0 00       		.byte	0
 1753 0cb1 00       		.byte	0
 1754 0cb2 21       		.uleb128 0x21
 1755 0cb3 490D0000 		.4byte	0xd49
 1756 0cb7 06000000 		.4byte	.LBB49
 1757 0cbb 04000000 		.4byte	.LBE49-.LBB49
 1758 0cbf 01       		.byte	0x1
 1759 0cc0 4F       		.byte	0x4f
 1760 0cc1 CF0C0000 		.4byte	0xccf
 1761 0cc5 24       		.uleb128 0x24
 1762 0cc6 560D0000 		.4byte	0xd56
 1763 0cca 89000000 		.4byte	.LLST1
 1764 0cce 00       		.byte	0
 1765 0ccf 27       		.uleb128 0x27
 1766 0cd0 0B0D0000 		.4byte	0xd0b
 1767 0cd4 0A000000 		.4byte	.LBB51
ARM GAS  C:\Users\14122\AppData\Local\Temp\ccspwOwR.s 			page 32


 1768 0cd8 06000000 		.4byte	.LBE51-.LBB51
 1769 0cdc 01       		.byte	0x1
 1770 0cdd 52       		.byte	0x52
 1771 0cde 26       		.uleb128 0x26
 1772 0cdf 1D0D0000 		.4byte	0xd1d
 1773 0ce3 0A000000 		.4byte	.LBB52
 1774 0ce7 06000000 		.4byte	.LBE52-.LBB52
 1775 0ceb 0D       		.byte	0xd
 1776 0cec 8602     		.2byte	0x286
 1777 0cee 26       		.uleb128 0x26
 1778 0cef 2F0D0000 		.4byte	0xd2f
 1779 0cf3 0A000000 		.4byte	.LBB53
 1780 0cf7 06000000 		.4byte	.LBE53-.LBB53
 1781 0cfb 0D       		.byte	0xd
 1782 0cfc 6D02     		.2byte	0x26d
 1783 0cfe 24       		.uleb128 0x24
 1784 0cff 3C0D0000 		.4byte	0xd3c
 1785 0d03 A9000000 		.4byte	.LLST2
 1786 0d07 00       		.byte	0
 1787 0d08 00       		.byte	0
 1788 0d09 00       		.byte	0
 1789 0d0a 00       		.byte	0
 1790 0d0b 28       		.uleb128 0x28
 1791 0d0c D9060000 		.4byte	.LASF163
 1792 0d10 0D       		.byte	0xd
 1793 0d11 8402     		.2byte	0x284
 1794 0d13 03       		.byte	0x3
 1795 0d14 28       		.uleb128 0x28
 1796 0d15 F8000000 		.4byte	.LASF164
 1797 0d19 0D       		.byte	0xd
 1798 0d1a 7902     		.2byte	0x279
 1799 0d1c 03       		.byte	0x3
 1800 0d1d 28       		.uleb128 0x28
 1801 0d1e D2070000 		.4byte	.LASF165
 1802 0d22 0D       		.byte	0xd
 1803 0d23 6A02     		.2byte	0x26a
 1804 0d25 03       		.byte	0x3
 1805 0d26 28       		.uleb128 0x28
 1806 0d27 DA000000 		.4byte	.LASF166
 1807 0d2b 0D       		.byte	0xd
 1808 0d2c 5202     		.2byte	0x252
 1809 0d2e 03       		.byte	0x3
 1810 0d2f 29       		.uleb128 0x29
 1811 0d30 75030000 		.4byte	.LASF167
 1812 0d34 02       		.byte	0x2
 1813 0d35 EB01     		.2byte	0x1eb
 1814 0d37 03       		.byte	0x3
 1815 0d38 490D0000 		.4byte	0xd49
 1816 0d3c 2A       		.uleb128 0x2a
 1817 0d3d DD020000 		.4byte	.LASF169
 1818 0d41 02       		.byte	0x2
 1819 0d42 EB01     		.2byte	0x1eb
 1820 0d44 E4000000 		.4byte	0xe4
 1821 0d48 00       		.byte	0
 1822 0d49 29       		.uleb128 0x29
 1823 0d4a EE040000 		.4byte	.LASF168
 1824 0d4e 02       		.byte	0x2
ARM GAS  C:\Users\14122\AppData\Local\Temp\ccspwOwR.s 			page 33


 1825 0d4f 1501     		.2byte	0x115
 1826 0d51 03       		.byte	0x3
 1827 0d52 630D0000 		.4byte	0xd63
 1828 0d56 2A       		.uleb128 0x2a
 1829 0d57 AF020000 		.4byte	.LASF170
 1830 0d5b 02       		.byte	0x2
 1831 0d5c 1501     		.2byte	0x115
 1832 0d5e E4000000 		.4byte	0xe4
 1833 0d62 00       		.byte	0
 1834 0d63 2B       		.uleb128 0x2b
 1835 0d64 0F080000 		.4byte	.LASF174
 1836 0d68 02       		.byte	0x2
 1837 0d69 F7       		.byte	0xf7
 1838 0d6a E4000000 		.4byte	0xe4
 1839 0d6e 03       		.byte	0x3
 1840 0d6f 7F0D0000 		.4byte	0xd7f
 1841 0d73 2C       		.uleb128 0x2c
 1842 0d74 43020000 		.4byte	.LASF175
 1843 0d78 02       		.byte	0x2
 1844 0d79 F9       		.byte	0xf9
 1845 0d7a E4000000 		.4byte	0xe4
 1846 0d7e 00       		.byte	0
 1847 0d7f 2D       		.uleb128 0x2d
 1848 0d80 61020000 		.4byte	.LASF176
 1849 0d84 61020000 		.4byte	.LASF176
 1850 0d88 08       		.byte	0x8
 1851 0d89 D701     		.2byte	0x1d7
 1852 0d8b 00       		.byte	0
 1853              		.section	.debug_abbrev,"",%progbits
 1854              	.Ldebug_abbrev0:
 1855 0000 01       		.uleb128 0x1
 1856 0001 11       		.uleb128 0x11
 1857 0002 01       		.byte	0x1
 1858 0003 25       		.uleb128 0x25
 1859 0004 0E       		.uleb128 0xe
 1860 0005 13       		.uleb128 0x13
 1861 0006 0B       		.uleb128 0xb
 1862 0007 03       		.uleb128 0x3
 1863 0008 0E       		.uleb128 0xe
 1864 0009 1B       		.uleb128 0x1b
 1865 000a 0E       		.uleb128 0xe
 1866 000b 55       		.uleb128 0x55
 1867 000c 17       		.uleb128 0x17
 1868 000d 11       		.uleb128 0x11
 1869 000e 01       		.uleb128 0x1
 1870 000f 10       		.uleb128 0x10
 1871 0010 17       		.uleb128 0x17
 1872 0011 00       		.byte	0
 1873 0012 00       		.byte	0
 1874 0013 02       		.uleb128 0x2
 1875 0014 24       		.uleb128 0x24
 1876 0015 00       		.byte	0
 1877 0016 0B       		.uleb128 0xb
 1878 0017 0B       		.uleb128 0xb
 1879 0018 3E       		.uleb128 0x3e
 1880 0019 0B       		.uleb128 0xb
 1881 001a 03       		.uleb128 0x3
ARM GAS  C:\Users\14122\AppData\Local\Temp\ccspwOwR.s 			page 34


 1882 001b 08       		.uleb128 0x8
 1883 001c 00       		.byte	0
 1884 001d 00       		.byte	0
 1885 001e 03       		.uleb128 0x3
 1886 001f 16       		.uleb128 0x16
 1887 0020 00       		.byte	0
 1888 0021 03       		.uleb128 0x3
 1889 0022 0E       		.uleb128 0xe
 1890 0023 3A       		.uleb128 0x3a
 1891 0024 0B       		.uleb128 0xb
 1892 0025 3B       		.uleb128 0x3b
 1893 0026 0B       		.uleb128 0xb
 1894 0027 49       		.uleb128 0x49
 1895 0028 13       		.uleb128 0x13
 1896 0029 00       		.byte	0
 1897 002a 00       		.byte	0
 1898 002b 04       		.uleb128 0x4
 1899 002c 24       		.uleb128 0x24
 1900 002d 00       		.byte	0
 1901 002e 0B       		.uleb128 0xb
 1902 002f 0B       		.uleb128 0xb
 1903 0030 3E       		.uleb128 0x3e
 1904 0031 0B       		.uleb128 0xb
 1905 0032 03       		.uleb128 0x3
 1906 0033 0E       		.uleb128 0xe
 1907 0034 00       		.byte	0
 1908 0035 00       		.byte	0
 1909 0036 05       		.uleb128 0x5
 1910 0037 35       		.uleb128 0x35
 1911 0038 00       		.byte	0
 1912 0039 49       		.uleb128 0x49
 1913 003a 13       		.uleb128 0x13
 1914 003b 00       		.byte	0
 1915 003c 00       		.byte	0
 1916 003d 06       		.uleb128 0x6
 1917 003e 26       		.uleb128 0x26
 1918 003f 00       		.byte	0
 1919 0040 49       		.uleb128 0x49
 1920 0041 13       		.uleb128 0x13
 1921 0042 00       		.byte	0
 1922 0043 00       		.byte	0
 1923 0044 07       		.uleb128 0x7
 1924 0045 13       		.uleb128 0x13
 1925 0046 01       		.byte	0x1
 1926 0047 03       		.uleb128 0x3
 1927 0048 0E       		.uleb128 0xe
 1928 0049 0B       		.uleb128 0xb
 1929 004a 0B       		.uleb128 0xb
 1930 004b 3A       		.uleb128 0x3a
 1931 004c 0B       		.uleb128 0xb
 1932 004d 3B       		.uleb128 0x3b
 1933 004e 0B       		.uleb128 0xb
 1934 004f 01       		.uleb128 0x1
 1935 0050 13       		.uleb128 0x13
 1936 0051 00       		.byte	0
 1937 0052 00       		.byte	0
 1938 0053 08       		.uleb128 0x8
ARM GAS  C:\Users\14122\AppData\Local\Temp\ccspwOwR.s 			page 35


 1939 0054 0D       		.uleb128 0xd
 1940 0055 00       		.byte	0
 1941 0056 03       		.uleb128 0x3
 1942 0057 0E       		.uleb128 0xe
 1943 0058 3A       		.uleb128 0x3a
 1944 0059 0B       		.uleb128 0xb
 1945 005a 3B       		.uleb128 0x3b
 1946 005b 0B       		.uleb128 0xb
 1947 005c 49       		.uleb128 0x49
 1948 005d 13       		.uleb128 0x13
 1949 005e 38       		.uleb128 0x38
 1950 005f 0B       		.uleb128 0xb
 1951 0060 00       		.byte	0
 1952 0061 00       		.byte	0
 1953 0062 09       		.uleb128 0x9
 1954 0063 0D       		.uleb128 0xd
 1955 0064 00       		.byte	0
 1956 0065 03       		.uleb128 0x3
 1957 0066 08       		.uleb128 0x8
 1958 0067 3A       		.uleb128 0x3a
 1959 0068 0B       		.uleb128 0xb
 1960 0069 3B       		.uleb128 0x3b
 1961 006a 0B       		.uleb128 0xb
 1962 006b 49       		.uleb128 0x49
 1963 006c 13       		.uleb128 0x13
 1964 006d 38       		.uleb128 0x38
 1965 006e 0B       		.uleb128 0xb
 1966 006f 00       		.byte	0
 1967 0070 00       		.byte	0
 1968 0071 0A       		.uleb128 0xa
 1969 0072 0D       		.uleb128 0xd
 1970 0073 00       		.byte	0
 1971 0074 03       		.uleb128 0x3
 1972 0075 08       		.uleb128 0x8
 1973 0076 3A       		.uleb128 0x3a
 1974 0077 0B       		.uleb128 0xb
 1975 0078 3B       		.uleb128 0x3b
 1976 0079 05       		.uleb128 0x5
 1977 007a 49       		.uleb128 0x49
 1978 007b 13       		.uleb128 0x13
 1979 007c 38       		.uleb128 0x38
 1980 007d 0B       		.uleb128 0xb
 1981 007e 00       		.byte	0
 1982 007f 00       		.byte	0
 1983 0080 0B       		.uleb128 0xb
 1984 0081 0D       		.uleb128 0xd
 1985 0082 00       		.byte	0
 1986 0083 03       		.uleb128 0x3
 1987 0084 0E       		.uleb128 0xe
 1988 0085 3A       		.uleb128 0x3a
 1989 0086 0B       		.uleb128 0xb
 1990 0087 3B       		.uleb128 0x3b
 1991 0088 05       		.uleb128 0x5
 1992 0089 49       		.uleb128 0x49
 1993 008a 13       		.uleb128 0x13
 1994 008b 38       		.uleb128 0x38
 1995 008c 0B       		.uleb128 0xb
ARM GAS  C:\Users\14122\AppData\Local\Temp\ccspwOwR.s 			page 36


 1996 008d 00       		.byte	0
 1997 008e 00       		.byte	0
 1998 008f 0C       		.uleb128 0xc
 1999 0090 0F       		.uleb128 0xf
 2000 0091 00       		.byte	0
 2001 0092 0B       		.uleb128 0xb
 2002 0093 0B       		.uleb128 0xb
 2003 0094 49       		.uleb128 0x49
 2004 0095 13       		.uleb128 0x13
 2005 0096 00       		.byte	0
 2006 0097 00       		.byte	0
 2007 0098 0D       		.uleb128 0xd
 2008 0099 13       		.uleb128 0x13
 2009 009a 01       		.byte	0x1
 2010 009b 03       		.uleb128 0x3
 2011 009c 0E       		.uleb128 0xe
 2012 009d 0B       		.uleb128 0xb
 2013 009e 0B       		.uleb128 0xb
 2014 009f 3A       		.uleb128 0x3a
 2015 00a0 0B       		.uleb128 0xb
 2016 00a1 3B       		.uleb128 0x3b
 2017 00a2 05       		.uleb128 0x5
 2018 00a3 01       		.uleb128 0x1
 2019 00a4 13       		.uleb128 0x13
 2020 00a5 00       		.byte	0
 2021 00a6 00       		.byte	0
 2022 00a7 0E       		.uleb128 0xe
 2023 00a8 15       		.uleb128 0x15
 2024 00a9 01       		.byte	0x1
 2025 00aa 27       		.uleb128 0x27
 2026 00ab 19       		.uleb128 0x19
 2027 00ac 01       		.uleb128 0x1
 2028 00ad 13       		.uleb128 0x13
 2029 00ae 00       		.byte	0
 2030 00af 00       		.byte	0
 2031 00b0 0F       		.uleb128 0xf
 2032 00b1 05       		.uleb128 0x5
 2033 00b2 00       		.byte	0
 2034 00b3 49       		.uleb128 0x49
 2035 00b4 13       		.uleb128 0x13
 2036 00b5 00       		.byte	0
 2037 00b6 00       		.byte	0
 2038 00b7 10       		.uleb128 0x10
 2039 00b8 0F       		.uleb128 0xf
 2040 00b9 00       		.byte	0
 2041 00ba 0B       		.uleb128 0xb
 2042 00bb 0B       		.uleb128 0xb
 2043 00bc 00       		.byte	0
 2044 00bd 00       		.byte	0
 2045 00be 11       		.uleb128 0x11
 2046 00bf 13       		.uleb128 0x13
 2047 00c0 01       		.byte	0x1
 2048 00c1 0B       		.uleb128 0xb
 2049 00c2 0B       		.uleb128 0xb
 2050 00c3 3A       		.uleb128 0x3a
 2051 00c4 0B       		.uleb128 0xb
 2052 00c5 3B       		.uleb128 0x3b
ARM GAS  C:\Users\14122\AppData\Local\Temp\ccspwOwR.s 			page 37


 2053 00c6 05       		.uleb128 0x5
 2054 00c7 01       		.uleb128 0x1
 2055 00c8 13       		.uleb128 0x13
 2056 00c9 00       		.byte	0
 2057 00ca 00       		.byte	0
 2058 00cb 12       		.uleb128 0x12
 2059 00cc 01       		.uleb128 0x1
 2060 00cd 01       		.byte	0x1
 2061 00ce 49       		.uleb128 0x49
 2062 00cf 13       		.uleb128 0x13
 2063 00d0 01       		.uleb128 0x1
 2064 00d1 13       		.uleb128 0x13
 2065 00d2 00       		.byte	0
 2066 00d3 00       		.byte	0
 2067 00d4 13       		.uleb128 0x13
 2068 00d5 21       		.uleb128 0x21
 2069 00d6 00       		.byte	0
 2070 00d7 49       		.uleb128 0x49
 2071 00d8 13       		.uleb128 0x13
 2072 00d9 2F       		.uleb128 0x2f
 2073 00da 0B       		.uleb128 0xb
 2074 00db 00       		.byte	0
 2075 00dc 00       		.byte	0
 2076 00dd 14       		.uleb128 0x14
 2077 00de 16       		.uleb128 0x16
 2078 00df 00       		.byte	0
 2079 00e0 03       		.uleb128 0x3
 2080 00e1 0E       		.uleb128 0xe
 2081 00e2 3A       		.uleb128 0x3a
 2082 00e3 0B       		.uleb128 0xb
 2083 00e4 3B       		.uleb128 0x3b
 2084 00e5 05       		.uleb128 0x5
 2085 00e6 49       		.uleb128 0x49
 2086 00e7 13       		.uleb128 0x13
 2087 00e8 00       		.byte	0
 2088 00e9 00       		.byte	0
 2089 00ea 15       		.uleb128 0x15
 2090 00eb 34       		.uleb128 0x34
 2091 00ec 00       		.byte	0
 2092 00ed 03       		.uleb128 0x3
 2093 00ee 0E       		.uleb128 0xe
 2094 00ef 3A       		.uleb128 0x3a
 2095 00f0 0B       		.uleb128 0xb
 2096 00f1 3B       		.uleb128 0x3b
 2097 00f2 05       		.uleb128 0x5
 2098 00f3 49       		.uleb128 0x49
 2099 00f4 13       		.uleb128 0x13
 2100 00f5 3F       		.uleb128 0x3f
 2101 00f6 19       		.uleb128 0x19
 2102 00f7 3C       		.uleb128 0x3c
 2103 00f8 19       		.uleb128 0x19
 2104 00f9 00       		.byte	0
 2105 00fa 00       		.byte	0
 2106 00fb 16       		.uleb128 0x16
 2107 00fc 34       		.uleb128 0x34
 2108 00fd 00       		.byte	0
 2109 00fe 03       		.uleb128 0x3
ARM GAS  C:\Users\14122\AppData\Local\Temp\ccspwOwR.s 			page 38


 2110 00ff 0E       		.uleb128 0xe
 2111 0100 3A       		.uleb128 0x3a
 2112 0101 0B       		.uleb128 0xb
 2113 0102 3B       		.uleb128 0x3b
 2114 0103 0B       		.uleb128 0xb
 2115 0104 49       		.uleb128 0x49
 2116 0105 13       		.uleb128 0x13
 2117 0106 3F       		.uleb128 0x3f
 2118 0107 19       		.uleb128 0x19
 2119 0108 3C       		.uleb128 0x3c
 2120 0109 19       		.uleb128 0x19
 2121 010a 00       		.byte	0
 2122 010b 00       		.byte	0
 2123 010c 17       		.uleb128 0x17
 2124 010d 17       		.uleb128 0x17
 2125 010e 01       		.byte	0x1
 2126 010f 0B       		.uleb128 0xb
 2127 0110 0B       		.uleb128 0xb
 2128 0111 3A       		.uleb128 0x3a
 2129 0112 0B       		.uleb128 0xb
 2130 0113 3B       		.uleb128 0x3b
 2131 0114 0B       		.uleb128 0xb
 2132 0115 01       		.uleb128 0x1
 2133 0116 13       		.uleb128 0x13
 2134 0117 00       		.byte	0
 2135 0118 00       		.byte	0
 2136 0119 18       		.uleb128 0x18
 2137 011a 0D       		.uleb128 0xd
 2138 011b 00       		.byte	0
 2139 011c 03       		.uleb128 0x3
 2140 011d 0E       		.uleb128 0xe
 2141 011e 3A       		.uleb128 0x3a
 2142 011f 0B       		.uleb128 0xb
 2143 0120 3B       		.uleb128 0x3b
 2144 0121 0B       		.uleb128 0xb
 2145 0122 49       		.uleb128 0x49
 2146 0123 13       		.uleb128 0x13
 2147 0124 00       		.byte	0
 2148 0125 00       		.byte	0
 2149 0126 19       		.uleb128 0x19
 2150 0127 0D       		.uleb128 0xd
 2151 0128 00       		.byte	0
 2152 0129 03       		.uleb128 0x3
 2153 012a 0E       		.uleb128 0xe
 2154 012b 3A       		.uleb128 0x3a
 2155 012c 0B       		.uleb128 0xb
 2156 012d 3B       		.uleb128 0x3b
 2157 012e 05       		.uleb128 0x5
 2158 012f 49       		.uleb128 0x49
 2159 0130 13       		.uleb128 0x13
 2160 0131 00       		.byte	0
 2161 0132 00       		.byte	0
 2162 0133 1A       		.uleb128 0x1a
 2163 0134 34       		.uleb128 0x34
 2164 0135 00       		.byte	0
 2165 0136 03       		.uleb128 0x3
 2166 0137 08       		.uleb128 0x8
ARM GAS  C:\Users\14122\AppData\Local\Temp\ccspwOwR.s 			page 39


 2167 0138 3A       		.uleb128 0x3a
 2168 0139 0B       		.uleb128 0xb
 2169 013a 3B       		.uleb128 0x3b
 2170 013b 05       		.uleb128 0x5
 2171 013c 49       		.uleb128 0x49
 2172 013d 13       		.uleb128 0x13
 2173 013e 3F       		.uleb128 0x3f
 2174 013f 19       		.uleb128 0x19
 2175 0140 3C       		.uleb128 0x3c
 2176 0141 19       		.uleb128 0x19
 2177 0142 00       		.byte	0
 2178 0143 00       		.byte	0
 2179 0144 1B       		.uleb128 0x1b
 2180 0145 21       		.uleb128 0x21
 2181 0146 00       		.byte	0
 2182 0147 00       		.byte	0
 2183 0148 00       		.byte	0
 2184 0149 1C       		.uleb128 0x1c
 2185 014a 13       		.uleb128 0x13
 2186 014b 01       		.byte	0x1
 2187 014c 0B       		.uleb128 0xb
 2188 014d 0B       		.uleb128 0xb
 2189 014e 3A       		.uleb128 0x3a
 2190 014f 0B       		.uleb128 0xb
 2191 0150 3B       		.uleb128 0x3b
 2192 0151 0B       		.uleb128 0xb
 2193 0152 01       		.uleb128 0x1
 2194 0153 13       		.uleb128 0x13
 2195 0154 00       		.byte	0
 2196 0155 00       		.byte	0
 2197 0156 1D       		.uleb128 0x1d
 2198 0157 15       		.uleb128 0x15
 2199 0158 01       		.byte	0x1
 2200 0159 27       		.uleb128 0x27
 2201 015a 19       		.uleb128 0x19
 2202 015b 49       		.uleb128 0x49
 2203 015c 13       		.uleb128 0x13
 2204 015d 01       		.uleb128 0x1
 2205 015e 13       		.uleb128 0x13
 2206 015f 00       		.byte	0
 2207 0160 00       		.byte	0
 2208 0161 1E       		.uleb128 0x1e
 2209 0162 2E       		.uleb128 0x2e
 2210 0163 01       		.byte	0x1
 2211 0164 3F       		.uleb128 0x3f
 2212 0165 19       		.uleb128 0x19
 2213 0166 03       		.uleb128 0x3
 2214 0167 0E       		.uleb128 0xe
 2215 0168 3A       		.uleb128 0x3a
 2216 0169 0B       		.uleb128 0xb
 2217 016a 3B       		.uleb128 0x3b
 2218 016b 0B       		.uleb128 0xb
 2219 016c 27       		.uleb128 0x27
 2220 016d 19       		.uleb128 0x19
 2221 016e 11       		.uleb128 0x11
 2222 016f 01       		.uleb128 0x1
 2223 0170 12       		.uleb128 0x12
ARM GAS  C:\Users\14122\AppData\Local\Temp\ccspwOwR.s 			page 40


 2224 0171 06       		.uleb128 0x6
 2225 0172 40       		.uleb128 0x40
 2226 0173 18       		.uleb128 0x18
 2227 0174 9742     		.uleb128 0x2117
 2228 0176 19       		.uleb128 0x19
 2229 0177 01       		.uleb128 0x1
 2230 0178 13       		.uleb128 0x13
 2231 0179 00       		.byte	0
 2232 017a 00       		.byte	0
 2233 017b 1F       		.uleb128 0x1f
 2234 017c 0B       		.uleb128 0xb
 2235 017d 01       		.byte	0x1
 2236 017e 55       		.uleb128 0x55
 2237 017f 17       		.uleb128 0x17
 2238 0180 01       		.uleb128 0x1
 2239 0181 13       		.uleb128 0x13
 2240 0182 00       		.byte	0
 2241 0183 00       		.byte	0
 2242 0184 20       		.uleb128 0x20
 2243 0185 34       		.uleb128 0x34
 2244 0186 00       		.byte	0
 2245 0187 03       		.uleb128 0x3
 2246 0188 0E       		.uleb128 0xe
 2247 0189 3A       		.uleb128 0x3a
 2248 018a 0B       		.uleb128 0xb
 2249 018b 3B       		.uleb128 0x3b
 2250 018c 0B       		.uleb128 0xb
 2251 018d 49       		.uleb128 0x49
 2252 018e 13       		.uleb128 0x13
 2253 018f 02       		.uleb128 0x2
 2254 0190 17       		.uleb128 0x17
 2255 0191 00       		.byte	0
 2256 0192 00       		.byte	0
 2257 0193 21       		.uleb128 0x21
 2258 0194 1D       		.uleb128 0x1d
 2259 0195 01       		.byte	0x1
 2260 0196 31       		.uleb128 0x31
 2261 0197 13       		.uleb128 0x13
 2262 0198 11       		.uleb128 0x11
 2263 0199 01       		.uleb128 0x1
 2264 019a 12       		.uleb128 0x12
 2265 019b 06       		.uleb128 0x6
 2266 019c 58       		.uleb128 0x58
 2267 019d 0B       		.uleb128 0xb
 2268 019e 59       		.uleb128 0x59
 2269 019f 0B       		.uleb128 0xb
 2270 01a0 01       		.uleb128 0x1
 2271 01a1 13       		.uleb128 0x13
 2272 01a2 00       		.byte	0
 2273 01a3 00       		.byte	0
 2274 01a4 22       		.uleb128 0x22
 2275 01a5 0B       		.uleb128 0xb
 2276 01a6 01       		.byte	0x1
 2277 01a7 11       		.uleb128 0x11
 2278 01a8 01       		.uleb128 0x1
 2279 01a9 12       		.uleb128 0x12
 2280 01aa 06       		.uleb128 0x6
ARM GAS  C:\Users\14122\AppData\Local\Temp\ccspwOwR.s 			page 41


 2281 01ab 00       		.byte	0
 2282 01ac 00       		.byte	0
 2283 01ad 23       		.uleb128 0x23
 2284 01ae 34       		.uleb128 0x34
 2285 01af 00       		.byte	0
 2286 01b0 31       		.uleb128 0x31
 2287 01b1 13       		.uleb128 0x13
 2288 01b2 00       		.byte	0
 2289 01b3 00       		.byte	0
 2290 01b4 24       		.uleb128 0x24
 2291 01b5 05       		.uleb128 0x5
 2292 01b6 00       		.byte	0
 2293 01b7 31       		.uleb128 0x31
 2294 01b8 13       		.uleb128 0x13
 2295 01b9 02       		.uleb128 0x2
 2296 01ba 17       		.uleb128 0x17
 2297 01bb 00       		.byte	0
 2298 01bc 00       		.byte	0
 2299 01bd 25       		.uleb128 0x25
 2300 01be 898201   		.uleb128 0x4109
 2301 01c1 00       		.byte	0
 2302 01c2 11       		.uleb128 0x11
 2303 01c3 01       		.uleb128 0x1
 2304 01c4 31       		.uleb128 0x31
 2305 01c5 13       		.uleb128 0x13
 2306 01c6 00       		.byte	0
 2307 01c7 00       		.byte	0
 2308 01c8 26       		.uleb128 0x26
 2309 01c9 1D       		.uleb128 0x1d
 2310 01ca 01       		.byte	0x1
 2311 01cb 31       		.uleb128 0x31
 2312 01cc 13       		.uleb128 0x13
 2313 01cd 11       		.uleb128 0x11
 2314 01ce 01       		.uleb128 0x1
 2315 01cf 12       		.uleb128 0x12
 2316 01d0 06       		.uleb128 0x6
 2317 01d1 58       		.uleb128 0x58
 2318 01d2 0B       		.uleb128 0xb
 2319 01d3 59       		.uleb128 0x59
 2320 01d4 05       		.uleb128 0x5
 2321 01d5 00       		.byte	0
 2322 01d6 00       		.byte	0
 2323 01d7 27       		.uleb128 0x27
 2324 01d8 1D       		.uleb128 0x1d
 2325 01d9 01       		.byte	0x1
 2326 01da 31       		.uleb128 0x31
 2327 01db 13       		.uleb128 0x13
 2328 01dc 11       		.uleb128 0x11
 2329 01dd 01       		.uleb128 0x1
 2330 01de 12       		.uleb128 0x12
 2331 01df 06       		.uleb128 0x6
 2332 01e0 58       		.uleb128 0x58
 2333 01e1 0B       		.uleb128 0xb
 2334 01e2 59       		.uleb128 0x59
 2335 01e3 0B       		.uleb128 0xb
 2336 01e4 00       		.byte	0
 2337 01e5 00       		.byte	0
ARM GAS  C:\Users\14122\AppData\Local\Temp\ccspwOwR.s 			page 42


 2338 01e6 28       		.uleb128 0x28
 2339 01e7 2E       		.uleb128 0x2e
 2340 01e8 00       		.byte	0
 2341 01e9 03       		.uleb128 0x3
 2342 01ea 0E       		.uleb128 0xe
 2343 01eb 3A       		.uleb128 0x3a
 2344 01ec 0B       		.uleb128 0xb
 2345 01ed 3B       		.uleb128 0x3b
 2346 01ee 05       		.uleb128 0x5
 2347 01ef 27       		.uleb128 0x27
 2348 01f0 19       		.uleb128 0x19
 2349 01f1 20       		.uleb128 0x20
 2350 01f2 0B       		.uleb128 0xb
 2351 01f3 00       		.byte	0
 2352 01f4 00       		.byte	0
 2353 01f5 29       		.uleb128 0x29
 2354 01f6 2E       		.uleb128 0x2e
 2355 01f7 01       		.byte	0x1
 2356 01f8 03       		.uleb128 0x3
 2357 01f9 0E       		.uleb128 0xe
 2358 01fa 3A       		.uleb128 0x3a
 2359 01fb 0B       		.uleb128 0xb
 2360 01fc 3B       		.uleb128 0x3b
 2361 01fd 05       		.uleb128 0x5
 2362 01fe 27       		.uleb128 0x27
 2363 01ff 19       		.uleb128 0x19
 2364 0200 20       		.uleb128 0x20
 2365 0201 0B       		.uleb128 0xb
 2366 0202 01       		.uleb128 0x1
 2367 0203 13       		.uleb128 0x13
 2368 0204 00       		.byte	0
 2369 0205 00       		.byte	0
 2370 0206 2A       		.uleb128 0x2a
 2371 0207 05       		.uleb128 0x5
 2372 0208 00       		.byte	0
 2373 0209 03       		.uleb128 0x3
 2374 020a 0E       		.uleb128 0xe
 2375 020b 3A       		.uleb128 0x3a
 2376 020c 0B       		.uleb128 0xb
 2377 020d 3B       		.uleb128 0x3b
 2378 020e 05       		.uleb128 0x5
 2379 020f 49       		.uleb128 0x49
 2380 0210 13       		.uleb128 0x13
 2381 0211 00       		.byte	0
 2382 0212 00       		.byte	0
 2383 0213 2B       		.uleb128 0x2b
 2384 0214 2E       		.uleb128 0x2e
 2385 0215 01       		.byte	0x1
 2386 0216 03       		.uleb128 0x3
 2387 0217 0E       		.uleb128 0xe
 2388 0218 3A       		.uleb128 0x3a
 2389 0219 0B       		.uleb128 0xb
 2390 021a 3B       		.uleb128 0x3b
 2391 021b 0B       		.uleb128 0xb
 2392 021c 27       		.uleb128 0x27
 2393 021d 19       		.uleb128 0x19
 2394 021e 49       		.uleb128 0x49
ARM GAS  C:\Users\14122\AppData\Local\Temp\ccspwOwR.s 			page 43


 2395 021f 13       		.uleb128 0x13
 2396 0220 20       		.uleb128 0x20
 2397 0221 0B       		.uleb128 0xb
 2398 0222 01       		.uleb128 0x1
 2399 0223 13       		.uleb128 0x13
 2400 0224 00       		.byte	0
 2401 0225 00       		.byte	0
 2402 0226 2C       		.uleb128 0x2c
 2403 0227 34       		.uleb128 0x34
 2404 0228 00       		.byte	0
 2405 0229 03       		.uleb128 0x3
 2406 022a 0E       		.uleb128 0xe
 2407 022b 3A       		.uleb128 0x3a
 2408 022c 0B       		.uleb128 0xb
 2409 022d 3B       		.uleb128 0x3b
 2410 022e 0B       		.uleb128 0xb
 2411 022f 49       		.uleb128 0x49
 2412 0230 13       		.uleb128 0x13
 2413 0231 00       		.byte	0
 2414 0232 00       		.byte	0
 2415 0233 2D       		.uleb128 0x2d
 2416 0234 2E       		.uleb128 0x2e
 2417 0235 00       		.byte	0
 2418 0236 3F       		.uleb128 0x3f
 2419 0237 19       		.uleb128 0x19
 2420 0238 3C       		.uleb128 0x3c
 2421 0239 19       		.uleb128 0x19
 2422 023a 6E       		.uleb128 0x6e
 2423 023b 0E       		.uleb128 0xe
 2424 023c 03       		.uleb128 0x3
 2425 023d 0E       		.uleb128 0xe
 2426 023e 3A       		.uleb128 0x3a
 2427 023f 0B       		.uleb128 0xb
 2428 0240 3B       		.uleb128 0x3b
 2429 0241 05       		.uleb128 0x5
 2430 0242 00       		.byte	0
 2431 0243 00       		.byte	0
 2432 0244 00       		.byte	0
 2433              		.section	.debug_loc,"",%progbits
 2434              	.Ldebug_loc0:
 2435              	.LLST5:
 2436 0000 1C000000 		.4byte	.LVL9
 2437 0004 24000000 		.4byte	.LVL10
 2438 0008 0300     		.2byte	0x3
 2439 000a 74       		.byte	0x74
 2440 000b 60       		.sleb128 -32
 2441 000c 9F       		.byte	0x9f
 2442 000d 24000000 		.4byte	.LVL10
 2443 0011 2F000000 		.4byte	.LVL13-1
 2444 0015 0100     		.2byte	0x1
 2445 0017 53       		.byte	0x53
 2446 0018 2F000000 		.4byte	.LVL13-1
 2447 001c 42000000 		.4byte	.LVL15
 2448 0020 0300     		.2byte	0x3
 2449 0022 74       		.byte	0x74
 2450 0023 60       		.sleb128 -32
 2451 0024 9F       		.byte	0x9f
ARM GAS  C:\Users\14122\AppData\Local\Temp\ccspwOwR.s 			page 44


 2452 0025 00000000 		.4byte	0
 2453 0029 00000000 		.4byte	0
 2454              	.LLST6:
 2455 002d 28000000 		.4byte	.LVL11
 2456 0031 2C000000 		.4byte	.LVL12
 2457 0035 0100     		.2byte	0x1
 2458 0037 53       		.byte	0x53
 2459 0038 00000000 		.4byte	0
 2460 003c 00000000 		.4byte	0
 2461              	.LLST3:
 2462 0040 00000000 		.4byte	.LVL5
 2463 0044 06000000 		.4byte	.LVL6
 2464 0048 0300     		.2byte	0x3
 2465 004a 08       		.byte	0x8
 2466 004b 20       		.byte	0x20
 2467 004c 9F       		.byte	0x9f
 2468 004d 00000000 		.4byte	0
 2469 0051 00000000 		.4byte	0
 2470              	.LLST4:
 2471 0055 10000000 		.4byte	.LVL7
 2472 0059 14000000 		.4byte	.LVL8
 2473 005d 0200     		.2byte	0x2
 2474 005f 30       		.byte	0x30
 2475 0060 9F       		.byte	0x9f
 2476 0061 00000000 		.4byte	0
 2477 0065 00000000 		.4byte	0
 2478              	.LLST0:
 2479 0069 04000000 		.4byte	.LVL0
 2480 006d 06000000 		.4byte	.LVL1
 2481 0071 0300     		.2byte	0x3
 2482 0073 73       		.byte	0x73
 2483 0074 20       		.sleb128 32
 2484 0075 9F       		.byte	0x9f
 2485 0076 06000000 		.4byte	.LVL1
 2486 007a 0C000000 		.4byte	.LVL3
 2487 007e 0100     		.2byte	0x1
 2488 0080 53       		.byte	0x53
 2489 0081 00000000 		.4byte	0
 2490 0085 00000000 		.4byte	0
 2491              	.LLST1:
 2492 0089 04000000 		.4byte	.LVL0
 2493 008d 06000000 		.4byte	.LVL1
 2494 0091 0300     		.2byte	0x3
 2495 0093 73       		.byte	0x73
 2496 0094 20       		.sleb128 32
 2497 0095 9F       		.byte	0x9f
 2498 0096 06000000 		.4byte	.LVL1
 2499 009a 0A000000 		.4byte	.LVL2
 2500 009e 0100     		.2byte	0x1
 2501 00a0 53       		.byte	0x53
 2502 00a1 00000000 		.4byte	0
 2503 00a5 00000000 		.4byte	0
 2504              	.LLST2:
 2505 00a9 0A000000 		.4byte	.LVL2
 2506 00ad 10000000 		.4byte	.LVL4
 2507 00b1 0200     		.2byte	0x2
 2508 00b3 30       		.byte	0x30
ARM GAS  C:\Users\14122\AppData\Local\Temp\ccspwOwR.s 			page 45


 2509 00b4 9F       		.byte	0x9f
 2510 00b5 00000000 		.4byte	0
 2511 00b9 00000000 		.4byte	0
 2512              		.section	.debug_aranges,"",%progbits
 2513 0000 24000000 		.4byte	0x24
 2514 0004 0200     		.2byte	0x2
 2515 0006 00000000 		.4byte	.Ldebug_info0
 2516 000a 04       		.byte	0x4
 2517 000b 00       		.byte	0
 2518 000c 0000     		.2byte	0
 2519 000e 0000     		.2byte	0
 2520 0010 00000000 		.4byte	.LFB220
 2521 0014 12000000 		.4byte	.LFE220-.LFB220
 2522 0018 00000000 		.4byte	.LFB221
 2523 001c 50000000 		.4byte	.LFE221-.LFB221
 2524 0020 00000000 		.4byte	0
 2525 0024 00000000 		.4byte	0
 2526              		.section	.debug_ranges,"",%progbits
 2527              	.Ldebug_ranges0:
 2528 0000 18000000 		.4byte	.LBB63
 2529 0004 38000000 		.4byte	.LBE63
 2530 0008 3A000000 		.4byte	.LBB68
 2531 000c 40000000 		.4byte	.LBE68
 2532 0010 00000000 		.4byte	0
 2533 0014 00000000 		.4byte	0
 2534 0018 00000000 		.4byte	.LFB220
 2535 001c 12000000 		.4byte	.LFE220
 2536 0020 00000000 		.4byte	.LFB221
 2537 0024 50000000 		.4byte	.LFE221
 2538 0028 00000000 		.4byte	0
 2539 002c 00000000 		.4byte	0
 2540              		.section	.debug_line,"",%progbits
 2541              	.Ldebug_line0:
 2542 0000 5A030000 		.section	.debug_str,"MS",%progbits,1
 2542      0200DF02 
 2542      00000201 
 2542      FB0E0D00 
 2542      01010101 
 2543              	.LASF48:
 2544 0000 63685F74 		.ascii	"ch_threads_list\000"
 2544      68726561 
 2544      64735F6C 
 2544      69737400 
 2545              	.LASF119:
 2546 0010 74696D65 		.ascii	"timesize\000"
 2546      73697A65 
 2546      00
 2547              	.LASF88:
 2548 0019 43504143 		.ascii	"CPACR\000"
 2548      5200
 2549              	.LASF91:
 2550 001f 53797374 		.ascii	"SystemCoreClock\000"
 2550      656D436F 
 2550      7265436C 
 2550      6F636B00 
 2551              	.LASF107:
 2552 002f 77746D74 		.ascii	"wtmtxp\000"
ARM GAS  C:\Users\14122\AppData\Local\Temp\ccspwOwR.s 			page 46


 2552      787000
 2553              	.LASF145:
 2554 0036 6D656D6F 		.ascii	"memory_pool_t\000"
 2554      72795F70 
 2554      6F6F6C5F 
 2554      7400
 2555              	.LASF157:
 2556 0044 6669666F 		.ascii	"fifo_list\000"
 2556      5F6C6973 
 2556      7400
 2557              	.LASF94:
 2558 004e 72656761 		.ascii	"regarm_t\000"
 2558      726D5F74 
 2558      00
 2559              	.LASF149:
 2560 0057 64796E5F 		.ascii	"dyn_list_t\000"
 2560      6C697374 
 2560      5F7400
 2561              	.LASF37:
 2562 0062 666C6167 		.ascii	"flags\000"
 2562      7300
 2563              	.LASF72:
 2564 0068 73797374 		.ascii	"systime_t\000"
 2564      696D655F 
 2564      7400
 2565              	.LASF43:
 2566 0072 7265616C 		.ascii	"realprio\000"
 2566      7072696F 
 2566      00
 2567              	.LASF41:
 2568 007b 6570656E 		.ascii	"epending\000"
 2568      64696E67 
 2568      00
 2569              	.LASF0:
 2570 0084 756E7369 		.ascii	"unsigned int\000"
 2570      676E6564 
 2570      20696E74 
 2570      00
 2571              	.LASF49:
 2572 0091 6E657874 		.ascii	"next\000"
 2572      00
 2573              	.LASF117:
 2574 0096 76657273 		.ascii	"version\000"
 2574      696F6E00 
 2575              	.LASF46:
 2576 009e 74687265 		.ascii	"threads_list_t\000"
 2576      6164735F 
 2576      6C697374 
 2576      5F7400
 2577              	.LASF81:
 2578 00ad 44465352 		.ascii	"DFSR\000"
 2578      00
 2579              	.LASF151:
 2580 00b2 6F626A5F 		.ascii	"obj_list\000"
 2580      6C697374 
 2580      00
 2581              	.LASF10:
ARM GAS  C:\Users\14122\AppData\Local\Temp\ccspwOwR.s 			page 47


 2582 00bb 5F5F696E 		.ascii	"__int32_t\000"
 2582      7433325F 
 2582      7400
 2583              	.LASF38:
 2584 00c5 72656673 		.ascii	"refs\000"
 2584      00
 2585              	.LASF131:
 2586 00ca 6F66665F 		.ascii	"off_time\000"
 2586      74696D65 
 2586      00
 2587              	.LASF103:
 2588 00d3 77746F62 		.ascii	"wtobjp\000"
 2588      6A7000
 2589              	.LASF166:
 2590 00da 706F7274 		.ascii	"port_lock\000"
 2590      5F6C6F63 
 2590      6B00
 2591              	.LASF70:
 2592 00e4 76746C69 		.ascii	"vtlist\000"
 2592      737400
 2593              	.LASF96:
 2594 00eb 706F7274 		.ascii	"port_context\000"
 2594      5F636F6E 
 2594      74657874 
 2594      00
 2595              	.LASF164:
 2596 00f8 706F7274 		.ascii	"port_lock_from_isr\000"
 2596      5F6C6F63 
 2596      6B5F6672 
 2596      6F6D5F69 
 2596      737200
 2597              	.LASF54:
 2598 010b 63685F72 		.ascii	"ch_ready_list\000"
 2598      65616479 
 2598      5F6C6973 
 2598      7400
 2599              	.LASF173:
 2600 0119 443A5C68 		.ascii	"D:\\hkust\\robomaster\\eclipse___files\\cundang\\as"
 2600      6B757374 
 2600      5C726F62 
 2600      6F6D6173 
 2600      7465725C 
 2601 0147 7369676E 		.ascii	"signment2-master_10.20_turret_2\000"
 2601      6D656E74 
 2601      322D6D61 
 2601      73746572 
 2601      5F31302E 
 2602              	.LASF60:
 2603 0167 66756E63 		.ascii	"func\000"
 2603      00
 2604              	.LASF108:
 2605 016c 65776D61 		.ascii	"ewmask\000"
 2605      736B00
 2606              	.LASF52:
 2607 0173 70726576 		.ascii	"prev\000"
 2607      00
 2608              	.LASF51:
ARM GAS  C:\Users\14122\AppData\Local\Temp\ccspwOwR.s 			page 48


 2609 0178 63685F74 		.ascii	"ch_threads_queue\000"
 2609      68726561 
 2609      64735F71 
 2609      75657565 
 2609      00
 2610              	.LASF150:
 2611 0189 63685F6F 		.ascii	"ch_objects_factory\000"
 2611      626A6563 
 2611      74735F66 
 2611      6163746F 
 2611      727900
 2612              	.LASF172:
 2613 019c 2E2F2F6F 		.ascii	".//os/common/ports/ARMCMx/chcore_v7m.c\000"
 2613      732F636F 
 2613      6D6D6F6E 
 2613      2F706F72 
 2613      74732F41 
 2614              	.LASF123:
 2615 01c3 6F66665F 		.ascii	"off_newer\000"
 2615      6E657765 
 2615      7200
 2616              	.LASF56:
 2617 01cd 76746675 		.ascii	"vtfunc_t\000"
 2617      6E635F74 
 2617      00
 2618              	.LASF65:
 2619 01d6 63685F73 		.ascii	"ch_system_debug\000"
 2619      79737465 
 2619      6D5F6465 
 2619      62756700 
 2620              	.LASF19:
 2621 01e6 75696E74 		.ascii	"uint32_t\000"
 2621      33325F74 
 2621      00
 2622              	.LASF105:
 2623 01ef 73656E74 		.ascii	"sentmsg\000"
 2623      6D736700 
 2624              	.LASF85:
 2625 01f7 4D4D4652 		.ascii	"MMFR\000"
 2625      00
 2626              	.LASF26:
 2627 01fc 6576656E 		.ascii	"eventmask_t\000"
 2627      746D6173 
 2627      6B5F7400 
 2628              	.LASF120:
 2629 0208 74687265 		.ascii	"threadsize\000"
 2629      61647369 
 2629      7A6500
 2630              	.LASF109:
 2631 0213 63685F73 		.ascii	"ch_semaphore\000"
 2631      656D6170 
 2631      686F7265 
 2631      00
 2632              	.LASF24:
 2633 0220 74707269 		.ascii	"tprio_t\000"
 2633      6F5F7400 
 2634              	.LASF58:
ARM GAS  C:\Users\14122\AppData\Local\Temp\ccspwOwR.s 			page 49


 2635 0228 63685F76 		.ascii	"ch_virtual_timer\000"
 2635      69727475 
 2635      616C5F74 
 2635      696D6572 
 2635      00
 2636              	.LASF139:
 2637 0239 6D656D63 		.ascii	"memcore_t\000"
 2637      6F72655F 
 2637      7400
 2638              	.LASF175:
 2639 0243 72657375 		.ascii	"result\000"
 2639      6C7400
 2640              	.LASF15:
 2641 024a 6C6F6E67 		.ascii	"long long unsigned int\000"
 2641      206C6F6E 
 2641      6720756E 
 2641      7369676E 
 2641      65642069 
 2642              	.LASF176:
 2643 0261 63685363 		.ascii	"chSchIsPreemptionRequired\000"
 2643      68497350 
 2643      7265656D 
 2643      7074696F 
 2643      6E526571 
 2644              	.LASF8:
 2645 027b 5F5F7569 		.ascii	"__uint16_t\000"
 2645      6E743136 
 2645      5F7400
 2646              	.LASF27:
 2647 0286 636E745F 		.ascii	"cnt_t\000"
 2647      7400
 2648              	.LASF126:
 2649 028c 6F66665F 		.ascii	"off_stklimit\000"
 2649      73746B6C 
 2649      696D6974 
 2649      00
 2650              	.LASF111:
 2651 0299 6F776E65 		.ascii	"owner\000"
 2651      7200
 2652              	.LASF50:
 2653 029f 74687265 		.ascii	"threads_queue_t\000"
 2653      6164735F 
 2653      71756575 
 2653      655F7400 
 2654              	.LASF170:
 2655 02af 746F704F 		.ascii	"topOfProcStack\000"
 2655      6650726F 
 2655      63537461 
 2655      636B00
 2656              	.LASF42:
 2657 02be 6D74786C 		.ascii	"mtxlist\000"
 2657      69737400 
 2658              	.LASF62:
 2659 02c6 63685F76 		.ascii	"ch_virtual_timers_list\000"
 2659      69727475 
 2659      616C5F74 
 2659      696D6572 
ARM GAS  C:\Users\14122\AppData\Local\Temp\ccspwOwR.s 			page 50


 2659      735F6C69 
 2660              	.LASF169:
 2661 02dd 62617365 		.ascii	"basePri\000"
 2661      50726900 
 2662              	.LASF29:
 2663 02e5 74687265 		.ascii	"thread_t\000"
 2663      61645F74 
 2663      00
 2664              	.LASF124:
 2665 02ee 6F66665F 		.ascii	"off_older\000"
 2665      6F6C6465 
 2665      7200
 2666              	.LASF127:
 2667 02f8 6F66665F 		.ascii	"off_state\000"
 2667      73746174 
 2667      6500
 2668              	.LASF4:
 2669 0302 73697A65 		.ascii	"size_t\000"
 2669      5F7400
 2670              	.LASF101:
 2671 0309 7264796D 		.ascii	"rdymsg\000"
 2671      736700
 2672              	.LASF142:
 2673 0310 6F626A65 		.ascii	"object_size\000"
 2673      63745F73 
 2673      697A6500 
 2674              	.LASF74:
 2675 031c 43505549 		.ascii	"CPUID\000"
 2675      4400
 2676              	.LASF135:
 2677 0322 5F426F6F 		.ascii	"_Bool\000"
 2677      6C00
 2678              	.LASF158:
 2679 0328 6F626A65 		.ascii	"objects_factory_t\000"
 2679      6374735F 
 2679      66616374 
 2679      6F72795F 
 2679      7400
 2680              	.LASF110:
 2681 033a 63685F6D 		.ascii	"ch_mutex\000"
 2681      75746578 
 2681      00
 2682              	.LASF14:
 2683 0343 5F5F7569 		.ascii	"__uint64_t\000"
 2683      6E743634 
 2683      5F7400
 2684              	.LASF84:
 2685 034e 41465352 		.ascii	"AFSR\000"
 2685      00
 2686              	.LASF93:
 2687 0353 41504250 		.ascii	"APBPrescTable\000"
 2687      72657363 
 2687      5461626C 
 2687      6500
 2688              	.LASF161:
 2689 0361 5356435F 		.ascii	"SVC_Handler\000"
 2689      48616E64 
ARM GAS  C:\Users\14122\AppData\Local\Temp\ccspwOwR.s 			page 51


 2689      6C657200 
 2690              	.LASF122:
 2691 036d 6F66665F 		.ascii	"off_ctx\000"
 2691      63747800 
 2692              	.LASF167:
 2693 0375 5F5F7365 		.ascii	"__set_BASEPRI\000"
 2693      745F4241 
 2693      53455052 
 2693      4900
 2694              	.LASF128:
 2695 0383 6F66665F 		.ascii	"off_flags\000"
 2695      666C6167 
 2695      7300
 2696              	.LASF80:
 2697 038d 48465352 		.ascii	"HFSR\000"
 2697      00
 2698              	.LASF31:
 2699 0392 7072696F 		.ascii	"prio\000"
 2699      00
 2700              	.LASF155:
 2701 0397 73656D5F 		.ascii	"sem_pool\000"
 2701      706F6F6C 
 2701      00
 2702              	.LASF112:
 2703 03a0 63686172 		.ascii	"char\000"
 2703      00
 2704              	.LASF45:
 2705 03a5 74687265 		.ascii	"thread_reference_t\000"
 2705      61645F72 
 2705      65666572 
 2705      656E6365 
 2705      5F7400
 2706              	.LASF35:
 2707 03b8 77616261 		.ascii	"wabase\000"
 2707      736500
 2708              	.LASF113:
 2709 03bf 63685F69 		.ascii	"ch_idle_thread_wa\000"
 2709      646C655F 
 2709      74687265 
 2709      61645F77 
 2709      6100
 2710              	.LASF75:
 2711 03d1 49435352 		.ascii	"ICSR\000"
 2711      00
 2712              	.LASF22:
 2713 03d6 74737461 		.ascii	"tstate_t\000"
 2713      74655F74 
 2713      00
 2714              	.LASF77:
 2715 03df 41495243 		.ascii	"AIRCR\000"
 2715      5200
 2716              	.LASF16:
 2717 03e5 75696E74 		.ascii	"uint8_t\000"
 2717      385F7400 
 2718              	.LASF146:
 2719 03ed 63685F64 		.ascii	"ch_dyn_element\000"
 2719      796E5F65 
ARM GAS  C:\Users\14122\AppData\Local\Temp\ccspwOwR.s 			page 52


 2719      6C656D65 
 2719      6E7400
 2720              	.LASF40:
 2721 03fc 6D736771 		.ascii	"msgqueue\000"
 2721      75657565 
 2721      00
 2722              	.LASF47:
 2723 0405 63685F74 		.ascii	"ch_thread\000"
 2723      68726561 
 2723      6400
 2724              	.LASF148:
 2725 040f 63685F64 		.ascii	"ch_dyn_list\000"
 2725      796E5F6C 
 2725      69737400 
 2726              	.LASF125:
 2727 041b 6F66665F 		.ascii	"off_name\000"
 2727      6E616D65 
 2727      00
 2728              	.LASF64:
 2729 0424 73797374 		.ascii	"system_debug_t\000"
 2729      656D5F64 
 2729      65627567 
 2729      5F7400
 2730              	.LASF1:
 2731 0433 6C6F6E67 		.ascii	"long long int\000"
 2731      206C6F6E 
 2731      6720696E 
 2731      7400
 2732              	.LASF115:
 2733 0441 7A65726F 		.ascii	"zero\000"
 2733      00
 2734              	.LASF25:
 2735 0446 6D73675F 		.ascii	"msg_t\000"
 2735      7400
 2736              	.LASF152:
 2737 044c 6F626A5F 		.ascii	"obj_pool\000"
 2737      706F6F6C 
 2737      00
 2738              	.LASF79:
 2739 0455 43465352 		.ascii	"CFSR\000"
 2739      00
 2740              	.LASF57:
 2741 045a 76697274 		.ascii	"virtual_timer_t\000"
 2741      75616C5F 
 2741      74696D65 
 2741      725F7400 
 2742              	.LASF116:
 2743 046a 73697A65 		.ascii	"size\000"
 2743      00
 2744              	.LASF118:
 2745 046f 70747273 		.ascii	"ptrsize\000"
 2745      697A6500 
 2746              	.LASF92:
 2747 0477 41484250 		.ascii	"AHBPrescTable\000"
 2747      72657363 
 2747      5461626C 
 2747      6500
ARM GAS  C:\Users\14122\AppData\Local\Temp\ccspwOwR.s 			page 53


 2748              	.LASF73:
 2749 0485 73797369 		.ascii	"sysinterval_t\000"
 2749      6E746572 
 2749      76616C5F 
 2749      7400
 2750              	.LASF153:
 2751 0493 6275665F 		.ascii	"buf_list\000"
 2751      6C697374 
 2751      00
 2752              	.LASF66:
 2753 049c 70616E69 		.ascii	"panic_msg\000"
 2753      635F6D73 
 2753      6700
 2754              	.LASF21:
 2755 04a6 746D6F64 		.ascii	"tmode_t\000"
 2755      655F7400 
 2756              	.LASF28:
 2757 04ae 75636E74 		.ascii	"ucnt_t\000"
 2757      5F7400
 2758              	.LASF71:
 2759 04b5 6D61696E 		.ascii	"mainthread\000"
 2759      74687265 
 2759      616400
 2760              	.LASF2:
 2761 04c0 6C6F6E67 		.ascii	"long double\000"
 2761      20646F75 
 2761      626C6500 
 2762              	.LASF17:
 2763 04cc 75696E74 		.ascii	"uint16_t\000"
 2763      31365F74 
 2763      00
 2764              	.LASF132:
 2765 04d5 63686465 		.ascii	"chdebug_t\000"
 2765      6275675F 
 2765      7400
 2766              	.LASF121:
 2767 04df 6F66665F 		.ascii	"off_prio\000"
 2767      7072696F 
 2767      00
 2768              	.LASF82:
 2769 04e8 4D4D4641 		.ascii	"MMFAR\000"
 2769      5200
 2770              	.LASF168:
 2771 04ee 5F5F7365 		.ascii	"__set_PSP\000"
 2771      745F5053 
 2771      5000
 2772              	.LASF87:
 2773 04f8 52455345 		.ascii	"RESERVED0\000"
 2773      52564544 
 2773      3000
 2774              	.LASF78:
 2775 0502 53484353 		.ascii	"SHCSR\000"
 2775      5200
 2776              	.LASF140:
 2777 0508 63685F6D 		.ascii	"ch_memcore\000"
 2777      656D636F 
 2777      726500
ARM GAS  C:\Users\14122\AppData\Local\Temp\ccspwOwR.s 			page 54


 2778              	.LASF7:
 2779 0513 73686F72 		.ascii	"short int\000"
 2779      7420696E 
 2779      7400
 2780              	.LASF162:
 2781 051d 63747870 		.ascii	"ctxp\000"
 2781      00
 2782              	.LASF11:
 2783 0522 6C6F6E67 		.ascii	"long int\000"
 2783      20696E74 
 2783      00
 2784              	.LASF97:
 2785 052b 706F7274 		.ascii	"port_intctx\000"
 2785      5F696E74 
 2785      63747800 
 2786              	.LASF90:
 2787 0537 49544D5F 		.ascii	"ITM_RxBuffer\000"
 2787      52784275 
 2787      66666572 
 2787      00
 2788              	.LASF159:
 2789 0544 63685F66 		.ascii	"ch_factory\000"
 2789      6163746F 
 2789      727900
 2790              	.LASF68:
 2791 054f 63685F73 		.ascii	"ch_system\000"
 2791      79737465 
 2791      6D00
 2792              	.LASF171:
 2793 0559 474E5520 		.ascii	"GNU C11 7.2.1 20170904 (release) [ARM/embedded-7-br"
 2793      43313120 
 2793      372E322E 
 2793      31203230 
 2793      31373039 
 2794 058c 616E6368 		.ascii	"anch revision 255204] -mcpu=cortex-m3 -mthumb -ggdb"
 2794      20726576 
 2794      6973696F 
 2794      6E203235 
 2794      35323034 
 2795 05bf 202D4F32 		.ascii	" -O2 -fomit-frame-pointer -falign-functions=16 -ffu"
 2795      202D666F 
 2795      6D69742D 
 2795      6672616D 
 2795      652D706F 
 2796 05f2 6E637469 		.ascii	"nction-sections -fdata-sections -fno-common\000"
 2796      6F6E2D73 
 2796      65637469 
 2796      6F6E7320 
 2796      2D666461 
 2797              	.LASF144:
 2798 061e 70726F76 		.ascii	"provider\000"
 2798      69646572 
 2798      00
 2799              	.LASF63:
 2800 0627 6C617374 		.ascii	"lasttime\000"
 2800      74696D65 
 2800      00
ARM GAS  C:\Users\14122\AppData\Local\Temp\ccspwOwR.s 			page 55


 2801              	.LASF20:
 2802 0630 75696E74 		.ascii	"uint64_t\000"
 2802      36345F74 
 2802      00
 2803              	.LASF69:
 2804 0639 726C6973 		.ascii	"rlist\000"
 2804      7400
 2805              	.LASF5:
 2806 063f 5F5F7569 		.ascii	"__uint8_t\000"
 2806      6E74385F 
 2806      7400
 2807              	.LASF98:
 2808 0649 706F7274 		.ascii	"port_extctx\000"
 2808      5F657874 
 2808      63747800 
 2809              	.LASF89:
 2810 0655 5343425F 		.ascii	"SCB_Type\000"
 2810      54797065 
 2810      00
 2811              	.LASF136:
 2812 065e 6D656D67 		.ascii	"memgetfunc_t\000"
 2812      65746675 
 2812      6E635F74 
 2812      00
 2813              	.LASF34:
 2814 066b 6E616D65 		.ascii	"name\000"
 2814      00
 2815              	.LASF83:
 2816 0670 42464152 		.ascii	"BFAR\000"
 2816      00
 2817              	.LASF114:
 2818 0675 6964656E 		.ascii	"identifier\000"
 2818      74696669 
 2818      657200
 2819              	.LASF76:
 2820 0680 56544F52 		.ascii	"VTOR\000"
 2820      00
 2821              	.LASF130:
 2822 0685 6F66665F 		.ascii	"off_preempt\000"
 2822      70726565 
 2822      6D707400 
 2823              	.LASF100:
 2824 0691 78707372 		.ascii	"xpsr\000"
 2824      00
 2825              	.LASF23:
 2826 0696 74726566 		.ascii	"trefs_t\000"
 2826      735F7400 
 2827              	.LASF13:
 2828 069e 6C6F6E67 		.ascii	"long unsigned int\000"
 2828      20756E73 
 2828      69676E65 
 2828      6420696E 
 2828      7400
 2829              	.LASF53:
 2830 06b0 72656164 		.ascii	"ready_list_t\000"
 2830      795F6C69 
 2830      73745F74 
ARM GAS  C:\Users\14122\AppData\Local\Temp\ccspwOwR.s 			page 56


 2830      00
 2831              	.LASF30:
 2832 06bd 71756575 		.ascii	"queue\000"
 2832      6500
 2833              	.LASF18:
 2834 06c3 696E7433 		.ascii	"int32_t\000"
 2834      325F7400 
 2835              	.LASF134:
 2836 06cb 6D757465 		.ascii	"mutex_t\000"
 2836      785F7400 
 2837              	.LASF32:
 2838 06d3 6E657765 		.ascii	"newer\000"
 2838      7200
 2839              	.LASF163:
 2840 06d9 706F7274 		.ascii	"port_unlock_from_isr\000"
 2840      5F756E6C 
 2840      6F636B5F 
 2840      66726F6D 
 2840      5F697372 
 2841              	.LASF6:
 2842 06ee 756E7369 		.ascii	"unsigned char\000"
 2842      676E6564 
 2842      20636861 
 2842      7200
 2843              	.LASF12:
 2844 06fc 5F5F7569 		.ascii	"__uint32_t\000"
 2844      6E743332 
 2844      5F7400
 2845              	.LASF39:
 2846 0707 77616974 		.ascii	"waiting\000"
 2846      696E6700 
 2847              	.LASF61:
 2848 070f 76697274 		.ascii	"virtual_timers_list_t\000"
 2848      75616C5F 
 2848      74696D65 
 2848      72735F6C 
 2848      6973745F 
 2849              	.LASF147:
 2850 0725 64796E5F 		.ascii	"dyn_element_t\000"
 2850      656C656D 
 2850      656E745F 
 2850      7400
 2851              	.LASF160:
 2852 0733 5F706F72 		.ascii	"_port_irq_epilogue\000"
 2852      745F6972 
 2852      715F6570 
 2852      696C6F67 
 2852      756500
 2853              	.LASF156:
 2854 0746 6D62785F 		.ascii	"mbx_list\000"
 2854      6C697374 
 2854      00
 2855              	.LASF36:
 2856 074f 73746174 		.ascii	"state\000"
 2856      6500
 2857              	.LASF99:
 2858 0755 6C725F74 		.ascii	"lr_thd\000"
ARM GAS  C:\Users\14122\AppData\Local\Temp\ccspwOwR.s 			page 57


 2858      686400
 2859              	.LASF141:
 2860 075c 706F6F6C 		.ascii	"pool_header\000"
 2860      5F686561 
 2860      64657200 
 2861              	.LASF67:
 2862 0768 63685F73 		.ascii	"ch_system_t\000"
 2862      79737465 
 2862      6D5F7400 
 2863              	.LASF106:
 2864 0774 77747365 		.ascii	"wtsemp\000"
 2864      6D7000
 2865              	.LASF104:
 2866 077b 77747472 		.ascii	"wttrp\000"
 2866      7000
 2867              	.LASF3:
 2868 0781 7369676E 		.ascii	"signed char\000"
 2868      65642063 
 2868      68617200 
 2869              	.LASF59:
 2870 078d 64656C74 		.ascii	"delta\000"
 2870      6100
 2871              	.LASF9:
 2872 0793 73686F72 		.ascii	"short unsigned int\000"
 2872      7420756E 
 2872      7369676E 
 2872      65642069 
 2872      6E7400
 2873              	.LASF95:
 2874 07a6 73746B61 		.ascii	"stkalign_t\000"
 2874      6C69676E 
 2874      5F7400
 2875              	.LASF129:
 2876 07b1 6F66665F 		.ascii	"off_refs\000"
 2876      72656673 
 2876      00
 2877              	.LASF138:
 2878 07ba 656E646D 		.ascii	"endmem\000"
 2878      656D00
 2879              	.LASF55:
 2880 07c1 63757272 		.ascii	"current\000"
 2880      656E7400 
 2881              	.LASF133:
 2882 07c9 63685F64 		.ascii	"ch_debug\000"
 2882      65627567 
 2882      00
 2883              	.LASF165:
 2884 07d2 706F7274 		.ascii	"port_unlock\000"
 2884      5F756E6C 
 2884      6F636B00 
 2885              	.LASF86:
 2886 07de 49534152 		.ascii	"ISAR\000"
 2886      00
 2887              	.LASF143:
 2888 07e3 616C6967 		.ascii	"align\000"
 2888      6E00
 2889              	.LASF33:
ARM GAS  C:\Users\14122\AppData\Local\Temp\ccspwOwR.s 			page 58


 2890 07e9 6F6C6465 		.ascii	"older\000"
 2890      7200
 2891              	.LASF137:
 2892 07ef 6E657874 		.ascii	"nextmem\000"
 2892      6D656D00 
 2893              	.LASF102:
 2894 07f7 65786974 		.ascii	"exitcode\000"
 2894      636F6465 
 2894      00
 2895              	.LASF154:
 2896 0800 73656D5F 		.ascii	"sem_list\000"
 2896      6C697374 
 2896      00
 2897              	.LASF44:
 2898 0809 6D706F6F 		.ascii	"mpool\000"
 2898      6C00
 2899              	.LASF174:
 2900 080f 5F5F6765 		.ascii	"__get_PSP\000"
 2900      745F5053 
 2900      5000
 2901              		.ident	"GCC: (GNU Tools for Arm Embedded Processors 7-2017-q4-major) 7.2.1 20170904 (release) [ARM
ARM GAS  C:\Users\14122\AppData\Local\Temp\ccspwOwR.s 			page 59


DEFINED SYMBOLS
                            *ABS*:00000000 chcore_v7m.c
C:\Users\14122\AppData\Local\Temp\ccspwOwR.s:16     .text.SVC_Handler:00000000 $t
C:\Users\14122\AppData\Local\Temp\ccspwOwR.s:24     .text.SVC_Handler:00000000 SVC_Handler
C:\Users\14122\AppData\Local\Temp\ccspwOwR.s:84     .text._port_irq_epilogue:00000000 $t
C:\Users\14122\AppData\Local\Temp\ccspwOwR.s:92     .text._port_irq_epilogue:00000000 _port_irq_epilogue
C:\Users\14122\AppData\Local\Temp\ccspwOwR.s:201    .text._port_irq_epilogue:00000044 $d

UNDEFINED SYMBOLS
chSchIsPreemptionRequired
_port_switch_from_isr
_port_exit_from_isr
