ARM GAS  C:\Users\14122\AppData\Local\Temp\ccQMY3Ij.s 			page 1


   1              		.cpu cortex-m3
   2              		.eabi_attribute 20, 1
   3              		.eabi_attribute 21, 1
   4              		.eabi_attribute 23, 3
   5              		.eabi_attribute 24, 1
   6              		.eabi_attribute 25, 1
   7              		.eabi_attribute 26, 1
   8              		.eabi_attribute 30, 2
   9              		.eabi_attribute 34, 1
  10              		.eabi_attribute 18, 4
  11              		.file	"chcond.c"
  12              		.text
  13              	.Ltext0:
  14              		.cfi_sections	.debug_frame
  15              		.section	.text.chCondObjectInit,"ax",%progbits
  16              		.align	1
  17              		.p2align 4,,15
  18              		.global	chCondObjectInit
  19              		.syntax unified
  20              		.thumb
  21              		.thumb_func
  22              		.fpu softvfp
  23              		.type	chCondObjectInit, %function
  24              	chCondObjectInit:
  25              	.LFB220:
  26              		.file 1 ".//os/rt/src/chcond.c"
  27              		.loc 1 75 0
  28              		.cfi_startproc
  29              		@ args = 0, pretend = 0, frame = 0
  30              		@ frame_needed = 0, uses_anonymous_args = 0
  31              		@ link register save eliminated.
  32              	.LVL0:
  33              	.LBB89:
  34              	.LBB90:
  35              		.file 2 ".//os/rt/include/chschd.h"
  36              		.loc 2 540 0
  37 0000 C0E90000 		strd	r0, r0, [r0]
  38              	.LVL1:
  39              	.LBE90:
  40              	.LBE89:
  41              		.loc 1 80 0
  42 0004 7047     		bx	lr
  43              		.cfi_endproc
  44              	.LFE220:
  45              		.size	chCondObjectInit, .-chCondObjectInit
  46 0006 00BF     		.section	.text.chCondSignal,"ax",%progbits
  47              		.align	1
  48              		.p2align 4,,15
  49              		.global	chCondSignal
  50              		.syntax unified
  51              		.thumb
  52              		.thumb_func
  53              		.fpu softvfp
  54              		.type	chCondSignal, %function
  55              	chCondSignal:
  56              	.LFB221:
  57              		.loc 1 89 0
ARM GAS  C:\Users\14122\AppData\Local\Temp\ccQMY3Ij.s 			page 2


  58              		.cfi_startproc
  59              		@ args = 0, pretend = 0, frame = 0
  60              		@ frame_needed = 0, uses_anonymous_args = 0
  61              	.LVL2:
  62              	.LBB91:
  63              	.LBB92:
  64              	.LBB93:
  65              	.LBB94:
  66              		.file 3 ".//os/common/ext/ARM/CMSIS/Core/Include/cmsis_gcc.h"
  67              		.loc 3 493 0
  68 0000 2023     		movs	r3, #32
  69              		.syntax unified
  70              	@ 493 ".//os/common/ext/ARM/CMSIS/Core/Include/cmsis_gcc.h" 1
  71 0002 83F31188 		MSR basepri, r3
  72              	@ 0 "" 2
  73              	.LVL3:
  74              		.thumb
  75              		.syntax unified
  76              	.LBE94:
  77              	.LBE93:
  78              	.LBE92:
  79              	.LBE91:
  80              	.LBB95:
  81              	.LBB96:
  82              		.loc 2 566 0
  83 0006 0268     		ldr	r2, [r0]
  84              	.LVL4:
  85              	.LBE96:
  86              	.LBE95:
  87              		.loc 1 94 0
  88 0008 9042     		cmp	r0, r2
  89 000a 0CD0     		beq	.L6
  90 000c 0346     		mov	r3, r0
  91              	.LVL5:
  92              		.loc 1 89 0
  93 000e 10B5     		push	{r4, lr}
  94              		.cfi_def_cfa_offset 8
  95              		.cfi_offset 4, -8
  96              		.cfi_offset 14, -4
  97              	.LBB97:
  98              	.LBB98:
  99              		.loc 2 609 0
 100 0010 1468     		ldr	r4, [r2]
 101              	.LBE98:
 102              	.LBE97:
 103              		.loc 1 95 0
 104 0012 1046     		mov	r0, r2
 105              	.LVL6:
 106              	.LBB101:
 107              	.LBB99:
 108              		.loc 2 609 0
 109 0014 1C60     		str	r4, [r3]
 110              	.LBE99:
 111              	.LBE101:
 112              		.loc 1 95 0
 113 0016 0021     		movs	r1, #0
 114              	.LBB102:
ARM GAS  C:\Users\14122\AppData\Local\Temp\ccQMY3Ij.s 			page 3


 115              	.LBB100:
 116              		.loc 2 610 0
 117 0018 6360     		str	r3, [r4, #4]
 118              	.LVL7:
 119              	.LBE100:
 120              	.LBE102:
 121              		.loc 1 95 0
 122 001a FFF7FEFF 		bl	chSchWakeupS
 123              	.LVL8:
 124              	.LBB103:
 125              	.LBB104:
 126              	.LBB105:
 127              	.LBB106:
 128              	.LBB107:
 129              		.loc 3 493 0
 130 001e 0023     		movs	r3, #0
 131              		.syntax unified
 132              	@ 493 ".//os/common/ext/ARM/CMSIS/Core/Include/cmsis_gcc.h" 1
 133 0020 83F31188 		MSR basepri, r3
 134              	@ 0 "" 2
 135              	.LVL9:
 136              		.thumb
 137              		.syntax unified
 138              	.LBE107:
 139              	.LBE106:
 140              	.LBE105:
 141              	.LBE104:
 142              	.LBE103:
 143              		.loc 1 98 0
 144 0024 10BD     		pop	{r4, pc}
 145              	.LVL10:
 146              	.L6:
 147              		.cfi_def_cfa_offset 0
 148              		.cfi_restore 4
 149              		.cfi_restore 14
 150              	.LBB112:
 151              	.LBB111:
 152              	.LBB110:
 153              	.LBB109:
 154              	.LBB108:
 155              		.loc 3 493 0
 156 0026 0023     		movs	r3, #0
 157              		.syntax unified
 158              	@ 493 ".//os/common/ext/ARM/CMSIS/Core/Include/cmsis_gcc.h" 1
 159 0028 83F31188 		MSR basepri, r3
 160              	@ 0 "" 2
 161              	.LVL11:
 162              		.thumb
 163              		.syntax unified
 164 002c 7047     		bx	lr
 165              	.LBE108:
 166              	.LBE109:
 167              	.LBE110:
 168              	.LBE111:
 169              	.LBE112:
 170              		.cfi_endproc
 171              	.LFE221:
ARM GAS  C:\Users\14122\AppData\Local\Temp\ccQMY3Ij.s 			page 4


 172              		.size	chCondSignal, .-chCondSignal
 173 002e 00BF     		.section	.text.chCondSignalI,"ax",%progbits
 174              		.align	1
 175              		.p2align 4,,15
 176              		.global	chCondSignalI
 177              		.syntax unified
 178              		.thumb
 179              		.thumb_func
 180              		.fpu softvfp
 181              		.type	chCondSignalI, %function
 182              	chCondSignalI:
 183              	.LFB222:
 184              		.loc 1 111 0
 185              		.cfi_startproc
 186              		@ args = 0, pretend = 0, frame = 0
 187              		@ frame_needed = 0, uses_anonymous_args = 0
 188              		@ link register save eliminated.
 189              	.LVL12:
 190              	.LBB113:
 191              	.LBB114:
 192              		.loc 2 566 0
 193 0000 0268     		ldr	r2, [r0]
 194              	.LVL13:
 195              	.LBE114:
 196              	.LBE113:
 197              		.loc 1 116 0
 198 0002 9042     		cmp	r0, r2
 199 0004 0AD0     		beq	.L9
 200              		.loc 1 111 0
 201 0006 10B4     		push	{r4}
 202              		.cfi_def_cfa_offset 4
 203              		.cfi_offset 4, -4
 204 0008 0346     		mov	r3, r0
 205              	.LVL14:
 206              	.LBB115:
 207              		.loc 1 118 0
 208 000a 0024     		movs	r4, #0
 209              	.LBB116:
 210              	.LBB117:
 211              		.loc 2 609 0
 212 000c 1168     		ldr	r1, [r2]
 213              	.LBE117:
 214              	.LBE116:
 215              		.loc 1 119 0
 216 000e 1046     		mov	r0, r2
 217              	.LVL15:
 218              	.LBB119:
 219              	.LBB118:
 220              		.loc 2 609 0
 221 0010 1960     		str	r1, [r3]
 222              		.loc 2 610 0
 223 0012 4B60     		str	r3, [r1, #4]
 224              	.LVL16:
 225              	.LBE118:
 226              	.LBE119:
 227              		.loc 1 118 0
 228 0014 5462     		str	r4, [r2, #36]
ARM GAS  C:\Users\14122\AppData\Local\Temp\ccQMY3Ij.s 			page 5


 229              	.LBE115:
 230              		.loc 1 121 0
 231 0016 10BC     		pop	{r4}
 232              		.cfi_restore 4
 233              		.cfi_def_cfa_offset 0
 234              	.LBB120:
 235              		.loc 1 119 0
 236 0018 FFF7FEBF 		b	chSchReadyI
 237              	.LVL17:
 238              	.L9:
 239 001c 7047     		bx	lr
 240              	.LBE120:
 241              		.cfi_endproc
 242              	.LFE222:
 243              		.size	chCondSignalI, .-chCondSignalI
 244 001e 00BF     		.section	.text.chCondBroadcast,"ax",%progbits
 245              		.align	1
 246              		.p2align 4,,15
 247              		.global	chCondBroadcast
 248              		.syntax unified
 249              		.thumb
 250              		.thumb_func
 251              		.fpu softvfp
 252              		.type	chCondBroadcast, %function
 253              	chCondBroadcast:
 254              	.LFB223:
 255              		.loc 1 130 0
 256              		.cfi_startproc
 257              		@ args = 0, pretend = 0, frame = 0
 258              		@ frame_needed = 0, uses_anonymous_args = 0
 259              	.LVL18:
 260 0000 38B5     		push	{r3, r4, r5, lr}
 261              		.cfi_def_cfa_offset 16
 262              		.cfi_offset 3, -16
 263              		.cfi_offset 4, -12
 264              		.cfi_offset 5, -8
 265              		.cfi_offset 14, -4
 266              	.LBB121:
 267              	.LBB122:
 268              	.LBB123:
 269              	.LBB124:
 270              		.loc 3 493 0
 271 0002 2023     		movs	r3, #32
 272              		.syntax unified
 273              	@ 493 ".//os/common/ext/ARM/CMSIS/Core/Include/cmsis_gcc.h" 1
 274 0004 83F31188 		MSR basepri, r3
 275              	@ 0 "" 2
 276              	.LVL19:
 277              		.thumb
 278              		.syntax unified
 279              	.LBE124:
 280              	.LBE123:
 281              	.LBE122:
 282              	.LBE121:
 283              	.LBB125:
 284              	.LBB126:
 285              	.LBB127:
ARM GAS  C:\Users\14122\AppData\Local\Temp\ccQMY3Ij.s 			page 6


 286              	.LBB128:
 287              		.loc 2 566 0
 288 0008 0368     		ldr	r3, [r0]
 289              	.LVL20:
 290              	.LBE128:
 291              	.LBE127:
 292              		.loc 1 157 0
 293 000a 9842     		cmp	r0, r3
 294 000c 0CD0     		beq	.L15
 295 000e 0446     		mov	r4, r0
 296              		.loc 1 158 0
 297 0010 6FF00105 		mvn	r5, #1
 298              	.LVL21:
 299              	.L16:
 300              	.LBB130:
 301              	.LBB131:
 302              		.loc 2 609 0
 303 0014 1A68     		ldr	r2, [r3]
 304              	.LBE131:
 305              	.LBE130:
 306              		.loc 1 158 0
 307 0016 1846     		mov	r0, r3
 308              	.LBB133:
 309              	.LBB132:
 310              		.loc 2 609 0
 311 0018 2260     		str	r2, [r4]
 312              		.loc 2 610 0
 313 001a 5460     		str	r4, [r2, #4]
 314              	.LVL22:
 315              	.LBE132:
 316              	.LBE133:
 317              		.loc 1 158 0
 318 001c FFF7FEFF 		bl	chSchReadyI
 319              	.LVL23:
 320              	.LBB134:
 321              	.LBB129:
 322              		.loc 2 566 0
 323 0020 2368     		ldr	r3, [r4]
 324              	.LBE129:
 325              	.LBE134:
 326              		.loc 1 158 0
 327 0022 4562     		str	r5, [r0, #36]
 328              		.loc 1 157 0
 329 0024 A342     		cmp	r3, r4
 330 0026 F5D1     		bne	.L16
 331              	.LVL24:
 332              	.L15:
 333              	.LBE126:
 334              	.LBE125:
 335              		.loc 1 134 0
 336 0028 FFF7FEFF 		bl	chSchRescheduleS
 337              	.LVL25:
 338              	.LBB135:
 339              	.LBB136:
 340              	.LBB137:
 341              	.LBB138:
 342              	.LBB139:
ARM GAS  C:\Users\14122\AppData\Local\Temp\ccQMY3Ij.s 			page 7


 343              		.loc 3 493 0
 344 002c 0023     		movs	r3, #0
 345              		.syntax unified
 346              	@ 493 ".//os/common/ext/ARM/CMSIS/Core/Include/cmsis_gcc.h" 1
 347 002e 83F31188 		MSR basepri, r3
 348              	@ 0 "" 2
 349              	.LVL26:
 350              		.thumb
 351              		.syntax unified
 352              	.LBE139:
 353              	.LBE138:
 354              	.LBE137:
 355              	.LBE136:
 356              	.LBE135:
 357              		.loc 1 136 0
 358 0032 38BD     		pop	{r3, r4, r5, pc}
 359              		.cfi_endproc
 360              	.LFE223:
 361              		.size	chCondBroadcast, .-chCondBroadcast
 362              		.section	.text.chCondBroadcastI,"ax",%progbits
 363              		.align	1
 364              		.p2align 4,,15
 365              		.global	chCondBroadcastI
 366              		.syntax unified
 367              		.thumb
 368              		.thumb_func
 369              		.fpu softvfp
 370              		.type	chCondBroadcastI, %function
 371              	chCondBroadcastI:
 372              	.LFB224:
 373              		.loc 1 149 0
 374              		.cfi_startproc
 375              		@ args = 0, pretend = 0, frame = 0
 376              		@ frame_needed = 0, uses_anonymous_args = 0
 377              	.LVL27:
 378 0000 38B5     		push	{r3, r4, r5, lr}
 379              		.cfi_def_cfa_offset 16
 380              		.cfi_offset 3, -16
 381              		.cfi_offset 4, -12
 382              		.cfi_offset 5, -8
 383              		.cfi_offset 14, -4
 384              	.LBB140:
 385              	.LBB141:
 386              		.loc 2 566 0
 387 0002 0368     		ldr	r3, [r0]
 388              	.LVL28:
 389              	.LBE141:
 390              	.LBE140:
 391              		.loc 1 157 0
 392 0004 8342     		cmp	r3, r0
 393 0006 0CD0     		beq	.L19
 394 0008 0446     		mov	r4, r0
 395              		.loc 1 158 0
 396 000a 6FF00105 		mvn	r5, #1
 397              	.LVL29:
 398              	.L21:
 399              	.LBB143:
ARM GAS  C:\Users\14122\AppData\Local\Temp\ccQMY3Ij.s 			page 8


 400              	.LBB144:
 401              		.loc 2 609 0
 402 000e 1A68     		ldr	r2, [r3]
 403              	.LBE144:
 404              	.LBE143:
 405              		.loc 1 158 0
 406 0010 1846     		mov	r0, r3
 407              	.LBB146:
 408              	.LBB145:
 409              		.loc 2 609 0
 410 0012 2260     		str	r2, [r4]
 411              		.loc 2 610 0
 412 0014 5460     		str	r4, [r2, #4]
 413              	.LVL30:
 414              	.LBE145:
 415              	.LBE146:
 416              		.loc 1 158 0
 417 0016 FFF7FEFF 		bl	chSchReadyI
 418              	.LVL31:
 419              	.LBB147:
 420              	.LBB142:
 421              		.loc 2 566 0
 422 001a 2368     		ldr	r3, [r4]
 423              	.LBE142:
 424              	.LBE147:
 425              		.loc 1 158 0
 426 001c 4562     		str	r5, [r0, #36]
 427              		.loc 1 157 0
 428 001e A342     		cmp	r3, r4
 429 0020 F5D1     		bne	.L21
 430              	.LVL32:
 431              	.L19:
 432              		.loc 1 160 0
 433 0022 38BD     		pop	{r3, r4, r5, pc}
 434              		.cfi_endproc
 435              	.LFE224:
 436              		.size	chCondBroadcastI, .-chCondBroadcastI
 437              		.section	.text.chCondWaitS,"ax",%progbits
 438              		.align	1
 439              		.p2align 4,,15
 440              		.global	chCondWaitS
 441              		.syntax unified
 442              		.thumb
 443              		.thumb_func
 444              		.fpu softvfp
 445              		.type	chCondWaitS, %function
 446              	chCondWaitS:
 447              	.LFB226:
 448              		.loc 1 205 0
 449              		.cfi_startproc
 450              		@ args = 0, pretend = 0, frame = 0
 451              		@ frame_needed = 0, uses_anonymous_args = 0
 452              	.LVL33:
 453 0000 F8B5     		push	{r3, r4, r5, r6, r7, lr}
 454              		.cfi_def_cfa_offset 24
 455              		.cfi_offset 3, -24
 456              		.cfi_offset 4, -20
ARM GAS  C:\Users\14122\AppData\Local\Temp\ccQMY3Ij.s 			page 9


 457              		.cfi_offset 5, -16
 458              		.cfi_offset 6, -12
 459              		.cfi_offset 7, -8
 460              		.cfi_offset 14, -4
 461              		.loc 1 205 0
 462 0002 0546     		mov	r5, r0
 463              		.loc 1 206 0
 464 0004 104B     		ldr	r3, .L31
 465              		.loc 1 220 0
 466 0006 2E46     		mov	r6, r5
 467              		.loc 1 206 0
 468 0008 9C69     		ldr	r4, [r3, #24]
 469              	.LVL34:
 470              	.LBB148:
 471              	.LBB149:
 472              		.file 4 ".//os/rt/include/chmtx.h"
 473              		.loc 4 145 0
 474 000a A76B     		ldr	r7, [r4, #56]
 475              	.LBE149:
 476              	.LBE148:
 477              		.loc 1 215 0
 478 000c 3846     		mov	r0, r7
 479              	.LVL35:
 480 000e FFF7FEFF 		bl	chMtxUnlockS
 481              	.LVL36:
 482              		.loc 1 220 0
 483 0012 2B46     		mov	r3, r5
 484              		.loc 1 219 0
 485 0014 6562     		str	r5, [r4, #36]
 486 0016 03E0     		b	.L26
 487              	.LVL37:
 488              	.L30:
 489              	.LBB150:
 490              	.LBB151:
 491              		.loc 2 591 0
 492 0018 9968     		ldr	r1, [r3, #8]
 493 001a A268     		ldr	r2, [r4, #8]
 494 001c 9142     		cmp	r1, r2
 495 001e 10D3     		bcc	.L29
 496              	.LVL38:
 497              	.L26:
 498              		.loc 2 590 0
 499 0020 1B68     		ldr	r3, [r3]
 500              	.LVL39:
 501              		.loc 2 591 0
 502 0022 9D42     		cmp	r5, r3
 503 0024 F8D1     		bne	.L30
 504              	.L25:
 505              		.loc 2 593 0
 506 0026 7368     		ldr	r3, [r6, #4]
 507              	.LVL40:
 508              	.LBE151:
 509              	.LBE150:
 510              		.loc 1 221 0
 511 0028 0720     		movs	r0, #7
 512              	.LBB154:
 513              	.LBB152:
ARM GAS  C:\Users\14122\AppData\Local\Temp\ccQMY3Ij.s 			page 10


 514              		.loc 2 593 0
 515 002a C4E90063 		strd	r6, r3, [r4]
 516              		.loc 2 594 0
 517 002e 1C60     		str	r4, [r3]
 518              		.loc 2 595 0
 519 0030 7460     		str	r4, [r6, #4]
 520              	.LVL41:
 521              	.LBE152:
 522              	.LBE154:
 523              		.loc 1 221 0
 524 0032 FFF7FEFF 		bl	chSchGoSleepS
 525              	.LVL42:
 526              		.loc 1 222 0
 527 0036 646A     		ldr	r4, [r4, #36]
 528              	.LVL43:
 529              		.loc 1 223 0
 530 0038 3846     		mov	r0, r7
 531 003a FFF7FEFF 		bl	chMtxLockS
 532              	.LVL44:
 533              		.loc 1 226 0
 534 003e 2046     		mov	r0, r4
 535 0040 F8BD     		pop	{r3, r4, r5, r6, r7, pc}
 536              	.LVL45:
 537              	.L29:
 538              	.LBB155:
 539              	.LBB153:
 540              		.loc 2 590 0
 541 0042 1E46     		mov	r6, r3
 542 0044 EFE7     		b	.L25
 543              	.L32:
 544 0046 00BF     		.align	2
 545              	.L31:
 546 0048 00000000 		.word	ch
 547              	.LBE153:
 548              	.LBE155:
 549              		.cfi_endproc
 550              	.LFE226:
 551              		.size	chCondWaitS, .-chCondWaitS
 552              		.section	.text.chCondWait,"ax",%progbits
 553              		.align	1
 554              		.p2align 4,,15
 555              		.global	chCondWait
 556              		.syntax unified
 557              		.thumb
 558              		.thumb_func
 559              		.fpu softvfp
 560              		.type	chCondWait, %function
 561              	chCondWait:
 562              	.LFB225:
 563              		.loc 1 179 0
 564              		.cfi_startproc
 565              		@ args = 0, pretend = 0, frame = 0
 566              		@ frame_needed = 0, uses_anonymous_args = 0
 567              	.LVL46:
 568 0000 08B5     		push	{r3, lr}
 569              		.cfi_def_cfa_offset 8
 570              		.cfi_offset 3, -8
ARM GAS  C:\Users\14122\AppData\Local\Temp\ccQMY3Ij.s 			page 11


 571              		.cfi_offset 14, -4
 572              	.LBB156:
 573              	.LBB157:
 574              	.LBB158:
 575              	.LBB159:
 576              		.loc 3 493 0
 577 0002 2023     		movs	r3, #32
 578              		.syntax unified
 579              	@ 493 ".//os/common/ext/ARM/CMSIS/Core/Include/cmsis_gcc.h" 1
 580 0004 83F31188 		MSR basepri, r3
 581              	@ 0 "" 2
 582              	.LVL47:
 583              		.thumb
 584              		.syntax unified
 585              	.LBE159:
 586              	.LBE158:
 587              	.LBE157:
 588              	.LBE156:
 589              		.loc 1 183 0
 590 0008 FFF7FEFF 		bl	chCondWaitS
 591              	.LVL48:
 592              	.LBB160:
 593              	.LBB161:
 594              	.LBB162:
 595              	.LBB163:
 596              	.LBB164:
 597              		.loc 3 493 0
 598 000c 0023     		movs	r3, #0
 599              		.syntax unified
 600              	@ 493 ".//os/common/ext/ARM/CMSIS/Core/Include/cmsis_gcc.h" 1
 601 000e 83F31188 		MSR basepri, r3
 602              	@ 0 "" 2
 603              	.LVL49:
 604              		.thumb
 605              		.syntax unified
 606              	.LBE164:
 607              	.LBE163:
 608              	.LBE162:
 609              	.LBE161:
 610              	.LBE160:
 611              		.loc 1 186 0
 612 0012 08BD     		pop	{r3, pc}
 613              		.cfi_endproc
 614              	.LFE225:
 615              		.size	chCondWait, .-chCondWait
 616              		.section	.text.chCondWaitTimeoutS,"ax",%progbits
 617              		.align	1
 618              		.p2align 4,,15
 619              		.global	chCondWaitTimeoutS
 620              		.syntax unified
 621              		.thumb
 622              		.thumb_func
 623              		.fpu softvfp
 624              		.type	chCondWaitTimeoutS, %function
 625              	chCondWaitTimeoutS:
 626              	.LFB228:
 627              		.loc 1 295 0
ARM GAS  C:\Users\14122\AppData\Local\Temp\ccQMY3Ij.s 			page 12


 628              		.cfi_startproc
 629              		@ args = 0, pretend = 0, frame = 0
 630              		@ frame_needed = 0, uses_anonymous_args = 0
 631              	.LVL50:
 632 0000 2DE9F041 		push	{r4, r5, r6, r7, r8, lr}
 633              		.cfi_def_cfa_offset 24
 634              		.cfi_offset 4, -24
 635              		.cfi_offset 5, -20
 636              		.cfi_offset 6, -16
 637              		.cfi_offset 7, -12
 638              		.cfi_offset 8, -8
 639              		.cfi_offset 14, -4
 640              		.loc 1 295 0
 641 0004 0546     		mov	r5, r0
 642              	.LBB165:
 643              	.LBB166:
 644              	.LBB167:
 645              	.LBB168:
 646              		.file 5 ".//os/rt/include/chthreads.h"
 647              		.loc 5 274 0
 648 0006 134C     		ldr	r4, .L46
 649              	.LBE168:
 650              	.LBE167:
 651              	.LBE166:
 652              	.LBE165:
 653              		.loc 1 295 0
 654 0008 8846     		mov	r8, r1
 655              	.LBB171:
 656              	.LBB169:
 657              		.loc 4 145 0
 658 000a A369     		ldr	r3, [r4, #24]
 659              	.LBE169:
 660              	.LBE171:
 661              		.loc 1 309 0
 662 000c 2E46     		mov	r6, r5
 663              	.LBB172:
 664              	.LBB170:
 665              		.loc 4 145 0
 666 000e 9F6B     		ldr	r7, [r3, #56]
 667              	.LBE170:
 668              	.LBE172:
 669              		.loc 1 304 0
 670 0010 3846     		mov	r0, r7
 671              	.LVL51:
 672 0012 FFF7FEFF 		bl	chMtxUnlockS
 673              	.LVL52:
 674              		.loc 1 308 0
 675 0016 A469     		ldr	r4, [r4, #24]
 676              	.LVL53:
 677              		.loc 1 309 0
 678 0018 2B46     		mov	r3, r5
 679              		.loc 1 308 0
 680 001a 6562     		str	r5, [r4, #36]
 681 001c 03E0     		b	.L37
 682              	.LVL54:
 683              	.L45:
 684              	.LBB173:
ARM GAS  C:\Users\14122\AppData\Local\Temp\ccQMY3Ij.s 			page 13


 685              	.LBB174:
 686              		.loc 2 591 0
 687 001e 9868     		ldr	r0, [r3, #8]
 688 0020 A268     		ldr	r2, [r4, #8]
 689 0022 9042     		cmp	r0, r2
 690 0024 14D3     		bcc	.L44
 691              	.LVL55:
 692              	.L37:
 693              		.loc 2 590 0
 694 0026 1B68     		ldr	r3, [r3]
 695              	.LVL56:
 696              		.loc 2 591 0
 697 0028 9D42     		cmp	r5, r3
 698 002a F8D1     		bne	.L45
 699              	.L36:
 700              		.loc 2 593 0
 701 002c 7368     		ldr	r3, [r6, #4]
 702              	.LVL57:
 703              	.LBE174:
 704              	.LBE173:
 705              		.loc 1 310 0
 706 002e 4146     		mov	r1, r8
 707              	.LBB178:
 708              	.LBB175:
 709              		.loc 2 593 0
 710 0030 6360     		str	r3, [r4, #4]
 711              		.loc 2 592 0
 712 0032 2660     		str	r6, [r4]
 713              	.LBE175:
 714              	.LBE178:
 715              		.loc 1 310 0
 716 0034 0720     		movs	r0, #7
 717              	.LBB179:
 718              	.LBB176:
 719              		.loc 2 594 0
 720 0036 1C60     		str	r4, [r3]
 721              		.loc 2 595 0
 722 0038 7460     		str	r4, [r6, #4]
 723              	.LVL58:
 724              	.LBE176:
 725              	.LBE179:
 726              		.loc 1 310 0
 727 003a FFF7FEFF 		bl	chSchGoSleepTimeoutS
 728              	.LVL59:
 729              		.loc 1 311 0
 730 003e 431C     		adds	r3, r0, #1
 731              		.loc 1 310 0
 732 0040 0446     		mov	r4, r0
 733              	.LVL60:
 734              		.loc 1 311 0
 735 0042 02D0     		beq	.L35
 736              		.loc 1 312 0
 737 0044 3846     		mov	r0, r7
 738              	.LVL61:
 739 0046 FFF7FEFF 		bl	chMtxLockS
 740              	.LVL62:
 741              	.L35:
ARM GAS  C:\Users\14122\AppData\Local\Temp\ccQMY3Ij.s 			page 14


 742              		.loc 1 316 0
 743 004a 2046     		mov	r0, r4
 744 004c BDE8F081 		pop	{r4, r5, r6, r7, r8, pc}
 745              	.LVL63:
 746              	.L44:
 747              	.LBB180:
 748              	.LBB177:
 749              		.loc 2 590 0
 750 0050 1E46     		mov	r6, r3
 751 0052 EBE7     		b	.L36
 752              	.L47:
 753              		.align	2
 754              	.L46:
 755 0054 00000000 		.word	ch
 756              	.LBE177:
 757              	.LBE180:
 758              		.cfi_endproc
 759              	.LFE228:
 760              		.size	chCondWaitTimeoutS, .-chCondWaitTimeoutS
 761              		.section	.text.chCondWaitTimeout,"ax",%progbits
 762              		.align	1
 763              		.p2align 4,,15
 764              		.global	chCondWaitTimeout
 765              		.syntax unified
 766              		.thumb
 767              		.thumb_func
 768              		.fpu softvfp
 769              		.type	chCondWaitTimeout, %function
 770              	chCondWaitTimeout:
 771              	.LFB227:
 772              		.loc 1 257 0
 773              		.cfi_startproc
 774              		@ args = 0, pretend = 0, frame = 0
 775              		@ frame_needed = 0, uses_anonymous_args = 0
 776              	.LVL64:
 777 0000 08B5     		push	{r3, lr}
 778              		.cfi_def_cfa_offset 8
 779              		.cfi_offset 3, -8
 780              		.cfi_offset 14, -4
 781              	.LBB181:
 782              	.LBB182:
 783              	.LBB183:
 784              	.LBB184:
 785              		.loc 3 493 0
 786 0002 2023     		movs	r3, #32
 787              		.syntax unified
 788              	@ 493 ".//os/common/ext/ARM/CMSIS/Core/Include/cmsis_gcc.h" 1
 789 0004 83F31188 		MSR basepri, r3
 790              	@ 0 "" 2
 791              	.LVL65:
 792              		.thumb
 793              		.syntax unified
 794              	.LBE184:
 795              	.LBE183:
 796              	.LBE182:
 797              	.LBE181:
 798              		.loc 1 261 0
ARM GAS  C:\Users\14122\AppData\Local\Temp\ccQMY3Ij.s 			page 15


 799 0008 FFF7FEFF 		bl	chCondWaitTimeoutS
 800              	.LVL66:
 801              	.LBB185:
 802              	.LBB186:
 803              	.LBB187:
 804              	.LBB188:
 805              	.LBB189:
 806              		.loc 3 493 0
 807 000c 0023     		movs	r3, #0
 808              		.syntax unified
 809              	@ 493 ".//os/common/ext/ARM/CMSIS/Core/Include/cmsis_gcc.h" 1
 810 000e 83F31188 		MSR basepri, r3
 811              	@ 0 "" 2
 812              	.LVL67:
 813              		.thumb
 814              		.syntax unified
 815              	.LBE189:
 816              	.LBE188:
 817              	.LBE187:
 818              	.LBE186:
 819              	.LBE185:
 820              		.loc 1 265 0
 821 0012 08BD     		pop	{r3, pc}
 822              		.cfi_endproc
 823              	.LFE227:
 824              		.size	chCondWaitTimeout, .-chCondWaitTimeout
 825              		.text
 826              	.Letext0:
 827              		.file 6 "c:\\chibistudio\\tools\\gnu tools arm embedded\\7.0 2017q4\\lib\\gcc\\arm-none-eabi\\7.2.
 828              		.file 7 "c:\\chibistudio\\tools\\gnu tools arm embedded\\7.0 2017q4\\arm-none-eabi\\include\\machi
 829              		.file 8 "c:\\chibistudio\\tools\\gnu tools arm embedded\\7.0 2017q4\\arm-none-eabi\\include\\sys\\
 830              		.file 9 ".//os/common/ports/ARMCMx/compilers/GCC/chtypes.h"
 831              		.file 10 ".//os/rt/include/chsystypes.h"
 832              		.file 11 ".//os/rt/include/chtime.h"
 833              		.file 12 ".//os/common/ext/ARM/CMSIS/Core/Include/core_cm3.h"
 834              		.file 13 ".//os/common/ext/ST/STM32F1xx/system_stm32f1xx.h"
 835              		.file 14 ".//os/common/ports/ARMCMx/chcore.h"
 836              		.file 15 ".//os/common/ports/ARMCMx/chcore_v7m.h"
 837              		.file 16 ".//os/rt/include/chsem.h"
 838              		.file 17 ".//os/rt/include/chsys.h"
 839              		.file 18 ".//os/rt/include/chregistry.h"
 840              		.file 19 ".//os/rt/include/chcond.h"
 841              		.file 20 ".//os/lib/include/chmemcore.h"
 842              		.file 21 ".//os/lib/include/chmempools.h"
 843              		.file 22 ".//os/lib/include/chfactory.h"
 844              		.section	.debug_info,"",%progbits
 845              	.Ldebug_info0:
 846 0000 7E120000 		.4byte	0x127e
 847 0004 0400     		.2byte	0x4
 848 0006 00000000 		.4byte	.Ldebug_abbrev0
 849 000a 04       		.byte	0x4
 850 000b 01       		.uleb128 0x1
 851 000c 9E050000 		.4byte	.LASF173
 852 0010 0C       		.byte	0xc
 853 0011 02010000 		.4byte	.LASF174
 854 0015 18010000 		.4byte	.LASF175
 855 0019 30010000 		.4byte	.Ldebug_ranges0+0x130
ARM GAS  C:\Users\14122\AppData\Local\Temp\ccQMY3Ij.s 			page 16


 856 001d 00000000 		.4byte	0
 857 0021 00000000 		.4byte	.Ldebug_line0
 858 0025 02       		.uleb128 0x2
 859 0026 04       		.byte	0x4
 860 0027 05       		.byte	0x5
 861 0028 696E7400 		.ascii	"int\000"
 862 002c 03       		.uleb128 0x3
 863 002d F7020000 		.4byte	.LASF4
 864 0031 06       		.byte	0x6
 865 0032 D8       		.byte	0xd8
 866 0033 37000000 		.4byte	0x37
 867 0037 04       		.uleb128 0x4
 868 0038 04       		.byte	0x4
 869 0039 07       		.byte	0x7
 870 003a 93000000 		.4byte	.LASF0
 871 003e 04       		.uleb128 0x4
 872 003f 08       		.byte	0x8
 873 0040 05       		.byte	0x5
 874 0041 83040000 		.4byte	.LASF1
 875 0045 04       		.uleb128 0x4
 876 0046 08       		.byte	0x8
 877 0047 04       		.byte	0x4
 878 0048 2A050000 		.4byte	.LASF2
 879 004c 04       		.uleb128 0x4
 880 004d 01       		.byte	0x1
 881 004e 06       		.byte	0x6
 882 004f F9070000 		.4byte	.LASF3
 883 0053 03       		.uleb128 0x3
 884 0054 84060000 		.4byte	.LASF5
 885 0058 07       		.byte	0x7
 886 0059 2B       		.byte	0x2b
 887 005a 5E000000 		.4byte	0x5e
 888 005e 04       		.uleb128 0x4
 889 005f 01       		.byte	0x1
 890 0060 08       		.byte	0x8
 891 0061 5F070000 		.4byte	.LASF6
 892 0065 04       		.uleb128 0x4
 893 0066 02       		.byte	0x2
 894 0067 05       		.byte	0x5
 895 0068 5D050000 		.4byte	.LASF7
 896 006c 03       		.uleb128 0x3
 897 006d 71020000 		.4byte	.LASF8
 898 0071 07       		.byte	0x7
 899 0072 39       		.byte	0x39
 900 0073 77000000 		.4byte	0x77
 901 0077 04       		.uleb128 0x4
 902 0078 02       		.byte	0x2
 903 0079 07       		.byte	0x7
 904 007a 0B080000 		.4byte	.LASF9
 905 007e 03       		.uleb128 0x3
 906 007f C5000000 		.4byte	.LASF10
 907 0083 07       		.byte	0x7
 908 0084 4D       		.byte	0x4d
 909 0085 89000000 		.4byte	0x89
 910 0089 04       		.uleb128 0x4
 911 008a 04       		.byte	0x4
 912 008b 05       		.byte	0x5
ARM GAS  C:\Users\14122\AppData\Local\Temp\ccQMY3Ij.s 			page 17


 913 008c 67050000 		.4byte	.LASF11
 914 0090 03       		.uleb128 0x3
 915 0091 6D070000 		.4byte	.LASF12
 916 0095 07       		.byte	0x7
 917 0096 4F       		.byte	0x4f
 918 0097 9B000000 		.4byte	0x9b
 919 009b 04       		.uleb128 0x4
 920 009c 04       		.byte	0x4
 921 009d 07       		.byte	0x7
 922 009e FD060000 		.4byte	.LASF13
 923 00a2 03       		.uleb128 0x3
 924 00a3 45030000 		.4byte	.LASF14
 925 00a7 07       		.byte	0x7
 926 00a8 69       		.byte	0x69
 927 00a9 AD000000 		.4byte	0xad
 928 00ad 04       		.uleb128 0x4
 929 00ae 08       		.byte	0x8
 930 00af 07       		.byte	0x7
 931 00b0 5A020000 		.4byte	.LASF15
 932 00b4 03       		.uleb128 0x3
 933 00b5 35040000 		.4byte	.LASF16
 934 00b9 08       		.byte	0x8
 935 00ba 18       		.byte	0x18
 936 00bb 53000000 		.4byte	0x53
 937 00bf 05       		.uleb128 0x5
 938 00c0 B4000000 		.4byte	0xb4
 939 00c4 03       		.uleb128 0x3
 940 00c5 36050000 		.4byte	.LASF17
 941 00c9 08       		.byte	0x8
 942 00ca 24       		.byte	0x24
 943 00cb 6C000000 		.4byte	0x6c
 944 00cf 03       		.uleb128 0x3
 945 00d0 37070000 		.4byte	.LASF18
 946 00d4 08       		.byte	0x8
 947 00d5 2C       		.byte	0x2c
 948 00d6 7E000000 		.4byte	0x7e
 949 00da 06       		.uleb128 0x6
 950 00db CF000000 		.4byte	0xcf
 951 00df 03       		.uleb128 0x3
 952 00e0 F7010000 		.4byte	.LASF19
 953 00e4 08       		.byte	0x8
 954 00e5 30       		.byte	0x30
 955 00e6 90000000 		.4byte	0x90
 956 00ea 03       		.uleb128 0x3
 957 00eb 75060000 		.4byte	.LASF20
 958 00ef 08       		.byte	0x8
 959 00f0 3C       		.byte	0x3c
 960 00f1 A2000000 		.4byte	0xa2
 961 00f5 03       		.uleb128 0x3
 962 00f6 10050000 		.4byte	.LASF21
 963 00fa 09       		.byte	0x9
 964 00fb 2A       		.byte	0x2a
 965 00fc B4000000 		.4byte	0xb4
 966 0100 03       		.uleb128 0x3
 967 0101 2C040000 		.4byte	.LASF22
 968 0105 09       		.byte	0x9
 969 0106 2B       		.byte	0x2b
ARM GAS  C:\Users\14122\AppData\Local\Temp\ccQMY3Ij.s 			page 18


 970 0107 B4000000 		.4byte	0xb4
 971 010b 03       		.uleb128 0x3
 972 010c F5060000 		.4byte	.LASF23
 973 0110 09       		.byte	0x9
 974 0111 2C       		.byte	0x2c
 975 0112 B4000000 		.4byte	0xb4
 976 0116 03       		.uleb128 0x3
 977 0117 2C020000 		.4byte	.LASF24
 978 011b 09       		.byte	0x9
 979 011c 2E       		.byte	0x2e
 980 011d DF000000 		.4byte	0xdf
 981 0121 03       		.uleb128 0x3
 982 0122 96040000 		.4byte	.LASF25
 983 0126 09       		.byte	0x9
 984 0127 2F       		.byte	0x2f
 985 0128 CF000000 		.4byte	0xcf
 986 012c 03       		.uleb128 0x3
 987 012d 08020000 		.4byte	.LASF26
 988 0131 09       		.byte	0x9
 989 0132 31       		.byte	0x31
 990 0133 DF000000 		.4byte	0xdf
 991 0137 03       		.uleb128 0x3
 992 0138 7C020000 		.4byte	.LASF27
 993 013c 09       		.byte	0x9
 994 013d 33       		.byte	0x33
 995 013e CF000000 		.4byte	0xcf
 996 0142 03       		.uleb128 0x3
 997 0143 18050000 		.4byte	.LASF28
 998 0147 09       		.byte	0x9
 999 0148 34       		.byte	0x34
 1000 0149 DF000000 		.4byte	0xdf
 1001 014d 03       		.uleb128 0x3
 1002 014e DA020000 		.4byte	.LASF29
 1003 0152 0A       		.byte	0xa
 1004 0153 34       		.byte	0x34
 1005 0154 58010000 		.4byte	0x158
 1006 0158 07       		.uleb128 0x7
 1007 0159 55040000 		.4byte	.LASF47
 1008 015d 44       		.byte	0x44
 1009 015e 02       		.byte	0x2
 1010 015f 8E       		.byte	0x8e
 1011 0160 36020000 		.4byte	0x236
 1012 0164 08       		.uleb128 0x8
 1013 0165 31070000 		.4byte	.LASF30
 1014 0169 02       		.byte	0x2
 1015 016a 8F       		.byte	0x8f
 1016 016b 6B020000 		.4byte	0x26b
 1017 016f 00       		.byte	0
 1018 0170 08       		.uleb128 0x8
 1019 0171 A9030000 		.4byte	.LASF31
 1020 0175 02       		.byte	0x2
 1021 0176 90       		.byte	0x90
 1022 0177 16010000 		.4byte	0x116
 1023 017b 08       		.byte	0x8
 1024 017c 09       		.uleb128 0x9
 1025 017d 63747800 		.ascii	"ctx\000"
 1026 0181 02       		.byte	0x2
ARM GAS  C:\Users\14122\AppData\Local\Temp\ccQMY3Ij.s 			page 19


 1027 0182 91       		.byte	0x91
 1028 0183 C2040000 		.4byte	0x4c2
 1029 0187 0C       		.byte	0xc
 1030 0188 08       		.uleb128 0x8
 1031 0189 4E070000 		.4byte	.LASF32
 1032 018d 02       		.byte	0x2
 1033 018e 93       		.byte	0x93
 1034 018f 41020000 		.4byte	0x241
 1035 0193 10       		.byte	0x10
 1036 0194 08       		.uleb128 0x8
 1037 0195 78080000 		.4byte	.LASF33
 1038 0199 02       		.byte	0x2
 1039 019a 94       		.byte	0x94
 1040 019b 41020000 		.4byte	0x241
 1041 019f 14       		.byte	0x14
 1042 01a0 08       		.uleb128 0x8
 1043 01a1 9B060000 		.4byte	.LASF34
 1044 01a5 02       		.byte	0x2
 1045 01a6 9B       		.byte	0x9b
 1046 01a7 26060000 		.4byte	0x626
 1047 01ab 18       		.byte	0x18
 1048 01ac 08       		.uleb128 0x8
 1049 01ad 04040000 		.4byte	.LASF35
 1050 01b1 02       		.byte	0x2
 1051 01b2 A4       		.byte	0xa4
 1052 01b3 3D060000 		.4byte	0x63d
 1053 01b7 1C       		.byte	0x1c
 1054 01b8 08       		.uleb128 0x8
 1055 01b9 D5070000 		.4byte	.LASF36
 1056 01bd 02       		.byte	0x2
 1057 01be A9       		.byte	0xa9
 1058 01bf 00010000 		.4byte	0x100
 1059 01c3 20       		.byte	0x20
 1060 01c4 08       		.uleb128 0x8
 1061 01c5 5C000000 		.4byte	.LASF37
 1062 01c9 02       		.byte	0x2
 1063 01ca AD       		.byte	0xad
 1064 01cb F5000000 		.4byte	0xf5
 1065 01cf 21       		.byte	0x21
 1066 01d0 08       		.uleb128 0x8
 1067 01d1 CF000000 		.4byte	.LASF38
 1068 01d5 02       		.byte	0x2
 1069 01d6 B2       		.byte	0xb2
 1070 01d7 0B010000 		.4byte	0x10b
 1071 01db 22       		.byte	0x22
 1072 01dc 0A       		.uleb128 0xa
 1073 01dd 7500     		.ascii	"u\000"
 1074 01df 02       		.byte	0x2
 1075 01e0 0301     		.2byte	0x103
 1076 01e2 5C050000 		.4byte	0x55c
 1077 01e6 24       		.byte	0x24
 1078 01e7 0B       		.uleb128 0xb
 1079 01e8 78070000 		.4byte	.LASF39
 1080 01ec 02       		.byte	0x2
 1081 01ed 0801     		.2byte	0x108
 1082 01ef 47020000 		.4byte	0x247
 1083 01f3 28       		.byte	0x28
ARM GAS  C:\Users\14122\AppData\Local\Temp\ccQMY3Ij.s 			page 20


 1084 01f4 0B       		.uleb128 0xb
 1085 01f5 4C040000 		.4byte	.LASF40
 1086 01f9 02       		.byte	0x2
 1087 01fa 0E01     		.2byte	0x10e
 1088 01fc 6B020000 		.4byte	0x26b
 1089 0200 2C       		.byte	0x2c
 1090 0201 0B       		.uleb128 0xb
 1091 0202 8A000000 		.4byte	.LASF41
 1092 0206 02       		.byte	0x2
 1093 0207 1401     		.2byte	0x114
 1094 0209 2C010000 		.4byte	0x12c
 1095 020d 34       		.byte	0x34
 1096 020e 0B       		.uleb128 0xb
 1097 020f B3020000 		.4byte	.LASF42
 1098 0213 02       		.byte	0x2
 1099 0214 1B01     		.2byte	0x11b
 1100 0216 20060000 		.4byte	0x620
 1101 021a 38       		.byte	0x38
 1102 021b 0B       		.uleb128 0xb
 1103 021c 6C000000 		.4byte	.LASF43
 1104 0220 02       		.byte	0x2
 1105 0221 1F01     		.2byte	0x11f
 1106 0223 16010000 		.4byte	0x116
 1107 0227 3C       		.byte	0x3c
 1108 0228 0B       		.uleb128 0xb
 1109 0229 98080000 		.4byte	.LASF44
 1110 022d 02       		.byte	0x2
 1111 022e 2601     		.2byte	0x126
 1112 0230 23030000 		.4byte	0x323
 1113 0234 40       		.byte	0x40
 1114 0235 00       		.byte	0
 1115 0236 03       		.uleb128 0x3
 1116 0237 F1030000 		.4byte	.LASF45
 1117 023b 0A       		.byte	0xa
 1118 023c 39       		.byte	0x39
 1119 023d 41020000 		.4byte	0x241
 1120 0241 0C       		.uleb128 0xc
 1121 0242 04       		.byte	0x4
 1122 0243 4D010000 		.4byte	0x14d
 1123 0247 03       		.uleb128 0x3
 1124 0248 AD000000 		.4byte	.LASF46
 1125 024c 0A       		.byte	0xa
 1126 024d 3E       		.byte	0x3e
 1127 024e 52020000 		.4byte	0x252
 1128 0252 07       		.uleb128 0x7
 1129 0253 00000000 		.4byte	.LASF48
 1130 0257 04       		.byte	0x4
 1131 0258 02       		.byte	0x2
 1132 0259 7C       		.byte	0x7c
 1133 025a 6B020000 		.4byte	0x26b
 1134 025e 08       		.uleb128 0x8
 1135 025f A0000000 		.4byte	.LASF49
 1136 0263 02       		.byte	0x2
 1137 0264 7D       		.byte	0x7d
 1138 0265 41020000 		.4byte	0x241
 1139 0269 00       		.byte	0
 1140 026a 00       		.byte	0
ARM GAS  C:\Users\14122\AppData\Local\Temp\ccQMY3Ij.s 			page 21


 1141 026b 03       		.uleb128 0x3
 1142 026c A3020000 		.4byte	.LASF50
 1143 0270 0A       		.byte	0xa
 1144 0271 45       		.byte	0x45
 1145 0272 7B020000 		.4byte	0x27b
 1146 0276 05       		.uleb128 0x5
 1147 0277 6B020000 		.4byte	0x26b
 1148 027b 07       		.uleb128 0x7
 1149 027c 77010000 		.4byte	.LASF51
 1150 0280 08       		.byte	0x8
 1151 0281 02       		.byte	0x2
 1152 0282 83       		.byte	0x83
 1153 0283 A0020000 		.4byte	0x2a0
 1154 0287 08       		.uleb128 0x8
 1155 0288 A0000000 		.4byte	.LASF49
 1156 028c 02       		.byte	0x2
 1157 028d 84       		.byte	0x84
 1158 028e 41020000 		.4byte	0x241
 1159 0292 00       		.byte	0
 1160 0293 08       		.uleb128 0x8
 1161 0294 72010000 		.4byte	.LASF52
 1162 0298 02       		.byte	0x2
 1163 0299 85       		.byte	0x85
 1164 029a 41020000 		.4byte	0x241
 1165 029e 04       		.byte	0x4
 1166 029f 00       		.byte	0
 1167 02a0 03       		.uleb128 0x3
 1168 02a1 0F070000 		.4byte	.LASF53
 1169 02a5 0A       		.byte	0xa
 1170 02a6 4C       		.byte	0x4c
 1171 02a7 AB020000 		.4byte	0x2ab
 1172 02ab 0D       		.uleb128 0xd
 1173 02ac 9B010000 		.4byte	.LASF54
 1174 02b0 1C       		.byte	0x1c
 1175 02b1 02       		.byte	0x2
 1176 02b2 5E01     		.2byte	0x15e
 1177 02b4 07030000 		.4byte	0x307
 1178 02b8 0B       		.uleb128 0xb
 1179 02b9 31070000 		.4byte	.LASF30
 1180 02bd 02       		.byte	0x2
 1181 02be 5F01     		.2byte	0x15f
 1182 02c0 6B020000 		.4byte	0x26b
 1183 02c4 00       		.byte	0
 1184 02c5 0B       		.uleb128 0xb
 1185 02c6 A9030000 		.4byte	.LASF31
 1186 02ca 02       		.byte	0x2
 1187 02cb 6001     		.2byte	0x160
 1188 02cd 16010000 		.4byte	0x116
 1189 02d1 08       		.byte	0x8
 1190 02d2 0A       		.uleb128 0xa
 1191 02d3 63747800 		.ascii	"ctx\000"
 1192 02d7 02       		.byte	0x2
 1193 02d8 6201     		.2byte	0x162
 1194 02da C2040000 		.4byte	0x4c2
 1195 02de 0C       		.byte	0xc
 1196 02df 0B       		.uleb128 0xb
 1197 02e0 4E070000 		.4byte	.LASF32
ARM GAS  C:\Users\14122\AppData\Local\Temp\ccQMY3Ij.s 			page 22


 1198 02e4 02       		.byte	0x2
 1199 02e5 6501     		.2byte	0x165
 1200 02e7 41020000 		.4byte	0x241
 1201 02eb 10       		.byte	0x10
 1202 02ec 0B       		.uleb128 0xb
 1203 02ed 78080000 		.4byte	.LASF33
 1204 02f1 02       		.byte	0x2
 1205 02f2 6601     		.2byte	0x166
 1206 02f4 41020000 		.4byte	0x241
 1207 02f8 14       		.byte	0x14
 1208 02f9 0B       		.uleb128 0xb
 1209 02fa 4C080000 		.4byte	.LASF55
 1210 02fe 02       		.byte	0x2
 1211 02ff 6901     		.2byte	0x169
 1212 0301 41020000 		.4byte	0x241
 1213 0305 18       		.byte	0x18
 1214 0306 00       		.byte	0
 1215 0307 03       		.uleb128 0x3
 1216 0308 C1010000 		.4byte	.LASF56
 1217 030c 0A       		.byte	0xa
 1218 030d 51       		.byte	0x51
 1219 030e 12030000 		.4byte	0x312
 1220 0312 0C       		.uleb128 0xc
 1221 0313 04       		.byte	0x4
 1222 0314 18030000 		.4byte	0x318
 1223 0318 0E       		.uleb128 0xe
 1224 0319 23030000 		.4byte	0x323
 1225 031d 0F       		.uleb128 0xf
 1226 031e 23030000 		.4byte	0x323
 1227 0322 00       		.byte	0
 1228 0323 10       		.uleb128 0x10
 1229 0324 04       		.byte	0x4
 1230 0325 03       		.uleb128 0x3
 1231 0326 A5040000 		.4byte	.LASF57
 1232 032a 0A       		.byte	0xa
 1233 032b 56       		.byte	0x56
 1234 032c 30030000 		.4byte	0x330
 1235 0330 0D       		.uleb128 0xd
 1236 0331 34020000 		.4byte	.LASF58
 1237 0335 14       		.byte	0x14
 1238 0336 02       		.byte	0x2
 1239 0337 3901     		.2byte	0x139
 1240 0339 7F030000 		.4byte	0x37f
 1241 033d 0B       		.uleb128 0xb
 1242 033e A0000000 		.4byte	.LASF49
 1243 0342 02       		.byte	0x2
 1244 0343 3A01     		.2byte	0x13a
 1245 0345 43060000 		.4byte	0x643
 1246 0349 00       		.byte	0
 1247 034a 0B       		.uleb128 0xb
 1248 034b 72010000 		.4byte	.LASF52
 1249 034f 02       		.byte	0x2
 1250 0350 3B01     		.2byte	0x13b
 1251 0352 43060000 		.4byte	0x643
 1252 0356 04       		.byte	0x4
 1253 0357 0B       		.uleb128 0xb
 1254 0358 05080000 		.4byte	.LASF59
ARM GAS  C:\Users\14122\AppData\Local\Temp\ccQMY3Ij.s 			page 23


 1255 035c 02       		.byte	0x2
 1256 035d 3C01     		.2byte	0x13c
 1257 035f 4A040000 		.4byte	0x44a
 1258 0363 08       		.byte	0x8
 1259 0364 0B       		.uleb128 0xb
 1260 0365 66010000 		.4byte	.LASF60
 1261 0369 02       		.byte	0x2
 1262 036a 3D01     		.2byte	0x13d
 1263 036c 07030000 		.4byte	0x307
 1264 0370 0C       		.byte	0xc
 1265 0371 0A       		.uleb128 0xa
 1266 0372 70617200 		.ascii	"par\000"
 1267 0376 02       		.byte	0x2
 1268 0377 3F01     		.2byte	0x13f
 1269 0379 23030000 		.4byte	0x323
 1270 037d 10       		.byte	0x10
 1271 037e 00       		.byte	0
 1272 037f 03       		.uleb128 0x3
 1273 0380 80070000 		.4byte	.LASF61
 1274 0384 0A       		.byte	0xa
 1275 0385 5B       		.byte	0x5b
 1276 0386 8A030000 		.4byte	0x38a
 1277 038a 0D       		.uleb128 0xd
 1278 038b BB020000 		.4byte	.LASF62
 1279 038f 10       		.byte	0x10
 1280 0390 02       		.byte	0x2
 1281 0391 4901     		.2byte	0x149
 1282 0393 CC030000 		.4byte	0x3cc
 1283 0397 0B       		.uleb128 0xb
 1284 0398 A0000000 		.4byte	.LASF49
 1285 039c 02       		.byte	0x2
 1286 039d 4A01     		.2byte	0x14a
 1287 039f 43060000 		.4byte	0x643
 1288 03a3 00       		.byte	0
 1289 03a4 0B       		.uleb128 0xb
 1290 03a5 72010000 		.4byte	.LASF52
 1291 03a9 02       		.byte	0x2
 1292 03aa 4C01     		.2byte	0x14c
 1293 03ac 43060000 		.4byte	0x643
 1294 03b0 04       		.byte	0x4
 1295 03b1 0B       		.uleb128 0xb
 1296 03b2 05080000 		.4byte	.LASF59
 1297 03b6 02       		.byte	0x2
 1298 03b7 4E01     		.2byte	0x14e
 1299 03b9 4A040000 		.4byte	0x44a
 1300 03bd 08       		.byte	0x8
 1301 03be 0B       		.uleb128 0xb
 1302 03bf 6C060000 		.4byte	.LASF63
 1303 03c3 02       		.byte	0x2
 1304 03c4 5601     		.2byte	0x156
 1305 03c6 3F040000 		.4byte	0x43f
 1306 03ca 0C       		.byte	0xc
 1307 03cb 00       		.byte	0
 1308 03cc 03       		.uleb128 0x3
 1309 03cd 74040000 		.4byte	.LASF64
 1310 03d1 0A       		.byte	0xa
 1311 03d2 60       		.byte	0x60
ARM GAS  C:\Users\14122\AppData\Local\Temp\ccQMY3Ij.s 			page 24


 1312 03d3 D7030000 		.4byte	0x3d7
 1313 03d7 0D       		.uleb128 0xd
 1314 03d8 D6010000 		.4byte	.LASF65
 1315 03dc 04       		.byte	0x4
 1316 03dd 02       		.byte	0x2
 1317 03de 7001     		.2byte	0x170
 1318 03e0 F2030000 		.4byte	0x3f2
 1319 03e4 0B       		.uleb128 0xb
 1320 03e5 06050000 		.4byte	.LASF66
 1321 03e9 02       		.byte	0x2
 1322 03ea 7801     		.2byte	0x178
 1323 03ec 2C060000 		.4byte	0x62c
 1324 03f0 00       		.byte	0
 1325 03f1 00       		.byte	0
 1326 03f2 03       		.uleb128 0x3
 1327 03f3 E7070000 		.4byte	.LASF67
 1328 03f7 0A       		.byte	0xa
 1329 03f8 65       		.byte	0x65
 1330 03f9 FD030000 		.4byte	0x3fd
 1331 03fd 0D       		.uleb128 0xd
 1332 03fe 94050000 		.4byte	.LASF68
 1333 0402 74       		.byte	0x74
 1334 0403 02       		.byte	0x2
 1335 0404 9001     		.2byte	0x190
 1336 0406 3F040000 		.4byte	0x43f
 1337 040a 0B       		.uleb128 0xb
 1338 040b 7E060000 		.4byte	.LASF69
 1339 040f 02       		.byte	0x2
 1340 0410 9401     		.2byte	0x194
 1341 0412 A0020000 		.4byte	0x2a0
 1342 0416 00       		.byte	0
 1343 0417 0B       		.uleb128 0xb
 1344 0418 EE000000 		.4byte	.LASF70
 1345 041c 02       		.byte	0x2
 1346 041d 9801     		.2byte	0x198
 1347 041f 7F030000 		.4byte	0x37f
 1348 0423 1C       		.byte	0x1c
 1349 0424 0A       		.uleb128 0xa
 1350 0425 64626700 		.ascii	"dbg\000"
 1351 0429 02       		.byte	0x2
 1352 042a 9C01     		.2byte	0x19c
 1353 042c CC030000 		.4byte	0x3cc
 1354 0430 2C       		.byte	0x2c
 1355 0431 0B       		.uleb128 0xb
 1356 0432 1F050000 		.4byte	.LASF71
 1357 0436 02       		.byte	0x2
 1358 0437 A001     		.2byte	0x1a0
 1359 0439 4D010000 		.4byte	0x14d
 1360 043d 30       		.byte	0x30
 1361 043e 00       		.byte	0
 1362 043f 03       		.uleb128 0x3
 1363 0440 62000000 		.4byte	.LASF72
 1364 0444 0B       		.byte	0xb
 1365 0445 6F       		.byte	0x6f
 1366 0446 C4000000 		.4byte	0xc4
 1367 044a 03       		.uleb128 0x3
 1368 044b EF040000 		.4byte	.LASF73
ARM GAS  C:\Users\14122\AppData\Local\Temp\ccQMY3Ij.s 			page 25


 1369 044f 0B       		.byte	0xb
 1370 0450 79       		.byte	0x79
 1371 0451 DF000000 		.4byte	0xdf
 1372 0455 11       		.uleb128 0x11
 1373 0456 7C050000 		.4byte	.LASF74
 1374 045a 0C       		.byte	0xc
 1375 045b 4007     		.2byte	0x740
 1376 045d DA000000 		.4byte	0xda
 1377 0461 12       		.uleb128 0x12
 1378 0462 19000000 		.4byte	.LASF75
 1379 0466 0D       		.byte	0xd
 1380 0467 45       		.byte	0x45
 1381 0468 DF000000 		.4byte	0xdf
 1382 046c 13       		.uleb128 0x13
 1383 046d BF000000 		.4byte	0xbf
 1384 0471 7C040000 		.4byte	0x47c
 1385 0475 14       		.uleb128 0x14
 1386 0476 37000000 		.4byte	0x37
 1387 047a 0F       		.byte	0xf
 1388 047b 00       		.byte	0
 1389 047c 05       		.uleb128 0x5
 1390 047d 6C040000 		.4byte	0x46c
 1391 0481 12       		.uleb128 0x12
 1392 0482 E1040000 		.4byte	.LASF76
 1393 0486 0D       		.byte	0xd
 1394 0487 46       		.byte	0x46
 1395 0488 7C040000 		.4byte	0x47c
 1396 048c 13       		.uleb128 0x13
 1397 048d BF000000 		.4byte	0xbf
 1398 0491 9C040000 		.4byte	0x49c
 1399 0495 14       		.uleb128 0x14
 1400 0496 37000000 		.4byte	0x37
 1401 049a 07       		.byte	0x7
 1402 049b 00       		.byte	0
 1403 049c 05       		.uleb128 0x5
 1404 049d 8C040000 		.4byte	0x48c
 1405 04a1 12       		.uleb128 0x12
 1406 04a2 50030000 		.4byte	.LASF77
 1407 04a6 0D       		.byte	0xd
 1408 04a7 47       		.byte	0x47
 1409 04a8 9C040000 		.4byte	0x49c
 1410 04ac 03       		.uleb128 0x3
 1411 04ad 48000000 		.4byte	.LASF78
 1412 04b1 0E       		.byte	0xe
 1413 04b2 65       		.byte	0x65
 1414 04b3 23030000 		.4byte	0x323
 1415 04b7 03       		.uleb128 0x3
 1416 04b8 1E080000 		.4byte	.LASF79
 1417 04bc 0E       		.byte	0xe
 1418 04bd 6D       		.byte	0x6d
 1419 04be EA000000 		.4byte	0xea
 1420 04c2 07       		.uleb128 0x7
 1421 04c3 F5000000 		.4byte	.LASF80
 1422 04c7 04       		.byte	0x4
 1423 04c8 0E       		.byte	0xe
 1424 04c9 89       		.byte	0x89
 1425 04ca DA040000 		.4byte	0x4da
ARM GAS  C:\Users\14122\AppData\Local\Temp\ccQMY3Ij.s 			page 26


 1426 04ce 09       		.uleb128 0x9
 1427 04cf 737000   		.ascii	"sp\000"
 1428 04d2 0E       		.byte	0xe
 1429 04d3 8A       		.byte	0x8a
 1430 04d4 56050000 		.4byte	0x556
 1431 04d8 00       		.byte	0
 1432 04d9 00       		.byte	0
 1433 04da 0D       		.uleb128 0xd
 1434 04db 70050000 		.4byte	.LASF81
 1435 04df 24       		.byte	0x24
 1436 04e0 0F       		.byte	0xf
 1437 04e1 5901     		.2byte	0x159
 1438 04e3 56050000 		.4byte	0x556
 1439 04e7 0A       		.uleb128 0xa
 1440 04e8 723400   		.ascii	"r4\000"
 1441 04eb 0F       		.byte	0xf
 1442 04ec 6C01     		.2byte	0x16c
 1443 04ee AC040000 		.4byte	0x4ac
 1444 04f2 00       		.byte	0
 1445 04f3 0A       		.uleb128 0xa
 1446 04f4 723500   		.ascii	"r5\000"
 1447 04f7 0F       		.byte	0xf
 1448 04f8 6D01     		.2byte	0x16d
 1449 04fa AC040000 		.4byte	0x4ac
 1450 04fe 04       		.byte	0x4
 1451 04ff 0A       		.uleb128 0xa
 1452 0500 723600   		.ascii	"r6\000"
 1453 0503 0F       		.byte	0xf
 1454 0504 6E01     		.2byte	0x16e
 1455 0506 AC040000 		.4byte	0x4ac
 1456 050a 08       		.byte	0x8
 1457 050b 0A       		.uleb128 0xa
 1458 050c 723700   		.ascii	"r7\000"
 1459 050f 0F       		.byte	0xf
 1460 0510 6F01     		.2byte	0x16f
 1461 0512 AC040000 		.4byte	0x4ac
 1462 0516 0C       		.byte	0xc
 1463 0517 0A       		.uleb128 0xa
 1464 0518 723800   		.ascii	"r8\000"
 1465 051b 0F       		.byte	0xf
 1466 051c 7001     		.2byte	0x170
 1467 051e AC040000 		.4byte	0x4ac
 1468 0522 10       		.byte	0x10
 1469 0523 0A       		.uleb128 0xa
 1470 0524 723900   		.ascii	"r9\000"
 1471 0527 0F       		.byte	0xf
 1472 0528 7101     		.2byte	0x171
 1473 052a AC040000 		.4byte	0x4ac
 1474 052e 14       		.byte	0x14
 1475 052f 0A       		.uleb128 0xa
 1476 0530 72313000 		.ascii	"r10\000"
 1477 0534 0F       		.byte	0xf
 1478 0535 7201     		.2byte	0x172
 1479 0537 AC040000 		.4byte	0x4ac
 1480 053b 18       		.byte	0x18
 1481 053c 0A       		.uleb128 0xa
 1482 053d 72313100 		.ascii	"r11\000"
ARM GAS  C:\Users\14122\AppData\Local\Temp\ccQMY3Ij.s 			page 27


 1483 0541 0F       		.byte	0xf
 1484 0542 7301     		.2byte	0x173
 1485 0544 AC040000 		.4byte	0x4ac
 1486 0548 1C       		.byte	0x1c
 1487 0549 0A       		.uleb128 0xa
 1488 054a 6C7200   		.ascii	"lr\000"
 1489 054d 0F       		.byte	0xf
 1490 054e 7401     		.2byte	0x174
 1491 0550 AC040000 		.4byte	0x4ac
 1492 0554 20       		.byte	0x20
 1493 0555 00       		.byte	0
 1494 0556 0C       		.uleb128 0xc
 1495 0557 04       		.byte	0x4
 1496 0558 DA040000 		.4byte	0x4da
 1497 055c 15       		.uleb128 0x15
 1498 055d 04       		.byte	0x4
 1499 055e 02       		.byte	0x2
 1500 055f C6       		.byte	0xc6
 1501 0560 BE050000 		.4byte	0x5be
 1502 0564 16       		.uleb128 0x16
 1503 0565 FE020000 		.4byte	.LASF82
 1504 0569 02       		.byte	0x2
 1505 056a CD       		.byte	0xcd
 1506 056b 21010000 		.4byte	0x121
 1507 056f 16       		.uleb128 0x16
 1508 0570 86080000 		.4byte	.LASF83
 1509 0574 02       		.byte	0x2
 1510 0575 D4       		.byte	0xd4
 1511 0576 21010000 		.4byte	0x121
 1512 057a 16       		.uleb128 0x16
 1513 057b DD000000 		.4byte	.LASF84
 1514 057f 02       		.byte	0x2
 1515 0580 DB       		.byte	0xdb
 1516 0581 23030000 		.4byte	0x323
 1517 0585 16       		.uleb128 0x16
 1518 0586 F3070000 		.4byte	.LASF85
 1519 058a 02       		.byte	0x2
 1520 058b E2       		.byte	0xe2
 1521 058c BE050000 		.4byte	0x5be
 1522 0590 16       		.uleb128 0x16
 1523 0591 00020000 		.4byte	.LASF86
 1524 0595 02       		.byte	0x2
 1525 0596 E7       		.byte	0xe7
 1526 0597 21010000 		.4byte	0x121
 1527 059b 16       		.uleb128 0x16
 1528 059c 3F070000 		.4byte	.LASF87
 1529 05a0 02       		.byte	0x2
 1530 05a1 F0       		.byte	0xf0
 1531 05a2 E9050000 		.4byte	0x5e9
 1532 05a6 16       		.uleb128 0x16
 1533 05a7 29000000 		.4byte	.LASF88
 1534 05ab 02       		.byte	0x2
 1535 05ac F9       		.byte	0xf9
 1536 05ad 20060000 		.4byte	0x620
 1537 05b1 17       		.uleb128 0x17
 1538 05b2 6B010000 		.4byte	.LASF89
 1539 05b6 02       		.byte	0x2
ARM GAS  C:\Users\14122\AppData\Local\Temp\ccQMY3Ij.s 			page 28


 1540 05b7 0101     		.2byte	0x101
 1541 05b9 2C010000 		.4byte	0x12c
 1542 05bd 00       		.byte	0
 1543 05be 0C       		.uleb128 0xc
 1544 05bf 04       		.byte	0x4
 1545 05c0 36020000 		.4byte	0x236
 1546 05c4 07       		.uleb128 0x7
 1547 05c5 1F020000 		.4byte	.LASF90
 1548 05c9 0C       		.byte	0xc
 1549 05ca 10       		.byte	0x10
 1550 05cb 34       		.byte	0x34
 1551 05cc E9050000 		.4byte	0x5e9
 1552 05d0 08       		.uleb128 0x8
 1553 05d1 31070000 		.4byte	.LASF30
 1554 05d5 10       		.byte	0x10
 1555 05d6 35       		.byte	0x35
 1556 05d7 6B020000 		.4byte	0x26b
 1557 05db 00       		.byte	0
 1558 05dc 09       		.uleb128 0x9
 1559 05dd 636E7400 		.ascii	"cnt\000"
 1560 05e1 10       		.byte	0x10
 1561 05e2 37       		.byte	0x37
 1562 05e3 37010000 		.4byte	0x137
 1563 05e7 08       		.byte	0x8
 1564 05e8 00       		.byte	0
 1565 05e9 0C       		.uleb128 0xc
 1566 05ea 04       		.byte	0x4
 1567 05eb C4050000 		.4byte	0x5c4
 1568 05ef 07       		.uleb128 0x7
 1569 05f0 3C030000 		.4byte	.LASF91
 1570 05f4 10       		.byte	0x10
 1571 05f5 04       		.byte	0x4
 1572 05f6 39       		.byte	0x39
 1573 05f7 20060000 		.4byte	0x620
 1574 05fb 08       		.uleb128 0x8
 1575 05fc 31070000 		.4byte	.LASF30
 1576 0600 04       		.byte	0x4
 1577 0601 3A       		.byte	0x3a
 1578 0602 6B020000 		.4byte	0x26b
 1579 0606 00       		.byte	0
 1580 0607 08       		.uleb128 0x8
 1581 0608 9D020000 		.4byte	.LASF92
 1582 060c 04       		.byte	0x4
 1583 060d 3C       		.byte	0x3c
 1584 060e 41020000 		.4byte	0x241
 1585 0612 08       		.byte	0x8
 1586 0613 08       		.uleb128 0x8
 1587 0614 A0000000 		.4byte	.LASF49
 1588 0618 04       		.byte	0x4
 1589 0619 3E       		.byte	0x3e
 1590 061a 82070000 		.4byte	0x782
 1591 061e 0C       		.byte	0xc
 1592 061f 00       		.byte	0
 1593 0620 0C       		.uleb128 0xc
 1594 0621 04       		.byte	0x4
 1595 0622 EF050000 		.4byte	0x5ef
 1596 0626 0C       		.uleb128 0xc
ARM GAS  C:\Users\14122\AppData\Local\Temp\ccQMY3Ij.s 			page 29


 1597 0627 04       		.byte	0x4
 1598 0628 38060000 		.4byte	0x638
 1599 062c 06       		.uleb128 0x6
 1600 062d 26060000 		.4byte	0x626
 1601 0631 04       		.uleb128 0x4
 1602 0632 01       		.byte	0x1
 1603 0633 08       		.byte	0x8
 1604 0634 C9030000 		.4byte	.LASF93
 1605 0638 05       		.uleb128 0x5
 1606 0639 31060000 		.4byte	0x631
 1607 063d 0C       		.uleb128 0xc
 1608 063e 04       		.byte	0x4
 1609 063f B7040000 		.4byte	0x4b7
 1610 0643 0C       		.uleb128 0xc
 1611 0644 04       		.byte	0x4
 1612 0645 25030000 		.4byte	0x325
 1613 0649 18       		.uleb128 0x18
 1614 064a 636800   		.ascii	"ch\000"
 1615 064d 02       		.byte	0x2
 1616 064e C701     		.2byte	0x1c7
 1617 0650 F2030000 		.4byte	0x3f2
 1618 0654 13       		.uleb128 0x13
 1619 0655 B7040000 		.4byte	0x4b7
 1620 0659 5F060000 		.4byte	0x65f
 1621 065d 19       		.uleb128 0x19
 1622 065e 00       		.byte	0
 1623 065f 11       		.uleb128 0x11
 1624 0660 0B040000 		.4byte	.LASF94
 1625 0664 11       		.byte	0x11
 1626 0665 1701     		.2byte	0x117
 1627 0667 54060000 		.4byte	0x654
 1628 066b 1A       		.uleb128 0x1a
 1629 066c 16       		.byte	0x16
 1630 066d 12       		.byte	0x12
 1631 066e 34       		.byte	0x34
 1632 066f 4C070000 		.4byte	0x74c
 1633 0673 08       		.uleb128 0x8
 1634 0674 AE060000 		.4byte	.LASF95
 1635 0678 12       		.byte	0x12
 1636 0679 35       		.byte	0x35
 1637 067a 4C070000 		.4byte	0x74c
 1638 067e 00       		.byte	0
 1639 067f 08       		.uleb128 0x8
 1640 0680 91040000 		.4byte	.LASF96
 1641 0684 12       		.byte	0x12
 1642 0685 36       		.byte	0x36
 1643 0686 B4000000 		.4byte	0xb4
 1644 068a 04       		.byte	0x4
 1645 068b 08       		.uleb128 0x8
 1646 068c D4040000 		.4byte	.LASF97
 1647 0690 12       		.byte	0x12
 1648 0691 37       		.byte	0x37
 1649 0692 B4000000 		.4byte	0xb4
 1650 0696 05       		.byte	0x5
 1651 0697 08       		.uleb128 0x8
 1652 0698 A5000000 		.4byte	.LASF98
 1653 069c 12       		.byte	0x12
ARM GAS  C:\Users\14122\AppData\Local\Temp\ccQMY3Ij.s 			page 30


 1654 069d 38       		.byte	0x38
 1655 069e C4000000 		.4byte	0xc4
 1656 06a2 06       		.byte	0x6
 1657 06a3 08       		.uleb128 0x8
 1658 06a4 D9040000 		.4byte	.LASF99
 1659 06a8 12       		.byte	0x12
 1660 06a9 39       		.byte	0x39
 1661 06aa B4000000 		.4byte	0xb4
 1662 06ae 08       		.byte	0x8
 1663 06af 08       		.uleb128 0x8
 1664 06b0 10000000 		.4byte	.LASF100
 1665 06b4 12       		.byte	0x12
 1666 06b5 3A       		.byte	0x3a
 1667 06b6 B4000000 		.4byte	0xb4
 1668 06ba 09       		.byte	0x9
 1669 06bb 08       		.uleb128 0x8
 1670 06bc 14020000 		.4byte	.LASF101
 1671 06c0 12       		.byte	0x12
 1672 06c1 3B       		.byte	0x3b
 1673 06c2 B4000000 		.4byte	0xb4
 1674 06c6 0A       		.byte	0xa
 1675 06c7 08       		.uleb128 0x8
 1676 06c8 49050000 		.4byte	.LASF102
 1677 06cc 12       		.byte	0x12
 1678 06cd 3C       		.byte	0x3c
 1679 06ce B4000000 		.4byte	0xb4
 1680 06d2 0B       		.byte	0xb
 1681 06d3 08       		.uleb128 0x8
 1682 06d4 5E030000 		.4byte	.LASF103
 1683 06d8 12       		.byte	0x12
 1684 06d9 3D       		.byte	0x3d
 1685 06da B4000000 		.4byte	0xb4
 1686 06de 0C       		.byte	0xc
 1687 06df 08       		.uleb128 0x8
 1688 06e0 B7010000 		.4byte	.LASF104
 1689 06e4 12       		.byte	0x12
 1690 06e5 3E       		.byte	0x3e
 1691 06e6 B4000000 		.4byte	0xb4
 1692 06ea 0D       		.byte	0xd
 1693 06eb 08       		.uleb128 0x8
 1694 06ec E3020000 		.4byte	.LASF105
 1695 06f0 12       		.byte	0x12
 1696 06f1 3F       		.byte	0x3f
 1697 06f2 B4000000 		.4byte	0xb4
 1698 06f6 0E       		.byte	0xe
 1699 06f7 08       		.uleb128 0x8
 1700 06f8 6B040000 		.4byte	.LASF106
 1701 06fc 12       		.byte	0x12
 1702 06fd 40       		.byte	0x40
 1703 06fe B4000000 		.4byte	0xb4
 1704 0702 0F       		.byte	0xf
 1705 0703 08       		.uleb128 0x8
 1706 0704 82020000 		.4byte	.LASF107
 1707 0708 12       		.byte	0x12
 1708 0709 41       		.byte	0x41
 1709 070a B4000000 		.4byte	0xb4
 1710 070e 10       		.byte	0x10
ARM GAS  C:\Users\14122\AppData\Local\Temp\ccQMY3Ij.s 			page 31


 1711 070f 08       		.uleb128 0x8
 1712 0710 ED020000 		.4byte	.LASF108
 1713 0714 12       		.byte	0x12
 1714 0715 42       		.byte	0x42
 1715 0716 B4000000 		.4byte	0xb4
 1716 071a 11       		.byte	0x11
 1717 071b 08       		.uleb128 0x8
 1718 071c 9F030000 		.4byte	.LASF109
 1719 0720 12       		.byte	0x12
 1720 0721 43       		.byte	0x43
 1721 0722 B4000000 		.4byte	0xb4
 1722 0726 12       		.byte	0x12
 1723 0727 08       		.uleb128 0x8
 1724 0728 29080000 		.4byte	.LASF110
 1725 072c 12       		.byte	0x12
 1726 072d 44       		.byte	0x44
 1727 072e B4000000 		.4byte	0xb4
 1728 0732 13       		.byte	0x13
 1729 0733 08       		.uleb128 0x8
 1730 0734 DD060000 		.4byte	.LASF111
 1731 0738 12       		.byte	0x12
 1732 0739 45       		.byte	0x45
 1733 073a B4000000 		.4byte	0xb4
 1734 073e 14       		.byte	0x14
 1735 073f 08       		.uleb128 0x8
 1736 0740 D4000000 		.4byte	.LASF112
 1737 0744 12       		.byte	0x12
 1738 0745 46       		.byte	0x46
 1739 0746 B4000000 		.4byte	0xb4
 1740 074a 15       		.byte	0x15
 1741 074b 00       		.byte	0
 1742 074c 13       		.uleb128 0x13
 1743 074d 31060000 		.4byte	0x631
 1744 0751 5C070000 		.4byte	0x75c
 1745 0755 14       		.uleb128 0x14
 1746 0756 37000000 		.4byte	0x37
 1747 075a 03       		.byte	0x3
 1748 075b 00       		.byte	0
 1749 075c 03       		.uleb128 0x3
 1750 075d 3F050000 		.4byte	.LASF113
 1751 0761 12       		.byte	0x12
 1752 0762 47       		.byte	0x47
 1753 0763 6B060000 		.4byte	0x66b
 1754 0767 05       		.uleb128 0x5
 1755 0768 5C070000 		.4byte	0x75c
 1756 076c 12       		.uleb128 0x12
 1757 076d 5D080000 		.4byte	.LASF114
 1758 0771 12       		.byte	0x12
 1759 0772 6C       		.byte	0x6c
 1760 0773 67070000 		.4byte	0x767
 1761 0777 03       		.uleb128 0x3
 1762 0778 46070000 		.4byte	.LASF115
 1763 077c 04       		.byte	0x4
 1764 077d 34       		.byte	0x34
 1765 077e EF050000 		.4byte	0x5ef
 1766 0782 0C       		.uleb128 0xc
 1767 0783 04       		.byte	0x4
ARM GAS  C:\Users\14122\AppData\Local\Temp\ccQMY3Ij.s 			page 32


 1768 0784 77070000 		.4byte	0x777
 1769 0788 07       		.uleb128 0x7
 1770 0789 29030000 		.4byte	.LASF116
 1771 078d 08       		.byte	0x8
 1772 078e 13       		.byte	0x13
 1773 078f 3B       		.byte	0x3b
 1774 0790 A1070000 		.4byte	0x7a1
 1775 0794 08       		.uleb128 0x8
 1776 0795 31070000 		.4byte	.LASF30
 1777 0799 13       		.byte	0x13
 1778 079a 3C       		.byte	0x3c
 1779 079b 6B020000 		.4byte	0x26b
 1780 079f 00       		.byte	0
 1781 07a0 00       		.byte	0
 1782 07a1 03       		.uleb128 0x3
 1783 07a2 75000000 		.4byte	.LASF117
 1784 07a6 13       		.byte	0x13
 1785 07a7 3E       		.byte	0x3e
 1786 07a8 88070000 		.4byte	0x788
 1787 07ac 04       		.uleb128 0x4
 1788 07ad 01       		.byte	0x1
 1789 07ae 02       		.byte	0x2
 1790 07af 11030000 		.4byte	.LASF118
 1791 07b3 03       		.uleb128 0x3
 1792 07b4 8E060000 		.4byte	.LASF119
 1793 07b8 14       		.byte	0x14
 1794 07b9 47       		.byte	0x47
 1795 07ba BE070000 		.4byte	0x7be
 1796 07be 0C       		.uleb128 0xc
 1797 07bf 04       		.byte	0x4
 1798 07c0 C4070000 		.4byte	0x7c4
 1799 07c4 1B       		.uleb128 0x1b
 1800 07c5 23030000 		.4byte	0x323
 1801 07c9 D8070000 		.4byte	0x7d8
 1802 07cd 0F       		.uleb128 0xf
 1803 07ce 2C000000 		.4byte	0x2c
 1804 07d2 0F       		.uleb128 0xf
 1805 07d3 37000000 		.4byte	0x37
 1806 07d7 00       		.byte	0
 1807 07d8 1A       		.uleb128 0x1a
 1808 07d9 08       		.byte	0x8
 1809 07da 14       		.byte	0x14
 1810 07db 51       		.byte	0x51
 1811 07dc F9070000 		.4byte	0x7f9
 1812 07e0 08       		.uleb128 0x8
 1813 07e1 7E080000 		.4byte	.LASF120
 1814 07e5 14       		.byte	0x14
 1815 07e6 55       		.byte	0x55
 1816 07e7 F9070000 		.4byte	0x7f9
 1817 07eb 00       		.byte	0
 1818 07ec 08       		.uleb128 0x8
 1819 07ed 45080000 		.4byte	.LASF121
 1820 07f1 14       		.byte	0x14
 1821 07f2 59       		.byte	0x59
 1822 07f3 F9070000 		.4byte	0x7f9
 1823 07f7 04       		.byte	0x4
 1824 07f8 00       		.byte	0
ARM GAS  C:\Users\14122\AppData\Local\Temp\ccQMY3Ij.s 			page 33


 1825 07f9 0C       		.uleb128 0xc
 1826 07fa 04       		.byte	0x4
 1827 07fb B4000000 		.4byte	0xb4
 1828 07ff 03       		.uleb128 0x3
 1829 0800 45020000 		.4byte	.LASF122
 1830 0804 14       		.byte	0x14
 1831 0805 5A       		.byte	0x5a
 1832 0806 D8070000 		.4byte	0x7d8
 1833 080a 12       		.uleb128 0x12
 1834 080b 52050000 		.4byte	.LASF123
 1835 080f 14       		.byte	0x14
 1836 0810 65       		.byte	0x65
 1837 0811 FF070000 		.4byte	0x7ff
 1838 0815 07       		.uleb128 0x7
 1839 0816 DB070000 		.4byte	.LASF124
 1840 081a 04       		.byte	0x4
 1841 081b 15       		.byte	0x15
 1842 081c 38       		.byte	0x38
 1843 081d 2E080000 		.4byte	0x82e
 1844 0821 08       		.uleb128 0x8
 1845 0822 A0000000 		.4byte	.LASF49
 1846 0826 15       		.byte	0x15
 1847 0827 39       		.byte	0x39
 1848 0828 2E080000 		.4byte	0x82e
 1849 082c 00       		.byte	0
 1850 082d 00       		.byte	0
 1851 082e 0C       		.uleb128 0xc
 1852 082f 04       		.byte	0x4
 1853 0830 15080000 		.4byte	0x815
 1854 0834 1A       		.uleb128 0x1a
 1855 0835 10       		.byte	0x10
 1856 0836 15       		.byte	0x15
 1857 0837 40       		.byte	0x40
 1858 0838 6D080000 		.4byte	0x86d
 1859 083c 08       		.uleb128 0x8
 1860 083d A0000000 		.4byte	.LASF49
 1861 0841 15       		.byte	0x15
 1862 0842 41       		.byte	0x41
 1863 0843 2E080000 		.4byte	0x82e
 1864 0847 00       		.byte	0
 1865 0848 08       		.uleb128 0x8
 1866 0849 05030000 		.4byte	.LASF125
 1867 084d 15       		.byte	0x15
 1868 084e 42       		.byte	0x42
 1869 084f 2C000000 		.4byte	0x2c
 1870 0853 04       		.byte	0x4
 1871 0854 08       		.uleb128 0x8
 1872 0855 72080000 		.4byte	.LASF126
 1873 0859 15       		.byte	0x15
 1874 085a 44       		.byte	0x44
 1875 085b 37000000 		.4byte	0x37
 1876 085f 08       		.byte	0x8
 1877 0860 08       		.uleb128 0x8
 1878 0861 63060000 		.4byte	.LASF127
 1879 0865 15       		.byte	0x15
 1880 0866 45       		.byte	0x45
 1881 0867 B3070000 		.4byte	0x7b3
ARM GAS  C:\Users\14122\AppData\Local\Temp\ccQMY3Ij.s 			page 34


 1882 086b 0C       		.byte	0xc
 1883 086c 00       		.byte	0
 1884 086d 03       		.uleb128 0x3
 1885 086e 30000000 		.4byte	.LASF128
 1886 0872 15       		.byte	0x15
 1887 0873 47       		.byte	0x47
 1888 0874 34080000 		.4byte	0x834
 1889 0878 07       		.uleb128 0x7
 1890 0879 3D040000 		.4byte	.LASF129
 1891 087d 10       		.byte	0x10
 1892 087e 16       		.byte	0x16
 1893 087f 93       		.byte	0x93
 1894 0880 A9080000 		.4byte	0x8a9
 1895 0884 08       		.uleb128 0x8
 1896 0885 A0000000 		.4byte	.LASF49
 1897 0889 16       		.byte	0x16
 1898 088a 97       		.byte	0x97
 1899 088b A9080000 		.4byte	0x8a9
 1900 088f 00       		.byte	0
 1901 0890 08       		.uleb128 0x8
 1902 0891 CF000000 		.4byte	.LASF38
 1903 0895 16       		.byte	0x16
 1904 0896 9B       		.byte	0x9b
 1905 0897 42010000 		.4byte	0x142
 1906 089b 04       		.byte	0x4
 1907 089c 08       		.uleb128 0x8
 1908 089d 9B060000 		.4byte	.LASF34
 1909 08a1 16       		.byte	0x16
 1910 08a2 9D       		.byte	0x9d
 1911 08a3 AF080000 		.4byte	0x8af
 1912 08a7 08       		.byte	0x8
 1913 08a8 00       		.byte	0
 1914 08a9 0C       		.uleb128 0xc
 1915 08aa 04       		.byte	0x4
 1916 08ab 78080000 		.4byte	0x878
 1917 08af 13       		.uleb128 0x13
 1918 08b0 31060000 		.4byte	0x631
 1919 08b4 BF080000 		.4byte	0x8bf
 1920 08b8 14       		.uleb128 0x14
 1921 08b9 37000000 		.4byte	0x37
 1922 08bd 07       		.byte	0x7
 1923 08be 00       		.byte	0
 1924 08bf 03       		.uleb128 0x3
 1925 08c0 9E070000 		.4byte	.LASF130
 1926 08c4 16       		.byte	0x16
 1927 08c5 A1       		.byte	0xa1
 1928 08c6 78080000 		.4byte	0x878
 1929 08ca 07       		.uleb128 0x7
 1930 08cb 5F040000 		.4byte	.LASF131
 1931 08cf 04       		.byte	0x4
 1932 08d0 16       		.byte	0x16
 1933 08d1 A6       		.byte	0xa6
 1934 08d2 E3080000 		.4byte	0x8e3
 1935 08d6 08       		.uleb128 0x8
 1936 08d7 A0000000 		.4byte	.LASF49
 1937 08db 16       		.byte	0x16
 1938 08dc A7       		.byte	0xa7
ARM GAS  C:\Users\14122\AppData\Local\Temp\ccQMY3Ij.s 			page 35


 1939 08dd E3080000 		.4byte	0x8e3
 1940 08e1 00       		.byte	0
 1941 08e2 00       		.byte	0
 1942 08e3 0C       		.uleb128 0xc
 1943 08e4 04       		.byte	0x4
 1944 08e5 BF080000 		.4byte	0x8bf
 1945 08e9 03       		.uleb128 0x3
 1946 08ea 51000000 		.4byte	.LASF132
 1947 08ee 16       		.byte	0x16
 1948 08ef A8       		.byte	0xa8
 1949 08f0 CA080000 		.4byte	0x8ca
 1950 08f4 0D       		.uleb128 0xd
 1951 08f5 88010000 		.4byte	.LASF133
 1952 08f9 44       		.byte	0x44
 1953 08fa 16       		.byte	0x16
 1954 08fb 1101     		.2byte	0x111
 1955 08fd 6A090000 		.4byte	0x96a
 1956 0901 0A       		.uleb128 0xa
 1957 0902 6D747800 		.ascii	"mtx\000"
 1958 0906 16       		.byte	0x16
 1959 0907 1601     		.2byte	0x116
 1960 0909 77070000 		.4byte	0x777
 1961 090d 00       		.byte	0
 1962 090e 0B       		.uleb128 0xb
 1963 090f BC000000 		.4byte	.LASF134
 1964 0913 16       		.byte	0x16
 1965 0914 1D01     		.2byte	0x11d
 1966 0916 E9080000 		.4byte	0x8e9
 1967 091a 10       		.byte	0x10
 1968 091b 0B       		.uleb128 0xb
 1969 091c 9C040000 		.4byte	.LASF135
 1970 0920 16       		.byte	0x16
 1971 0921 2101     		.2byte	0x121
 1972 0923 6D080000 		.4byte	0x86d
 1973 0927 14       		.byte	0x14
 1974 0928 0B       		.uleb128 0xb
 1975 0929 FD040000 		.4byte	.LASF136
 1976 092d 16       		.byte	0x16
 1977 092e 2601     		.2byte	0x126
 1978 0930 E9080000 		.4byte	0x8e9
 1979 0934 24       		.byte	0x24
 1980 0935 0B       		.uleb128 0xb
 1981 0936 8F080000 		.4byte	.LASF137
 1982 093a 16       		.byte	0x16
 1983 093b 2C01     		.2byte	0x12c
 1984 093d E9080000 		.4byte	0x8e9
 1985 0941 28       		.byte	0x28
 1986 0942 0B       		.uleb128 0xb
 1987 0943 C0030000 		.4byte	.LASF138
 1988 0947 16       		.byte	0x16
 1989 0948 3001     		.2byte	0x130
 1990 094a 6D080000 		.4byte	0x86d
 1991 094e 2C       		.byte	0x2c
 1992 094f 0B       		.uleb128 0xb
 1993 0950 BF070000 		.4byte	.LASF139
 1994 0954 16       		.byte	0x16
 1995 0955 3601     		.2byte	0x136
ARM GAS  C:\Users\14122\AppData\Local\Temp\ccQMY3Ij.s 			page 36


 1996 0957 E9080000 		.4byte	0x8e9
 1997 095b 3C       		.byte	0x3c
 1998 095c 0B       		.uleb128 0xb
 1999 095d 3E000000 		.4byte	.LASF140
 2000 0961 16       		.byte	0x16
 2001 0962 3C01     		.2byte	0x13c
 2002 0964 E9080000 		.4byte	0x8e9
 2003 0968 40       		.byte	0x40
 2004 0969 00       		.byte	0
 2005 096a 1C       		.uleb128 0x1c
 2006 096b 17030000 		.4byte	.LASF141
 2007 096f 16       		.byte	0x16
 2008 0970 3E01     		.2byte	0x13e
 2009 0972 F4080000 		.4byte	0x8f4
 2010 0976 11       		.uleb128 0x11
 2011 0977 89050000 		.4byte	.LASF142
 2012 097b 16       		.byte	0x16
 2013 097c 4901     		.2byte	0x149
 2014 097e 6A090000 		.4byte	0x96a
 2015 0982 1D       		.uleb128 0x1d
 2016 0983 32080000 		.4byte	.LASF144
 2017 0987 01       		.byte	0x1
 2018 0988 2701     		.2byte	0x127
 2019 098a 21010000 		.4byte	0x121
 2020 098e 00000000 		.4byte	.LFB228
 2021 0992 58000000 		.4byte	.LFE228-.LFB228
 2022 0996 01       		.uleb128 0x1
 2023 0997 9C       		.byte	0x9c
 2024 0998 770A0000 		.4byte	0xa77
 2025 099c 1E       		.uleb128 0x1e
 2026 099d 637000   		.ascii	"cp\000"
 2027 09a0 01       		.byte	0x1
 2028 09a1 2701     		.2byte	0x127
 2029 09a3 770A0000 		.4byte	0xa77
 2030 09a7 00000000 		.4byte	.LLST30
 2031 09ab 1F       		.uleb128 0x1f
 2032 09ac 96070000 		.4byte	.LASF143
 2033 09b0 01       		.byte	0x1
 2034 09b1 2701     		.2byte	0x127
 2035 09b3 4A040000 		.4byte	0x44a
 2036 09b7 1E000000 		.4byte	.LLST31
 2037 09bb 20       		.uleb128 0x20
 2038 09bc 6D7000   		.ascii	"mp\000"
 2039 09bf 01       		.byte	0x1
 2040 09c0 2801     		.2byte	0x128
 2041 09c2 82070000 		.4byte	0x782
 2042 09c6 21       		.uleb128 0x21
 2043 09c7 6D736700 		.ascii	"msg\000"
 2044 09cb 01       		.byte	0x1
 2045 09cc 2901     		.2byte	0x129
 2046 09ce 21010000 		.4byte	0x121
 2047 09d2 3C000000 		.4byte	.LLST32
 2048 09d6 22       		.uleb128 0x22
 2049 09d7 54080000 		.4byte	.LASF147
 2050 09db 8D0A0000 		.4byte	0xa8d
 2051 09df 23       		.uleb128 0x23
 2052 09e0 B5100000 		.4byte	0x10b5
ARM GAS  C:\Users\14122\AppData\Local\Temp\ccQMY3Ij.s 			page 37


 2053 09e4 06000000 		.4byte	.LBB165
 2054 09e8 E8000000 		.4byte	.Ldebug_ranges0+0xe8
 2055 09ec 01       		.byte	0x1
 2056 09ed 2801     		.2byte	0x128
 2057 09ef 030A0000 		.4byte	0xa03
 2058 09f3 24       		.uleb128 0x24
 2059 09f4 C1100000 		.4byte	0x10c1
 2060 09f8 06000000 		.4byte	.LBB167
 2061 09fc 02000000 		.4byte	.LBE167-.LBB167
 2062 0a00 04       		.byte	0x4
 2063 0a01 91       		.byte	0x91
 2064 0a02 00       		.byte	0
 2065 0a03 23       		.uleb128 0x23
 2066 0a04 21110000 		.4byte	0x1121
 2067 0a08 1E000000 		.4byte	.LBB173
 2068 0a0c 08010000 		.4byte	.Ldebug_ranges0+0x108
 2069 0a10 01       		.byte	0x1
 2070 0a11 3501     		.2byte	0x135
 2071 0a13 390A0000 		.4byte	0xa39
 2072 0a17 25       		.uleb128 0x25
 2073 0a18 39110000 		.4byte	0x1139
 2074 0a1c 5A000000 		.4byte	.LLST33
 2075 0a20 25       		.uleb128 0x25
 2076 0a21 2E110000 		.4byte	0x112e
 2077 0a25 78000000 		.4byte	.LLST34
 2078 0a29 26       		.uleb128 0x26
 2079 0a2a 08010000 		.4byte	.Ldebug_ranges0+0x108
 2080 0a2e 27       		.uleb128 0x27
 2081 0a2f 45110000 		.4byte	0x1145
 2082 0a33 96000000 		.4byte	.LLST35
 2083 0a37 00       		.byte	0
 2084 0a38 00       		.byte	0
 2085 0a39 28       		.uleb128 0x28
 2086 0a3a 16000000 		.4byte	.LVL52
 2087 0a3e 2F120000 		.4byte	0x122f
 2088 0a42 4D0A0000 		.4byte	0xa4d
 2089 0a46 29       		.uleb128 0x29
 2090 0a47 01       		.uleb128 0x1
 2091 0a48 50       		.byte	0x50
 2092 0a49 02       		.uleb128 0x2
 2093 0a4a 77       		.byte	0x77
 2094 0a4b 00       		.sleb128 0
 2095 0a4c 00       		.byte	0
 2096 0a4d 28       		.uleb128 0x28
 2097 0a4e 3E000000 		.4byte	.LVL59
 2098 0a52 3A120000 		.4byte	0x123a
 2099 0a56 660A0000 		.4byte	0xa66
 2100 0a5a 29       		.uleb128 0x29
 2101 0a5b 01       		.uleb128 0x1
 2102 0a5c 50       		.byte	0x50
 2103 0a5d 01       		.uleb128 0x1
 2104 0a5e 37       		.byte	0x37
 2105 0a5f 29       		.uleb128 0x29
 2106 0a60 01       		.uleb128 0x1
 2107 0a61 51       		.byte	0x51
 2108 0a62 02       		.uleb128 0x2
 2109 0a63 78       		.byte	0x78
ARM GAS  C:\Users\14122\AppData\Local\Temp\ccQMY3Ij.s 			page 38


 2110 0a64 00       		.sleb128 0
 2111 0a65 00       		.byte	0
 2112 0a66 2A       		.uleb128 0x2a
 2113 0a67 4A000000 		.4byte	.LVL62
 2114 0a6b 46120000 		.4byte	0x1246
 2115 0a6f 29       		.uleb128 0x29
 2116 0a70 01       		.uleb128 0x1
 2117 0a71 50       		.byte	0x50
 2118 0a72 02       		.uleb128 0x2
 2119 0a73 77       		.byte	0x77
 2120 0a74 00       		.sleb128 0
 2121 0a75 00       		.byte	0
 2122 0a76 00       		.byte	0
 2123 0a77 0C       		.uleb128 0xc
 2124 0a78 04       		.byte	0x4
 2125 0a79 A1070000 		.4byte	0x7a1
 2126 0a7d 13       		.uleb128 0x13
 2127 0a7e 38060000 		.4byte	0x638
 2128 0a82 8D0A0000 		.4byte	0xa8d
 2129 0a86 14       		.uleb128 0x14
 2130 0a87 37000000 		.4byte	0x37
 2131 0a8b 12       		.byte	0x12
 2132 0a8c 00       		.byte	0
 2133 0a8d 05       		.uleb128 0x5
 2134 0a8e 7D0A0000 		.4byte	0xa7d
 2135 0a92 1D       		.uleb128 0x1d
 2136 0a93 DF030000 		.4byte	.LASF145
 2137 0a97 01       		.byte	0x1
 2138 0a98 0101     		.2byte	0x101
 2139 0a9a 21010000 		.4byte	0x121
 2140 0a9e 00000000 		.4byte	.LFB227
 2141 0aa2 14000000 		.4byte	.LFE227-.LFB227
 2142 0aa6 01       		.uleb128 0x1
 2143 0aa7 9C       		.byte	0x9c
 2144 0aa8 810B0000 		.4byte	0xb81
 2145 0aac 1E       		.uleb128 0x1e
 2146 0aad 637000   		.ascii	"cp\000"
 2147 0ab0 01       		.byte	0x1
 2148 0ab1 0101     		.2byte	0x101
 2149 0ab3 770A0000 		.4byte	0xa77
 2150 0ab7 B4000000 		.4byte	.LLST36
 2151 0abb 1F       		.uleb128 0x1f
 2152 0abc 96070000 		.4byte	.LASF143
 2153 0ac0 01       		.byte	0x1
 2154 0ac1 0101     		.2byte	0x101
 2155 0ac3 4A040000 		.4byte	0x44a
 2156 0ac7 D5000000 		.4byte	.LLST37
 2157 0acb 2B       		.uleb128 0x2b
 2158 0acc 6D736700 		.ascii	"msg\000"
 2159 0ad0 01       		.byte	0x1
 2160 0ad1 0201     		.2byte	0x102
 2161 0ad3 21010000 		.4byte	0x121
 2162 0ad7 01       		.uleb128 0x1
 2163 0ad8 50       		.byte	0x50
 2164 0ad9 2C       		.uleb128 0x2c
 2165 0ada E9100000 		.4byte	0x10e9
 2166 0ade 02000000 		.4byte	.LBB181
ARM GAS  C:\Users\14122\AppData\Local\Temp\ccQMY3Ij.s 			page 39


 2167 0ae2 06000000 		.4byte	.LBE181-.LBB181
 2168 0ae6 01       		.byte	0x1
 2169 0ae7 0401     		.2byte	0x104
 2170 0ae9 190B0000 		.4byte	0xb19
 2171 0aed 2D       		.uleb128 0x2d
 2172 0aee 98110000 		.4byte	0x1198
 2173 0af2 02000000 		.4byte	.LBB182
 2174 0af6 06000000 		.4byte	.LBE182-.LBB182
 2175 0afa 11       		.byte	0x11
 2176 0afb 6301     		.2byte	0x163
 2177 0afd 2D       		.uleb128 0x2d
 2178 0afe A1110000 		.4byte	0x11a1
 2179 0b02 02000000 		.4byte	.LBB183
 2180 0b06 06000000 		.4byte	.LBE183-.LBB183
 2181 0b0a 0F       		.byte	0xf
 2182 0b0b 5A02     		.2byte	0x25a
 2183 0b0d 25       		.uleb128 0x25
 2184 0b0e AE110000 		.4byte	0x11ae
 2185 0b12 F6000000 		.4byte	.LLST38
 2186 0b16 00       		.byte	0
 2187 0b17 00       		.byte	0
 2188 0b18 00       		.byte	0
 2189 0b19 2C       		.uleb128 0x2c
 2190 0b1a CE100000 		.4byte	0x10ce
 2191 0b1e 0C000000 		.4byte	.LBB185
 2192 0b22 06000000 		.4byte	.LBE185-.LBB185
 2193 0b26 01       		.byte	0x1
 2194 0b27 0601     		.2byte	0x106
 2195 0b29 680B0000 		.4byte	0xb68
 2196 0b2d 2E       		.uleb128 0x2e
 2197 0b2e 0C000000 		.4byte	.LBB186
 2198 0b32 06000000 		.4byte	.LBE186-.LBB186
 2199 0b36 2F       		.uleb128 0x2f
 2200 0b37 DB100000 		.4byte	0x10db
 2201 0b3b 2D       		.uleb128 0x2d
 2202 0b3c 8F110000 		.4byte	0x118f
 2203 0b40 0C000000 		.4byte	.LBB187
 2204 0b44 06000000 		.4byte	.LBE187-.LBB187
 2205 0b48 11       		.byte	0x11
 2206 0b49 7A01     		.2byte	0x17a
 2207 0b4b 2D       		.uleb128 0x2d
 2208 0b4c A1110000 		.4byte	0x11a1
 2209 0b50 0C000000 		.4byte	.LBB188
 2210 0b54 06000000 		.4byte	.LBE188-.LBB188
 2211 0b58 0F       		.byte	0xf
 2212 0b59 6D02     		.2byte	0x26d
 2213 0b5b 25       		.uleb128 0x25
 2214 0b5c AE110000 		.4byte	0x11ae
 2215 0b60 0B010000 		.4byte	.LLST39
 2216 0b64 00       		.byte	0
 2217 0b65 00       		.byte	0
 2218 0b66 00       		.byte	0
 2219 0b67 00       		.byte	0
 2220 0b68 2A       		.uleb128 0x2a
 2221 0b69 0C000000 		.4byte	.LVL66
 2222 0b6d 82090000 		.4byte	0x982
 2223 0b71 29       		.uleb128 0x29
ARM GAS  C:\Users\14122\AppData\Local\Temp\ccQMY3Ij.s 			page 40


 2224 0b72 01       		.uleb128 0x1
 2225 0b73 50       		.byte	0x50
 2226 0b74 03       		.uleb128 0x3
 2227 0b75 F3       		.byte	0xf3
 2228 0b76 01       		.uleb128 0x1
 2229 0b77 50       		.byte	0x50
 2230 0b78 29       		.uleb128 0x29
 2231 0b79 01       		.uleb128 0x1
 2232 0b7a 51       		.byte	0x51
 2233 0b7b 03       		.uleb128 0x3
 2234 0b7c F3       		.byte	0xf3
 2235 0b7d 01       		.uleb128 0x1
 2236 0b7e 51       		.byte	0x51
 2237 0b7f 00       		.byte	0
 2238 0b80 00       		.byte	0
 2239 0b81 30       		.uleb128 0x30
 2240 0b82 C6060000 		.4byte	.LASF146
 2241 0b86 01       		.byte	0x1
 2242 0b87 CD       		.byte	0xcd
 2243 0b88 21010000 		.4byte	0x121
 2244 0b8c 00000000 		.4byte	.LFB226
 2245 0b90 4C000000 		.4byte	.LFE226-.LFB226
 2246 0b94 01       		.uleb128 0x1
 2247 0b95 9C       		.byte	0x9c
 2248 0b96 550C0000 		.4byte	0xc55
 2249 0b9a 31       		.uleb128 0x31
 2250 0b9b 637000   		.ascii	"cp\000"
 2251 0b9e 01       		.byte	0x1
 2252 0b9f CD       		.byte	0xcd
 2253 0ba0 770A0000 		.4byte	0xa77
 2254 0ba4 1F010000 		.4byte	.LLST21
 2255 0ba8 32       		.uleb128 0x32
 2256 0ba9 63747000 		.ascii	"ctp\000"
 2257 0bad 01       		.byte	0x1
 2258 0bae CE       		.byte	0xce
 2259 0baf 41020000 		.4byte	0x241
 2260 0bb3 3D010000 		.4byte	.LLST22
 2261 0bb7 33       		.uleb128 0x33
 2262 0bb8 6D7000   		.ascii	"mp\000"
 2263 0bbb 01       		.byte	0x1
 2264 0bbc CF       		.byte	0xcf
 2265 0bbd 82070000 		.4byte	0x782
 2266 0bc1 32       		.uleb128 0x32
 2267 0bc2 6D736700 		.ascii	"msg\000"
 2268 0bc6 01       		.byte	0x1
 2269 0bc7 D0       		.byte	0xd0
 2270 0bc8 21010000 		.4byte	0x121
 2271 0bcc 5B010000 		.4byte	.LLST23
 2272 0bd0 22       		.uleb128 0x22
 2273 0bd1 54080000 		.4byte	.LASF147
 2274 0bd5 650C0000 		.4byte	0xc65
 2275 0bd9 24       		.uleb128 0x24
 2276 0bda B5100000 		.4byte	0x10b5
 2277 0bde 0A000000 		.4byte	.LBB148
 2278 0be2 02000000 		.4byte	.LBE148-.LBB148
 2279 0be6 01       		.byte	0x1
 2280 0be7 CF       		.byte	0xcf
ARM GAS  C:\Users\14122\AppData\Local\Temp\ccQMY3Ij.s 			page 41


 2281 0be8 34       		.uleb128 0x34
 2282 0be9 21110000 		.4byte	0x1121
 2283 0bed 18000000 		.4byte	.LBB150
 2284 0bf1 C8000000 		.4byte	.Ldebug_ranges0+0xc8
 2285 0bf5 01       		.byte	0x1
 2286 0bf6 DC       		.byte	0xdc
 2287 0bf7 1D0C0000 		.4byte	0xc1d
 2288 0bfb 25       		.uleb128 0x25
 2289 0bfc 39110000 		.4byte	0x1139
 2290 0c00 6E010000 		.4byte	.LLST24
 2291 0c04 25       		.uleb128 0x25
 2292 0c05 2E110000 		.4byte	0x112e
 2293 0c09 8C010000 		.4byte	.LLST25
 2294 0c0d 26       		.uleb128 0x26
 2295 0c0e C8000000 		.4byte	.Ldebug_ranges0+0xc8
 2296 0c12 27       		.uleb128 0x27
 2297 0c13 45110000 		.4byte	0x1145
 2298 0c17 AA010000 		.4byte	.LLST26
 2299 0c1b 00       		.byte	0
 2300 0c1c 00       		.byte	0
 2301 0c1d 28       		.uleb128 0x28
 2302 0c1e 12000000 		.4byte	.LVL36
 2303 0c22 2F120000 		.4byte	0x122f
 2304 0c26 310C0000 		.4byte	0xc31
 2305 0c2a 29       		.uleb128 0x29
 2306 0c2b 01       		.uleb128 0x1
 2307 0c2c 50       		.byte	0x50
 2308 0c2d 02       		.uleb128 0x2
 2309 0c2e 77       		.byte	0x77
 2310 0c2f 00       		.sleb128 0
 2311 0c30 00       		.byte	0
 2312 0c31 28       		.uleb128 0x28
 2313 0c32 36000000 		.4byte	.LVL42
 2314 0c36 51120000 		.4byte	0x1251
 2315 0c3a 440C0000 		.4byte	0xc44
 2316 0c3e 29       		.uleb128 0x29
 2317 0c3f 01       		.uleb128 0x1
 2318 0c40 50       		.byte	0x50
 2319 0c41 01       		.uleb128 0x1
 2320 0c42 37       		.byte	0x37
 2321 0c43 00       		.byte	0
 2322 0c44 2A       		.uleb128 0x2a
 2323 0c45 3E000000 		.4byte	.LVL44
 2324 0c49 46120000 		.4byte	0x1246
 2325 0c4d 29       		.uleb128 0x29
 2326 0c4e 01       		.uleb128 0x1
 2327 0c4f 50       		.byte	0x50
 2328 0c50 02       		.uleb128 0x2
 2329 0c51 77       		.byte	0x77
 2330 0c52 00       		.sleb128 0
 2331 0c53 00       		.byte	0
 2332 0c54 00       		.byte	0
 2333 0c55 13       		.uleb128 0x13
 2334 0c56 38060000 		.4byte	0x638
 2335 0c5a 650C0000 		.4byte	0xc65
 2336 0c5e 14       		.uleb128 0x14
 2337 0c5f 37000000 		.4byte	0x37
ARM GAS  C:\Users\14122\AppData\Local\Temp\ccQMY3Ij.s 			page 42


 2338 0c63 0B       		.byte	0xb
 2339 0c64 00       		.byte	0
 2340 0c65 05       		.uleb128 0x5
 2341 0c66 550C0000 		.4byte	0xc55
 2342 0c6a 30       		.uleb128 0x30
 2343 0c6b 4F020000 		.4byte	.LASF148
 2344 0c6f 01       		.byte	0x1
 2345 0c70 B3       		.byte	0xb3
 2346 0c71 21010000 		.4byte	0x121
 2347 0c75 00000000 		.4byte	.LFB225
 2348 0c79 14000000 		.4byte	.LFE225-.LFB225
 2349 0c7d 01       		.uleb128 0x1
 2350 0c7e 9C       		.byte	0x9c
 2351 0c7f 3D0D0000 		.4byte	0xd3d
 2352 0c83 31       		.uleb128 0x31
 2353 0c84 637000   		.ascii	"cp\000"
 2354 0c87 01       		.byte	0x1
 2355 0c88 B3       		.byte	0xb3
 2356 0c89 770A0000 		.4byte	0xa77
 2357 0c8d C8010000 		.4byte	.LLST27
 2358 0c91 35       		.uleb128 0x35
 2359 0c92 6D736700 		.ascii	"msg\000"
 2360 0c96 01       		.byte	0x1
 2361 0c97 B4       		.byte	0xb4
 2362 0c98 21010000 		.4byte	0x121
 2363 0c9c 01       		.uleb128 0x1
 2364 0c9d 50       		.byte	0x50
 2365 0c9e 36       		.uleb128 0x36
 2366 0c9f E9100000 		.4byte	0x10e9
 2367 0ca3 02000000 		.4byte	.LBB156
 2368 0ca7 06000000 		.4byte	.LBE156-.LBB156
 2369 0cab 01       		.byte	0x1
 2370 0cac B6       		.byte	0xb6
 2371 0cad DD0C0000 		.4byte	0xcdd
 2372 0cb1 2D       		.uleb128 0x2d
 2373 0cb2 98110000 		.4byte	0x1198
 2374 0cb6 02000000 		.4byte	.LBB157
 2375 0cba 06000000 		.4byte	.LBE157-.LBB157
 2376 0cbe 11       		.byte	0x11
 2377 0cbf 6301     		.2byte	0x163
 2378 0cc1 2D       		.uleb128 0x2d
 2379 0cc2 A1110000 		.4byte	0x11a1
 2380 0cc6 02000000 		.4byte	.LBB158
 2381 0cca 06000000 		.4byte	.LBE158-.LBB158
 2382 0cce 0F       		.byte	0xf
 2383 0ccf 5A02     		.2byte	0x25a
 2384 0cd1 25       		.uleb128 0x25
 2385 0cd2 AE110000 		.4byte	0x11ae
 2386 0cd6 E9010000 		.4byte	.LLST28
 2387 0cda 00       		.byte	0
 2388 0cdb 00       		.byte	0
 2389 0cdc 00       		.byte	0
 2390 0cdd 36       		.uleb128 0x36
 2391 0cde CE100000 		.4byte	0x10ce
 2392 0ce2 0C000000 		.4byte	.LBB160
 2393 0ce6 06000000 		.4byte	.LBE160-.LBB160
 2394 0cea 01       		.byte	0x1
ARM GAS  C:\Users\14122\AppData\Local\Temp\ccQMY3Ij.s 			page 43


 2395 0ceb B8       		.byte	0xb8
 2396 0cec 2B0D0000 		.4byte	0xd2b
 2397 0cf0 2E       		.uleb128 0x2e
 2398 0cf1 0C000000 		.4byte	.LBB161
 2399 0cf5 06000000 		.4byte	.LBE161-.LBB161
 2400 0cf9 2F       		.uleb128 0x2f
 2401 0cfa DB100000 		.4byte	0x10db
 2402 0cfe 2D       		.uleb128 0x2d
 2403 0cff 8F110000 		.4byte	0x118f
 2404 0d03 0C000000 		.4byte	.LBB162
 2405 0d07 06000000 		.4byte	.LBE162-.LBB162
 2406 0d0b 11       		.byte	0x11
 2407 0d0c 7A01     		.2byte	0x17a
 2408 0d0e 2D       		.uleb128 0x2d
 2409 0d0f A1110000 		.4byte	0x11a1
 2410 0d13 0C000000 		.4byte	.LBB163
 2411 0d17 06000000 		.4byte	.LBE163-.LBB163
 2412 0d1b 0F       		.byte	0xf
 2413 0d1c 6D02     		.2byte	0x26d
 2414 0d1e 25       		.uleb128 0x25
 2415 0d1f AE110000 		.4byte	0x11ae
 2416 0d23 FE010000 		.4byte	.LLST29
 2417 0d27 00       		.byte	0
 2418 0d28 00       		.byte	0
 2419 0d29 00       		.byte	0
 2420 0d2a 00       		.byte	0
 2421 0d2b 2A       		.uleb128 0x2a
 2422 0d2c 0C000000 		.4byte	.LVL48
 2423 0d30 810B0000 		.4byte	0xb81
 2424 0d34 29       		.uleb128 0x29
 2425 0d35 01       		.uleb128 0x1
 2426 0d36 50       		.byte	0x50
 2427 0d37 03       		.uleb128 0x3
 2428 0d38 F3       		.byte	0xf3
 2429 0d39 01       		.uleb128 0x1
 2430 0d3a 50       		.byte	0x50
 2431 0d3b 00       		.byte	0
 2432 0d3c 00       		.byte	0
 2433 0d3d 37       		.uleb128 0x37
 2434 0d3e CE030000 		.4byte	.LASF155
 2435 0d42 01       		.byte	0x1
 2436 0d43 95       		.byte	0x95
 2437 0d44 01       		.byte	0x1
 2438 0d45 610D0000 		.4byte	0xd61
 2439 0d49 38       		.uleb128 0x38
 2440 0d4a 637000   		.ascii	"cp\000"
 2441 0d4d 01       		.byte	0x1
 2442 0d4e 95       		.byte	0x95
 2443 0d4f 770A0000 		.4byte	0xa77
 2444 0d53 39       		.uleb128 0x39
 2445 0d54 54080000 		.4byte	.LASF147
 2446 0d58 710D0000 		.4byte	0xd71
 2447 0d5c CE030000 		.4byte	.LASF155
 2448 0d60 00       		.byte	0
 2449 0d61 13       		.uleb128 0x13
 2450 0d62 38060000 		.4byte	0x638
 2451 0d66 710D0000 		.4byte	0xd71
ARM GAS  C:\Users\14122\AppData\Local\Temp\ccQMY3Ij.s 			page 44


 2452 0d6a 14       		.uleb128 0x14
 2453 0d6b 37000000 		.4byte	0x37
 2454 0d6f 10       		.byte	0x10
 2455 0d70 00       		.byte	0
 2456 0d71 05       		.uleb128 0x5
 2457 0d72 610D0000 		.4byte	0xd61
 2458 0d76 3A       		.uleb128 0x3a
 2459 0d77 77030000 		.4byte	.LASF149
 2460 0d7b 01       		.byte	0x1
 2461 0d7c 82       		.byte	0x82
 2462 0d7d 00000000 		.4byte	.LFB223
 2463 0d81 34000000 		.4byte	.LFE223-.LFB223
 2464 0d85 01       		.uleb128 0x1
 2465 0d86 9C       		.byte	0x9c
 2466 0d87 AA0E0000 		.4byte	0xeaa
 2467 0d8b 31       		.uleb128 0x31
 2468 0d8c 637000   		.ascii	"cp\000"
 2469 0d8f 01       		.byte	0x1
 2470 0d90 82       		.byte	0x82
 2471 0d91 770A0000 		.4byte	0xa77
 2472 0d95 12020000 		.4byte	.LLST11
 2473 0d99 36       		.uleb128 0x36
 2474 0d9a E9100000 		.4byte	0x10e9
 2475 0d9e 02000000 		.4byte	.LBB121
 2476 0da2 06000000 		.4byte	.LBE121-.LBB121
 2477 0da6 01       		.byte	0x1
 2478 0da7 84       		.byte	0x84
 2479 0da8 D80D0000 		.4byte	0xdd8
 2480 0dac 2D       		.uleb128 0x2d
 2481 0dad 98110000 		.4byte	0x1198
 2482 0db1 02000000 		.4byte	.LBB122
 2483 0db5 06000000 		.4byte	.LBE122-.LBB122
 2484 0db9 11       		.byte	0x11
 2485 0dba 6301     		.2byte	0x163
 2486 0dbc 2D       		.uleb128 0x2d
 2487 0dbd A1110000 		.4byte	0x11a1
 2488 0dc1 02000000 		.4byte	.LBB123
 2489 0dc5 06000000 		.4byte	.LBE123-.LBB123
 2490 0dc9 0F       		.byte	0xf
 2491 0dca 5A02     		.2byte	0x25a
 2492 0dcc 25       		.uleb128 0x25
 2493 0dcd AE110000 		.4byte	0x11ae
 2494 0dd1 3E020000 		.4byte	.LLST12
 2495 0dd5 00       		.byte	0
 2496 0dd6 00       		.byte	0
 2497 0dd7 00       		.byte	0
 2498 0dd8 36       		.uleb128 0x36
 2499 0dd9 3D0D0000 		.4byte	0xd3d
 2500 0ddd 08000000 		.4byte	.LBB125
 2501 0de1 20000000 		.4byte	.LBE125-.LBB125
 2502 0de5 01       		.byte	0x1
 2503 0de6 85       		.byte	0x85
 2504 0de7 520E0000 		.4byte	0xe52
 2505 0deb 3B       		.uleb128 0x3b
 2506 0dec 490D0000 		.4byte	0xd49
 2507 0df0 2E       		.uleb128 0x2e
 2508 0df1 08000000 		.4byte	.LBB126
ARM GAS  C:\Users\14122\AppData\Local\Temp\ccQMY3Ij.s 			page 45


 2509 0df5 20000000 		.4byte	.LBE126-.LBB126
 2510 0df9 2F       		.uleb128 0x2f
 2511 0dfa 530D0000 		.4byte	0xd53
 2512 0dfe 34       		.uleb128 0x34
 2513 0dff 51110000 		.4byte	0x1151
 2514 0e03 08000000 		.4byte	.LBB127
 2515 0e07 68000000 		.4byte	.Ldebug_ranges0+0x68
 2516 0e0b 01       		.byte	0x1
 2517 0e0c 9D       		.byte	0x9d
 2518 0e0d 1B0E0000 		.4byte	0xe1b
 2519 0e11 25       		.uleb128 0x25
 2520 0e12 62110000 		.4byte	0x1162
 2521 0e16 53020000 		.4byte	.LLST13
 2522 0e1a 00       		.byte	0
 2523 0e1b 34       		.uleb128 0x34
 2524 0e1c F2100000 		.4byte	0x10f2
 2525 0e20 14000000 		.4byte	.LBB130
 2526 0e24 80000000 		.4byte	.Ldebug_ranges0+0x80
 2527 0e28 01       		.byte	0x1
 2528 0e29 9E       		.byte	0x9e
 2529 0e2a 470E0000 		.4byte	0xe47
 2530 0e2e 25       		.uleb128 0x25
 2531 0e2f 03110000 		.4byte	0x1103
 2532 0e33 66020000 		.4byte	.LLST14
 2533 0e37 26       		.uleb128 0x26
 2534 0e38 80000000 		.4byte	.Ldebug_ranges0+0x80
 2535 0e3c 27       		.uleb128 0x27
 2536 0e3d 0F110000 		.4byte	0x110f
 2537 0e41 79020000 		.4byte	.LLST15
 2538 0e45 00       		.byte	0
 2539 0e46 00       		.byte	0
 2540 0e47 3C       		.uleb128 0x3c
 2541 0e48 20000000 		.4byte	.LVL23
 2542 0e4c 5D120000 		.4byte	0x125d
 2543 0e50 00       		.byte	0
 2544 0e51 00       		.byte	0
 2545 0e52 36       		.uleb128 0x36
 2546 0e53 CE100000 		.4byte	0x10ce
 2547 0e57 2C000000 		.4byte	.LBB135
 2548 0e5b 06000000 		.4byte	.LBE135-.LBB135
 2549 0e5f 01       		.byte	0x1
 2550 0e60 87       		.byte	0x87
 2551 0e61 A00E0000 		.4byte	0xea0
 2552 0e65 2E       		.uleb128 0x2e
 2553 0e66 2C000000 		.4byte	.LBB136
 2554 0e6a 06000000 		.4byte	.LBE136-.LBB136
 2555 0e6e 2F       		.uleb128 0x2f
 2556 0e6f DB100000 		.4byte	0x10db
 2557 0e73 2D       		.uleb128 0x2d
 2558 0e74 8F110000 		.4byte	0x118f
 2559 0e78 2C000000 		.4byte	.LBB137
 2560 0e7c 06000000 		.4byte	.LBE137-.LBB137
 2561 0e80 11       		.byte	0x11
 2562 0e81 7A01     		.2byte	0x17a
 2563 0e83 2D       		.uleb128 0x2d
 2564 0e84 A1110000 		.4byte	0x11a1
 2565 0e88 2C000000 		.4byte	.LBB138
ARM GAS  C:\Users\14122\AppData\Local\Temp\ccQMY3Ij.s 			page 46


 2566 0e8c 06000000 		.4byte	.LBE138-.LBB138
 2567 0e90 0F       		.byte	0xf
 2568 0e91 6D02     		.2byte	0x26d
 2569 0e93 25       		.uleb128 0x25
 2570 0e94 AE110000 		.4byte	0x11ae
 2571 0e98 8C020000 		.4byte	.LLST16
 2572 0e9c 00       		.byte	0
 2573 0e9d 00       		.byte	0
 2574 0e9e 00       		.byte	0
 2575 0e9f 00       		.byte	0
 2576 0ea0 3C       		.uleb128 0x3c
 2577 0ea1 2C000000 		.4byte	.LVL25
 2578 0ea5 69120000 		.4byte	0x1269
 2579 0ea9 00       		.byte	0
 2580 0eaa 3A       		.uleb128 0x3a
 2581 0eab A9010000 		.4byte	.LASF150
 2582 0eaf 01       		.byte	0x1
 2583 0eb0 6F       		.byte	0x6f
 2584 0eb1 00000000 		.4byte	.LFB222
 2585 0eb5 1E000000 		.4byte	.LFE222-.LFB222
 2586 0eb9 01       		.uleb128 0x1
 2587 0eba 9C       		.byte	0x9c
 2588 0ebb 390F0000 		.4byte	0xf39
 2589 0ebf 31       		.uleb128 0x31
 2590 0ec0 637000   		.ascii	"cp\000"
 2591 0ec3 01       		.byte	0x1
 2592 0ec4 6F       		.byte	0x6f
 2593 0ec5 770A0000 		.4byte	0xa77
 2594 0ec9 A0020000 		.4byte	.LLST7
 2595 0ecd 22       		.uleb128 0x22
 2596 0ece 54080000 		.4byte	.LASF147
 2597 0ed2 490F0000 		.4byte	0xf49
 2598 0ed6 3D       		.uleb128 0x3d
 2599 0ed7 38000000 		.4byte	.Ldebug_ranges0+0x38
 2600 0edb 1F0F0000 		.4byte	0xf1f
 2601 0edf 33       		.uleb128 0x33
 2602 0ee0 747000   		.ascii	"tp\000"
 2603 0ee3 01       		.byte	0x1
 2604 0ee4 75       		.byte	0x75
 2605 0ee5 41020000 		.4byte	0x241
 2606 0ee9 34       		.uleb128 0x34
 2607 0eea F2100000 		.4byte	0x10f2
 2608 0eee 0C000000 		.4byte	.LBB116
 2609 0ef2 50000000 		.4byte	.Ldebug_ranges0+0x50
 2610 0ef6 01       		.byte	0x1
 2611 0ef7 75       		.byte	0x75
 2612 0ef8 150F0000 		.4byte	0xf15
 2613 0efc 25       		.uleb128 0x25
 2614 0efd 03110000 		.4byte	0x1103
 2615 0f01 D7020000 		.4byte	.LLST9
 2616 0f05 26       		.uleb128 0x26
 2617 0f06 50000000 		.4byte	.Ldebug_ranges0+0x50
 2618 0f0a 27       		.uleb128 0x27
 2619 0f0b 0F110000 		.4byte	0x110f
 2620 0f0f F5020000 		.4byte	.LLST10
 2621 0f13 00       		.byte	0
 2622 0f14 00       		.byte	0
ARM GAS  C:\Users\14122\AppData\Local\Temp\ccQMY3Ij.s 			page 47


 2623 0f15 3E       		.uleb128 0x3e
 2624 0f16 1C000000 		.4byte	.LVL17
 2625 0f1a 5D120000 		.4byte	0x125d
 2626 0f1e 00       		.byte	0
 2627 0f1f 3F       		.uleb128 0x3f
 2628 0f20 51110000 		.4byte	0x1151
 2629 0f24 00000000 		.4byte	.LBB113
 2630 0f28 02000000 		.4byte	.LBE113-.LBB113
 2631 0f2c 01       		.byte	0x1
 2632 0f2d 74       		.byte	0x74
 2633 0f2e 25       		.uleb128 0x25
 2634 0f2f 62110000 		.4byte	0x1162
 2635 0f33 08030000 		.4byte	.LLST8
 2636 0f37 00       		.byte	0
 2637 0f38 00       		.byte	0
 2638 0f39 13       		.uleb128 0x13
 2639 0f3a 38060000 		.4byte	0x638
 2640 0f3e 490F0000 		.4byte	0xf49
 2641 0f42 14       		.uleb128 0x14
 2642 0f43 37000000 		.4byte	0x37
 2643 0f47 0D       		.byte	0xd
 2644 0f48 00       		.byte	0
 2645 0f49 05       		.uleb128 0x5
 2646 0f4a 390F0000 		.4byte	0xf39
 2647 0f4e 3A       		.uleb128 0x3a
 2648 0f4f B5040000 		.4byte	.LASF151
 2649 0f53 01       		.byte	0x1
 2650 0f54 59       		.byte	0x59
 2651 0f55 00000000 		.4byte	.LFB221
 2652 0f59 2E000000 		.4byte	.LFE221-.LFB221
 2653 0f5d 01       		.uleb128 0x1
 2654 0f5e 9C       		.byte	0x9c
 2655 0f5f 5C100000 		.4byte	0x105c
 2656 0f63 31       		.uleb128 0x31
 2657 0f64 637000   		.ascii	"cp\000"
 2658 0f67 01       		.byte	0x1
 2659 0f68 59       		.byte	0x59
 2660 0f69 770A0000 		.4byte	0xa77
 2661 0f6d 1B030000 		.4byte	.LLST1
 2662 0f71 22       		.uleb128 0x22
 2663 0f72 54080000 		.4byte	.LASF147
 2664 0f76 6C100000 		.4byte	0x106c
 2665 0f7a 36       		.uleb128 0x36
 2666 0f7b E9100000 		.4byte	0x10e9
 2667 0f7f 00000000 		.4byte	.LBB91
 2668 0f83 06000000 		.4byte	.LBE91-.LBB91
 2669 0f87 01       		.byte	0x1
 2670 0f88 5D       		.byte	0x5d
 2671 0f89 B90F0000 		.4byte	0xfb9
 2672 0f8d 2D       		.uleb128 0x2d
 2673 0f8e 98110000 		.4byte	0x1198
 2674 0f92 00000000 		.4byte	.LBB92
 2675 0f96 06000000 		.4byte	.LBE92-.LBB92
 2676 0f9a 11       		.byte	0x11
 2677 0f9b 6301     		.2byte	0x163
 2678 0f9d 2D       		.uleb128 0x2d
 2679 0f9e A1110000 		.4byte	0x11a1
ARM GAS  C:\Users\14122\AppData\Local\Temp\ccQMY3Ij.s 			page 48


 2680 0fa2 00000000 		.4byte	.LBB93
 2681 0fa6 06000000 		.4byte	.LBE93-.LBB93
 2682 0faa 0F       		.byte	0xf
 2683 0fab 5A02     		.2byte	0x25a
 2684 0fad 25       		.uleb128 0x25
 2685 0fae AE110000 		.4byte	0x11ae
 2686 0fb2 52030000 		.4byte	.LLST2
 2687 0fb6 00       		.byte	0
 2688 0fb7 00       		.byte	0
 2689 0fb8 00       		.byte	0
 2690 0fb9 36       		.uleb128 0x36
 2691 0fba 51110000 		.4byte	0x1151
 2692 0fbe 06000000 		.4byte	.LBB95
 2693 0fc2 02000000 		.4byte	.LBE95-.LBB95
 2694 0fc6 01       		.byte	0x1
 2695 0fc7 5E       		.byte	0x5e
 2696 0fc8 D60F0000 		.4byte	0xfd6
 2697 0fcc 25       		.uleb128 0x25
 2698 0fcd 62110000 		.4byte	0x1162
 2699 0fd1 67030000 		.4byte	.LLST3
 2700 0fd5 00       		.byte	0
 2701 0fd6 34       		.uleb128 0x34
 2702 0fd7 F2100000 		.4byte	0x10f2
 2703 0fdb 10000000 		.4byte	.LBB97
 2704 0fdf 00000000 		.4byte	.Ldebug_ranges0+0
 2705 0fe3 01       		.byte	0x1
 2706 0fe4 5F       		.byte	0x5f
 2707 0fe5 02100000 		.4byte	0x1002
 2708 0fe9 25       		.uleb128 0x25
 2709 0fea 03110000 		.4byte	0x1103
 2710 0fee 7A030000 		.4byte	.LLST4
 2711 0ff2 26       		.uleb128 0x26
 2712 0ff3 00000000 		.4byte	.Ldebug_ranges0+0
 2713 0ff7 27       		.uleb128 0x27
 2714 0ff8 0F110000 		.4byte	0x110f
 2715 0ffc 98030000 		.4byte	.LLST5
 2716 1000 00       		.byte	0
 2717 1001 00       		.byte	0
 2718 1002 34       		.uleb128 0x34
 2719 1003 CE100000 		.4byte	0x10ce
 2720 1007 1E000000 		.4byte	.LBB103
 2721 100b 20000000 		.4byte	.Ldebug_ranges0+0x20
 2722 100f 01       		.byte	0x1
 2723 1010 61       		.byte	0x61
 2724 1011 4C100000 		.4byte	0x104c
 2725 1015 26       		.uleb128 0x26
 2726 1016 20000000 		.4byte	.Ldebug_ranges0+0x20
 2727 101a 2F       		.uleb128 0x2f
 2728 101b DB100000 		.4byte	0x10db
 2729 101f 40       		.uleb128 0x40
 2730 1020 8F110000 		.4byte	0x118f
 2731 1024 1E000000 		.4byte	.LBB105
 2732 1028 20000000 		.4byte	.Ldebug_ranges0+0x20
 2733 102c 11       		.byte	0x11
 2734 102d 7A01     		.2byte	0x17a
 2735 102f 40       		.uleb128 0x40
 2736 1030 A1110000 		.4byte	0x11a1
ARM GAS  C:\Users\14122\AppData\Local\Temp\ccQMY3Ij.s 			page 49


 2737 1034 1E000000 		.4byte	.LBB106
 2738 1038 20000000 		.4byte	.Ldebug_ranges0+0x20
 2739 103c 0F       		.byte	0xf
 2740 103d 6D02     		.2byte	0x26d
 2741 103f 25       		.uleb128 0x25
 2742 1040 AE110000 		.4byte	0x11ae
 2743 1044 AB030000 		.4byte	.LLST6
 2744 1048 00       		.byte	0
 2745 1049 00       		.byte	0
 2746 104a 00       		.byte	0
 2747 104b 00       		.byte	0
 2748 104c 2A       		.uleb128 0x2a
 2749 104d 1E000000 		.4byte	.LVL8
 2750 1051 75120000 		.4byte	0x1275
 2751 1055 29       		.uleb128 0x29
 2752 1056 01       		.uleb128 0x1
 2753 1057 51       		.byte	0x51
 2754 1058 01       		.uleb128 0x1
 2755 1059 30       		.byte	0x30
 2756 105a 00       		.byte	0
 2757 105b 00       		.byte	0
 2758 105c 13       		.uleb128 0x13
 2759 105d 38060000 		.4byte	0x638
 2760 1061 6C100000 		.4byte	0x106c
 2761 1065 14       		.uleb128 0x14
 2762 1066 37000000 		.4byte	0x37
 2763 106a 0C       		.byte	0xc
 2764 106b 00       		.byte	0
 2765 106c 05       		.uleb128 0x5
 2766 106d 5C100000 		.4byte	0x105c
 2767 1071 3A       		.uleb128 0x3a
 2768 1072 E6010000 		.4byte	.LASF152
 2769 1076 01       		.byte	0x1
 2770 1077 4B       		.byte	0x4b
 2771 1078 00000000 		.4byte	.LFB220
 2772 107c 06000000 		.4byte	.LFE220-.LFB220
 2773 1080 01       		.uleb128 0x1
 2774 1081 9C       		.byte	0x9c
 2775 1082 B5100000 		.4byte	0x10b5
 2776 1086 41       		.uleb128 0x41
 2777 1087 637000   		.ascii	"cp\000"
 2778 108a 01       		.byte	0x1
 2779 108b 4B       		.byte	0x4b
 2780 108c 770A0000 		.4byte	0xa77
 2781 1090 01       		.uleb128 0x1
 2782 1091 50       		.byte	0x50
 2783 1092 22       		.uleb128 0x22
 2784 1093 54080000 		.4byte	.LASF147
 2785 1097 710D0000 		.4byte	0xd71
 2786 109b 3F       		.uleb128 0x3f
 2787 109c 75110000 		.4byte	0x1175
 2788 10a0 00000000 		.4byte	.LBB89
 2789 10a4 04000000 		.4byte	.LBE89-.LBB89
 2790 10a8 01       		.byte	0x1
 2791 10a9 4F       		.byte	0x4f
 2792 10aa 25       		.uleb128 0x25
 2793 10ab 82110000 		.4byte	0x1182
ARM GAS  C:\Users\14122\AppData\Local\Temp\ccQMY3Ij.s 			page 50


 2794 10af CB030000 		.4byte	.LLST0
 2795 10b3 00       		.byte	0
 2796 10b4 00       		.byte	0
 2797 10b5 42       		.uleb128 0x42
 2798 10b6 AC070000 		.4byte	.LASF153
 2799 10ba 04       		.byte	0x4
 2800 10bb 8F       		.byte	0x8f
 2801 10bc 82070000 		.4byte	0x782
 2802 10c0 03       		.byte	0x3
 2803 10c1 43       		.uleb128 0x43
 2804 10c2 8F020000 		.4byte	.LASF154
 2805 10c6 05       		.byte	0x5
 2806 10c7 1001     		.2byte	0x110
 2807 10c9 41020000 		.4byte	0x241
 2808 10cd 03       		.byte	0x3
 2809 10ce 44       		.uleb128 0x44
 2810 10cf E9060000 		.4byte	.LASF156
 2811 10d3 11       		.byte	0x11
 2812 10d4 6D01     		.2byte	0x16d
 2813 10d6 03       		.byte	0x3
 2814 10d7 E9100000 		.4byte	0x10e9
 2815 10db 39       		.uleb128 0x39
 2816 10dc 54080000 		.4byte	.LASF147
 2817 10e0 650C0000 		.4byte	0xc65
 2818 10e4 E9060000 		.4byte	.LASF156
 2819 10e8 00       		.byte	0
 2820 10e9 45       		.uleb128 0x45
 2821 10ea 95030000 		.4byte	.LASF161
 2822 10ee 11       		.byte	0x11
 2823 10ef 6101     		.2byte	0x161
 2824 10f1 03       		.byte	0x3
 2825 10f2 46       		.uleb128 0x46
 2826 10f3 C2040000 		.4byte	.LASF158
 2827 10f7 02       		.byte	0x2
 2828 10f8 5E02     		.2byte	0x25e
 2829 10fa 41020000 		.4byte	0x241
 2830 10fe 03       		.byte	0x3
 2831 10ff 1B110000 		.4byte	0x111b
 2832 1103 47       		.uleb128 0x47
 2833 1104 74717000 		.ascii	"tqp\000"
 2834 1108 02       		.byte	0x2
 2835 1109 5E02     		.2byte	0x25e
 2836 110b 1B110000 		.4byte	0x111b
 2837 110f 20       		.uleb128 0x20
 2838 1110 747000   		.ascii	"tp\000"
 2839 1113 02       		.byte	0x2
 2840 1114 5F02     		.2byte	0x25f
 2841 1116 41020000 		.4byte	0x241
 2842 111a 00       		.byte	0
 2843 111b 0C       		.uleb128 0xc
 2844 111c 04       		.byte	0x4
 2845 111d 6B020000 		.4byte	0x26b
 2846 1121 44       		.uleb128 0x44
 2847 1122 AE030000 		.4byte	.LASF157
 2848 1126 02       		.byte	0x2
 2849 1127 4A02     		.2byte	0x24a
 2850 1129 03       		.byte	0x3
ARM GAS  C:\Users\14122\AppData\Local\Temp\ccQMY3Ij.s 			page 51


 2851 112a 51110000 		.4byte	0x1151
 2852 112e 47       		.uleb128 0x47
 2853 112f 747000   		.ascii	"tp\000"
 2854 1132 02       		.byte	0x2
 2855 1133 4A02     		.2byte	0x24a
 2856 1135 41020000 		.4byte	0x241
 2857 1139 47       		.uleb128 0x47
 2858 113a 74717000 		.ascii	"tqp\000"
 2859 113e 02       		.byte	0x2
 2860 113f 4A02     		.2byte	0x24a
 2861 1141 1B110000 		.4byte	0x111b
 2862 1145 20       		.uleb128 0x20
 2863 1146 637000   		.ascii	"cp\000"
 2864 1149 02       		.byte	0x2
 2865 114a 4C02     		.2byte	0x24c
 2866 114c 41020000 		.4byte	0x241
 2867 1150 00       		.byte	0
 2868 1151 46       		.uleb128 0x46
 2869 1152 1D040000 		.4byte	.LASF159
 2870 1156 02       		.byte	0x2
 2871 1157 3402     		.2byte	0x234
 2872 1159 AC070000 		.4byte	0x7ac
 2873 115d 03       		.byte	0x3
 2874 115e 6F110000 		.4byte	0x116f
 2875 1162 47       		.uleb128 0x47
 2876 1163 74717000 		.ascii	"tqp\000"
 2877 1167 02       		.byte	0x2
 2878 1168 3402     		.2byte	0x234
 2879 116a 6F110000 		.4byte	0x116f
 2880 116e 00       		.byte	0
 2881 116f 0C       		.uleb128 0xc
 2882 1170 04       		.byte	0x4
 2883 1171 76020000 		.4byte	0x276
 2884 1175 44       		.uleb128 0x44
 2885 1176 54070000 		.4byte	.LASF160
 2886 117a 02       		.byte	0x2
 2887 117b 1902     		.2byte	0x219
 2888 117d 03       		.byte	0x3
 2889 117e 8F110000 		.4byte	0x118f
 2890 1182 47       		.uleb128 0x47
 2891 1183 74717000 		.ascii	"tqp\000"
 2892 1187 02       		.byte	0x2
 2893 1188 1902     		.2byte	0x219
 2894 118a 1B110000 		.4byte	0x111b
 2895 118e 00       		.byte	0
 2896 118f 45       		.uleb128 0x45
 2897 1190 66080000 		.4byte	.LASF162
 2898 1194 0F       		.byte	0xf
 2899 1195 6A02     		.2byte	0x26a
 2900 1197 03       		.byte	0x3
 2901 1198 45       		.uleb128 0x45
 2902 1199 E4000000 		.4byte	.LASF163
 2903 119d 0F       		.byte	0xf
 2904 119e 5202     		.2byte	0x252
 2905 11a0 03       		.byte	0x3
 2906 11a1 44       		.uleb128 0x44
 2907 11a2 87030000 		.4byte	.LASF164
ARM GAS  C:\Users\14122\AppData\Local\Temp\ccQMY3Ij.s 			page 52


 2908 11a6 03       		.byte	0x3
 2909 11a7 EB01     		.2byte	0x1eb
 2910 11a9 03       		.byte	0x3
 2911 11aa BB110000 		.4byte	0x11bb
 2912 11ae 48       		.uleb128 0x48
 2913 11af D2020000 		.4byte	.LASF165
 2914 11b3 03       		.byte	0x3
 2915 11b4 EB01     		.2byte	0x1eb
 2916 11b6 DF000000 		.4byte	0xdf
 2917 11ba 00       		.byte	0
 2918 11bb 49       		.uleb128 0x49
 2919 11bc 3D0D0000 		.4byte	0xd3d
 2920 11c0 00000000 		.4byte	.LFB224
 2921 11c4 24000000 		.4byte	.LFE224-.LFB224
 2922 11c8 01       		.uleb128 0x1
 2923 11c9 9C       		.byte	0x9c
 2924 11ca 2F120000 		.4byte	0x122f
 2925 11ce 25       		.uleb128 0x25
 2926 11cf 490D0000 		.4byte	0xd49
 2927 11d3 DE030000 		.4byte	.LLST17
 2928 11d7 2F       		.uleb128 0x2f
 2929 11d8 530D0000 		.4byte	0xd53
 2930 11dc 34       		.uleb128 0x34
 2931 11dd 51110000 		.4byte	0x1151
 2932 11e1 02000000 		.4byte	.LBB140
 2933 11e5 98000000 		.4byte	.Ldebug_ranges0+0x98
 2934 11e9 01       		.byte	0x1
 2935 11ea 9D       		.byte	0x9d
 2936 11eb F9110000 		.4byte	0x11f9
 2937 11ef 25       		.uleb128 0x25
 2938 11f0 62110000 		.4byte	0x1162
 2939 11f4 0A040000 		.4byte	.LLST18
 2940 11f8 00       		.byte	0
 2941 11f9 34       		.uleb128 0x34
 2942 11fa F2100000 		.4byte	0x10f2
 2943 11fe 0E000000 		.4byte	.LBB143
 2944 1202 B0000000 		.4byte	.Ldebug_ranges0+0xb0
 2945 1206 01       		.byte	0x1
 2946 1207 9E       		.byte	0x9e
 2947 1208 25120000 		.4byte	0x1225
 2948 120c 25       		.uleb128 0x25
 2949 120d 03110000 		.4byte	0x1103
 2950 1211 1D040000 		.4byte	.LLST19
 2951 1215 26       		.uleb128 0x26
 2952 1216 B0000000 		.4byte	.Ldebug_ranges0+0xb0
 2953 121a 27       		.uleb128 0x27
 2954 121b 0F110000 		.4byte	0x110f
 2955 121f 30040000 		.4byte	.LLST20
 2956 1223 00       		.byte	0
 2957 1224 00       		.byte	0
 2958 1225 3C       		.uleb128 0x3c
 2959 1226 1A000000 		.4byte	.LVL31
 2960 122a 5D120000 		.4byte	0x125d
 2961 122e 00       		.byte	0
 2962 122f 4A       		.uleb128 0x4a
 2963 1230 B9060000 		.4byte	.LASF166
 2964 1234 B9060000 		.4byte	.LASF166
ARM GAS  C:\Users\14122\AppData\Local\Temp\ccQMY3Ij.s 			page 53


 2965 1238 04       		.byte	0x4
 2966 1239 6C       		.byte	0x6c
 2967 123a 4B       		.uleb128 0x4b
 2968 123b 1C070000 		.4byte	.LASF167
 2969 123f 1C070000 		.4byte	.LASF167
 2970 1243 02       		.byte	0x2
 2971 1244 D401     		.2byte	0x1d4
 2972 1246 4A       		.uleb128 0x4a
 2973 1247 D2060000 		.4byte	.LASF168
 2974 124b D2060000 		.4byte	.LASF168
 2975 124f 04       		.byte	0x4
 2976 1250 68       		.byte	0x68
 2977 1251 4B       		.uleb128 0x4b
 2978 1252 A0060000 		.4byte	.LASF169
 2979 1256 A0060000 		.4byte	.LASF169
 2980 125a 02       		.byte	0x2
 2981 125b D301     		.2byte	0x1d3
 2982 125d 4B       		.uleb128 0x4b
 2983 125e CA010000 		.4byte	.LASF170
 2984 1262 CA010000 		.4byte	.LASF170
 2985 1266 02       		.byte	0x2
 2986 1267 D101     		.2byte	0x1d1
 2987 1269 4B       		.uleb128 0x4b
 2988 126a 66030000 		.4byte	.LASF171
 2989 126e 66030000 		.4byte	.LASF171
 2990 1272 02       		.byte	0x2
 2991 1273 D601     		.2byte	0x1d6
 2992 1275 4B       		.uleb128 0x4b
 2993 1276 C8070000 		.4byte	.LASF172
 2994 127a C8070000 		.4byte	.LASF172
 2995 127e 02       		.byte	0x2
 2996 127f D501     		.2byte	0x1d5
 2997 1281 00       		.byte	0
 2998              		.section	.debug_abbrev,"",%progbits
 2999              	.Ldebug_abbrev0:
 3000 0000 01       		.uleb128 0x1
 3001 0001 11       		.uleb128 0x11
 3002 0002 01       		.byte	0x1
 3003 0003 25       		.uleb128 0x25
 3004 0004 0E       		.uleb128 0xe
 3005 0005 13       		.uleb128 0x13
 3006 0006 0B       		.uleb128 0xb
 3007 0007 03       		.uleb128 0x3
 3008 0008 0E       		.uleb128 0xe
 3009 0009 1B       		.uleb128 0x1b
 3010 000a 0E       		.uleb128 0xe
 3011 000b 55       		.uleb128 0x55
 3012 000c 17       		.uleb128 0x17
 3013 000d 11       		.uleb128 0x11
 3014 000e 01       		.uleb128 0x1
 3015 000f 10       		.uleb128 0x10
 3016 0010 17       		.uleb128 0x17
 3017 0011 00       		.byte	0
 3018 0012 00       		.byte	0
 3019 0013 02       		.uleb128 0x2
 3020 0014 24       		.uleb128 0x24
 3021 0015 00       		.byte	0
ARM GAS  C:\Users\14122\AppData\Local\Temp\ccQMY3Ij.s 			page 54


 3022 0016 0B       		.uleb128 0xb
 3023 0017 0B       		.uleb128 0xb
 3024 0018 3E       		.uleb128 0x3e
 3025 0019 0B       		.uleb128 0xb
 3026 001a 03       		.uleb128 0x3
 3027 001b 08       		.uleb128 0x8
 3028 001c 00       		.byte	0
 3029 001d 00       		.byte	0
 3030 001e 03       		.uleb128 0x3
 3031 001f 16       		.uleb128 0x16
 3032 0020 00       		.byte	0
 3033 0021 03       		.uleb128 0x3
 3034 0022 0E       		.uleb128 0xe
 3035 0023 3A       		.uleb128 0x3a
 3036 0024 0B       		.uleb128 0xb
 3037 0025 3B       		.uleb128 0x3b
 3038 0026 0B       		.uleb128 0xb
 3039 0027 49       		.uleb128 0x49
 3040 0028 13       		.uleb128 0x13
 3041 0029 00       		.byte	0
 3042 002a 00       		.byte	0
 3043 002b 04       		.uleb128 0x4
 3044 002c 24       		.uleb128 0x24
 3045 002d 00       		.byte	0
 3046 002e 0B       		.uleb128 0xb
 3047 002f 0B       		.uleb128 0xb
 3048 0030 3E       		.uleb128 0x3e
 3049 0031 0B       		.uleb128 0xb
 3050 0032 03       		.uleb128 0x3
 3051 0033 0E       		.uleb128 0xe
 3052 0034 00       		.byte	0
 3053 0035 00       		.byte	0
 3054 0036 05       		.uleb128 0x5
 3055 0037 26       		.uleb128 0x26
 3056 0038 00       		.byte	0
 3057 0039 49       		.uleb128 0x49
 3058 003a 13       		.uleb128 0x13
 3059 003b 00       		.byte	0
 3060 003c 00       		.byte	0
 3061 003d 06       		.uleb128 0x6
 3062 003e 35       		.uleb128 0x35
 3063 003f 00       		.byte	0
 3064 0040 49       		.uleb128 0x49
 3065 0041 13       		.uleb128 0x13
 3066 0042 00       		.byte	0
 3067 0043 00       		.byte	0
 3068 0044 07       		.uleb128 0x7
 3069 0045 13       		.uleb128 0x13
 3070 0046 01       		.byte	0x1
 3071 0047 03       		.uleb128 0x3
 3072 0048 0E       		.uleb128 0xe
 3073 0049 0B       		.uleb128 0xb
 3074 004a 0B       		.uleb128 0xb
 3075 004b 3A       		.uleb128 0x3a
 3076 004c 0B       		.uleb128 0xb
 3077 004d 3B       		.uleb128 0x3b
 3078 004e 0B       		.uleb128 0xb
ARM GAS  C:\Users\14122\AppData\Local\Temp\ccQMY3Ij.s 			page 55


 3079 004f 01       		.uleb128 0x1
 3080 0050 13       		.uleb128 0x13
 3081 0051 00       		.byte	0
 3082 0052 00       		.byte	0
 3083 0053 08       		.uleb128 0x8
 3084 0054 0D       		.uleb128 0xd
 3085 0055 00       		.byte	0
 3086 0056 03       		.uleb128 0x3
 3087 0057 0E       		.uleb128 0xe
 3088 0058 3A       		.uleb128 0x3a
 3089 0059 0B       		.uleb128 0xb
 3090 005a 3B       		.uleb128 0x3b
 3091 005b 0B       		.uleb128 0xb
 3092 005c 49       		.uleb128 0x49
 3093 005d 13       		.uleb128 0x13
 3094 005e 38       		.uleb128 0x38
 3095 005f 0B       		.uleb128 0xb
 3096 0060 00       		.byte	0
 3097 0061 00       		.byte	0
 3098 0062 09       		.uleb128 0x9
 3099 0063 0D       		.uleb128 0xd
 3100 0064 00       		.byte	0
 3101 0065 03       		.uleb128 0x3
 3102 0066 08       		.uleb128 0x8
 3103 0067 3A       		.uleb128 0x3a
 3104 0068 0B       		.uleb128 0xb
 3105 0069 3B       		.uleb128 0x3b
 3106 006a 0B       		.uleb128 0xb
 3107 006b 49       		.uleb128 0x49
 3108 006c 13       		.uleb128 0x13
 3109 006d 38       		.uleb128 0x38
 3110 006e 0B       		.uleb128 0xb
 3111 006f 00       		.byte	0
 3112 0070 00       		.byte	0
 3113 0071 0A       		.uleb128 0xa
 3114 0072 0D       		.uleb128 0xd
 3115 0073 00       		.byte	0
 3116 0074 03       		.uleb128 0x3
 3117 0075 08       		.uleb128 0x8
 3118 0076 3A       		.uleb128 0x3a
 3119 0077 0B       		.uleb128 0xb
 3120 0078 3B       		.uleb128 0x3b
 3121 0079 05       		.uleb128 0x5
 3122 007a 49       		.uleb128 0x49
 3123 007b 13       		.uleb128 0x13
 3124 007c 38       		.uleb128 0x38
 3125 007d 0B       		.uleb128 0xb
 3126 007e 00       		.byte	0
 3127 007f 00       		.byte	0
 3128 0080 0B       		.uleb128 0xb
 3129 0081 0D       		.uleb128 0xd
 3130 0082 00       		.byte	0
 3131 0083 03       		.uleb128 0x3
 3132 0084 0E       		.uleb128 0xe
 3133 0085 3A       		.uleb128 0x3a
 3134 0086 0B       		.uleb128 0xb
 3135 0087 3B       		.uleb128 0x3b
ARM GAS  C:\Users\14122\AppData\Local\Temp\ccQMY3Ij.s 			page 56


 3136 0088 05       		.uleb128 0x5
 3137 0089 49       		.uleb128 0x49
 3138 008a 13       		.uleb128 0x13
 3139 008b 38       		.uleb128 0x38
 3140 008c 0B       		.uleb128 0xb
 3141 008d 00       		.byte	0
 3142 008e 00       		.byte	0
 3143 008f 0C       		.uleb128 0xc
 3144 0090 0F       		.uleb128 0xf
 3145 0091 00       		.byte	0
 3146 0092 0B       		.uleb128 0xb
 3147 0093 0B       		.uleb128 0xb
 3148 0094 49       		.uleb128 0x49
 3149 0095 13       		.uleb128 0x13
 3150 0096 00       		.byte	0
 3151 0097 00       		.byte	0
 3152 0098 0D       		.uleb128 0xd
 3153 0099 13       		.uleb128 0x13
 3154 009a 01       		.byte	0x1
 3155 009b 03       		.uleb128 0x3
 3156 009c 0E       		.uleb128 0xe
 3157 009d 0B       		.uleb128 0xb
 3158 009e 0B       		.uleb128 0xb
 3159 009f 3A       		.uleb128 0x3a
 3160 00a0 0B       		.uleb128 0xb
 3161 00a1 3B       		.uleb128 0x3b
 3162 00a2 05       		.uleb128 0x5
 3163 00a3 01       		.uleb128 0x1
 3164 00a4 13       		.uleb128 0x13
 3165 00a5 00       		.byte	0
 3166 00a6 00       		.byte	0
 3167 00a7 0E       		.uleb128 0xe
 3168 00a8 15       		.uleb128 0x15
 3169 00a9 01       		.byte	0x1
 3170 00aa 27       		.uleb128 0x27
 3171 00ab 19       		.uleb128 0x19
 3172 00ac 01       		.uleb128 0x1
 3173 00ad 13       		.uleb128 0x13
 3174 00ae 00       		.byte	0
 3175 00af 00       		.byte	0
 3176 00b0 0F       		.uleb128 0xf
 3177 00b1 05       		.uleb128 0x5
 3178 00b2 00       		.byte	0
 3179 00b3 49       		.uleb128 0x49
 3180 00b4 13       		.uleb128 0x13
 3181 00b5 00       		.byte	0
 3182 00b6 00       		.byte	0
 3183 00b7 10       		.uleb128 0x10
 3184 00b8 0F       		.uleb128 0xf
 3185 00b9 00       		.byte	0
 3186 00ba 0B       		.uleb128 0xb
 3187 00bb 0B       		.uleb128 0xb
 3188 00bc 00       		.byte	0
 3189 00bd 00       		.byte	0
 3190 00be 11       		.uleb128 0x11
 3191 00bf 34       		.uleb128 0x34
 3192 00c0 00       		.byte	0
ARM GAS  C:\Users\14122\AppData\Local\Temp\ccQMY3Ij.s 			page 57


 3193 00c1 03       		.uleb128 0x3
 3194 00c2 0E       		.uleb128 0xe
 3195 00c3 3A       		.uleb128 0x3a
 3196 00c4 0B       		.uleb128 0xb
 3197 00c5 3B       		.uleb128 0x3b
 3198 00c6 05       		.uleb128 0x5
 3199 00c7 49       		.uleb128 0x49
 3200 00c8 13       		.uleb128 0x13
 3201 00c9 3F       		.uleb128 0x3f
 3202 00ca 19       		.uleb128 0x19
 3203 00cb 3C       		.uleb128 0x3c
 3204 00cc 19       		.uleb128 0x19
 3205 00cd 00       		.byte	0
 3206 00ce 00       		.byte	0
 3207 00cf 12       		.uleb128 0x12
 3208 00d0 34       		.uleb128 0x34
 3209 00d1 00       		.byte	0
 3210 00d2 03       		.uleb128 0x3
 3211 00d3 0E       		.uleb128 0xe
 3212 00d4 3A       		.uleb128 0x3a
 3213 00d5 0B       		.uleb128 0xb
 3214 00d6 3B       		.uleb128 0x3b
 3215 00d7 0B       		.uleb128 0xb
 3216 00d8 49       		.uleb128 0x49
 3217 00d9 13       		.uleb128 0x13
 3218 00da 3F       		.uleb128 0x3f
 3219 00db 19       		.uleb128 0x19
 3220 00dc 3C       		.uleb128 0x3c
 3221 00dd 19       		.uleb128 0x19
 3222 00de 00       		.byte	0
 3223 00df 00       		.byte	0
 3224 00e0 13       		.uleb128 0x13
 3225 00e1 01       		.uleb128 0x1
 3226 00e2 01       		.byte	0x1
 3227 00e3 49       		.uleb128 0x49
 3228 00e4 13       		.uleb128 0x13
 3229 00e5 01       		.uleb128 0x1
 3230 00e6 13       		.uleb128 0x13
 3231 00e7 00       		.byte	0
 3232 00e8 00       		.byte	0
 3233 00e9 14       		.uleb128 0x14
 3234 00ea 21       		.uleb128 0x21
 3235 00eb 00       		.byte	0
 3236 00ec 49       		.uleb128 0x49
 3237 00ed 13       		.uleb128 0x13
 3238 00ee 2F       		.uleb128 0x2f
 3239 00ef 0B       		.uleb128 0xb
 3240 00f0 00       		.byte	0
 3241 00f1 00       		.byte	0
 3242 00f2 15       		.uleb128 0x15
 3243 00f3 17       		.uleb128 0x17
 3244 00f4 01       		.byte	0x1
 3245 00f5 0B       		.uleb128 0xb
 3246 00f6 0B       		.uleb128 0xb
 3247 00f7 3A       		.uleb128 0x3a
 3248 00f8 0B       		.uleb128 0xb
 3249 00f9 3B       		.uleb128 0x3b
ARM GAS  C:\Users\14122\AppData\Local\Temp\ccQMY3Ij.s 			page 58


 3250 00fa 0B       		.uleb128 0xb
 3251 00fb 01       		.uleb128 0x1
 3252 00fc 13       		.uleb128 0x13
 3253 00fd 00       		.byte	0
 3254 00fe 00       		.byte	0
 3255 00ff 16       		.uleb128 0x16
 3256 0100 0D       		.uleb128 0xd
 3257 0101 00       		.byte	0
 3258 0102 03       		.uleb128 0x3
 3259 0103 0E       		.uleb128 0xe
 3260 0104 3A       		.uleb128 0x3a
 3261 0105 0B       		.uleb128 0xb
 3262 0106 3B       		.uleb128 0x3b
 3263 0107 0B       		.uleb128 0xb
 3264 0108 49       		.uleb128 0x49
 3265 0109 13       		.uleb128 0x13
 3266 010a 00       		.byte	0
 3267 010b 00       		.byte	0
 3268 010c 17       		.uleb128 0x17
 3269 010d 0D       		.uleb128 0xd
 3270 010e 00       		.byte	0
 3271 010f 03       		.uleb128 0x3
 3272 0110 0E       		.uleb128 0xe
 3273 0111 3A       		.uleb128 0x3a
 3274 0112 0B       		.uleb128 0xb
 3275 0113 3B       		.uleb128 0x3b
 3276 0114 05       		.uleb128 0x5
 3277 0115 49       		.uleb128 0x49
 3278 0116 13       		.uleb128 0x13
 3279 0117 00       		.byte	0
 3280 0118 00       		.byte	0
 3281 0119 18       		.uleb128 0x18
 3282 011a 34       		.uleb128 0x34
 3283 011b 00       		.byte	0
 3284 011c 03       		.uleb128 0x3
 3285 011d 08       		.uleb128 0x8
 3286 011e 3A       		.uleb128 0x3a
 3287 011f 0B       		.uleb128 0xb
 3288 0120 3B       		.uleb128 0x3b
 3289 0121 05       		.uleb128 0x5
 3290 0122 49       		.uleb128 0x49
 3291 0123 13       		.uleb128 0x13
 3292 0124 3F       		.uleb128 0x3f
 3293 0125 19       		.uleb128 0x19
 3294 0126 3C       		.uleb128 0x3c
 3295 0127 19       		.uleb128 0x19
 3296 0128 00       		.byte	0
 3297 0129 00       		.byte	0
 3298 012a 19       		.uleb128 0x19
 3299 012b 21       		.uleb128 0x21
 3300 012c 00       		.byte	0
 3301 012d 00       		.byte	0
 3302 012e 00       		.byte	0
 3303 012f 1A       		.uleb128 0x1a
 3304 0130 13       		.uleb128 0x13
 3305 0131 01       		.byte	0x1
 3306 0132 0B       		.uleb128 0xb
ARM GAS  C:\Users\14122\AppData\Local\Temp\ccQMY3Ij.s 			page 59


 3307 0133 0B       		.uleb128 0xb
 3308 0134 3A       		.uleb128 0x3a
 3309 0135 0B       		.uleb128 0xb
 3310 0136 3B       		.uleb128 0x3b
 3311 0137 0B       		.uleb128 0xb
 3312 0138 01       		.uleb128 0x1
 3313 0139 13       		.uleb128 0x13
 3314 013a 00       		.byte	0
 3315 013b 00       		.byte	0
 3316 013c 1B       		.uleb128 0x1b
 3317 013d 15       		.uleb128 0x15
 3318 013e 01       		.byte	0x1
 3319 013f 27       		.uleb128 0x27
 3320 0140 19       		.uleb128 0x19
 3321 0141 49       		.uleb128 0x49
 3322 0142 13       		.uleb128 0x13
 3323 0143 01       		.uleb128 0x1
 3324 0144 13       		.uleb128 0x13
 3325 0145 00       		.byte	0
 3326 0146 00       		.byte	0
 3327 0147 1C       		.uleb128 0x1c
 3328 0148 16       		.uleb128 0x16
 3329 0149 00       		.byte	0
 3330 014a 03       		.uleb128 0x3
 3331 014b 0E       		.uleb128 0xe
 3332 014c 3A       		.uleb128 0x3a
 3333 014d 0B       		.uleb128 0xb
 3334 014e 3B       		.uleb128 0x3b
 3335 014f 05       		.uleb128 0x5
 3336 0150 49       		.uleb128 0x49
 3337 0151 13       		.uleb128 0x13
 3338 0152 00       		.byte	0
 3339 0153 00       		.byte	0
 3340 0154 1D       		.uleb128 0x1d
 3341 0155 2E       		.uleb128 0x2e
 3342 0156 01       		.byte	0x1
 3343 0157 3F       		.uleb128 0x3f
 3344 0158 19       		.uleb128 0x19
 3345 0159 03       		.uleb128 0x3
 3346 015a 0E       		.uleb128 0xe
 3347 015b 3A       		.uleb128 0x3a
 3348 015c 0B       		.uleb128 0xb
 3349 015d 3B       		.uleb128 0x3b
 3350 015e 05       		.uleb128 0x5
 3351 015f 27       		.uleb128 0x27
 3352 0160 19       		.uleb128 0x19
 3353 0161 49       		.uleb128 0x49
 3354 0162 13       		.uleb128 0x13
 3355 0163 11       		.uleb128 0x11
 3356 0164 01       		.uleb128 0x1
 3357 0165 12       		.uleb128 0x12
 3358 0166 06       		.uleb128 0x6
 3359 0167 40       		.uleb128 0x40
 3360 0168 18       		.uleb128 0x18
 3361 0169 9742     		.uleb128 0x2117
 3362 016b 19       		.uleb128 0x19
 3363 016c 01       		.uleb128 0x1
ARM GAS  C:\Users\14122\AppData\Local\Temp\ccQMY3Ij.s 			page 60


 3364 016d 13       		.uleb128 0x13
 3365 016e 00       		.byte	0
 3366 016f 00       		.byte	0
 3367 0170 1E       		.uleb128 0x1e
 3368 0171 05       		.uleb128 0x5
 3369 0172 00       		.byte	0
 3370 0173 03       		.uleb128 0x3
 3371 0174 08       		.uleb128 0x8
 3372 0175 3A       		.uleb128 0x3a
 3373 0176 0B       		.uleb128 0xb
 3374 0177 3B       		.uleb128 0x3b
 3375 0178 05       		.uleb128 0x5
 3376 0179 49       		.uleb128 0x49
 3377 017a 13       		.uleb128 0x13
 3378 017b 02       		.uleb128 0x2
 3379 017c 17       		.uleb128 0x17
 3380 017d 00       		.byte	0
 3381 017e 00       		.byte	0
 3382 017f 1F       		.uleb128 0x1f
 3383 0180 05       		.uleb128 0x5
 3384 0181 00       		.byte	0
 3385 0182 03       		.uleb128 0x3
 3386 0183 0E       		.uleb128 0xe
 3387 0184 3A       		.uleb128 0x3a
 3388 0185 0B       		.uleb128 0xb
 3389 0186 3B       		.uleb128 0x3b
 3390 0187 05       		.uleb128 0x5
 3391 0188 49       		.uleb128 0x49
 3392 0189 13       		.uleb128 0x13
 3393 018a 02       		.uleb128 0x2
 3394 018b 17       		.uleb128 0x17
 3395 018c 00       		.byte	0
 3396 018d 00       		.byte	0
 3397 018e 20       		.uleb128 0x20
 3398 018f 34       		.uleb128 0x34
 3399 0190 00       		.byte	0
 3400 0191 03       		.uleb128 0x3
 3401 0192 08       		.uleb128 0x8
 3402 0193 3A       		.uleb128 0x3a
 3403 0194 0B       		.uleb128 0xb
 3404 0195 3B       		.uleb128 0x3b
 3405 0196 05       		.uleb128 0x5
 3406 0197 49       		.uleb128 0x49
 3407 0198 13       		.uleb128 0x13
 3408 0199 00       		.byte	0
 3409 019a 00       		.byte	0
 3410 019b 21       		.uleb128 0x21
 3411 019c 34       		.uleb128 0x34
 3412 019d 00       		.byte	0
 3413 019e 03       		.uleb128 0x3
 3414 019f 08       		.uleb128 0x8
 3415 01a0 3A       		.uleb128 0x3a
 3416 01a1 0B       		.uleb128 0xb
 3417 01a2 3B       		.uleb128 0x3b
 3418 01a3 05       		.uleb128 0x5
 3419 01a4 49       		.uleb128 0x49
 3420 01a5 13       		.uleb128 0x13
ARM GAS  C:\Users\14122\AppData\Local\Temp\ccQMY3Ij.s 			page 61


 3421 01a6 02       		.uleb128 0x2
 3422 01a7 17       		.uleb128 0x17
 3423 01a8 00       		.byte	0
 3424 01a9 00       		.byte	0
 3425 01aa 22       		.uleb128 0x22
 3426 01ab 34       		.uleb128 0x34
 3427 01ac 00       		.byte	0
 3428 01ad 03       		.uleb128 0x3
 3429 01ae 0E       		.uleb128 0xe
 3430 01af 49       		.uleb128 0x49
 3431 01b0 13       		.uleb128 0x13
 3432 01b1 34       		.uleb128 0x34
 3433 01b2 19       		.uleb128 0x19
 3434 01b3 00       		.byte	0
 3435 01b4 00       		.byte	0
 3436 01b5 23       		.uleb128 0x23
 3437 01b6 1D       		.uleb128 0x1d
 3438 01b7 01       		.byte	0x1
 3439 01b8 31       		.uleb128 0x31
 3440 01b9 13       		.uleb128 0x13
 3441 01ba 52       		.uleb128 0x52
 3442 01bb 01       		.uleb128 0x1
 3443 01bc 55       		.uleb128 0x55
 3444 01bd 17       		.uleb128 0x17
 3445 01be 58       		.uleb128 0x58
 3446 01bf 0B       		.uleb128 0xb
 3447 01c0 59       		.uleb128 0x59
 3448 01c1 05       		.uleb128 0x5
 3449 01c2 01       		.uleb128 0x1
 3450 01c3 13       		.uleb128 0x13
 3451 01c4 00       		.byte	0
 3452 01c5 00       		.byte	0
 3453 01c6 24       		.uleb128 0x24
 3454 01c7 1D       		.uleb128 0x1d
 3455 01c8 00       		.byte	0
 3456 01c9 31       		.uleb128 0x31
 3457 01ca 13       		.uleb128 0x13
 3458 01cb 11       		.uleb128 0x11
 3459 01cc 01       		.uleb128 0x1
 3460 01cd 12       		.uleb128 0x12
 3461 01ce 06       		.uleb128 0x6
 3462 01cf 58       		.uleb128 0x58
 3463 01d0 0B       		.uleb128 0xb
 3464 01d1 59       		.uleb128 0x59
 3465 01d2 0B       		.uleb128 0xb
 3466 01d3 00       		.byte	0
 3467 01d4 00       		.byte	0
 3468 01d5 25       		.uleb128 0x25
 3469 01d6 05       		.uleb128 0x5
 3470 01d7 00       		.byte	0
 3471 01d8 31       		.uleb128 0x31
 3472 01d9 13       		.uleb128 0x13
 3473 01da 02       		.uleb128 0x2
 3474 01db 17       		.uleb128 0x17
 3475 01dc 00       		.byte	0
 3476 01dd 00       		.byte	0
 3477 01de 26       		.uleb128 0x26
ARM GAS  C:\Users\14122\AppData\Local\Temp\ccQMY3Ij.s 			page 62


 3478 01df 0B       		.uleb128 0xb
 3479 01e0 01       		.byte	0x1
 3480 01e1 55       		.uleb128 0x55
 3481 01e2 17       		.uleb128 0x17
 3482 01e3 00       		.byte	0
 3483 01e4 00       		.byte	0
 3484 01e5 27       		.uleb128 0x27
 3485 01e6 34       		.uleb128 0x34
 3486 01e7 00       		.byte	0
 3487 01e8 31       		.uleb128 0x31
 3488 01e9 13       		.uleb128 0x13
 3489 01ea 02       		.uleb128 0x2
 3490 01eb 17       		.uleb128 0x17
 3491 01ec 00       		.byte	0
 3492 01ed 00       		.byte	0
 3493 01ee 28       		.uleb128 0x28
 3494 01ef 898201   		.uleb128 0x4109
 3495 01f2 01       		.byte	0x1
 3496 01f3 11       		.uleb128 0x11
 3497 01f4 01       		.uleb128 0x1
 3498 01f5 31       		.uleb128 0x31
 3499 01f6 13       		.uleb128 0x13
 3500 01f7 01       		.uleb128 0x1
 3501 01f8 13       		.uleb128 0x13
 3502 01f9 00       		.byte	0
 3503 01fa 00       		.byte	0
 3504 01fb 29       		.uleb128 0x29
 3505 01fc 8A8201   		.uleb128 0x410a
 3506 01ff 00       		.byte	0
 3507 0200 02       		.uleb128 0x2
 3508 0201 18       		.uleb128 0x18
 3509 0202 9142     		.uleb128 0x2111
 3510 0204 18       		.uleb128 0x18
 3511 0205 00       		.byte	0
 3512 0206 00       		.byte	0
 3513 0207 2A       		.uleb128 0x2a
 3514 0208 898201   		.uleb128 0x4109
 3515 020b 01       		.byte	0x1
 3516 020c 11       		.uleb128 0x11
 3517 020d 01       		.uleb128 0x1
 3518 020e 31       		.uleb128 0x31
 3519 020f 13       		.uleb128 0x13
 3520 0210 00       		.byte	0
 3521 0211 00       		.byte	0
 3522 0212 2B       		.uleb128 0x2b
 3523 0213 34       		.uleb128 0x34
 3524 0214 00       		.byte	0
 3525 0215 03       		.uleb128 0x3
 3526 0216 08       		.uleb128 0x8
 3527 0217 3A       		.uleb128 0x3a
 3528 0218 0B       		.uleb128 0xb
 3529 0219 3B       		.uleb128 0x3b
 3530 021a 05       		.uleb128 0x5
 3531 021b 49       		.uleb128 0x49
 3532 021c 13       		.uleb128 0x13
 3533 021d 02       		.uleb128 0x2
 3534 021e 18       		.uleb128 0x18
ARM GAS  C:\Users\14122\AppData\Local\Temp\ccQMY3Ij.s 			page 63


 3535 021f 00       		.byte	0
 3536 0220 00       		.byte	0
 3537 0221 2C       		.uleb128 0x2c
 3538 0222 1D       		.uleb128 0x1d
 3539 0223 01       		.byte	0x1
 3540 0224 31       		.uleb128 0x31
 3541 0225 13       		.uleb128 0x13
 3542 0226 11       		.uleb128 0x11
 3543 0227 01       		.uleb128 0x1
 3544 0228 12       		.uleb128 0x12
 3545 0229 06       		.uleb128 0x6
 3546 022a 58       		.uleb128 0x58
 3547 022b 0B       		.uleb128 0xb
 3548 022c 59       		.uleb128 0x59
 3549 022d 05       		.uleb128 0x5
 3550 022e 01       		.uleb128 0x1
 3551 022f 13       		.uleb128 0x13
 3552 0230 00       		.byte	0
 3553 0231 00       		.byte	0
 3554 0232 2D       		.uleb128 0x2d
 3555 0233 1D       		.uleb128 0x1d
 3556 0234 01       		.byte	0x1
 3557 0235 31       		.uleb128 0x31
 3558 0236 13       		.uleb128 0x13
 3559 0237 11       		.uleb128 0x11
 3560 0238 01       		.uleb128 0x1
 3561 0239 12       		.uleb128 0x12
 3562 023a 06       		.uleb128 0x6
 3563 023b 58       		.uleb128 0x58
 3564 023c 0B       		.uleb128 0xb
 3565 023d 59       		.uleb128 0x59
 3566 023e 05       		.uleb128 0x5
 3567 023f 00       		.byte	0
 3568 0240 00       		.byte	0
 3569 0241 2E       		.uleb128 0x2e
 3570 0242 0B       		.uleb128 0xb
 3571 0243 01       		.byte	0x1
 3572 0244 11       		.uleb128 0x11
 3573 0245 01       		.uleb128 0x1
 3574 0246 12       		.uleb128 0x12
 3575 0247 06       		.uleb128 0x6
 3576 0248 00       		.byte	0
 3577 0249 00       		.byte	0
 3578 024a 2F       		.uleb128 0x2f
 3579 024b 34       		.uleb128 0x34
 3580 024c 00       		.byte	0
 3581 024d 31       		.uleb128 0x31
 3582 024e 13       		.uleb128 0x13
 3583 024f 00       		.byte	0
 3584 0250 00       		.byte	0
 3585 0251 30       		.uleb128 0x30
 3586 0252 2E       		.uleb128 0x2e
 3587 0253 01       		.byte	0x1
 3588 0254 3F       		.uleb128 0x3f
 3589 0255 19       		.uleb128 0x19
 3590 0256 03       		.uleb128 0x3
 3591 0257 0E       		.uleb128 0xe
ARM GAS  C:\Users\14122\AppData\Local\Temp\ccQMY3Ij.s 			page 64


 3592 0258 3A       		.uleb128 0x3a
 3593 0259 0B       		.uleb128 0xb
 3594 025a 3B       		.uleb128 0x3b
 3595 025b 0B       		.uleb128 0xb
 3596 025c 27       		.uleb128 0x27
 3597 025d 19       		.uleb128 0x19
 3598 025e 49       		.uleb128 0x49
 3599 025f 13       		.uleb128 0x13
 3600 0260 11       		.uleb128 0x11
 3601 0261 01       		.uleb128 0x1
 3602 0262 12       		.uleb128 0x12
 3603 0263 06       		.uleb128 0x6
 3604 0264 40       		.uleb128 0x40
 3605 0265 18       		.uleb128 0x18
 3606 0266 9742     		.uleb128 0x2117
 3607 0268 19       		.uleb128 0x19
 3608 0269 01       		.uleb128 0x1
 3609 026a 13       		.uleb128 0x13
 3610 026b 00       		.byte	0
 3611 026c 00       		.byte	0
 3612 026d 31       		.uleb128 0x31
 3613 026e 05       		.uleb128 0x5
 3614 026f 00       		.byte	0
 3615 0270 03       		.uleb128 0x3
 3616 0271 08       		.uleb128 0x8
 3617 0272 3A       		.uleb128 0x3a
 3618 0273 0B       		.uleb128 0xb
 3619 0274 3B       		.uleb128 0x3b
 3620 0275 0B       		.uleb128 0xb
 3621 0276 49       		.uleb128 0x49
 3622 0277 13       		.uleb128 0x13
 3623 0278 02       		.uleb128 0x2
 3624 0279 17       		.uleb128 0x17
 3625 027a 00       		.byte	0
 3626 027b 00       		.byte	0
 3627 027c 32       		.uleb128 0x32
 3628 027d 34       		.uleb128 0x34
 3629 027e 00       		.byte	0
 3630 027f 03       		.uleb128 0x3
 3631 0280 08       		.uleb128 0x8
 3632 0281 3A       		.uleb128 0x3a
 3633 0282 0B       		.uleb128 0xb
 3634 0283 3B       		.uleb128 0x3b
 3635 0284 0B       		.uleb128 0xb
 3636 0285 49       		.uleb128 0x49
 3637 0286 13       		.uleb128 0x13
 3638 0287 02       		.uleb128 0x2
 3639 0288 17       		.uleb128 0x17
 3640 0289 00       		.byte	0
 3641 028a 00       		.byte	0
 3642 028b 33       		.uleb128 0x33
 3643 028c 34       		.uleb128 0x34
 3644 028d 00       		.byte	0
 3645 028e 03       		.uleb128 0x3
 3646 028f 08       		.uleb128 0x8
 3647 0290 3A       		.uleb128 0x3a
 3648 0291 0B       		.uleb128 0xb
ARM GAS  C:\Users\14122\AppData\Local\Temp\ccQMY3Ij.s 			page 65


 3649 0292 3B       		.uleb128 0x3b
 3650 0293 0B       		.uleb128 0xb
 3651 0294 49       		.uleb128 0x49
 3652 0295 13       		.uleb128 0x13
 3653 0296 00       		.byte	0
 3654 0297 00       		.byte	0
 3655 0298 34       		.uleb128 0x34
 3656 0299 1D       		.uleb128 0x1d
 3657 029a 01       		.byte	0x1
 3658 029b 31       		.uleb128 0x31
 3659 029c 13       		.uleb128 0x13
 3660 029d 52       		.uleb128 0x52
 3661 029e 01       		.uleb128 0x1
 3662 029f 55       		.uleb128 0x55
 3663 02a0 17       		.uleb128 0x17
 3664 02a1 58       		.uleb128 0x58
 3665 02a2 0B       		.uleb128 0xb
 3666 02a3 59       		.uleb128 0x59
 3667 02a4 0B       		.uleb128 0xb
 3668 02a5 01       		.uleb128 0x1
 3669 02a6 13       		.uleb128 0x13
 3670 02a7 00       		.byte	0
 3671 02a8 00       		.byte	0
 3672 02a9 35       		.uleb128 0x35
 3673 02aa 34       		.uleb128 0x34
 3674 02ab 00       		.byte	0
 3675 02ac 03       		.uleb128 0x3
 3676 02ad 08       		.uleb128 0x8
 3677 02ae 3A       		.uleb128 0x3a
 3678 02af 0B       		.uleb128 0xb
 3679 02b0 3B       		.uleb128 0x3b
 3680 02b1 0B       		.uleb128 0xb
 3681 02b2 49       		.uleb128 0x49
 3682 02b3 13       		.uleb128 0x13
 3683 02b4 02       		.uleb128 0x2
 3684 02b5 18       		.uleb128 0x18
 3685 02b6 00       		.byte	0
 3686 02b7 00       		.byte	0
 3687 02b8 36       		.uleb128 0x36
 3688 02b9 1D       		.uleb128 0x1d
 3689 02ba 01       		.byte	0x1
 3690 02bb 31       		.uleb128 0x31
 3691 02bc 13       		.uleb128 0x13
 3692 02bd 11       		.uleb128 0x11
 3693 02be 01       		.uleb128 0x1
 3694 02bf 12       		.uleb128 0x12
 3695 02c0 06       		.uleb128 0x6
 3696 02c1 58       		.uleb128 0x58
 3697 02c2 0B       		.uleb128 0xb
 3698 02c3 59       		.uleb128 0x59
 3699 02c4 0B       		.uleb128 0xb
 3700 02c5 01       		.uleb128 0x1
 3701 02c6 13       		.uleb128 0x13
 3702 02c7 00       		.byte	0
 3703 02c8 00       		.byte	0
 3704 02c9 37       		.uleb128 0x37
 3705 02ca 2E       		.uleb128 0x2e
ARM GAS  C:\Users\14122\AppData\Local\Temp\ccQMY3Ij.s 			page 66


 3706 02cb 01       		.byte	0x1
 3707 02cc 3F       		.uleb128 0x3f
 3708 02cd 19       		.uleb128 0x19
 3709 02ce 03       		.uleb128 0x3
 3710 02cf 0E       		.uleb128 0xe
 3711 02d0 3A       		.uleb128 0x3a
 3712 02d1 0B       		.uleb128 0xb
 3713 02d2 3B       		.uleb128 0x3b
 3714 02d3 0B       		.uleb128 0xb
 3715 02d4 27       		.uleb128 0x27
 3716 02d5 19       		.uleb128 0x19
 3717 02d6 20       		.uleb128 0x20
 3718 02d7 0B       		.uleb128 0xb
 3719 02d8 01       		.uleb128 0x1
 3720 02d9 13       		.uleb128 0x13
 3721 02da 00       		.byte	0
 3722 02db 00       		.byte	0
 3723 02dc 38       		.uleb128 0x38
 3724 02dd 05       		.uleb128 0x5
 3725 02de 00       		.byte	0
 3726 02df 03       		.uleb128 0x3
 3727 02e0 08       		.uleb128 0x8
 3728 02e1 3A       		.uleb128 0x3a
 3729 02e2 0B       		.uleb128 0xb
 3730 02e3 3B       		.uleb128 0x3b
 3731 02e4 0B       		.uleb128 0xb
 3732 02e5 49       		.uleb128 0x49
 3733 02e6 13       		.uleb128 0x13
 3734 02e7 00       		.byte	0
 3735 02e8 00       		.byte	0
 3736 02e9 39       		.uleb128 0x39
 3737 02ea 34       		.uleb128 0x34
 3738 02eb 00       		.byte	0
 3739 02ec 03       		.uleb128 0x3
 3740 02ed 0E       		.uleb128 0xe
 3741 02ee 49       		.uleb128 0x49
 3742 02ef 13       		.uleb128 0x13
 3743 02f0 34       		.uleb128 0x34
 3744 02f1 19       		.uleb128 0x19
 3745 02f2 1C       		.uleb128 0x1c
 3746 02f3 0E       		.uleb128 0xe
 3747 02f4 00       		.byte	0
 3748 02f5 00       		.byte	0
 3749 02f6 3A       		.uleb128 0x3a
 3750 02f7 2E       		.uleb128 0x2e
 3751 02f8 01       		.byte	0x1
 3752 02f9 3F       		.uleb128 0x3f
 3753 02fa 19       		.uleb128 0x19
 3754 02fb 03       		.uleb128 0x3
 3755 02fc 0E       		.uleb128 0xe
 3756 02fd 3A       		.uleb128 0x3a
 3757 02fe 0B       		.uleb128 0xb
 3758 02ff 3B       		.uleb128 0x3b
 3759 0300 0B       		.uleb128 0xb
 3760 0301 27       		.uleb128 0x27
 3761 0302 19       		.uleb128 0x19
 3762 0303 11       		.uleb128 0x11
ARM GAS  C:\Users\14122\AppData\Local\Temp\ccQMY3Ij.s 			page 67


 3763 0304 01       		.uleb128 0x1
 3764 0305 12       		.uleb128 0x12
 3765 0306 06       		.uleb128 0x6
 3766 0307 40       		.uleb128 0x40
 3767 0308 18       		.uleb128 0x18
 3768 0309 9742     		.uleb128 0x2117
 3769 030b 19       		.uleb128 0x19
 3770 030c 01       		.uleb128 0x1
 3771 030d 13       		.uleb128 0x13
 3772 030e 00       		.byte	0
 3773 030f 00       		.byte	0
 3774 0310 3B       		.uleb128 0x3b
 3775 0311 05       		.uleb128 0x5
 3776 0312 00       		.byte	0
 3777 0313 31       		.uleb128 0x31
 3778 0314 13       		.uleb128 0x13
 3779 0315 00       		.byte	0
 3780 0316 00       		.byte	0
 3781 0317 3C       		.uleb128 0x3c
 3782 0318 898201   		.uleb128 0x4109
 3783 031b 00       		.byte	0
 3784 031c 11       		.uleb128 0x11
 3785 031d 01       		.uleb128 0x1
 3786 031e 31       		.uleb128 0x31
 3787 031f 13       		.uleb128 0x13
 3788 0320 00       		.byte	0
 3789 0321 00       		.byte	0
 3790 0322 3D       		.uleb128 0x3d
 3791 0323 0B       		.uleb128 0xb
 3792 0324 01       		.byte	0x1
 3793 0325 55       		.uleb128 0x55
 3794 0326 17       		.uleb128 0x17
 3795 0327 01       		.uleb128 0x1
 3796 0328 13       		.uleb128 0x13
 3797 0329 00       		.byte	0
 3798 032a 00       		.byte	0
 3799 032b 3E       		.uleb128 0x3e
 3800 032c 898201   		.uleb128 0x4109
 3801 032f 00       		.byte	0
 3802 0330 11       		.uleb128 0x11
 3803 0331 01       		.uleb128 0x1
 3804 0332 9542     		.uleb128 0x2115
 3805 0334 19       		.uleb128 0x19
 3806 0335 31       		.uleb128 0x31
 3807 0336 13       		.uleb128 0x13
 3808 0337 00       		.byte	0
 3809 0338 00       		.byte	0
 3810 0339 3F       		.uleb128 0x3f
 3811 033a 1D       		.uleb128 0x1d
 3812 033b 01       		.byte	0x1
 3813 033c 31       		.uleb128 0x31
 3814 033d 13       		.uleb128 0x13
 3815 033e 11       		.uleb128 0x11
 3816 033f 01       		.uleb128 0x1
 3817 0340 12       		.uleb128 0x12
 3818 0341 06       		.uleb128 0x6
 3819 0342 58       		.uleb128 0x58
ARM GAS  C:\Users\14122\AppData\Local\Temp\ccQMY3Ij.s 			page 68


 3820 0343 0B       		.uleb128 0xb
 3821 0344 59       		.uleb128 0x59
 3822 0345 0B       		.uleb128 0xb
 3823 0346 00       		.byte	0
 3824 0347 00       		.byte	0
 3825 0348 40       		.uleb128 0x40
 3826 0349 1D       		.uleb128 0x1d
 3827 034a 01       		.byte	0x1
 3828 034b 31       		.uleb128 0x31
 3829 034c 13       		.uleb128 0x13
 3830 034d 52       		.uleb128 0x52
 3831 034e 01       		.uleb128 0x1
 3832 034f 55       		.uleb128 0x55
 3833 0350 17       		.uleb128 0x17
 3834 0351 58       		.uleb128 0x58
 3835 0352 0B       		.uleb128 0xb
 3836 0353 59       		.uleb128 0x59
 3837 0354 05       		.uleb128 0x5
 3838 0355 00       		.byte	0
 3839 0356 00       		.byte	0
 3840 0357 41       		.uleb128 0x41
 3841 0358 05       		.uleb128 0x5
 3842 0359 00       		.byte	0
 3843 035a 03       		.uleb128 0x3
 3844 035b 08       		.uleb128 0x8
 3845 035c 3A       		.uleb128 0x3a
 3846 035d 0B       		.uleb128 0xb
 3847 035e 3B       		.uleb128 0x3b
 3848 035f 0B       		.uleb128 0xb
 3849 0360 49       		.uleb128 0x49
 3850 0361 13       		.uleb128 0x13
 3851 0362 02       		.uleb128 0x2
 3852 0363 18       		.uleb128 0x18
 3853 0364 00       		.byte	0
 3854 0365 00       		.byte	0
 3855 0366 42       		.uleb128 0x42
 3856 0367 2E       		.uleb128 0x2e
 3857 0368 00       		.byte	0
 3858 0369 03       		.uleb128 0x3
 3859 036a 0E       		.uleb128 0xe
 3860 036b 3A       		.uleb128 0x3a
 3861 036c 0B       		.uleb128 0xb
 3862 036d 3B       		.uleb128 0x3b
 3863 036e 0B       		.uleb128 0xb
 3864 036f 27       		.uleb128 0x27
 3865 0370 19       		.uleb128 0x19
 3866 0371 49       		.uleb128 0x49
 3867 0372 13       		.uleb128 0x13
 3868 0373 20       		.uleb128 0x20
 3869 0374 0B       		.uleb128 0xb
 3870 0375 00       		.byte	0
 3871 0376 00       		.byte	0
 3872 0377 43       		.uleb128 0x43
 3873 0378 2E       		.uleb128 0x2e
 3874 0379 00       		.byte	0
 3875 037a 03       		.uleb128 0x3
 3876 037b 0E       		.uleb128 0xe
ARM GAS  C:\Users\14122\AppData\Local\Temp\ccQMY3Ij.s 			page 69


 3877 037c 3A       		.uleb128 0x3a
 3878 037d 0B       		.uleb128 0xb
 3879 037e 3B       		.uleb128 0x3b
 3880 037f 05       		.uleb128 0x5
 3881 0380 27       		.uleb128 0x27
 3882 0381 19       		.uleb128 0x19
 3883 0382 49       		.uleb128 0x49
 3884 0383 13       		.uleb128 0x13
 3885 0384 20       		.uleb128 0x20
 3886 0385 0B       		.uleb128 0xb
 3887 0386 00       		.byte	0
 3888 0387 00       		.byte	0
 3889 0388 44       		.uleb128 0x44
 3890 0389 2E       		.uleb128 0x2e
 3891 038a 01       		.byte	0x1
 3892 038b 03       		.uleb128 0x3
 3893 038c 0E       		.uleb128 0xe
 3894 038d 3A       		.uleb128 0x3a
 3895 038e 0B       		.uleb128 0xb
 3896 038f 3B       		.uleb128 0x3b
 3897 0390 05       		.uleb128 0x5
 3898 0391 27       		.uleb128 0x27
 3899 0392 19       		.uleb128 0x19
 3900 0393 20       		.uleb128 0x20
 3901 0394 0B       		.uleb128 0xb
 3902 0395 01       		.uleb128 0x1
 3903 0396 13       		.uleb128 0x13
 3904 0397 00       		.byte	0
 3905 0398 00       		.byte	0
 3906 0399 45       		.uleb128 0x45
 3907 039a 2E       		.uleb128 0x2e
 3908 039b 00       		.byte	0
 3909 039c 03       		.uleb128 0x3
 3910 039d 0E       		.uleb128 0xe
 3911 039e 3A       		.uleb128 0x3a
 3912 039f 0B       		.uleb128 0xb
 3913 03a0 3B       		.uleb128 0x3b
 3914 03a1 05       		.uleb128 0x5
 3915 03a2 27       		.uleb128 0x27
 3916 03a3 19       		.uleb128 0x19
 3917 03a4 20       		.uleb128 0x20
 3918 03a5 0B       		.uleb128 0xb
 3919 03a6 00       		.byte	0
 3920 03a7 00       		.byte	0
 3921 03a8 46       		.uleb128 0x46
 3922 03a9 2E       		.uleb128 0x2e
 3923 03aa 01       		.byte	0x1
 3924 03ab 03       		.uleb128 0x3
 3925 03ac 0E       		.uleb128 0xe
 3926 03ad 3A       		.uleb128 0x3a
 3927 03ae 0B       		.uleb128 0xb
 3928 03af 3B       		.uleb128 0x3b
 3929 03b0 05       		.uleb128 0x5
 3930 03b1 27       		.uleb128 0x27
 3931 03b2 19       		.uleb128 0x19
 3932 03b3 49       		.uleb128 0x49
 3933 03b4 13       		.uleb128 0x13
ARM GAS  C:\Users\14122\AppData\Local\Temp\ccQMY3Ij.s 			page 70


 3934 03b5 20       		.uleb128 0x20
 3935 03b6 0B       		.uleb128 0xb
 3936 03b7 01       		.uleb128 0x1
 3937 03b8 13       		.uleb128 0x13
 3938 03b9 00       		.byte	0
 3939 03ba 00       		.byte	0
 3940 03bb 47       		.uleb128 0x47
 3941 03bc 05       		.uleb128 0x5
 3942 03bd 00       		.byte	0
 3943 03be 03       		.uleb128 0x3
 3944 03bf 08       		.uleb128 0x8
 3945 03c0 3A       		.uleb128 0x3a
 3946 03c1 0B       		.uleb128 0xb
 3947 03c2 3B       		.uleb128 0x3b
 3948 03c3 05       		.uleb128 0x5
 3949 03c4 49       		.uleb128 0x49
 3950 03c5 13       		.uleb128 0x13
 3951 03c6 00       		.byte	0
 3952 03c7 00       		.byte	0
 3953 03c8 48       		.uleb128 0x48
 3954 03c9 05       		.uleb128 0x5
 3955 03ca 00       		.byte	0
 3956 03cb 03       		.uleb128 0x3
 3957 03cc 0E       		.uleb128 0xe
 3958 03cd 3A       		.uleb128 0x3a
 3959 03ce 0B       		.uleb128 0xb
 3960 03cf 3B       		.uleb128 0x3b
 3961 03d0 05       		.uleb128 0x5
 3962 03d1 49       		.uleb128 0x49
 3963 03d2 13       		.uleb128 0x13
 3964 03d3 00       		.byte	0
 3965 03d4 00       		.byte	0
 3966 03d5 49       		.uleb128 0x49
 3967 03d6 2E       		.uleb128 0x2e
 3968 03d7 01       		.byte	0x1
 3969 03d8 31       		.uleb128 0x31
 3970 03d9 13       		.uleb128 0x13
 3971 03da 11       		.uleb128 0x11
 3972 03db 01       		.uleb128 0x1
 3973 03dc 12       		.uleb128 0x12
 3974 03dd 06       		.uleb128 0x6
 3975 03de 40       		.uleb128 0x40
 3976 03df 18       		.uleb128 0x18
 3977 03e0 9742     		.uleb128 0x2117
 3978 03e2 19       		.uleb128 0x19
 3979 03e3 01       		.uleb128 0x1
 3980 03e4 13       		.uleb128 0x13
 3981 03e5 00       		.byte	0
 3982 03e6 00       		.byte	0
 3983 03e7 4A       		.uleb128 0x4a
 3984 03e8 2E       		.uleb128 0x2e
 3985 03e9 00       		.byte	0
 3986 03ea 3F       		.uleb128 0x3f
 3987 03eb 19       		.uleb128 0x19
 3988 03ec 3C       		.uleb128 0x3c
 3989 03ed 19       		.uleb128 0x19
 3990 03ee 6E       		.uleb128 0x6e
ARM GAS  C:\Users\14122\AppData\Local\Temp\ccQMY3Ij.s 			page 71


 3991 03ef 0E       		.uleb128 0xe
 3992 03f0 03       		.uleb128 0x3
 3993 03f1 0E       		.uleb128 0xe
 3994 03f2 3A       		.uleb128 0x3a
 3995 03f3 0B       		.uleb128 0xb
 3996 03f4 3B       		.uleb128 0x3b
 3997 03f5 0B       		.uleb128 0xb
 3998 03f6 00       		.byte	0
 3999 03f7 00       		.byte	0
 4000 03f8 4B       		.uleb128 0x4b
 4001 03f9 2E       		.uleb128 0x2e
 4002 03fa 00       		.byte	0
 4003 03fb 3F       		.uleb128 0x3f
 4004 03fc 19       		.uleb128 0x19
 4005 03fd 3C       		.uleb128 0x3c
 4006 03fe 19       		.uleb128 0x19
 4007 03ff 6E       		.uleb128 0x6e
 4008 0400 0E       		.uleb128 0xe
 4009 0401 03       		.uleb128 0x3
 4010 0402 0E       		.uleb128 0xe
 4011 0403 3A       		.uleb128 0x3a
 4012 0404 0B       		.uleb128 0xb
 4013 0405 3B       		.uleb128 0x3b
 4014 0406 05       		.uleb128 0x5
 4015 0407 00       		.byte	0
 4016 0408 00       		.byte	0
 4017 0409 00       		.byte	0
 4018              		.section	.debug_loc,"",%progbits
 4019              	.Ldebug_loc0:
 4020              	.LLST30:
 4021 0000 00000000 		.4byte	.LVL50
 4022 0004 12000000 		.4byte	.LVL51
 4023 0008 0100     		.2byte	0x1
 4024 000a 50       		.byte	0x50
 4025 000b 12000000 		.4byte	.LVL51
 4026 000f 58000000 		.4byte	.LFE228
 4027 0013 0100     		.2byte	0x1
 4028 0015 55       		.byte	0x55
 4029 0016 00000000 		.4byte	0
 4030 001a 00000000 		.4byte	0
 4031              	.LLST31:
 4032 001e 00000000 		.4byte	.LVL50
 4033 0022 15000000 		.4byte	.LVL52-1
 4034 0026 0100     		.2byte	0x1
 4035 0028 51       		.byte	0x51
 4036 0029 15000000 		.4byte	.LVL52-1
 4037 002d 58000000 		.4byte	.LFE228
 4038 0031 0100     		.2byte	0x1
 4039 0033 58       		.byte	0x58
 4040 0034 00000000 		.4byte	0
 4041 0038 00000000 		.4byte	0
 4042              	.LLST32:
 4043 003c 42000000 		.4byte	.LVL60
 4044 0040 46000000 		.4byte	.LVL61
 4045 0044 0100     		.2byte	0x1
 4046 0046 50       		.byte	0x50
 4047 0047 46000000 		.4byte	.LVL61
ARM GAS  C:\Users\14122\AppData\Local\Temp\ccQMY3Ij.s 			page 72


 4048 004b 50000000 		.4byte	.LVL63
 4049 004f 0100     		.2byte	0x1
 4050 0051 54       		.byte	0x54
 4051 0052 00000000 		.4byte	0
 4052 0056 00000000 		.4byte	0
 4053              	.LLST33:
 4054 005a 18000000 		.4byte	.LVL53
 4055 005e 3A000000 		.4byte	.LVL58
 4056 0062 0100     		.2byte	0x1
 4057 0064 55       		.byte	0x55
 4058 0065 50000000 		.4byte	.LVL63
 4059 0069 58000000 		.4byte	.LFE228
 4060 006d 0100     		.2byte	0x1
 4061 006f 55       		.byte	0x55
 4062 0070 00000000 		.4byte	0
 4063 0074 00000000 		.4byte	0
 4064              	.LLST34:
 4065 0078 18000000 		.4byte	.LVL53
 4066 007c 3A000000 		.4byte	.LVL58
 4067 0080 0100     		.2byte	0x1
 4068 0082 54       		.byte	0x54
 4069 0083 50000000 		.4byte	.LVL63
 4070 0087 58000000 		.4byte	.LFE228
 4071 008b 0100     		.2byte	0x1
 4072 008d 54       		.byte	0x54
 4073 008e 00000000 		.4byte	0
 4074 0092 00000000 		.4byte	0
 4075              	.LLST35:
 4076 0096 1E000000 		.4byte	.LVL54
 4077 009a 2E000000 		.4byte	.LVL57
 4078 009e 0100     		.2byte	0x1
 4079 00a0 53       		.byte	0x53
 4080 00a1 50000000 		.4byte	.LVL63
 4081 00a5 58000000 		.4byte	.LFE228
 4082 00a9 0100     		.2byte	0x1
 4083 00ab 53       		.byte	0x53
 4084 00ac 00000000 		.4byte	0
 4085 00b0 00000000 		.4byte	0
 4086              	.LLST36:
 4087 00b4 00000000 		.4byte	.LVL64
 4088 00b8 0B000000 		.4byte	.LVL66-1
 4089 00bc 0100     		.2byte	0x1
 4090 00be 50       		.byte	0x50
 4091 00bf 0B000000 		.4byte	.LVL66-1
 4092 00c3 14000000 		.4byte	.LFE227
 4093 00c7 0400     		.2byte	0x4
 4094 00c9 F3       		.byte	0xf3
 4095 00ca 01       		.uleb128 0x1
 4096 00cb 50       		.byte	0x50
 4097 00cc 9F       		.byte	0x9f
 4098 00cd 00000000 		.4byte	0
 4099 00d1 00000000 		.4byte	0
 4100              	.LLST37:
 4101 00d5 00000000 		.4byte	.LVL64
 4102 00d9 0B000000 		.4byte	.LVL66-1
 4103 00dd 0100     		.2byte	0x1
 4104 00df 51       		.byte	0x51
ARM GAS  C:\Users\14122\AppData\Local\Temp\ccQMY3Ij.s 			page 73


 4105 00e0 0B000000 		.4byte	.LVL66-1
 4106 00e4 14000000 		.4byte	.LFE227
 4107 00e8 0400     		.2byte	0x4
 4108 00ea F3       		.byte	0xf3
 4109 00eb 01       		.uleb128 0x1
 4110 00ec 51       		.byte	0x51
 4111 00ed 9F       		.byte	0x9f
 4112 00ee 00000000 		.4byte	0
 4113 00f2 00000000 		.4byte	0
 4114              	.LLST38:
 4115 00f6 00000000 		.4byte	.LVL64
 4116 00fa 08000000 		.4byte	.LVL65
 4117 00fe 0300     		.2byte	0x3
 4118 0100 08       		.byte	0x8
 4119 0101 20       		.byte	0x20
 4120 0102 9F       		.byte	0x9f
 4121 0103 00000000 		.4byte	0
 4122 0107 00000000 		.4byte	0
 4123              	.LLST39:
 4124 010b 0C000000 		.4byte	.LVL66
 4125 010f 12000000 		.4byte	.LVL67
 4126 0113 0200     		.2byte	0x2
 4127 0115 30       		.byte	0x30
 4128 0116 9F       		.byte	0x9f
 4129 0117 00000000 		.4byte	0
 4130 011b 00000000 		.4byte	0
 4131              	.LLST21:
 4132 011f 00000000 		.4byte	.LVL33
 4133 0123 0E000000 		.4byte	.LVL35
 4134 0127 0100     		.2byte	0x1
 4135 0129 50       		.byte	0x50
 4136 012a 0E000000 		.4byte	.LVL35
 4137 012e 4C000000 		.4byte	.LFE226
 4138 0132 0100     		.2byte	0x1
 4139 0134 55       		.byte	0x55
 4140 0135 00000000 		.4byte	0
 4141 0139 00000000 		.4byte	0
 4142              	.LLST22:
 4143 013d 0A000000 		.4byte	.LVL34
 4144 0141 38000000 		.4byte	.LVL43
 4145 0145 0100     		.2byte	0x1
 4146 0147 54       		.byte	0x54
 4147 0148 42000000 		.4byte	.LVL45
 4148 014c 4C000000 		.4byte	.LFE226
 4149 0150 0100     		.2byte	0x1
 4150 0152 54       		.byte	0x54
 4151 0153 00000000 		.4byte	0
 4152 0157 00000000 		.4byte	0
 4153              	.LLST23:
 4154 015b 38000000 		.4byte	.LVL43
 4155 015f 42000000 		.4byte	.LVL45
 4156 0163 0100     		.2byte	0x1
 4157 0165 54       		.byte	0x54
 4158 0166 00000000 		.4byte	0
 4159 016a 00000000 		.4byte	0
 4160              	.LLST24:
 4161 016e 12000000 		.4byte	.LVL36
ARM GAS  C:\Users\14122\AppData\Local\Temp\ccQMY3Ij.s 			page 74


 4162 0172 32000000 		.4byte	.LVL41
 4163 0176 0100     		.2byte	0x1
 4164 0178 55       		.byte	0x55
 4165 0179 42000000 		.4byte	.LVL45
 4166 017d 4C000000 		.4byte	.LFE226
 4167 0181 0100     		.2byte	0x1
 4168 0183 55       		.byte	0x55
 4169 0184 00000000 		.4byte	0
 4170 0188 00000000 		.4byte	0
 4171              	.LLST25:
 4172 018c 12000000 		.4byte	.LVL36
 4173 0190 32000000 		.4byte	.LVL41
 4174 0194 0100     		.2byte	0x1
 4175 0196 54       		.byte	0x54
 4176 0197 42000000 		.4byte	.LVL45
 4177 019b 4C000000 		.4byte	.LFE226
 4178 019f 0100     		.2byte	0x1
 4179 01a1 54       		.byte	0x54
 4180 01a2 00000000 		.4byte	0
 4181 01a6 00000000 		.4byte	0
 4182              	.LLST26:
 4183 01aa 18000000 		.4byte	.LVL37
 4184 01ae 28000000 		.4byte	.LVL40
 4185 01b2 0100     		.2byte	0x1
 4186 01b4 53       		.byte	0x53
 4187 01b5 42000000 		.4byte	.LVL45
 4188 01b9 4C000000 		.4byte	.LFE226
 4189 01bd 0100     		.2byte	0x1
 4190 01bf 53       		.byte	0x53
 4191 01c0 00000000 		.4byte	0
 4192 01c4 00000000 		.4byte	0
 4193              	.LLST27:
 4194 01c8 00000000 		.4byte	.LVL46
 4195 01cc 0B000000 		.4byte	.LVL48-1
 4196 01d0 0100     		.2byte	0x1
 4197 01d2 50       		.byte	0x50
 4198 01d3 0B000000 		.4byte	.LVL48-1
 4199 01d7 14000000 		.4byte	.LFE225
 4200 01db 0400     		.2byte	0x4
 4201 01dd F3       		.byte	0xf3
 4202 01de 01       		.uleb128 0x1
 4203 01df 50       		.byte	0x50
 4204 01e0 9F       		.byte	0x9f
 4205 01e1 00000000 		.4byte	0
 4206 01e5 00000000 		.4byte	0
 4207              	.LLST28:
 4208 01e9 00000000 		.4byte	.LVL46
 4209 01ed 08000000 		.4byte	.LVL47
 4210 01f1 0300     		.2byte	0x3
 4211 01f3 08       		.byte	0x8
 4212 01f4 20       		.byte	0x20
 4213 01f5 9F       		.byte	0x9f
 4214 01f6 00000000 		.4byte	0
 4215 01fa 00000000 		.4byte	0
 4216              	.LLST29:
 4217 01fe 0C000000 		.4byte	.LVL48
 4218 0202 12000000 		.4byte	.LVL49
ARM GAS  C:\Users\14122\AppData\Local\Temp\ccQMY3Ij.s 			page 75


 4219 0206 0200     		.2byte	0x2
 4220 0208 30       		.byte	0x30
 4221 0209 9F       		.byte	0x9f
 4222 020a 00000000 		.4byte	0
 4223 020e 00000000 		.4byte	0
 4224              	.LLST11:
 4225 0212 00000000 		.4byte	.LVL18
 4226 0216 14000000 		.4byte	.LVL21
 4227 021a 0100     		.2byte	0x1
 4228 021c 50       		.byte	0x50
 4229 021d 14000000 		.4byte	.LVL21
 4230 0221 28000000 		.4byte	.LVL24
 4231 0225 0100     		.2byte	0x1
 4232 0227 54       		.byte	0x54
 4233 0228 28000000 		.4byte	.LVL24
 4234 022c 34000000 		.4byte	.LFE223
 4235 0230 0400     		.2byte	0x4
 4236 0232 F3       		.byte	0xf3
 4237 0233 01       		.uleb128 0x1
 4238 0234 50       		.byte	0x50
 4239 0235 9F       		.byte	0x9f
 4240 0236 00000000 		.4byte	0
 4241 023a 00000000 		.4byte	0
 4242              	.LLST12:
 4243 023e 00000000 		.4byte	.LVL18
 4244 0242 08000000 		.4byte	.LVL19
 4245 0246 0300     		.2byte	0x3
 4246 0248 08       		.byte	0x8
 4247 0249 20       		.byte	0x20
 4248 024a 9F       		.byte	0x9f
 4249 024b 00000000 		.4byte	0
 4250 024f 00000000 		.4byte	0
 4251              	.LLST13:
 4252 0253 08000000 		.4byte	.LVL19
 4253 0257 0A000000 		.4byte	.LVL20
 4254 025b 0100     		.2byte	0x1
 4255 025d 50       		.byte	0x50
 4256 025e 00000000 		.4byte	0
 4257 0262 00000000 		.4byte	0
 4258              	.LLST14:
 4259 0266 14000000 		.4byte	.LVL21
 4260 026a 1C000000 		.4byte	.LVL22
 4261 026e 0100     		.2byte	0x1
 4262 0270 54       		.byte	0x54
 4263 0271 00000000 		.4byte	0
 4264 0275 00000000 		.4byte	0
 4265              	.LLST15:
 4266 0279 14000000 		.4byte	.LVL21
 4267 027d 1C000000 		.4byte	.LVL22
 4268 0281 0100     		.2byte	0x1
 4269 0283 53       		.byte	0x53
 4270 0284 00000000 		.4byte	0
 4271 0288 00000000 		.4byte	0
 4272              	.LLST16:
 4273 028c 2C000000 		.4byte	.LVL25
 4274 0290 32000000 		.4byte	.LVL26
 4275 0294 0200     		.2byte	0x2
ARM GAS  C:\Users\14122\AppData\Local\Temp\ccQMY3Ij.s 			page 76


 4276 0296 30       		.byte	0x30
 4277 0297 9F       		.byte	0x9f
 4278 0298 00000000 		.4byte	0
 4279 029c 00000000 		.4byte	0
 4280              	.LLST7:
 4281 02a0 00000000 		.4byte	.LVL12
 4282 02a4 10000000 		.4byte	.LVL15
 4283 02a8 0100     		.2byte	0x1
 4284 02aa 50       		.byte	0x50
 4285 02ab 10000000 		.4byte	.LVL15
 4286 02af 1B000000 		.4byte	.LVL17-1
 4287 02b3 0100     		.2byte	0x1
 4288 02b5 53       		.byte	0x53
 4289 02b6 1B000000 		.4byte	.LVL17-1
 4290 02ba 1C000000 		.4byte	.LVL17
 4291 02be 0400     		.2byte	0x4
 4292 02c0 F3       		.byte	0xf3
 4293 02c1 01       		.uleb128 0x1
 4294 02c2 50       		.byte	0x50
 4295 02c3 9F       		.byte	0x9f
 4296 02c4 1C000000 		.4byte	.LVL17
 4297 02c8 1E000000 		.4byte	.LFE222
 4298 02cc 0100     		.2byte	0x1
 4299 02ce 50       		.byte	0x50
 4300 02cf 00000000 		.4byte	0
 4301 02d3 00000000 		.4byte	0
 4302              	.LLST9:
 4303 02d7 0A000000 		.4byte	.LVL14
 4304 02db 10000000 		.4byte	.LVL15
 4305 02df 0100     		.2byte	0x1
 4306 02e1 50       		.byte	0x50
 4307 02e2 10000000 		.4byte	.LVL15
 4308 02e6 14000000 		.4byte	.LVL16
 4309 02ea 0100     		.2byte	0x1
 4310 02ec 53       		.byte	0x53
 4311 02ed 00000000 		.4byte	0
 4312 02f1 00000000 		.4byte	0
 4313              	.LLST10:
 4314 02f5 0A000000 		.4byte	.LVL14
 4315 02f9 14000000 		.4byte	.LVL16
 4316 02fd 0100     		.2byte	0x1
 4317 02ff 52       		.byte	0x52
 4318 0300 00000000 		.4byte	0
 4319 0304 00000000 		.4byte	0
 4320              	.LLST8:
 4321 0308 00000000 		.4byte	.LVL12
 4322 030c 02000000 		.4byte	.LVL13
 4323 0310 0100     		.2byte	0x1
 4324 0312 50       		.byte	0x50
 4325 0313 00000000 		.4byte	0
 4326 0317 00000000 		.4byte	0
 4327              	.LLST1:
 4328 031b 00000000 		.4byte	.LVL2
 4329 031f 14000000 		.4byte	.LVL6
 4330 0323 0100     		.2byte	0x1
 4331 0325 50       		.byte	0x50
 4332 0326 14000000 		.4byte	.LVL6
ARM GAS  C:\Users\14122\AppData\Local\Temp\ccQMY3Ij.s 			page 77


 4333 032a 1D000000 		.4byte	.LVL8-1
 4334 032e 0100     		.2byte	0x1
 4335 0330 53       		.byte	0x53
 4336 0331 1D000000 		.4byte	.LVL8-1
 4337 0335 26000000 		.4byte	.LVL10
 4338 0339 0400     		.2byte	0x4
 4339 033b F3       		.byte	0xf3
 4340 033c 01       		.uleb128 0x1
 4341 033d 50       		.byte	0x50
 4342 033e 9F       		.byte	0x9f
 4343 033f 26000000 		.4byte	.LVL10
 4344 0343 2E000000 		.4byte	.LFE221
 4345 0347 0100     		.2byte	0x1
 4346 0349 50       		.byte	0x50
 4347 034a 00000000 		.4byte	0
 4348 034e 00000000 		.4byte	0
 4349              	.LLST2:
 4350 0352 00000000 		.4byte	.LVL2
 4351 0356 06000000 		.4byte	.LVL3
 4352 035a 0300     		.2byte	0x3
 4353 035c 08       		.byte	0x8
 4354 035d 20       		.byte	0x20
 4355 035e 9F       		.byte	0x9f
 4356 035f 00000000 		.4byte	0
 4357 0363 00000000 		.4byte	0
 4358              	.LLST3:
 4359 0367 06000000 		.4byte	.LVL3
 4360 036b 08000000 		.4byte	.LVL4
 4361 036f 0100     		.2byte	0x1
 4362 0371 50       		.byte	0x50
 4363 0372 00000000 		.4byte	0
 4364 0376 00000000 		.4byte	0
 4365              	.LLST4:
 4366 037a 0E000000 		.4byte	.LVL5
 4367 037e 14000000 		.4byte	.LVL6
 4368 0382 0100     		.2byte	0x1
 4369 0384 50       		.byte	0x50
 4370 0385 14000000 		.4byte	.LVL6
 4371 0389 1A000000 		.4byte	.LVL7
 4372 038d 0100     		.2byte	0x1
 4373 038f 53       		.byte	0x53
 4374 0390 00000000 		.4byte	0
 4375 0394 00000000 		.4byte	0
 4376              	.LLST5:
 4377 0398 0E000000 		.4byte	.LVL5
 4378 039c 1A000000 		.4byte	.LVL7
 4379 03a0 0100     		.2byte	0x1
 4380 03a2 52       		.byte	0x52
 4381 03a3 00000000 		.4byte	0
 4382 03a7 00000000 		.4byte	0
 4383              	.LLST6:
 4384 03ab 1E000000 		.4byte	.LVL8
 4385 03af 24000000 		.4byte	.LVL9
 4386 03b3 0200     		.2byte	0x2
 4387 03b5 30       		.byte	0x30
 4388 03b6 9F       		.byte	0x9f
 4389 03b7 26000000 		.4byte	.LVL10
ARM GAS  C:\Users\14122\AppData\Local\Temp\ccQMY3Ij.s 			page 78


 4390 03bb 2C000000 		.4byte	.LVL11
 4391 03bf 0200     		.2byte	0x2
 4392 03c1 30       		.byte	0x30
 4393 03c2 9F       		.byte	0x9f
 4394 03c3 00000000 		.4byte	0
 4395 03c7 00000000 		.4byte	0
 4396              	.LLST0:
 4397 03cb 00000000 		.4byte	.LVL0
 4398 03cf 04000000 		.4byte	.LVL1
 4399 03d3 0100     		.2byte	0x1
 4400 03d5 50       		.byte	0x50
 4401 03d6 00000000 		.4byte	0
 4402 03da 00000000 		.4byte	0
 4403              	.LLST17:
 4404 03de 00000000 		.4byte	.LVL27
 4405 03e2 0E000000 		.4byte	.LVL29
 4406 03e6 0100     		.2byte	0x1
 4407 03e8 50       		.byte	0x50
 4408 03e9 0E000000 		.4byte	.LVL29
 4409 03ed 22000000 		.4byte	.LVL32
 4410 03f1 0100     		.2byte	0x1
 4411 03f3 54       		.byte	0x54
 4412 03f4 22000000 		.4byte	.LVL32
 4413 03f8 24000000 		.4byte	.LFE224
 4414 03fc 0400     		.2byte	0x4
 4415 03fe F3       		.byte	0xf3
 4416 03ff 01       		.uleb128 0x1
 4417 0400 50       		.byte	0x50
 4418 0401 9F       		.byte	0x9f
 4419 0402 00000000 		.4byte	0
 4420 0406 00000000 		.4byte	0
 4421              	.LLST18:
 4422 040a 00000000 		.4byte	.LVL27
 4423 040e 04000000 		.4byte	.LVL28
 4424 0412 0100     		.2byte	0x1
 4425 0414 50       		.byte	0x50
 4426 0415 00000000 		.4byte	0
 4427 0419 00000000 		.4byte	0
 4428              	.LLST19:
 4429 041d 0E000000 		.4byte	.LVL29
 4430 0421 16000000 		.4byte	.LVL30
 4431 0425 0100     		.2byte	0x1
 4432 0427 54       		.byte	0x54
 4433 0428 00000000 		.4byte	0
 4434 042c 00000000 		.4byte	0
 4435              	.LLST20:
 4436 0430 0E000000 		.4byte	.LVL29
 4437 0434 16000000 		.4byte	.LVL30
 4438 0438 0100     		.2byte	0x1
 4439 043a 53       		.byte	0x53
 4440 043b 00000000 		.4byte	0
 4441 043f 00000000 		.4byte	0
 4442              		.section	.debug_aranges,"",%progbits
 4443 0000 5C000000 		.4byte	0x5c
 4444 0004 0200     		.2byte	0x2
 4445 0006 00000000 		.4byte	.Ldebug_info0
 4446 000a 04       		.byte	0x4
ARM GAS  C:\Users\14122\AppData\Local\Temp\ccQMY3Ij.s 			page 79


 4447 000b 00       		.byte	0
 4448 000c 0000     		.2byte	0
 4449 000e 0000     		.2byte	0
 4450 0010 00000000 		.4byte	.LFB220
 4451 0014 06000000 		.4byte	.LFE220-.LFB220
 4452 0018 00000000 		.4byte	.LFB221
 4453 001c 2E000000 		.4byte	.LFE221-.LFB221
 4454 0020 00000000 		.4byte	.LFB222
 4455 0024 1E000000 		.4byte	.LFE222-.LFB222
 4456 0028 00000000 		.4byte	.LFB223
 4457 002c 34000000 		.4byte	.LFE223-.LFB223
 4458 0030 00000000 		.4byte	.LFB224
 4459 0034 24000000 		.4byte	.LFE224-.LFB224
 4460 0038 00000000 		.4byte	.LFB226
 4461 003c 4C000000 		.4byte	.LFE226-.LFB226
 4462 0040 00000000 		.4byte	.LFB225
 4463 0044 14000000 		.4byte	.LFE225-.LFB225
 4464 0048 00000000 		.4byte	.LFB228
 4465 004c 58000000 		.4byte	.LFE228-.LFB228
 4466 0050 00000000 		.4byte	.LFB227
 4467 0054 14000000 		.4byte	.LFE227-.LFB227
 4468 0058 00000000 		.4byte	0
 4469 005c 00000000 		.4byte	0
 4470              		.section	.debug_ranges,"",%progbits
 4471              	.Ldebug_ranges0:
 4472 0000 10000000 		.4byte	.LBB97
 4473 0004 12000000 		.4byte	.LBE97
 4474 0008 14000000 		.4byte	.LBB101
 4475 000c 16000000 		.4byte	.LBE101
 4476 0010 18000000 		.4byte	.LBB102
 4477 0014 1A000000 		.4byte	.LBE102
 4478 0018 00000000 		.4byte	0
 4479 001c 00000000 		.4byte	0
 4480 0020 1E000000 		.4byte	.LBB103
 4481 0024 24000000 		.4byte	.LBE103
 4482 0028 26000000 		.4byte	.LBB112
 4483 002c 2E000000 		.4byte	.LBE112
 4484 0030 00000000 		.4byte	0
 4485 0034 00000000 		.4byte	0
 4486 0038 0A000000 		.4byte	.LBB115
 4487 003c 16000000 		.4byte	.LBE115
 4488 0040 18000000 		.4byte	.LBB120
 4489 0044 1E000000 		.4byte	.LBE120
 4490 0048 00000000 		.4byte	0
 4491 004c 00000000 		.4byte	0
 4492 0050 0C000000 		.4byte	.LBB116
 4493 0054 0E000000 		.4byte	.LBE116
 4494 0058 10000000 		.4byte	.LBB119
 4495 005c 14000000 		.4byte	.LBE119
 4496 0060 00000000 		.4byte	0
 4497 0064 00000000 		.4byte	0
 4498 0068 08000000 		.4byte	.LBB127
 4499 006c 0A000000 		.4byte	.LBE127
 4500 0070 20000000 		.4byte	.LBB134
 4501 0074 22000000 		.4byte	.LBE134
 4502 0078 00000000 		.4byte	0
 4503 007c 00000000 		.4byte	0
ARM GAS  C:\Users\14122\AppData\Local\Temp\ccQMY3Ij.s 			page 80


 4504 0080 14000000 		.4byte	.LBB130
 4505 0084 16000000 		.4byte	.LBE130
 4506 0088 18000000 		.4byte	.LBB133
 4507 008c 1C000000 		.4byte	.LBE133
 4508 0090 00000000 		.4byte	0
 4509 0094 00000000 		.4byte	0
 4510 0098 02000000 		.4byte	.LBB140
 4511 009c 04000000 		.4byte	.LBE140
 4512 00a0 1A000000 		.4byte	.LBB147
 4513 00a4 1C000000 		.4byte	.LBE147
 4514 00a8 00000000 		.4byte	0
 4515 00ac 00000000 		.4byte	0
 4516 00b0 0E000000 		.4byte	.LBB143
 4517 00b4 10000000 		.4byte	.LBE143
 4518 00b8 12000000 		.4byte	.LBB146
 4519 00bc 16000000 		.4byte	.LBE146
 4520 00c0 00000000 		.4byte	0
 4521 00c4 00000000 		.4byte	0
 4522 00c8 18000000 		.4byte	.LBB150
 4523 00cc 28000000 		.4byte	.LBE150
 4524 00d0 2A000000 		.4byte	.LBB154
 4525 00d4 32000000 		.4byte	.LBE154
 4526 00d8 42000000 		.4byte	.LBB155
 4527 00dc 4C000000 		.4byte	.LBE155
 4528 00e0 00000000 		.4byte	0
 4529 00e4 00000000 		.4byte	0
 4530 00e8 06000000 		.4byte	.LBB165
 4531 00ec 08000000 		.4byte	.LBE165
 4532 00f0 0A000000 		.4byte	.LBB171
 4533 00f4 0C000000 		.4byte	.LBE171
 4534 00f8 0E000000 		.4byte	.LBB172
 4535 00fc 10000000 		.4byte	.LBE172
 4536 0100 00000000 		.4byte	0
 4537 0104 00000000 		.4byte	0
 4538 0108 1E000000 		.4byte	.LBB173
 4539 010c 2E000000 		.4byte	.LBE173
 4540 0110 30000000 		.4byte	.LBB178
 4541 0114 34000000 		.4byte	.LBE178
 4542 0118 36000000 		.4byte	.LBB179
 4543 011c 3A000000 		.4byte	.LBE179
 4544 0120 50000000 		.4byte	.LBB180
 4545 0124 58000000 		.4byte	.LBE180
 4546 0128 00000000 		.4byte	0
 4547 012c 00000000 		.4byte	0
 4548 0130 00000000 		.4byte	.LFB220
 4549 0134 06000000 		.4byte	.LFE220
 4550 0138 00000000 		.4byte	.LFB221
 4551 013c 2E000000 		.4byte	.LFE221
 4552 0140 00000000 		.4byte	.LFB222
 4553 0144 1E000000 		.4byte	.LFE222
 4554 0148 00000000 		.4byte	.LFB223
 4555 014c 34000000 		.4byte	.LFE223
 4556 0150 00000000 		.4byte	.LFB224
 4557 0154 24000000 		.4byte	.LFE224
 4558 0158 00000000 		.4byte	.LFB226
 4559 015c 4C000000 		.4byte	.LFE226
 4560 0160 00000000 		.4byte	.LFB225
ARM GAS  C:\Users\14122\AppData\Local\Temp\ccQMY3Ij.s 			page 81


 4561 0164 14000000 		.4byte	.LFE225
 4562 0168 00000000 		.4byte	.LFB228
 4563 016c 58000000 		.4byte	.LFE228
 4564 0170 00000000 		.4byte	.LFB227
 4565 0174 14000000 		.4byte	.LFE227
 4566 0178 00000000 		.4byte	0
 4567 017c 00000000 		.4byte	0
 4568              		.section	.debug_line,"",%progbits
 4569              	.Ldebug_line0:
 4570 0000 58050000 		.section	.debug_str,"MS",%progbits,1
 4570      02000303 
 4570      00000201 
 4570      FB0E0D00 
 4570      01010101 
 4571              	.LASF48:
 4572 0000 63685F74 		.ascii	"ch_threads_list\000"
 4572      68726561 
 4572      64735F6C 
 4572      69737400 
 4573              	.LASF100:
 4574 0010 74696D65 		.ascii	"timesize\000"
 4574      73697A65 
 4574      00
 4575              	.LASF75:
 4576 0019 53797374 		.ascii	"SystemCoreClock\000"
 4576      656D436F 
 4576      7265436C 
 4576      6F636B00 
 4577              	.LASF88:
 4578 0029 77746D74 		.ascii	"wtmtxp\000"
 4578      787000
 4579              	.LASF128:
 4580 0030 6D656D6F 		.ascii	"memory_pool_t\000"
 4580      72795F70 
 4580      6F6F6C5F 
 4580      7400
 4581              	.LASF140:
 4582 003e 6669666F 		.ascii	"fifo_list\000"
 4582      5F6C6973 
 4582      7400
 4583              	.LASF78:
 4584 0048 72656761 		.ascii	"regarm_t\000"
 4584      726D5F74 
 4584      00
 4585              	.LASF132:
 4586 0051 64796E5F 		.ascii	"dyn_list_t\000"
 4586      6C697374 
 4586      5F7400
 4587              	.LASF37:
 4588 005c 666C6167 		.ascii	"flags\000"
 4588      7300
 4589              	.LASF72:
 4590 0062 73797374 		.ascii	"systime_t\000"
 4590      696D655F 
 4590      7400
 4591              	.LASF43:
 4592 006c 7265616C 		.ascii	"realprio\000"
ARM GAS  C:\Users\14122\AppData\Local\Temp\ccQMY3Ij.s 			page 82


 4592      7072696F 
 4592      00
 4593              	.LASF117:
 4594 0075 636F6E64 		.ascii	"condition_variable_t\000"
 4594      6974696F 
 4594      6E5F7661 
 4594      72696162 
 4594      6C655F74 
 4595              	.LASF41:
 4596 008a 6570656E 		.ascii	"epending\000"
 4596      64696E67 
 4596      00
 4597              	.LASF0:
 4598 0093 756E7369 		.ascii	"unsigned int\000"
 4598      676E6564 
 4598      20696E74 
 4598      00
 4599              	.LASF49:
 4600 00a0 6E657874 		.ascii	"next\000"
 4600      00
 4601              	.LASF98:
 4602 00a5 76657273 		.ascii	"version\000"
 4602      696F6E00 
 4603              	.LASF46:
 4604 00ad 74687265 		.ascii	"threads_list_t\000"
 4604      6164735F 
 4604      6C697374 
 4604      5F7400
 4605              	.LASF134:
 4606 00bc 6F626A5F 		.ascii	"obj_list\000"
 4606      6C697374 
 4606      00
 4607              	.LASF10:
 4608 00c5 5F5F696E 		.ascii	"__int32_t\000"
 4608      7433325F 
 4608      7400
 4609              	.LASF38:
 4610 00cf 72656673 		.ascii	"refs\000"
 4610      00
 4611              	.LASF112:
 4612 00d4 6F66665F 		.ascii	"off_time\000"
 4612      74696D65 
 4612      00
 4613              	.LASF84:
 4614 00dd 77746F62 		.ascii	"wtobjp\000"
 4614      6A7000
 4615              	.LASF163:
 4616 00e4 706F7274 		.ascii	"port_lock\000"
 4616      5F6C6F63 
 4616      6B00
 4617              	.LASF70:
 4618 00ee 76746C69 		.ascii	"vtlist\000"
 4618      737400
 4619              	.LASF80:
 4620 00f5 706F7274 		.ascii	"port_context\000"
 4620      5F636F6E 
 4620      74657874 
ARM GAS  C:\Users\14122\AppData\Local\Temp\ccQMY3Ij.s 			page 83


 4620      00
 4621              	.LASF174:
 4622 0102 2E2F2F6F 		.ascii	".//os/rt/src/chcond.c\000"
 4622      732F7274 
 4622      2F737263 
 4622      2F636863 
 4622      6F6E642E 
 4623              	.LASF175:
 4624 0118 443A5C68 		.ascii	"D:\\hkust\\robomaster\\eclipse___files\\cundang\\as"
 4624      6B757374 
 4624      5C726F62 
 4624      6F6D6173 
 4624      7465725C 
 4625 0146 7369676E 		.ascii	"signment2-master_10.20_turret_2\000"
 4625      6D656E74 
 4625      322D6D61 
 4625      73746572 
 4625      5F31302E 
 4626              	.LASF60:
 4627 0166 66756E63 		.ascii	"func\000"
 4627      00
 4628              	.LASF89:
 4629 016b 65776D61 		.ascii	"ewmask\000"
 4629      736B00
 4630              	.LASF52:
 4631 0172 70726576 		.ascii	"prev\000"
 4631      00
 4632              	.LASF51:
 4633 0177 63685F74 		.ascii	"ch_threads_queue\000"
 4633      68726561 
 4633      64735F71 
 4633      75657565 
 4633      00
 4634              	.LASF133:
 4635 0188 63685F6F 		.ascii	"ch_objects_factory\000"
 4635      626A6563 
 4635      74735F66 
 4635      6163746F 
 4635      727900
 4636              	.LASF54:
 4637 019b 63685F72 		.ascii	"ch_ready_list\000"
 4637      65616479 
 4637      5F6C6973 
 4637      7400
 4638              	.LASF150:
 4639 01a9 6368436F 		.ascii	"chCondSignalI\000"
 4639      6E645369 
 4639      676E616C 
 4639      4900
 4640              	.LASF104:
 4641 01b7 6F66665F 		.ascii	"off_newer\000"
 4641      6E657765 
 4641      7200
 4642              	.LASF56:
 4643 01c1 76746675 		.ascii	"vtfunc_t\000"
 4643      6E635F74 
 4643      00
ARM GAS  C:\Users\14122\AppData\Local\Temp\ccQMY3Ij.s 			page 84


 4644              	.LASF170:
 4645 01ca 63685363 		.ascii	"chSchReadyI\000"
 4645      68526561 
 4645      64794900 
 4646              	.LASF65:
 4647 01d6 63685F73 		.ascii	"ch_system_debug\000"
 4647      79737465 
 4647      6D5F6465 
 4647      62756700 
 4648              	.LASF152:
 4649 01e6 6368436F 		.ascii	"chCondObjectInit\000"
 4649      6E644F62 
 4649      6A656374 
 4649      496E6974 
 4649      00
 4650              	.LASF19:
 4651 01f7 75696E74 		.ascii	"uint32_t\000"
 4651      33325F74 
 4651      00
 4652              	.LASF86:
 4653 0200 73656E74 		.ascii	"sentmsg\000"
 4653      6D736700 
 4654              	.LASF26:
 4655 0208 6576656E 		.ascii	"eventmask_t\000"
 4655      746D6173 
 4655      6B5F7400 
 4656              	.LASF101:
 4657 0214 74687265 		.ascii	"threadsize\000"
 4657      61647369 
 4657      7A6500
 4658              	.LASF90:
 4659 021f 63685F73 		.ascii	"ch_semaphore\000"
 4659      656D6170 
 4659      686F7265 
 4659      00
 4660              	.LASF24:
 4661 022c 74707269 		.ascii	"tprio_t\000"
 4661      6F5F7400 
 4662              	.LASF58:
 4663 0234 63685F76 		.ascii	"ch_virtual_timer\000"
 4663      69727475 
 4663      616C5F74 
 4663      696D6572 
 4663      00
 4664              	.LASF122:
 4665 0245 6D656D63 		.ascii	"memcore_t\000"
 4665      6F72655F 
 4665      7400
 4666              	.LASF148:
 4667 024f 6368436F 		.ascii	"chCondWait\000"
 4667      6E645761 
 4667      697400
 4668              	.LASF15:
 4669 025a 6C6F6E67 		.ascii	"long long unsigned int\000"
 4669      206C6F6E 
 4669      6720756E 
 4669      7369676E 
ARM GAS  C:\Users\14122\AppData\Local\Temp\ccQMY3Ij.s 			page 85


 4669      65642069 
 4670              	.LASF8:
 4671 0271 5F5F7569 		.ascii	"__uint16_t\000"
 4671      6E743136 
 4671      5F7400
 4672              	.LASF27:
 4673 027c 636E745F 		.ascii	"cnt_t\000"
 4673      7400
 4674              	.LASF107:
 4675 0282 6F66665F 		.ascii	"off_stklimit\000"
 4675      73746B6C 
 4675      696D6974 
 4675      00
 4676              	.LASF154:
 4677 028f 63685468 		.ascii	"chThdGetSelfX\000"
 4677      64476574 
 4677      53656C66 
 4677      5800
 4678              	.LASF92:
 4679 029d 6F776E65 		.ascii	"owner\000"
 4679      7200
 4680              	.LASF50:
 4681 02a3 74687265 		.ascii	"threads_queue_t\000"
 4681      6164735F 
 4681      71756575 
 4681      655F7400 
 4682              	.LASF42:
 4683 02b3 6D74786C 		.ascii	"mtxlist\000"
 4683      69737400 
 4684              	.LASF62:
 4685 02bb 63685F76 		.ascii	"ch_virtual_timers_list\000"
 4685      69727475 
 4685      616C5F74 
 4685      696D6572 
 4685      735F6C69 
 4686              	.LASF165:
 4687 02d2 62617365 		.ascii	"basePri\000"
 4687      50726900 
 4688              	.LASF29:
 4689 02da 74687265 		.ascii	"thread_t\000"
 4689      61645F74 
 4689      00
 4690              	.LASF105:
 4691 02e3 6F66665F 		.ascii	"off_older\000"
 4691      6F6C6465 
 4691      7200
 4692              	.LASF108:
 4693 02ed 6F66665F 		.ascii	"off_state\000"
 4693      73746174 
 4693      6500
 4694              	.LASF4:
 4695 02f7 73697A65 		.ascii	"size_t\000"
 4695      5F7400
 4696              	.LASF82:
 4697 02fe 7264796D 		.ascii	"rdymsg\000"
 4697      736700
 4698              	.LASF125:
ARM GAS  C:\Users\14122\AppData\Local\Temp\ccQMY3Ij.s 			page 86


 4699 0305 6F626A65 		.ascii	"object_size\000"
 4699      63745F73 
 4699      697A6500 
 4700              	.LASF118:
 4701 0311 5F426F6F 		.ascii	"_Bool\000"
 4701      6C00
 4702              	.LASF141:
 4703 0317 6F626A65 		.ascii	"objects_factory_t\000"
 4703      6374735F 
 4703      66616374 
 4703      6F72795F 
 4703      7400
 4704              	.LASF116:
 4705 0329 636F6E64 		.ascii	"condition_variable\000"
 4705      6974696F 
 4705      6E5F7661 
 4705      72696162 
 4705      6C6500
 4706              	.LASF91:
 4707 033c 63685F6D 		.ascii	"ch_mutex\000"
 4707      75746578 
 4707      00
 4708              	.LASF14:
 4709 0345 5F5F7569 		.ascii	"__uint64_t\000"
 4709      6E743634 
 4709      5F7400
 4710              	.LASF77:
 4711 0350 41504250 		.ascii	"APBPrescTable\000"
 4711      72657363 
 4711      5461626C 
 4711      6500
 4712              	.LASF103:
 4713 035e 6F66665F 		.ascii	"off_ctx\000"
 4713      63747800 
 4714              	.LASF171:
 4715 0366 63685363 		.ascii	"chSchRescheduleS\000"
 4715      68526573 
 4715      63686564 
 4715      756C6553 
 4715      00
 4716              	.LASF149:
 4717 0377 6368436F 		.ascii	"chCondBroadcast\000"
 4717      6E644272 
 4717      6F616463 
 4717      61737400 
 4718              	.LASF164:
 4719 0387 5F5F7365 		.ascii	"__set_BASEPRI\000"
 4719      745F4241 
 4719      53455052 
 4719      4900
 4720              	.LASF161:
 4721 0395 63685379 		.ascii	"chSysLock\000"
 4721      734C6F63 
 4721      6B00
 4722              	.LASF109:
 4723 039f 6F66665F 		.ascii	"off_flags\000"
 4723      666C6167 
ARM GAS  C:\Users\14122\AppData\Local\Temp\ccQMY3Ij.s 			page 87


 4723      7300
 4724              	.LASF31:
 4725 03a9 7072696F 		.ascii	"prio\000"
 4725      00
 4726              	.LASF157:
 4727 03ae 71756575 		.ascii	"queue_prio_insert\000"
 4727      655F7072 
 4727      696F5F69 
 4727      6E736572 
 4727      7400
 4728              	.LASF138:
 4729 03c0 73656D5F 		.ascii	"sem_pool\000"
 4729      706F6F6C 
 4729      00
 4730              	.LASF93:
 4731 03c9 63686172 		.ascii	"char\000"
 4731      00
 4732              	.LASF155:
 4733 03ce 6368436F 		.ascii	"chCondBroadcastI\000"
 4733      6E644272 
 4733      6F616463 
 4733      61737449 
 4733      00
 4734              	.LASF145:
 4735 03df 6368436F 		.ascii	"chCondWaitTimeout\000"
 4735      6E645761 
 4735      69745469 
 4735      6D656F75 
 4735      7400
 4736              	.LASF45:
 4737 03f1 74687265 		.ascii	"thread_reference_t\000"
 4737      61645F72 
 4737      65666572 
 4737      656E6365 
 4737      5F7400
 4738              	.LASF35:
 4739 0404 77616261 		.ascii	"wabase\000"
 4739      736500
 4740              	.LASF94:
 4741 040b 63685F69 		.ascii	"ch_idle_thread_wa\000"
 4741      646C655F 
 4741      74687265 
 4741      61645F77 
 4741      6100
 4742              	.LASF159:
 4743 041d 71756575 		.ascii	"queue_notempty\000"
 4743      655F6E6F 
 4743      74656D70 
 4743      747900
 4744              	.LASF22:
 4745 042c 74737461 		.ascii	"tstate_t\000"
 4745      74655F74 
 4745      00
 4746              	.LASF16:
 4747 0435 75696E74 		.ascii	"uint8_t\000"
 4747      385F7400 
 4748              	.LASF129:
ARM GAS  C:\Users\14122\AppData\Local\Temp\ccQMY3Ij.s 			page 88


 4749 043d 63685F64 		.ascii	"ch_dyn_element\000"
 4749      796E5F65 
 4749      6C656D65 
 4749      6E7400
 4750              	.LASF40:
 4751 044c 6D736771 		.ascii	"msgqueue\000"
 4751      75657565 
 4751      00
 4752              	.LASF47:
 4753 0455 63685F74 		.ascii	"ch_thread\000"
 4753      68726561 
 4753      6400
 4754              	.LASF131:
 4755 045f 63685F64 		.ascii	"ch_dyn_list\000"
 4755      796E5F6C 
 4755      69737400 
 4756              	.LASF106:
 4757 046b 6F66665F 		.ascii	"off_name\000"
 4757      6E616D65 
 4757      00
 4758              	.LASF64:
 4759 0474 73797374 		.ascii	"system_debug_t\000"
 4759      656D5F64 
 4759      65627567 
 4759      5F7400
 4760              	.LASF1:
 4761 0483 6C6F6E67 		.ascii	"long long int\000"
 4761      206C6F6E 
 4761      6720696E 
 4761      7400
 4762              	.LASF96:
 4763 0491 7A65726F 		.ascii	"zero\000"
 4763      00
 4764              	.LASF25:
 4765 0496 6D73675F 		.ascii	"msg_t\000"
 4765      7400
 4766              	.LASF135:
 4767 049c 6F626A5F 		.ascii	"obj_pool\000"
 4767      706F6F6C 
 4767      00
 4768              	.LASF57:
 4769 04a5 76697274 		.ascii	"virtual_timer_t\000"
 4769      75616C5F 
 4769      74696D65 
 4769      725F7400 
 4770              	.LASF151:
 4771 04b5 6368436F 		.ascii	"chCondSignal\000"
 4771      6E645369 
 4771      676E616C 
 4771      00
 4772              	.LASF158:
 4773 04c2 71756575 		.ascii	"queue_fifo_remove\000"
 4773      655F6669 
 4773      666F5F72 
 4773      656D6F76 
 4773      6500
 4774              	.LASF97:
ARM GAS  C:\Users\14122\AppData\Local\Temp\ccQMY3Ij.s 			page 89


 4775 04d4 73697A65 		.ascii	"size\000"
 4775      00
 4776              	.LASF99:
 4777 04d9 70747273 		.ascii	"ptrsize\000"
 4777      697A6500 
 4778              	.LASF76:
 4779 04e1 41484250 		.ascii	"AHBPrescTable\000"
 4779      72657363 
 4779      5461626C 
 4779      6500
 4780              	.LASF73:
 4781 04ef 73797369 		.ascii	"sysinterval_t\000"
 4781      6E746572 
 4781      76616C5F 
 4781      7400
 4782              	.LASF136:
 4783 04fd 6275665F 		.ascii	"buf_list\000"
 4783      6C697374 
 4783      00
 4784              	.LASF66:
 4785 0506 70616E69 		.ascii	"panic_msg\000"
 4785      635F6D73 
 4785      6700
 4786              	.LASF21:
 4787 0510 746D6F64 		.ascii	"tmode_t\000"
 4787      655F7400 
 4788              	.LASF28:
 4789 0518 75636E74 		.ascii	"ucnt_t\000"
 4789      5F7400
 4790              	.LASF71:
 4791 051f 6D61696E 		.ascii	"mainthread\000"
 4791      74687265 
 4791      616400
 4792              	.LASF2:
 4793 052a 6C6F6E67 		.ascii	"long double\000"
 4793      20646F75 
 4793      626C6500 
 4794              	.LASF17:
 4795 0536 75696E74 		.ascii	"uint16_t\000"
 4795      31365F74 
 4795      00
 4796              	.LASF113:
 4797 053f 63686465 		.ascii	"chdebug_t\000"
 4797      6275675F 
 4797      7400
 4798              	.LASF102:
 4799 0549 6F66665F 		.ascii	"off_prio\000"
 4799      7072696F 
 4799      00
 4800              	.LASF123:
 4801 0552 63685F6D 		.ascii	"ch_memcore\000"
 4801      656D636F 
 4801      726500
 4802              	.LASF7:
 4803 055d 73686F72 		.ascii	"short int\000"
 4803      7420696E 
 4803      7400
ARM GAS  C:\Users\14122\AppData\Local\Temp\ccQMY3Ij.s 			page 90


 4804              	.LASF11:
 4805 0567 6C6F6E67 		.ascii	"long int\000"
 4805      20696E74 
 4805      00
 4806              	.LASF81:
 4807 0570 706F7274 		.ascii	"port_intctx\000"
 4807      5F696E74 
 4807      63747800 
 4808              	.LASF74:
 4809 057c 49544D5F 		.ascii	"ITM_RxBuffer\000"
 4809      52784275 
 4809      66666572 
 4809      00
 4810              	.LASF142:
 4811 0589 63685F66 		.ascii	"ch_factory\000"
 4811      6163746F 
 4811      727900
 4812              	.LASF68:
 4813 0594 63685F73 		.ascii	"ch_system\000"
 4813      79737465 
 4813      6D00
 4814              	.LASF173:
 4815 059e 474E5520 		.ascii	"GNU C11 7.2.1 20170904 (release) [ARM/embedded-7-br"
 4815      43313120 
 4815      372E322E 
 4815      31203230 
 4815      31373039 
 4816 05d1 616E6368 		.ascii	"anch revision 255204] -mcpu=cortex-m3 -mthumb -ggdb"
 4816      20726576 
 4816      6973696F 
 4816      6E203235 
 4816      35323034 
 4817 0604 202D4F32 		.ascii	" -O2 -fomit-frame-pointer -falign-functions=16 -ffu"
 4817      202D666F 
 4817      6D69742D 
 4817      6672616D 
 4817      652D706F 
 4818 0637 6E637469 		.ascii	"nction-sections -fdata-sections -fno-common\000"
 4818      6F6E2D73 
 4818      65637469 
 4818      6F6E7320 
 4818      2D666461 
 4819              	.LASF127:
 4820 0663 70726F76 		.ascii	"provider\000"
 4820      69646572 
 4820      00
 4821              	.LASF63:
 4822 066c 6C617374 		.ascii	"lasttime\000"
 4822      74696D65 
 4822      00
 4823              	.LASF20:
 4824 0675 75696E74 		.ascii	"uint64_t\000"
 4824      36345F74 
 4824      00
 4825              	.LASF69:
 4826 067e 726C6973 		.ascii	"rlist\000"
 4826      7400
ARM GAS  C:\Users\14122\AppData\Local\Temp\ccQMY3Ij.s 			page 91


 4827              	.LASF5:
 4828 0684 5F5F7569 		.ascii	"__uint8_t\000"
 4828      6E74385F 
 4828      7400
 4829              	.LASF119:
 4830 068e 6D656D67 		.ascii	"memgetfunc_t\000"
 4830      65746675 
 4830      6E635F74 
 4830      00
 4831              	.LASF34:
 4832 069b 6E616D65 		.ascii	"name\000"
 4832      00
 4833              	.LASF169:
 4834 06a0 63685363 		.ascii	"chSchGoSleepS\000"
 4834      68476F53 
 4834      6C656570 
 4834      5300
 4835              	.LASF95:
 4836 06ae 6964656E 		.ascii	"identifier\000"
 4836      74696669 
 4836      657200
 4837              	.LASF166:
 4838 06b9 63684D74 		.ascii	"chMtxUnlockS\000"
 4838      78556E6C 
 4838      6F636B53 
 4838      00
 4839              	.LASF146:
 4840 06c6 6368436F 		.ascii	"chCondWaitS\000"
 4840      6E645761 
 4840      69745300 
 4841              	.LASF168:
 4842 06d2 63684D74 		.ascii	"chMtxLockS\000"
 4842      784C6F63 
 4842      6B5300
 4843              	.LASF111:
 4844 06dd 6F66665F 		.ascii	"off_preempt\000"
 4844      70726565 
 4844      6D707400 
 4845              	.LASF156:
 4846 06e9 63685379 		.ascii	"chSysUnlock\000"
 4846      73556E6C 
 4846      6F636B00 
 4847              	.LASF23:
 4848 06f5 74726566 		.ascii	"trefs_t\000"
 4848      735F7400 
 4849              	.LASF13:
 4850 06fd 6C6F6E67 		.ascii	"long unsigned int\000"
 4850      20756E73 
 4850      69676E65 
 4850      6420696E 
 4850      7400
 4851              	.LASF53:
 4852 070f 72656164 		.ascii	"ready_list_t\000"
 4852      795F6C69 
 4852      73745F74 
 4852      00
 4853              	.LASF167:
ARM GAS  C:\Users\14122\AppData\Local\Temp\ccQMY3Ij.s 			page 92


 4854 071c 63685363 		.ascii	"chSchGoSleepTimeoutS\000"
 4854      68476F53 
 4854      6C656570 
 4854      54696D65 
 4854      6F757453 
 4855              	.LASF30:
 4856 0731 71756575 		.ascii	"queue\000"
 4856      6500
 4857              	.LASF18:
 4858 0737 696E7433 		.ascii	"int32_t\000"
 4858      325F7400 
 4859              	.LASF87:
 4860 073f 77747365 		.ascii	"wtsemp\000"
 4860      6D7000
 4861              	.LASF115:
 4862 0746 6D757465 		.ascii	"mutex_t\000"
 4862      785F7400 
 4863              	.LASF32:
 4864 074e 6E657765 		.ascii	"newer\000"
 4864      7200
 4865              	.LASF160:
 4866 0754 71756575 		.ascii	"queue_init\000"
 4866      655F696E 
 4866      697400
 4867              	.LASF6:
 4868 075f 756E7369 		.ascii	"unsigned char\000"
 4868      676E6564 
 4868      20636861 
 4868      7200
 4869              	.LASF12:
 4870 076d 5F5F7569 		.ascii	"__uint32_t\000"
 4870      6E743332 
 4870      5F7400
 4871              	.LASF39:
 4872 0778 77616974 		.ascii	"waiting\000"
 4872      696E6700 
 4873              	.LASF61:
 4874 0780 76697274 		.ascii	"virtual_timers_list_t\000"
 4874      75616C5F 
 4874      74696D65 
 4874      72735F6C 
 4874      6973745F 
 4875              	.LASF143:
 4876 0796 74696D65 		.ascii	"timeout\000"
 4876      6F757400 
 4877              	.LASF130:
 4878 079e 64796E5F 		.ascii	"dyn_element_t\000"
 4878      656C656D 
 4878      656E745F 
 4878      7400
 4879              	.LASF153:
 4880 07ac 63684D74 		.ascii	"chMtxGetNextMutexX\000"
 4880      78476574 
 4880      4E657874 
 4880      4D757465 
 4880      785800
 4881              	.LASF139:
ARM GAS  C:\Users\14122\AppData\Local\Temp\ccQMY3Ij.s 			page 93


 4882 07bf 6D62785F 		.ascii	"mbx_list\000"
 4882      6C697374 
 4882      00
 4883              	.LASF172:
 4884 07c8 63685363 		.ascii	"chSchWakeupS\000"
 4884      6857616B 
 4884      65757053 
 4884      00
 4885              	.LASF36:
 4886 07d5 73746174 		.ascii	"state\000"
 4886      6500
 4887              	.LASF124:
 4888 07db 706F6F6C 		.ascii	"pool_header\000"
 4888      5F686561 
 4888      64657200 
 4889              	.LASF67:
 4890 07e7 63685F73 		.ascii	"ch_system_t\000"
 4890      79737465 
 4890      6D5F7400 
 4891              	.LASF85:
 4892 07f3 77747472 		.ascii	"wttrp\000"
 4892      7000
 4893              	.LASF3:
 4894 07f9 7369676E 		.ascii	"signed char\000"
 4894      65642063 
 4894      68617200 
 4895              	.LASF59:
 4896 0805 64656C74 		.ascii	"delta\000"
 4896      6100
 4897              	.LASF9:
 4898 080b 73686F72 		.ascii	"short unsigned int\000"
 4898      7420756E 
 4898      7369676E 
 4898      65642069 
 4898      6E7400
 4899              	.LASF79:
 4900 081e 73746B61 		.ascii	"stkalign_t\000"
 4900      6C69676E 
 4900      5F7400
 4901              	.LASF110:
 4902 0829 6F66665F 		.ascii	"off_refs\000"
 4902      72656673 
 4902      00
 4903              	.LASF144:
 4904 0832 6368436F 		.ascii	"chCondWaitTimeoutS\000"
 4904      6E645761 
 4904      69745469 
 4904      6D656F75 
 4904      745300
 4905              	.LASF121:
 4906 0845 656E646D 		.ascii	"endmem\000"
 4906      656D00
 4907              	.LASF55:
 4908 084c 63757272 		.ascii	"current\000"
 4908      656E7400 
 4909              	.LASF147:
 4910 0854 5F5F6675 		.ascii	"__func__\000"
ARM GAS  C:\Users\14122\AppData\Local\Temp\ccQMY3Ij.s 			page 94


 4910      6E635F5F 
 4910      00
 4911              	.LASF114:
 4912 085d 63685F64 		.ascii	"ch_debug\000"
 4912      65627567 
 4912      00
 4913              	.LASF162:
 4914 0866 706F7274 		.ascii	"port_unlock\000"
 4914      5F756E6C 
 4914      6F636B00 
 4915              	.LASF126:
 4916 0872 616C6967 		.ascii	"align\000"
 4916      6E00
 4917              	.LASF33:
 4918 0878 6F6C6465 		.ascii	"older\000"
 4918      7200
 4919              	.LASF120:
 4920 087e 6E657874 		.ascii	"nextmem\000"
 4920      6D656D00 
 4921              	.LASF83:
 4922 0886 65786974 		.ascii	"exitcode\000"
 4922      636F6465 
 4922      00
 4923              	.LASF137:
 4924 088f 73656D5F 		.ascii	"sem_list\000"
 4924      6C697374 
 4924      00
 4925              	.LASF44:
 4926 0898 6D706F6F 		.ascii	"mpool\000"
 4926      6C00
 4927              		.ident	"GCC: (GNU Tools for Arm Embedded Processors 7-2017-q4-major) 7.2.1 20170904 (release) [ARM
ARM GAS  C:\Users\14122\AppData\Local\Temp\ccQMY3Ij.s 			page 95


DEFINED SYMBOLS
                            *ABS*:00000000 chcond.c
C:\Users\14122\AppData\Local\Temp\ccQMY3Ij.s:16     .text.chCondObjectInit:00000000 $t
C:\Users\14122\AppData\Local\Temp\ccQMY3Ij.s:24     .text.chCondObjectInit:00000000 chCondObjectInit
C:\Users\14122\AppData\Local\Temp\ccQMY3Ij.s:47     .text.chCondSignal:00000000 $t
C:\Users\14122\AppData\Local\Temp\ccQMY3Ij.s:55     .text.chCondSignal:00000000 chCondSignal
C:\Users\14122\AppData\Local\Temp\ccQMY3Ij.s:174    .text.chCondSignalI:00000000 $t
C:\Users\14122\AppData\Local\Temp\ccQMY3Ij.s:182    .text.chCondSignalI:00000000 chCondSignalI
C:\Users\14122\AppData\Local\Temp\ccQMY3Ij.s:245    .text.chCondBroadcast:00000000 $t
C:\Users\14122\AppData\Local\Temp\ccQMY3Ij.s:253    .text.chCondBroadcast:00000000 chCondBroadcast
C:\Users\14122\AppData\Local\Temp\ccQMY3Ij.s:363    .text.chCondBroadcastI:00000000 $t
C:\Users\14122\AppData\Local\Temp\ccQMY3Ij.s:371    .text.chCondBroadcastI:00000000 chCondBroadcastI
C:\Users\14122\AppData\Local\Temp\ccQMY3Ij.s:438    .text.chCondWaitS:00000000 $t
C:\Users\14122\AppData\Local\Temp\ccQMY3Ij.s:446    .text.chCondWaitS:00000000 chCondWaitS
C:\Users\14122\AppData\Local\Temp\ccQMY3Ij.s:546    .text.chCondWaitS:00000048 $d
C:\Users\14122\AppData\Local\Temp\ccQMY3Ij.s:553    .text.chCondWait:00000000 $t
C:\Users\14122\AppData\Local\Temp\ccQMY3Ij.s:561    .text.chCondWait:00000000 chCondWait
C:\Users\14122\AppData\Local\Temp\ccQMY3Ij.s:617    .text.chCondWaitTimeoutS:00000000 $t
C:\Users\14122\AppData\Local\Temp\ccQMY3Ij.s:625    .text.chCondWaitTimeoutS:00000000 chCondWaitTimeoutS
C:\Users\14122\AppData\Local\Temp\ccQMY3Ij.s:755    .text.chCondWaitTimeoutS:00000054 $d
C:\Users\14122\AppData\Local\Temp\ccQMY3Ij.s:762    .text.chCondWaitTimeout:00000000 $t
C:\Users\14122\AppData\Local\Temp\ccQMY3Ij.s:770    .text.chCondWaitTimeout:00000000 chCondWaitTimeout

UNDEFINED SYMBOLS
chSchWakeupS
chSchReadyI
chSchRescheduleS
chMtxUnlockS
chSchGoSleepS
chMtxLockS
ch
chSchGoSleepTimeoutS
