ARM GAS  C:\Users\14122\AppData\Local\Temp\cc4z3INq.s 			page 1


   1              		.cpu cortex-m3
   2              		.eabi_attribute 20, 1
   3              		.eabi_attribute 21, 1
   4              		.eabi_attribute 23, 3
   5              		.eabi_attribute 24, 1
   6              		.eabi_attribute 25, 1
   7              		.eabi_attribute 26, 1
   8              		.eabi_attribute 30, 2
   9              		.eabi_attribute 34, 1
  10              		.eabi_attribute 18, 4
  11              		.file	"chevents.c"
  12              		.text
  13              	.Ltext0:
  14              		.cfi_sections	.debug_frame
  15              		.section	.text.chEvtRegisterMaskWithFlags,"ax",%progbits
  16              		.align	1
  17              		.p2align 4,,15
  18              		.global	chEvtRegisterMaskWithFlags
  19              		.syntax unified
  20              		.thumb
  21              		.thumb_func
  22              		.fpu softvfp
  23              		.type	chEvtRegisterMaskWithFlags, %function
  24              	chEvtRegisterMaskWithFlags:
  25              	.LFB220:
  26              		.file 1 ".//os/rt/src/chevents.c"
  27              		.loc 1 106 0
  28              		.cfi_startproc
  29              		@ args = 0, pretend = 0, frame = 0
  30              		@ frame_needed = 0, uses_anonymous_args = 0
  31              		@ link register save eliminated.
  32              	.LVL0:
  33 0000 70B4     		push	{r4, r5, r6}
  34              		.cfi_def_cfa_offset 12
  35              		.cfi_offset 4, -12
  36              		.cfi_offset 5, -8
  37              		.cfi_offset 6, -4
  38              	.LBB178:
  39              	.LBB179:
  40              	.LBB180:
  41              	.LBB181:
  42              		.file 2 ".//os/common/ext/ARM/CMSIS/Core/Include/cmsis_gcc.h"
  43              		.loc 2 493 0
  44 0002 2024     		movs	r4, #32
  45              		.syntax unified
  46              	@ 493 ".//os/common/ext/ARM/CMSIS/Core/Include/cmsis_gcc.h" 1
  47 0004 84F31188 		MSR basepri, r4
  48              	@ 0 "" 2
  49              	.LVL1:
  50              		.thumb
  51              		.syntax unified
  52              	.LBE181:
  53              	.LBE180:
  54              	.LBE179:
  55              	.LBE178:
  56              		.loc 1 115 0
  57 0008 0024     		movs	r4, #0
ARM GAS  C:\Users\14122\AppData\Local\Temp\cc4z3INq.s 			page 2


  58              		.loc 1 113 0
  59 000a 064D     		ldr	r5, .L4
  60              		.loc 1 111 0
  61 000c 0668     		ldr	r6, [r0]
  62              		.loc 1 113 0
  63 000e AD69     		ldr	r5, [r5, #24]
  64              		.loc 1 111 0
  65 0010 0E60     		str	r6, [r1]
  66              		.loc 1 112 0
  67 0012 0160     		str	r1, [r0]
  68              		.loc 1 114 0
  69 0014 C1E90152 		strd	r5, r2, [r1, #4]
  70              		.loc 1 115 0
  71 0018 C1E90343 		strd	r4, r3, [r1, #12]
  72              	.LBB182:
  73              	.LBB183:
  74              	.LBB184:
  75              	.LBB185:
  76              	.LBB186:
  77              		.loc 2 493 0
  78              		.syntax unified
  79              	@ 493 ".//os/common/ext/ARM/CMSIS/Core/Include/cmsis_gcc.h" 1
  80 001c 84F31188 		MSR basepri, r4
  81              	@ 0 "" 2
  82              		.thumb
  83              		.syntax unified
  84              	.LBE186:
  85              	.LBE185:
  86              	.LBE184:
  87              	.LBE183:
  88              	.LBE182:
  89              		.loc 1 118 0
  90 0020 70BC     		pop	{r4, r5, r6}
  91              		.cfi_restore 6
  92              		.cfi_restore 5
  93              		.cfi_restore 4
  94              		.cfi_def_cfa_offset 0
  95 0022 7047     		bx	lr
  96              	.L5:
  97              		.align	2
  98              	.L4:
  99 0024 00000000 		.word	ch
 100              		.cfi_endproc
 101              	.LFE220:
 102              		.size	chEvtRegisterMaskWithFlags, .-chEvtRegisterMaskWithFlags
 103              		.section	.text.chEvtUnregister,"ax",%progbits
 104              		.align	1
 105              		.p2align 4,,15
 106              		.global	chEvtUnregister
 107              		.syntax unified
 108              		.thumb
 109              		.thumb_func
 110              		.fpu softvfp
 111              		.type	chEvtUnregister, %function
 112              	chEvtUnregister:
 113              	.LFB221:
 114              		.loc 1 133 0
ARM GAS  C:\Users\14122\AppData\Local\Temp\cc4z3INq.s 			page 3


 115              		.cfi_startproc
 116              		@ args = 0, pretend = 0, frame = 0
 117              		@ frame_needed = 0, uses_anonymous_args = 0
 118              		@ link register save eliminated.
 119              	.LVL2:
 120              	.LBB187:
 121              	.LBB188:
 122              	.LBB189:
 123              	.LBB190:
 124              		.loc 2 493 0
 125 0000 2023     		movs	r3, #32
 126              		.syntax unified
 127              	@ 493 ".//os/common/ext/ARM/CMSIS/Core/Include/cmsis_gcc.h" 1
 128 0002 83F31188 		MSR basepri, r3
 129              	@ 0 "" 2
 130              	.LVL3:
 131              		.thumb
 132              		.syntax unified
 133              	.LBE190:
 134              	.LBE189:
 135              	.LBE188:
 136              	.LBE187:
 137              		.loc 1 139 0
 138 0006 0246     		mov	r2, r0
 139 0008 02E0     		b	.L7
 140              	.LVL4:
 141              	.L9:
 142              		.loc 1 145 0
 143 000a 8B42     		cmp	r3, r1
 144 000c 07D0     		beq	.L11
 145 000e 1A46     		mov	r2, r3
 146              	.LVL5:
 147              	.L7:
 148              		.loc 1 143 0
 149 0010 1368     		ldr	r3, [r2]
 150 0012 8342     		cmp	r3, r0
 151 0014 F9D1     		bne	.L9
 152              	.LVL6:
 153              	.LBB191:
 154              	.LBB192:
 155              	.LBB193:
 156              	.LBB194:
 157              	.LBB195:
 158              		.loc 2 493 0
 159 0016 0023     		movs	r3, #0
 160              		.syntax unified
 161              	@ 493 ".//os/common/ext/ARM/CMSIS/Core/Include/cmsis_gcc.h" 1
 162 0018 83F31188 		MSR basepri, r3
 163              	@ 0 "" 2
 164              	.LVL7:
 165              		.thumb
 166              		.syntax unified
 167              	.LBE195:
 168              	.LBE194:
 169              	.LBE193:
 170              	.LBE192:
 171              	.LBE191:
ARM GAS  C:\Users\14122\AppData\Local\Temp\cc4z3INq.s 			page 4


 172              		.loc 1 152 0
 173 001c 7047     		bx	lr
 174              	.L11:
 175              		.loc 1 146 0
 176 001e 0B68     		ldr	r3, [r1]
 177 0020 1360     		str	r3, [r2]
 178              	.LVL8:
 179              	.LBB200:
 180              	.LBB199:
 181              	.LBB198:
 182              	.LBB197:
 183              	.LBB196:
 184              		.loc 2 493 0
 185 0022 0023     		movs	r3, #0
 186              		.syntax unified
 187              	@ 493 ".//os/common/ext/ARM/CMSIS/Core/Include/cmsis_gcc.h" 1
 188 0024 83F31188 		MSR basepri, r3
 189              	@ 0 "" 2
 190              	.LVL9:
 191              		.thumb
 192              		.syntax unified
 193              	.LBE196:
 194              	.LBE197:
 195              	.LBE198:
 196              	.LBE199:
 197              	.LBE200:
 198              		.loc 1 152 0
 199 0028 7047     		bx	lr
 200              		.cfi_endproc
 201              	.LFE221:
 202              		.size	chEvtUnregister, .-chEvtUnregister
 203 002a 00BF     		.section	.text.chEvtGetAndClearEventsI,"ax",%progbits
 204              		.align	1
 205              		.p2align 4,,15
 206              		.global	chEvtGetAndClearEventsI
 207              		.syntax unified
 208              		.thumb
 209              		.thumb_func
 210              		.fpu softvfp
 211              		.type	chEvtGetAndClearEventsI, %function
 212              	chEvtGetAndClearEventsI:
 213              	.LFB222:
 214              		.loc 1 162 0
 215              		.cfi_startproc
 216              		@ args = 0, pretend = 0, frame = 0
 217              		@ frame_needed = 0, uses_anonymous_args = 0
 218              		@ link register save eliminated.
 219              	.LVL10:
 220              		.loc 1 165 0
 221 0000 034B     		ldr	r3, .L13
 222 0002 9A69     		ldr	r2, [r3, #24]
 223 0004 536B     		ldr	r3, [r2, #52]
 224              	.LVL11:
 225              		.loc 1 166 0
 226 0006 23EA0001 		bic	r1, r3, r0
 227 000a 5163     		str	r1, [r2, #52]
 228              		.loc 1 169 0
ARM GAS  C:\Users\14122\AppData\Local\Temp\cc4z3INq.s 			page 5


 229 000c 1840     		ands	r0, r0, r3
 230              	.LVL12:
 231 000e 7047     		bx	lr
 232              	.L14:
 233              		.align	2
 234              	.L13:
 235 0010 00000000 		.word	ch
 236              		.cfi_endproc
 237              	.LFE222:
 238              		.size	chEvtGetAndClearEventsI, .-chEvtGetAndClearEventsI
 239              		.section	.text.chEvtGetAndClearEvents,"ax",%progbits
 240              		.align	1
 241              		.p2align 4,,15
 242              		.global	chEvtGetAndClearEvents
 243              		.syntax unified
 244              		.thumb
 245              		.thumb_func
 246              		.fpu softvfp
 247              		.type	chEvtGetAndClearEvents, %function
 248              	chEvtGetAndClearEvents:
 249              	.LFB223:
 250              		.loc 1 179 0
 251              		.cfi_startproc
 252              		@ args = 0, pretend = 0, frame = 0
 253              		@ frame_needed = 0, uses_anonymous_args = 0
 254              		@ link register save eliminated.
 255              	.LVL13:
 256 0000 10B4     		push	{r4}
 257              		.cfi_def_cfa_offset 4
 258              		.cfi_offset 4, -4
 259              	.LBB201:
 260              	.LBB202:
 261              	.LBB203:
 262              	.LBB204:
 263              		.loc 2 493 0
 264 0002 2023     		movs	r3, #32
 265              		.syntax unified
 266              	@ 493 ".//os/common/ext/ARM/CMSIS/Core/Include/cmsis_gcc.h" 1
 267 0004 83F31188 		MSR basepri, r3
 268              	@ 0 "" 2
 269              	.LVL14:
 270              		.thumb
 271              		.syntax unified
 272              	.LBE204:
 273              	.LBE203:
 274              	.LBE202:
 275              	.LBE201:
 276              	.LBB205:
 277              	.LBB206:
 278              		.loc 1 165 0
 279 0008 054B     		ldr	r3, .L17
 280              	.LBE206:
 281              	.LBE205:
 282              	.LBB208:
 283              	.LBB209:
 284              	.LBB210:
 285              	.LBB211:
ARM GAS  C:\Users\14122\AppData\Local\Temp\cc4z3INq.s 			page 6


 286              	.LBB212:
 287              		.loc 2 493 0
 288 000a 0021     		movs	r1, #0
 289              	.LBE212:
 290              	.LBE211:
 291              	.LBE210:
 292              	.LBE209:
 293              	.LBE208:
 294              	.LBB217:
 295              	.LBB207:
 296              		.loc 1 165 0
 297 000c 9A69     		ldr	r2, [r3, #24]
 298 000e 536B     		ldr	r3, [r2, #52]
 299              	.LVL15:
 300              		.loc 1 166 0
 301 0010 23EA0004 		bic	r4, r3, r0
 302 0014 5463     		str	r4, [r2, #52]
 303              	.LVL16:
 304              	.LBE207:
 305              	.LBE217:
 306              	.LBB218:
 307              	.LBB216:
 308              	.LBB215:
 309              	.LBB214:
 310              	.LBB213:
 311              		.loc 2 493 0
 312              		.syntax unified
 313              	@ 493 ".//os/common/ext/ARM/CMSIS/Core/Include/cmsis_gcc.h" 1
 314 0016 81F31188 		MSR basepri, r1
 315              	@ 0 "" 2
 316              	.LVL17:
 317              		.thumb
 318              		.syntax unified
 319              	.LBE213:
 320              	.LBE214:
 321              	.LBE215:
 322              	.LBE216:
 323              	.LBE218:
 324              		.loc 1 187 0
 325 001a 1840     		ands	r0, r0, r3
 326              	.LVL18:
 327 001c 10BC     		pop	{r4}
 328              		.cfi_restore 4
 329              		.cfi_def_cfa_offset 0
 330 001e 7047     		bx	lr
 331              	.L18:
 332              		.align	2
 333              	.L17:
 334 0020 00000000 		.word	ch
 335              		.cfi_endproc
 336              	.LFE223:
 337              		.size	chEvtGetAndClearEvents, .-chEvtGetAndClearEvents
 338              		.section	.text.chEvtAddEvents,"ax",%progbits
 339              		.align	1
 340              		.p2align 4,,15
 341              		.global	chEvtAddEvents
 342              		.syntax unified
ARM GAS  C:\Users\14122\AppData\Local\Temp\cc4z3INq.s 			page 7


 343              		.thumb
 344              		.thumb_func
 345              		.fpu softvfp
 346              		.type	chEvtAddEvents, %function
 347              	chEvtAddEvents:
 348              	.LFB224:
 349              		.loc 1 198 0
 350              		.cfi_startproc
 351              		@ args = 0, pretend = 0, frame = 0
 352              		@ frame_needed = 0, uses_anonymous_args = 0
 353              		@ link register save eliminated.
 354              	.LVL19:
 355              	.LBB219:
 356              	.LBB220:
 357              	.LBB221:
 358              	.LBB222:
 359              		.loc 2 493 0
 360 0000 2023     		movs	r3, #32
 361              		.syntax unified
 362              	@ 493 ".//os/common/ext/ARM/CMSIS/Core/Include/cmsis_gcc.h" 1
 363 0002 83F31188 		MSR basepri, r3
 364              	@ 0 "" 2
 365              	.LVL20:
 366              		.thumb
 367              		.syntax unified
 368              	.LBE222:
 369              	.LBE221:
 370              	.LBE220:
 371              	.LBE219:
 372              	.LBB223:
 373              	.LBB224:
 374              		.file 3 ".//os/rt/include/chevents.h"
 375              		.loc 3 271 0
 376 0006 044B     		ldr	r3, .L20
 377              	.LBE224:
 378              	.LBE223:
 379              	.LBB226:
 380              	.LBB227:
 381              	.LBB228:
 382              	.LBB229:
 383              	.LBB230:
 384              		.loc 2 493 0
 385 0008 0022     		movs	r2, #0
 386              	.LBE230:
 387              	.LBE229:
 388              	.LBE228:
 389              	.LBE227:
 390              	.LBE226:
 391              	.LBB235:
 392              	.LBB225:
 393              		.loc 3 271 0
 394 000a 9B69     		ldr	r3, [r3, #24]
 395 000c 596B     		ldr	r1, [r3, #52]
 396 000e 0843     		orrs	r0, r0, r1
 397              	.LVL21:
 398 0010 5863     		str	r0, [r3, #52]
 399              	.LVL22:
ARM GAS  C:\Users\14122\AppData\Local\Temp\cc4z3INq.s 			page 8


 400              	.LBE225:
 401              	.LBE235:
 402              	.LBB236:
 403              	.LBB234:
 404              	.LBB233:
 405              	.LBB232:
 406              	.LBB231:
 407              		.loc 2 493 0
 408              		.syntax unified
 409              	@ 493 ".//os/common/ext/ARM/CMSIS/Core/Include/cmsis_gcc.h" 1
 410 0012 82F31188 		MSR basepri, r2
 411              	@ 0 "" 2
 412              	.LVL23:
 413              		.thumb
 414              		.syntax unified
 415              	.LBE231:
 416              	.LBE232:
 417              	.LBE233:
 418              	.LBE234:
 419              	.LBE236:
 420              		.loc 1 206 0
 421 0016 7047     		bx	lr
 422              	.L21:
 423              		.align	2
 424              	.L20:
 425 0018 00000000 		.word	ch
 426              		.cfi_endproc
 427              	.LFE224:
 428              		.size	chEvtAddEvents, .-chEvtAddEvents
 429              		.section	.text.chEvtGetAndClearFlags,"ax",%progbits
 430              		.align	1
 431              		.p2align 4,,15
 432              		.global	chEvtGetAndClearFlags
 433              		.syntax unified
 434              		.thumb
 435              		.thumb_func
 436              		.fpu softvfp
 437              		.type	chEvtGetAndClearFlags, %function
 438              	chEvtGetAndClearFlags:
 439              	.LFB226:
 440              		.loc 1 257 0
 441              		.cfi_startproc
 442              		@ args = 0, pretend = 0, frame = 0
 443              		@ frame_needed = 0, uses_anonymous_args = 0
 444              		@ link register save eliminated.
 445              	.LVL24:
 446              		.loc 1 257 0
 447 0000 0246     		mov	r2, r0
 448              	.LBB237:
 449              	.LBB238:
 450              	.LBB239:
 451              	.LBB240:
 452              		.loc 2 493 0
 453 0002 2023     		movs	r3, #32
 454              		.syntax unified
 455              	@ 493 ".//os/common/ext/ARM/CMSIS/Core/Include/cmsis_gcc.h" 1
 456 0004 83F31188 		MSR basepri, r3
ARM GAS  C:\Users\14122\AppData\Local\Temp\cc4z3INq.s 			page 9


 457              	@ 0 "" 2
 458              	.LVL25:
 459              		.thumb
 460              		.syntax unified
 461              	.LBE240:
 462              	.LBE239:
 463              	.LBE238:
 464              	.LBE237:
 465              		.loc 1 262 0
 466 0008 0023     		movs	r3, #0
 467              		.loc 1 261 0
 468 000a C068     		ldr	r0, [r0, #12]
 469              	.LVL26:
 470              		.loc 1 262 0
 471 000c D360     		str	r3, [r2, #12]
 472              	.LVL27:
 473              	.LBB241:
 474              	.LBB242:
 475              	.LBB243:
 476              	.LBB244:
 477              	.LBB245:
 478              		.loc 2 493 0
 479              		.syntax unified
 480              	@ 493 ".//os/common/ext/ARM/CMSIS/Core/Include/cmsis_gcc.h" 1
 481 000e 83F31188 		MSR basepri, r3
 482              	@ 0 "" 2
 483              	.LVL28:
 484              		.thumb
 485              		.syntax unified
 486              	.LBE245:
 487              	.LBE244:
 488              	.LBE243:
 489              	.LBE242:
 490              	.LBE241:
 491              		.loc 1 266 0
 492 0012 7047     		bx	lr
 493              		.cfi_endproc
 494              	.LFE226:
 495              		.size	chEvtGetAndClearFlags, .-chEvtGetAndClearFlags
 496              		.section	.text.chEvtSignalI,"ax",%progbits
 497              		.align	1
 498              		.p2align 4,,15
 499              		.global	chEvtSignalI
 500              		.syntax unified
 501              		.thumb
 502              		.thumb_func
 503              		.fpu softvfp
 504              		.type	chEvtSignalI, %function
 505              	chEvtSignalI:
 506              	.LFB228:
 507              		.loc 1 298 0
 508              		.cfi_startproc
 509              		@ args = 0, pretend = 0, frame = 0
 510              		@ frame_needed = 0, uses_anonymous_args = 0
 511              		@ link register save eliminated.
 512              	.LVL29:
 513              		.loc 1 298 0
ARM GAS  C:\Users\14122\AppData\Local\Temp\cc4z3INq.s 			page 10


 514 0000 0346     		mov	r3, r0
 515              		.loc 1 303 0
 516 0002 426B     		ldr	r2, [r0, #52]
 517              		.loc 1 305 0
 518 0004 90F82000 		ldrb	r0, [r0, #32]	@ zero_extendqisi2
 519              	.LVL30:
 520              		.loc 1 303 0
 521 0008 1143     		orrs	r1, r1, r2
 522              	.LVL31:
 523              		.loc 1 305 0
 524 000a 0A28     		cmp	r0, #10
 525              		.loc 1 303 0
 526 000c 5963     		str	r1, [r3, #52]
 527              		.loc 1 305 0
 528 000e 0AD0     		beq	.L27
 529              		.loc 1 306 0
 530 0010 0B28     		cmp	r0, #11
 531 0012 00D0     		beq	.L28
 532              	.L23:
 533              		.loc 1 312 0
 534 0014 7047     		bx	lr
 535              	.L28:
 536              		.loc 1 308 0
 537 0016 5A6A     		ldr	r2, [r3, #36]
 538              		.loc 1 307 0
 539 0018 8A43     		bics	r2, r2, r1
 540 001a FBD1     		bne	.L23
 541              	.L25:
 542              		.loc 1 309 0
 543 001c 0022     		movs	r2, #0
 544              		.loc 1 310 0
 545 001e 1846     		mov	r0, r3
 546              		.loc 1 309 0
 547 0020 5A62     		str	r2, [r3, #36]
 548              		.loc 1 310 0
 549 0022 FFF7FEBF 		b	chSchReadyI
 550              	.LVL32:
 551              	.L27:
 552              		.loc 1 306 0 discriminator 1
 553 0026 5A6A     		ldr	r2, [r3, #36]
 554              		.loc 1 305 0 discriminator 1
 555 0028 1142     		tst	r1, r2
 556 002a F7D1     		bne	.L25
 557 002c 7047     		bx	lr
 558              		.cfi_endproc
 559              	.LFE228:
 560              		.size	chEvtSignalI, .-chEvtSignalI
 561 002e 00BF     		.section	.text.chEvtBroadcastFlagsI,"ax",%progbits
 562              		.align	1
 563              		.p2align 4,,15
 564              		.global	chEvtBroadcastFlagsI
 565              		.syntax unified
 566              		.thumb
 567              		.thumb_func
 568              		.fpu softvfp
 569              		.type	chEvtBroadcastFlagsI, %function
 570              	chEvtBroadcastFlagsI:
ARM GAS  C:\Users\14122\AppData\Local\Temp\cc4z3INq.s 			page 11


 571              	.LFB225:
 572              		.loc 1 225 0
 573              		.cfi_startproc
 574              		@ args = 0, pretend = 0, frame = 0
 575              		@ frame_needed = 0, uses_anonymous_args = 0
 576              	.LVL33:
 577 0000 70B5     		push	{r4, r5, r6, lr}
 578              		.cfi_def_cfa_offset 16
 579              		.cfi_offset 4, -16
 580              		.cfi_offset 5, -12
 581              		.cfi_offset 6, -8
 582              		.cfi_offset 14, -4
 583              		.loc 1 231 0
 584 0002 0468     		ldr	r4, [r0]
 585              	.LVL34:
 586              		.loc 1 233 0
 587 0004 A042     		cmp	r0, r4
 588 0006 0FD0     		beq	.L29
 589 0008 0646     		mov	r6, r0
 590 000a 0D46     		mov	r5, r1
 591              	.LVL35:
 592              	.L33:
 593              		.loc 1 235 0
 594 000c E368     		ldr	r3, [r4, #12]
 595 000e 2B43     		orrs	r3, r3, r5
 596 0010 E360     		str	r3, [r4, #12]
 597              		.loc 1 238 0
 598 0012 15B1     		cbz	r5, .L31
 599              		.loc 1 239 0 discriminator 1
 600 0014 2269     		ldr	r2, [r4, #16]
 601              		.loc 1 238 0 discriminator 1
 602 0016 1342     		tst	r3, r2
 603 0018 03D0     		beq	.L32
 604              	.L31:
 605              		.loc 1 240 0
 606 001a D4E90101 		ldrd	r0, r1, [r4, #4]
 607 001e FFF7FEFF 		bl	chEvtSignalI
 608              	.LVL36:
 609              	.L32:
 610              		.loc 1 242 0
 611 0022 2468     		ldr	r4, [r4]
 612              	.LVL37:
 613              		.loc 1 233 0
 614 0024 A642     		cmp	r6, r4
 615 0026 F1D1     		bne	.L33
 616              	.LVL38:
 617              	.L29:
 618              		.loc 1 244 0
 619 0028 70BD     		pop	{r4, r5, r6, pc}
 620              		.cfi_endproc
 621              	.LFE225:
 622              		.size	chEvtBroadcastFlagsI, .-chEvtBroadcastFlagsI
 623 002a 00BF     		.section	.text.chEvtSignal,"ax",%progbits
 624              		.align	1
 625              		.p2align 4,,15
 626              		.global	chEvtSignal
 627              		.syntax unified
ARM GAS  C:\Users\14122\AppData\Local\Temp\cc4z3INq.s 			page 12


 628              		.thumb
 629              		.thumb_func
 630              		.fpu softvfp
 631              		.type	chEvtSignal, %function
 632              	chEvtSignal:
 633              	.LFB227:
 634              		.loc 1 276 0
 635              		.cfi_startproc
 636              		@ args = 0, pretend = 0, frame = 0
 637              		@ frame_needed = 0, uses_anonymous_args = 0
 638              	.LVL39:
 639 0000 08B5     		push	{r3, lr}
 640              		.cfi_def_cfa_offset 8
 641              		.cfi_offset 3, -8
 642              		.cfi_offset 14, -4
 643              	.LBB246:
 644              	.LBB247:
 645              	.LBB248:
 646              	.LBB249:
 647              		.loc 2 493 0
 648 0002 2023     		movs	r3, #32
 649              		.syntax unified
 650              	@ 493 ".//os/common/ext/ARM/CMSIS/Core/Include/cmsis_gcc.h" 1
 651 0004 83F31188 		MSR basepri, r3
 652              	@ 0 "" 2
 653              	.LVL40:
 654              		.thumb
 655              		.syntax unified
 656              	.LBE249:
 657              	.LBE248:
 658              	.LBE247:
 659              	.LBE246:
 660              		.loc 1 281 0
 661 0008 FFF7FEFF 		bl	chEvtSignalI
 662              	.LVL41:
 663              		.loc 1 282 0
 664 000c FFF7FEFF 		bl	chSchRescheduleS
 665              	.LVL42:
 666              	.LBB250:
 667              	.LBB251:
 668              	.LBB252:
 669              	.LBB253:
 670              	.LBB254:
 671              		.loc 2 493 0
 672 0010 0023     		movs	r3, #0
 673              		.syntax unified
 674              	@ 493 ".//os/common/ext/ARM/CMSIS/Core/Include/cmsis_gcc.h" 1
 675 0012 83F31188 		MSR basepri, r3
 676              	@ 0 "" 2
 677              	.LVL43:
 678              		.thumb
 679              		.syntax unified
 680              	.LBE254:
 681              	.LBE253:
 682              	.LBE252:
 683              	.LBE251:
 684              	.LBE250:
ARM GAS  C:\Users\14122\AppData\Local\Temp\cc4z3INq.s 			page 13


 685              		.loc 1 284 0
 686 0016 08BD     		pop	{r3, pc}
 687              		.cfi_endproc
 688              	.LFE227:
 689              		.size	chEvtSignal, .-chEvtSignal
 690              		.section	.text.chEvtBroadcastFlags,"ax",%progbits
 691              		.align	1
 692              		.p2align 4,,15
 693              		.global	chEvtBroadcastFlags
 694              		.syntax unified
 695              		.thumb
 696              		.thumb_func
 697              		.fpu softvfp
 698              		.type	chEvtBroadcastFlags, %function
 699              	chEvtBroadcastFlags:
 700              	.LFB229:
 701              		.loc 1 327 0
 702              		.cfi_startproc
 703              		@ args = 0, pretend = 0, frame = 0
 704              		@ frame_needed = 0, uses_anonymous_args = 0
 705              	.LVL44:
 706 0000 08B5     		push	{r3, lr}
 707              		.cfi_def_cfa_offset 8
 708              		.cfi_offset 3, -8
 709              		.cfi_offset 14, -4
 710              	.LBB255:
 711              	.LBB256:
 712              	.LBB257:
 713              	.LBB258:
 714              		.loc 2 493 0
 715 0002 2023     		movs	r3, #32
 716              		.syntax unified
 717              	@ 493 ".//os/common/ext/ARM/CMSIS/Core/Include/cmsis_gcc.h" 1
 718 0004 83F31188 		MSR basepri, r3
 719              	@ 0 "" 2
 720              	.LVL45:
 721              		.thumb
 722              		.syntax unified
 723              	.LBE258:
 724              	.LBE257:
 725              	.LBE256:
 726              	.LBE255:
 727              		.loc 1 330 0
 728 0008 FFF7FEFF 		bl	chEvtBroadcastFlagsI
 729              	.LVL46:
 730              		.loc 1 331 0
 731 000c FFF7FEFF 		bl	chSchRescheduleS
 732              	.LVL47:
 733              	.LBB259:
 734              	.LBB260:
 735              	.LBB261:
 736              	.LBB262:
 737              	.LBB263:
 738              		.loc 2 493 0
 739 0010 0023     		movs	r3, #0
 740              		.syntax unified
 741              	@ 493 ".//os/common/ext/ARM/CMSIS/Core/Include/cmsis_gcc.h" 1
ARM GAS  C:\Users\14122\AppData\Local\Temp\cc4z3INq.s 			page 14


 742 0012 83F31188 		MSR basepri, r3
 743              	@ 0 "" 2
 744              	.LVL48:
 745              		.thumb
 746              		.syntax unified
 747              	.LBE263:
 748              	.LBE262:
 749              	.LBE261:
 750              	.LBE260:
 751              	.LBE259:
 752              		.loc 1 333 0
 753 0016 08BD     		pop	{r3, pc}
 754              		.cfi_endproc
 755              	.LFE229:
 756              		.size	chEvtBroadcastFlags, .-chEvtBroadcastFlags
 757              		.section	.text.chEvtGetAndClearFlagsI,"ax",%progbits
 758              		.align	1
 759              		.p2align 4,,15
 760              		.global	chEvtGetAndClearFlagsI
 761              		.syntax unified
 762              		.thumb
 763              		.thumb_func
 764              		.fpu softvfp
 765              		.type	chEvtGetAndClearFlagsI, %function
 766              	chEvtGetAndClearFlagsI:
 767              	.LFB230:
 768              		.loc 1 346 0
 769              		.cfi_startproc
 770              		@ args = 0, pretend = 0, frame = 0
 771              		@ frame_needed = 0, uses_anonymous_args = 0
 772              		@ link register save eliminated.
 773              	.LVL49:
 774              		.loc 1 346 0
 775 0000 0346     		mov	r3, r0
 776              		.loc 1 350 0
 777 0002 0022     		movs	r2, #0
 778              		.loc 1 349 0
 779 0004 C068     		ldr	r0, [r0, #12]
 780              	.LVL50:
 781              		.loc 1 350 0
 782 0006 DA60     		str	r2, [r3, #12]
 783              		.loc 1 353 0
 784 0008 7047     		bx	lr
 785              		.cfi_endproc
 786              	.LFE230:
 787              		.size	chEvtGetAndClearFlagsI, .-chEvtGetAndClearFlagsI
 788 000a 00BF     		.section	.text.chEvtDispatch,"ax",%progbits
 789              		.align	1
 790              		.p2align 4,,15
 791              		.global	chEvtDispatch
 792              		.syntax unified
 793              		.thumb
 794              		.thumb_func
 795              		.fpu softvfp
 796              		.type	chEvtDispatch, %function
 797              	chEvtDispatch:
 798              	.LFB231:
ARM GAS  C:\Users\14122\AppData\Local\Temp\cc4z3INq.s 			page 15


 799              		.loc 1 364 0
 800              		.cfi_startproc
 801              		@ args = 0, pretend = 0, frame = 0
 802              		@ frame_needed = 0, uses_anonymous_args = 0
 803              	.LVL51:
 804              		.loc 1 370 0
 805 0000 B1B1     		cbz	r1, .L54
 806              		.loc 1 364 0
 807 0002 F8B5     		push	{r3, r4, r5, r6, r7, lr}
 808              		.cfi_def_cfa_offset 24
 809              		.cfi_offset 3, -24
 810              		.cfi_offset 4, -20
 811              		.cfi_offset 5, -16
 812              		.cfi_offset 6, -12
 813              		.cfi_offset 7, -8
 814              		.cfi_offset 14, -4
 815 0004 0746     		mov	r7, r0
 816 0006 0D46     		mov	r5, r1
 817              		.loc 1 369 0
 818 0008 0024     		movs	r4, #0
 819              		.loc 1 373 0
 820 000a 0126     		movs	r6, #1
 821              	.LVL52:
 822              	.L48:
 823              		.loc 1 371 0
 824 000c 25FA04F3 		lsr	r3, r5, r4
 825 0010 DB07     		lsls	r3, r3, #31
 826              		.loc 1 373 0
 827 0012 06FA04F2 		lsl	r2, r6, r4
 828              		.loc 1 371 0
 829 0016 09D5     		bpl	.L50
 830              		.loc 1 374 0
 831 0018 57F82430 		ldr	r3, [r7, r4, lsl #2]
 832 001c 2046     		mov	r0, r4
 833              		.loc 1 373 0
 834 001e 25EA0205 		bic	r5, r5, r2
 835              	.LVL53:
 836              		.loc 1 376 0
 837 0022 0134     		adds	r4, r4, #1
 838              	.LVL54:
 839              		.loc 1 374 0
 840 0024 9847     		blx	r3
 841              	.LVL55:
 842              		.loc 1 370 0
 843 0026 002D     		cmp	r5, #0
 844 0028 F0D1     		bne	.L48
 845              		.loc 1 378 0
 846 002a F8BD     		pop	{r3, r4, r5, r6, r7, pc}
 847              	.LVL56:
 848              	.L50:
 849              		.loc 1 376 0
 850 002c 0134     		adds	r4, r4, #1
 851              	.LVL57:
 852 002e EDE7     		b	.L48
 853              	.LVL58:
 854              	.L54:
 855              		.cfi_def_cfa_offset 0
ARM GAS  C:\Users\14122\AppData\Local\Temp\cc4z3INq.s 			page 16


 856              		.cfi_restore 3
 857              		.cfi_restore 4
 858              		.cfi_restore 5
 859              		.cfi_restore 6
 860              		.cfi_restore 7
 861              		.cfi_restore 14
 862 0030 7047     		bx	lr
 863              		.cfi_endproc
 864              	.LFE231:
 865              		.size	chEvtDispatch, .-chEvtDispatch
 866 0032 00BF     		.section	.text.chEvtWaitOne,"ax",%progbits
 867              		.align	1
 868              		.p2align 4,,15
 869              		.global	chEvtWaitOne
 870              		.syntax unified
 871              		.thumb
 872              		.thumb_func
 873              		.fpu softvfp
 874              		.type	chEvtWaitOne, %function
 875              	chEvtWaitOne:
 876              	.LFB232:
 877              		.loc 1 399 0
 878              		.cfi_startproc
 879              		@ args = 0, pretend = 0, frame = 0
 880              		@ frame_needed = 0, uses_anonymous_args = 0
 881              	.LVL59:
 882 0000 38B5     		push	{r3, r4, r5, lr}
 883              		.cfi_def_cfa_offset 16
 884              		.cfi_offset 3, -16
 885              		.cfi_offset 4, -12
 886              		.cfi_offset 5, -8
 887              		.cfi_offset 14, -4
 888              		.loc 1 400 0
 889 0002 0C4B     		ldr	r3, .L60
 890 0004 9D69     		ldr	r5, [r3, #24]
 891              	.LVL60:
 892              	.LBB264:
 893              	.LBB265:
 894              	.LBB266:
 895              	.LBB267:
 896              		.loc 2 493 0
 897 0006 2023     		movs	r3, #32
 898              		.syntax unified
 899              	@ 493 ".//os/common/ext/ARM/CMSIS/Core/Include/cmsis_gcc.h" 1
 900 0008 83F31188 		MSR basepri, r3
 901              	@ 0 "" 2
 902              	.LVL61:
 903              		.thumb
 904              		.syntax unified
 905              	.LBE267:
 906              	.LBE266:
 907              	.LBE265:
 908              	.LBE264:
 909              		.loc 1 404 0
 910 000c 6B6B     		ldr	r3, [r5, #52]
 911              	.LVL62:
 912              		.loc 1 405 0
ARM GAS  C:\Users\14122\AppData\Local\Temp\cc4z3INq.s 			page 17


 913 000e 13EA0004 		ands	r4, r3, r0
 914              	.LVL63:
 915 0012 06D1     		bne	.L58
 916 0014 0446     		mov	r4, r0
 917              	.LVL64:
 918              		.loc 1 406 0
 919 0016 6862     		str	r0, [r5, #36]
 920              		.loc 1 407 0
 921 0018 0A20     		movs	r0, #10
 922              	.LVL65:
 923 001a FFF7FEFF 		bl	chSchGoSleepS
 924              	.LVL66:
 925              		.loc 1 408 0
 926 001e 6B6B     		ldr	r3, [r5, #52]
 927 0020 1C40     		ands	r4, r4, r3
 928              	.LVL67:
 929              	.L58:
 930              		.loc 1 410 0
 931 0022 6042     		negs	r0, r4
 932 0024 2040     		ands	r0, r0, r4
 933              	.LVL68:
 934              		.loc 1 411 0
 935 0026 23EA0003 		bic	r3, r3, r0
 936 002a 6B63     		str	r3, [r5, #52]
 937              	.LVL69:
 938              	.LBB268:
 939              	.LBB269:
 940              	.LBB270:
 941              	.LBB271:
 942              	.LBB272:
 943              		.loc 2 493 0
 944 002c 0023     		movs	r3, #0
 945              		.syntax unified
 946              	@ 493 ".//os/common/ext/ARM/CMSIS/Core/Include/cmsis_gcc.h" 1
 947 002e 83F31188 		MSR basepri, r3
 948              	@ 0 "" 2
 949              	.LVL70:
 950              		.thumb
 951              		.syntax unified
 952              	.LBE272:
 953              	.LBE271:
 954              	.LBE270:
 955              	.LBE269:
 956              	.LBE268:
 957              		.loc 1 415 0
 958 0032 38BD     		pop	{r3, r4, r5, pc}
 959              	.LVL71:
 960              	.L61:
 961              		.align	2
 962              	.L60:
 963 0034 00000000 		.word	ch
 964              		.cfi_endproc
 965              	.LFE232:
 966              		.size	chEvtWaitOne, .-chEvtWaitOne
 967              		.section	.text.chEvtWaitAny,"ax",%progbits
 968              		.align	1
 969              		.p2align 4,,15
ARM GAS  C:\Users\14122\AppData\Local\Temp\cc4z3INq.s 			page 18


 970              		.global	chEvtWaitAny
 971              		.syntax unified
 972              		.thumb
 973              		.thumb_func
 974              		.fpu softvfp
 975              		.type	chEvtWaitAny, %function
 976              	chEvtWaitAny:
 977              	.LFB233:
 978              		.loc 1 429 0
 979              		.cfi_startproc
 980              		@ args = 0, pretend = 0, frame = 0
 981              		@ frame_needed = 0, uses_anonymous_args = 0
 982              	.LVL72:
 983 0000 38B5     		push	{r3, r4, r5, lr}
 984              		.cfi_def_cfa_offset 16
 985              		.cfi_offset 3, -16
 986              		.cfi_offset 4, -12
 987              		.cfi_offset 5, -8
 988              		.cfi_offset 14, -4
 989              		.loc 1 430 0
 990 0002 0C4B     		ldr	r3, .L65
 991 0004 9D69     		ldr	r5, [r3, #24]
 992              	.LVL73:
 993              	.LBB273:
 994              	.LBB274:
 995              	.LBB275:
 996              	.LBB276:
 997              		.loc 2 493 0
 998 0006 2023     		movs	r3, #32
 999              		.syntax unified
 1000              	@ 493 ".//os/common/ext/ARM/CMSIS/Core/Include/cmsis_gcc.h" 1
 1001 0008 83F31188 		MSR basepri, r3
 1002              	@ 0 "" 2
 1003              	.LVL74:
 1004              		.thumb
 1005              		.syntax unified
 1006              	.LBE276:
 1007              	.LBE275:
 1008              	.LBE274:
 1009              	.LBE273:
 1010              		.loc 1 434 0
 1011 000c 6B6B     		ldr	r3, [r5, #52]
 1012              	.LVL75:
 1013              		.loc 1 435 0
 1014 000e 13EA0004 		ands	r4, r3, r0
 1015              	.LVL76:
 1016 0012 06D1     		bne	.L63
 1017 0014 0446     		mov	r4, r0
 1018              	.LVL77:
 1019              		.loc 1 436 0
 1020 0016 6862     		str	r0, [r5, #36]
 1021              		.loc 1 437 0
 1022 0018 0A20     		movs	r0, #10
 1023              	.LVL78:
 1024 001a FFF7FEFF 		bl	chSchGoSleepS
 1025              	.LVL79:
 1026              		.loc 1 438 0
ARM GAS  C:\Users\14122\AppData\Local\Temp\cc4z3INq.s 			page 19


 1027 001e 6B6B     		ldr	r3, [r5, #52]
 1028 0020 1C40     		ands	r4, r4, r3
 1029              	.LVL80:
 1030              	.L63:
 1031              		.loc 1 440 0
 1032 0022 23EA0403 		bic	r3, r3, r4
 1033 0026 6B63     		str	r3, [r5, #52]
 1034              	.LVL81:
 1035              	.LBB277:
 1036              	.LBB278:
 1037              	.LBB279:
 1038              	.LBB280:
 1039              	.LBB281:
 1040              		.loc 2 493 0
 1041 0028 0023     		movs	r3, #0
 1042              		.syntax unified
 1043              	@ 493 ".//os/common/ext/ARM/CMSIS/Core/Include/cmsis_gcc.h" 1
 1044 002a 83F31188 		MSR basepri, r3
 1045              	@ 0 "" 2
 1046              	.LVL82:
 1047              		.thumb
 1048              		.syntax unified
 1049              	.LBE281:
 1050              	.LBE280:
 1051              	.LBE279:
 1052              	.LBE278:
 1053              	.LBE277:
 1054              		.loc 1 444 0
 1055 002e 2046     		mov	r0, r4
 1056 0030 38BD     		pop	{r3, r4, r5, pc}
 1057              	.LVL83:
 1058              	.L66:
 1059 0032 00BF     		.align	2
 1060              	.L65:
 1061 0034 00000000 		.word	ch
 1062              		.cfi_endproc
 1063              	.LFE233:
 1064              		.size	chEvtWaitAny, .-chEvtWaitAny
 1065              		.section	.text.chEvtWaitAll,"ax",%progbits
 1066              		.align	1
 1067              		.p2align 4,,15
 1068              		.global	chEvtWaitAll
 1069              		.syntax unified
 1070              		.thumb
 1071              		.thumb_func
 1072              		.fpu softvfp
 1073              		.type	chEvtWaitAll, %function
 1074              	chEvtWaitAll:
 1075              	.LFB234:
 1076              		.loc 1 457 0
 1077              		.cfi_startproc
 1078              		@ args = 0, pretend = 0, frame = 0
 1079              		@ frame_needed = 0, uses_anonymous_args = 0
 1080              	.LVL84:
 1081 0000 38B5     		push	{r3, r4, r5, lr}
 1082              		.cfi_def_cfa_offset 16
 1083              		.cfi_offset 3, -16
ARM GAS  C:\Users\14122\AppData\Local\Temp\cc4z3INq.s 			page 20


 1084              		.cfi_offset 4, -12
 1085              		.cfi_offset 5, -8
 1086              		.cfi_offset 14, -4
 1087              		.loc 1 458 0
 1088 0002 0B4B     		ldr	r3, .L70
 1089              		.loc 1 457 0
 1090 0004 0446     		mov	r4, r0
 1091              		.loc 1 458 0
 1092 0006 9D69     		ldr	r5, [r3, #24]
 1093              	.LVL85:
 1094              	.LBB282:
 1095              	.LBB283:
 1096              	.LBB284:
 1097              	.LBB285:
 1098              		.loc 2 493 0
 1099 0008 2023     		movs	r3, #32
 1100              		.syntax unified
 1101              	@ 493 ".//os/common/ext/ARM/CMSIS/Core/Include/cmsis_gcc.h" 1
 1102 000a 83F31188 		MSR basepri, r3
 1103              	@ 0 "" 2
 1104              	.LVL86:
 1105              		.thumb
 1106              		.syntax unified
 1107              	.LBE285:
 1108              	.LBE284:
 1109              	.LBE283:
 1110              	.LBE282:
 1111              		.loc 1 461 0
 1112 000e 6B6B     		ldr	r3, [r5, #52]
 1113 0010 30EA0302 		bics	r2, r0, r3
 1114 0014 04D0     		beq	.L68
 1115              		.loc 1 462 0
 1116 0016 6862     		str	r0, [r5, #36]
 1117              		.loc 1 463 0
 1118 0018 0B20     		movs	r0, #11
 1119              	.LVL87:
 1120 001a FFF7FEFF 		bl	chSchGoSleepS
 1121              	.LVL88:
 1122 001e 6B6B     		ldr	r3, [r5, #52]
 1123              	.L68:
 1124              		.loc 1 465 0
 1125 0020 23EA0403 		bic	r3, r3, r4
 1126 0024 6B63     		str	r3, [r5, #52]
 1127              	.LVL89:
 1128              	.LBB286:
 1129              	.LBB287:
 1130              	.LBB288:
 1131              	.LBB289:
 1132              	.LBB290:
 1133              		.loc 2 493 0
 1134 0026 0023     		movs	r3, #0
 1135              		.syntax unified
 1136              	@ 493 ".//os/common/ext/ARM/CMSIS/Core/Include/cmsis_gcc.h" 1
 1137 0028 83F31188 		MSR basepri, r3
 1138              	@ 0 "" 2
 1139              	.LVL90:
 1140              		.thumb
ARM GAS  C:\Users\14122\AppData\Local\Temp\cc4z3INq.s 			page 21


 1141              		.syntax unified
 1142              	.LBE290:
 1143              	.LBE289:
 1144              	.LBE288:
 1145              	.LBE287:
 1146              	.LBE286:
 1147              		.loc 1 469 0
 1148 002c 2046     		mov	r0, r4
 1149 002e 38BD     		pop	{r3, r4, r5, pc}
 1150              	.LVL91:
 1151              	.L71:
 1152              		.align	2
 1153              	.L70:
 1154 0030 00000000 		.word	ch
 1155              		.cfi_endproc
 1156              	.LFE234:
 1157              		.size	chEvtWaitAll, .-chEvtWaitAll
 1158              		.section	.text.chEvtWaitOneTimeout,"ax",%progbits
 1159              		.align	1
 1160              		.p2align 4,,15
 1161              		.global	chEvtWaitOneTimeout
 1162              		.syntax unified
 1163              		.thumb
 1164              		.thumb_func
 1165              		.fpu softvfp
 1166              		.type	chEvtWaitOneTimeout, %function
 1167              	chEvtWaitOneTimeout:
 1168              	.LFB235:
 1169              		.loc 1 495 0
 1170              		.cfi_startproc
 1171              		@ args = 0, pretend = 0, frame = 0
 1172              		@ frame_needed = 0, uses_anonymous_args = 0
 1173              	.LVL92:
 1174              		.loc 1 496 0
 1175 0000 114B     		ldr	r3, .L79
 1176              		.loc 1 495 0
 1177 0002 70B5     		push	{r4, r5, r6, lr}
 1178              		.cfi_def_cfa_offset 16
 1179              		.cfi_offset 4, -16
 1180              		.cfi_offset 5, -12
 1181              		.cfi_offset 6, -8
 1182              		.cfi_offset 14, -4
 1183              		.loc 1 496 0
 1184 0004 9E69     		ldr	r6, [r3, #24]
 1185              	.LVL93:
 1186              	.LBB291:
 1187              	.LBB292:
 1188              	.LBB293:
 1189              	.LBB294:
 1190              		.loc 2 493 0
 1191 0006 2023     		movs	r3, #32
 1192              		.syntax unified
 1193              	@ 493 ".//os/common/ext/ARM/CMSIS/Core/Include/cmsis_gcc.h" 1
 1194 0008 83F31188 		MSR basepri, r3
 1195              	@ 0 "" 2
 1196              	.LVL94:
 1197              		.thumb
ARM GAS  C:\Users\14122\AppData\Local\Temp\cc4z3INq.s 			page 22


 1198              		.syntax unified
 1199              	.LBE294:
 1200              	.LBE293:
 1201              	.LBE292:
 1202              	.LBE291:
 1203              		.loc 1 500 0
 1204 000c 736B     		ldr	r3, [r6, #52]
 1205              	.LVL95:
 1206              		.loc 1 501 0
 1207 000e 13EA0004 		ands	r4, r3, r0
 1208              	.LVL96:
 1209 0012 0ED1     		bne	.L73
 1210              		.loc 1 502 0
 1211 0014 19B9     		cbnz	r1, .L74
 1212              	.LVL97:
 1213              	.L78:
 1214              	.LBB295:
 1215              	.LBB296:
 1216              	.LBB297:
 1217              	.LBB298:
 1218              	.LBB299:
 1219              		.loc 2 493 0
 1220              		.syntax unified
 1221              	@ 493 ".//os/common/ext/ARM/CMSIS/Core/Include/cmsis_gcc.h" 1
 1222 0016 84F31188 		MSR basepri, r4
 1223              	@ 0 "" 2
 1224              	.LVL98:
 1225              		.thumb
 1226              		.syntax unified
 1227              	.LBE299:
 1228              	.LBE298:
 1229              	.LBE297:
 1230              	.LBE296:
 1231              	.LBE295:
 1232              		.loc 1 518 0
 1233 001a 2046     		mov	r0, r4
 1234 001c 70BD     		pop	{r4, r5, r6, pc}
 1235              	.LVL99:
 1236              	.L74:
 1237              		.loc 1 506 0
 1238 001e 7062     		str	r0, [r6, #36]
 1239 0020 0546     		mov	r5, r0
 1240              		.loc 1 507 0
 1241 0022 0A20     		movs	r0, #10
 1242              	.LVL100:
 1243 0024 FFF7FEFF 		bl	chSchGoSleepTimeoutS
 1244              	.LVL101:
 1245 0028 0028     		cmp	r0, #0
 1246 002a F4DB     		blt	.L78
 1247              		.loc 1 511 0
 1248 002c 736B     		ldr	r3, [r6, #52]
 1249 002e 03EA0504 		and	r4, r3, r5
 1250              	.LVL102:
 1251              	.L73:
 1252              		.loc 1 513 0
 1253 0032 6242     		negs	r2, r4
 1254 0034 1440     		ands	r4, r4, r2
ARM GAS  C:\Users\14122\AppData\Local\Temp\cc4z3INq.s 			page 23


 1255              	.LVL103:
 1256              		.loc 1 514 0
 1257 0036 23EA0403 		bic	r3, r3, r4
 1258 003a 7363     		str	r3, [r6, #52]
 1259              	.LVL104:
 1260              	.LBB300:
 1261              	.LBB301:
 1262              	.LBB302:
 1263              	.LBB303:
 1264              	.LBB304:
 1265              		.loc 2 493 0
 1266 003c 0023     		movs	r3, #0
 1267              		.syntax unified
 1268              	@ 493 ".//os/common/ext/ARM/CMSIS/Core/Include/cmsis_gcc.h" 1
 1269 003e 83F31188 		MSR basepri, r3
 1270              	@ 0 "" 2
 1271              	.LVL105:
 1272              		.thumb
 1273              		.syntax unified
 1274              	.LBE304:
 1275              	.LBE303:
 1276              	.LBE302:
 1277              	.LBE301:
 1278              	.LBE300:
 1279              		.loc 1 518 0
 1280 0042 2046     		mov	r0, r4
 1281 0044 70BD     		pop	{r4, r5, r6, pc}
 1282              	.LVL106:
 1283              	.L80:
 1284 0046 00BF     		.align	2
 1285              	.L79:
 1286 0048 00000000 		.word	ch
 1287              		.cfi_endproc
 1288              	.LFE235:
 1289              		.size	chEvtWaitOneTimeout, .-chEvtWaitOneTimeout
 1290              		.section	.text.chEvtWaitAnyTimeout,"ax",%progbits
 1291              		.align	1
 1292              		.p2align 4,,15
 1293              		.global	chEvtWaitAnyTimeout
 1294              		.syntax unified
 1295              		.thumb
 1296              		.thumb_func
 1297              		.fpu softvfp
 1298              		.type	chEvtWaitAnyTimeout, %function
 1299              	chEvtWaitAnyTimeout:
 1300              	.LFB236:
 1301              		.loc 1 538 0
 1302              		.cfi_startproc
 1303              		@ args = 0, pretend = 0, frame = 0
 1304              		@ frame_needed = 0, uses_anonymous_args = 0
 1305              	.LVL107:
 1306              		.loc 1 539 0
 1307 0000 104B     		ldr	r3, .L88
 1308              		.loc 1 538 0
 1309 0002 70B5     		push	{r4, r5, r6, lr}
 1310              		.cfi_def_cfa_offset 16
 1311              		.cfi_offset 4, -16
ARM GAS  C:\Users\14122\AppData\Local\Temp\cc4z3INq.s 			page 24


 1312              		.cfi_offset 5, -12
 1313              		.cfi_offset 6, -8
 1314              		.cfi_offset 14, -4
 1315              		.loc 1 539 0
 1316 0004 9E69     		ldr	r6, [r3, #24]
 1317              	.LVL108:
 1318              	.LBB305:
 1319              	.LBB306:
 1320              	.LBB307:
 1321              	.LBB308:
 1322              		.loc 2 493 0
 1323 0006 2023     		movs	r3, #32
 1324              		.syntax unified
 1325              	@ 493 ".//os/common/ext/ARM/CMSIS/Core/Include/cmsis_gcc.h" 1
 1326 0008 83F31188 		MSR basepri, r3
 1327              	@ 0 "" 2
 1328              	.LVL109:
 1329              		.thumb
 1330              		.syntax unified
 1331              	.LBE308:
 1332              	.LBE307:
 1333              	.LBE306:
 1334              	.LBE305:
 1335              		.loc 1 543 0
 1336 000c 736B     		ldr	r3, [r6, #52]
 1337              	.LVL110:
 1338              		.loc 1 544 0
 1339 000e 13EA0005 		ands	r5, r3, r0
 1340              	.LVL111:
 1341 0012 0ED1     		bne	.L82
 1342              		.loc 1 545 0
 1343 0014 19B9     		cbnz	r1, .L83
 1344              	.LVL112:
 1345              	.L87:
 1346              	.LBB309:
 1347              	.LBB310:
 1348              	.LBB311:
 1349              	.LBB312:
 1350              	.LBB313:
 1351              		.loc 2 493 0
 1352              		.syntax unified
 1353              	@ 493 ".//os/common/ext/ARM/CMSIS/Core/Include/cmsis_gcc.h" 1
 1354 0016 85F31188 		MSR basepri, r5
 1355              	@ 0 "" 2
 1356              	.LVL113:
 1357              		.thumb
 1358              		.syntax unified
 1359              	.LBE313:
 1360              	.LBE312:
 1361              	.LBE311:
 1362              	.LBE310:
 1363              	.LBE309:
 1364              		.loc 1 560 0
 1365 001a 2846     		mov	r0, r5
 1366 001c 70BD     		pop	{r4, r5, r6, pc}
 1367              	.LVL114:
 1368              	.L83:
ARM GAS  C:\Users\14122\AppData\Local\Temp\cc4z3INq.s 			page 25


 1369              		.loc 1 549 0
 1370 001e 7062     		str	r0, [r6, #36]
 1371 0020 0446     		mov	r4, r0
 1372              		.loc 1 550 0
 1373 0022 0A20     		movs	r0, #10
 1374              	.LVL115:
 1375 0024 FFF7FEFF 		bl	chSchGoSleepTimeoutS
 1376              	.LVL116:
 1377 0028 0028     		cmp	r0, #0
 1378 002a F4DB     		blt	.L87
 1379              		.loc 1 554 0
 1380 002c 736B     		ldr	r3, [r6, #52]
 1381 002e 03EA0405 		and	r5, r3, r4
 1382              	.LVL117:
 1383              	.L82:
 1384              		.loc 1 556 0
 1385 0032 23EA0503 		bic	r3, r3, r5
 1386 0036 7363     		str	r3, [r6, #52]
 1387              	.LVL118:
 1388              	.LBB314:
 1389              	.LBB315:
 1390              	.LBB316:
 1391              	.LBB317:
 1392              	.LBB318:
 1393              		.loc 2 493 0
 1394 0038 0023     		movs	r3, #0
 1395              		.syntax unified
 1396              	@ 493 ".//os/common/ext/ARM/CMSIS/Core/Include/cmsis_gcc.h" 1
 1397 003a 83F31188 		MSR basepri, r3
 1398              	@ 0 "" 2
 1399              	.LVL119:
 1400              		.thumb
 1401              		.syntax unified
 1402              	.LBE318:
 1403              	.LBE317:
 1404              	.LBE316:
 1405              	.LBE315:
 1406              	.LBE314:
 1407              		.loc 1 560 0
 1408 003e 2846     		mov	r0, r5
 1409 0040 70BD     		pop	{r4, r5, r6, pc}
 1410              	.LVL120:
 1411              	.L89:
 1412 0042 00BF     		.align	2
 1413              	.L88:
 1414 0044 00000000 		.word	ch
 1415              		.cfi_endproc
 1416              	.LFE236:
 1417              		.size	chEvtWaitAnyTimeout, .-chEvtWaitAnyTimeout
 1418              		.section	.text.chEvtWaitAllTimeout,"ax",%progbits
 1419              		.align	1
 1420              		.p2align 4,,15
 1421              		.global	chEvtWaitAllTimeout
 1422              		.syntax unified
 1423              		.thumb
 1424              		.thumb_func
 1425              		.fpu softvfp
ARM GAS  C:\Users\14122\AppData\Local\Temp\cc4z3INq.s 			page 26


 1426              		.type	chEvtWaitAllTimeout, %function
 1427              	chEvtWaitAllTimeout:
 1428              	.LFB237:
 1429              		.loc 1 579 0
 1430              		.cfi_startproc
 1431              		@ args = 0, pretend = 0, frame = 0
 1432              		@ frame_needed = 0, uses_anonymous_args = 0
 1433              	.LVL121:
 1434 0000 38B5     		push	{r3, r4, r5, lr}
 1435              		.cfi_def_cfa_offset 16
 1436              		.cfi_offset 3, -16
 1437              		.cfi_offset 4, -12
 1438              		.cfi_offset 5, -8
 1439              		.cfi_offset 14, -4
 1440              		.loc 1 580 0
 1441 0002 104B     		ldr	r3, .L97
 1442              		.loc 1 579 0
 1443 0004 0446     		mov	r4, r0
 1444              		.loc 1 580 0
 1445 0006 9D69     		ldr	r5, [r3, #24]
 1446              	.LVL122:
 1447              	.LBB319:
 1448              	.LBB320:
 1449              	.LBB321:
 1450              	.LBB322:
 1451              		.loc 2 493 0
 1452 0008 2023     		movs	r3, #32
 1453              		.syntax unified
 1454              	@ 493 ".//os/common/ext/ARM/CMSIS/Core/Include/cmsis_gcc.h" 1
 1455 000a 83F31188 		MSR basepri, r3
 1456              	@ 0 "" 2
 1457              	.LVL123:
 1458              		.thumb
 1459              		.syntax unified
 1460              	.LBE322:
 1461              	.LBE321:
 1462              	.LBE320:
 1463              	.LBE319:
 1464              		.loc 1 583 0
 1465 000e 6B6B     		ldr	r3, [r5, #52]
 1466 0010 30EA0302 		bics	r2, r0, r3
 1467 0014 0BD0     		beq	.L91
 1468 0016 0846     		mov	r0, r1
 1469              	.LVL124:
 1470              		.loc 1 584 0
 1471 0018 11B9     		cbnz	r1, .L92
 1472              	.LVL125:
 1473              	.L96:
 1474              	.LBB323:
 1475              	.LBB324:
 1476              	.LBB325:
 1477              	.LBB326:
 1478              	.LBB327:
 1479              		.loc 2 493 0
 1480              		.syntax unified
 1481              	@ 493 ".//os/common/ext/ARM/CMSIS/Core/Include/cmsis_gcc.h" 1
 1482 001a 80F31188 		MSR basepri, r0
ARM GAS  C:\Users\14122\AppData\Local\Temp\cc4z3INq.s 			page 27


 1483              	@ 0 "" 2
 1484              		.thumb
 1485              		.syntax unified
 1486              	.LBE327:
 1487              	.LBE326:
 1488              	.LBE325:
 1489              	.LBE324:
 1490              	.LBE323:
 1491              		.loc 1 598 0
 1492 001e 38BD     		pop	{r3, r4, r5, pc}
 1493              	.LVL126:
 1494              	.L92:
 1495              		.loc 1 588 0
 1496 0020 6C62     		str	r4, [r5, #36]
 1497              		.loc 1 589 0
 1498 0022 0B20     		movs	r0, #11
 1499              	.LVL127:
 1500 0024 FFF7FEFF 		bl	chSchGoSleepTimeoutS
 1501              	.LVL128:
 1502 0028 0028     		cmp	r0, #0
 1503 002a 08DB     		blt	.L94
 1504 002c 6B6B     		ldr	r3, [r5, #52]
 1505              	.L91:
 1506              		.loc 1 594 0
 1507 002e 23EA0403 		bic	r3, r3, r4
 1508 0032 6B63     		str	r3, [r5, #52]
 1509              	.LVL129:
 1510              	.LBB332:
 1511              	.LBB333:
 1512              	.LBB334:
 1513              	.LBB335:
 1514              	.LBB336:
 1515              		.loc 2 493 0
 1516 0034 0023     		movs	r3, #0
 1517              		.syntax unified
 1518              	@ 493 ".//os/common/ext/ARM/CMSIS/Core/Include/cmsis_gcc.h" 1
 1519 0036 83F31188 		MSR basepri, r3
 1520              	@ 0 "" 2
 1521              	.LVL130:
 1522              		.thumb
 1523              		.syntax unified
 1524              	.LBE336:
 1525              	.LBE335:
 1526              	.LBE334:
 1527              	.LBE333:
 1528              	.LBE332:
 1529              		.loc 1 597 0
 1530 003a 2046     		mov	r0, r4
 1531              		.loc 1 598 0
 1532 003c 38BD     		pop	{r3, r4, r5, pc}
 1533              	.LVL131:
 1534              	.L94:
 1535              	.LBB337:
 1536              	.LBB331:
 1537              	.LBB330:
 1538              	.LBB329:
 1539              	.LBB328:
ARM GAS  C:\Users\14122\AppData\Local\Temp\cc4z3INq.s 			page 28


 1540              		.loc 2 493 0
 1541 003e 0020     		movs	r0, #0
 1542 0040 EBE7     		b	.L96
 1543              	.L98:
 1544 0042 00BF     		.align	2
 1545              	.L97:
 1546 0044 00000000 		.word	ch
 1547              	.LBE328:
 1548              	.LBE329:
 1549              	.LBE330:
 1550              	.LBE331:
 1551              	.LBE337:
 1552              		.cfi_endproc
 1553              	.LFE237:
 1554              		.size	chEvtWaitAllTimeout, .-chEvtWaitAllTimeout
 1555              		.text
 1556              	.Letext0:
 1557              		.file 4 "c:\\chibistudio\\tools\\gnu tools arm embedded\\7.0 2017q4\\lib\\gcc\\arm-none-eabi\\7.2.
 1558              		.file 5 "c:\\chibistudio\\tools\\gnu tools arm embedded\\7.0 2017q4\\arm-none-eabi\\include\\machi
 1559              		.file 6 "c:\\chibistudio\\tools\\gnu tools arm embedded\\7.0 2017q4\\arm-none-eabi\\include\\sys\\
 1560              		.file 7 ".//os/common/ports/ARMCMx/compilers/GCC/chtypes.h"
 1561              		.file 8 ".//os/rt/include/chsystypes.h"
 1562              		.file 9 ".//os/rt/include/chschd.h"
 1563              		.file 10 ".//os/rt/include/chtime.h"
 1564              		.file 11 ".//os/common/ext/ARM/CMSIS/Core/Include/core_cm3.h"
 1565              		.file 12 ".//os/common/ext/ST/STM32F1xx/system_stm32f1xx.h"
 1566              		.file 13 ".//os/common/ports/ARMCMx/chcore.h"
 1567              		.file 14 ".//os/common/ports/ARMCMx/chcore_v7m.h"
 1568              		.file 15 ".//os/rt/include/chsem.h"
 1569              		.file 16 ".//os/rt/include/chmtx.h"
 1570              		.file 17 ".//os/rt/include/chsys.h"
 1571              		.file 18 ".//os/rt/include/chregistry.h"
 1572              		.file 19 ".//os/lib/include/chmemcore.h"
 1573              		.file 20 ".//os/lib/include/chmempools.h"
 1574              		.file 21 ".//os/lib/include/chfactory.h"