ARM GAS  C:\Users\14122\AppData\Local\Temp\cclgVubw.s 			page 1


   1              		.cpu cortex-m3
   2              		.eabi_attribute 20, 1
   3              		.eabi_attribute 21, 1
   4              		.eabi_attribute 23, 3
   5              		.eabi_attribute 24, 1
   6              		.eabi_attribute 25, 1
   7              		.eabi_attribute 26, 1
   8              		.eabi_attribute 30, 2
   9              		.eabi_attribute 34, 1
  10              		.eabi_attribute 18, 4
  11              		.file	"chmboxes.c"
  12              		.text
  13              	.Ltext0:
  14              		.cfi_sections	.debug_frame
  15              		.section	.text.chMBObjectInit,"ax",%progbits
  16              		.align	1
  17              		.p2align 4,,15
  18              		.global	chMBObjectInit
  19              		.syntax unified
  20              		.thumb
  21              		.thumb_func
  22              		.fpu softvfp
  23              		.type	chMBObjectInit, %function
  24              	chMBObjectInit:
  25              	.LFB220:
  26              		.file 1 ".//os/lib/src/chmboxes.c"
  27              		.loc 1 87 0
  28              		.cfi_startproc
  29              		@ args = 0, pretend = 0, frame = 0
  30              		@ frame_needed = 0, uses_anonymous_args = 0
  31              		@ link register save eliminated.
  32              	.LVL0:
  33              		.loc 1 95 0
  34 0000 0023     		movs	r3, #0
  35              		.loc 1 87 0
  36 0002 30B4     		push	{r4, r5}
  37              		.cfi_def_cfa_offset 8
  38              		.cfi_offset 4, -8
  39              		.cfi_offset 5, -4
  40              		.loc 1 94 0
  41 0004 01EB8202 		add	r2, r1, r2, lsl #2
  42              	.LVL1:
  43              		.loc 1 97 0
  44 0008 00F11805 		add	r5, r0, #24
  45              	.LVL2:
  46              		.loc 1 98 0
  47 000c 00F12004 		add	r4, r0, #32
  48              	.LBB88:
  49              	.LBB89:
  50              	.LBB90:
  51              		.file 2 ".//os/rt/include/chschd.h"
  52              		.loc 2 540 0
  53 0010 C0E90655 		strd	r5, r5, [r0, #24]
  54              	.LVL3:
  55              	.LBE90:
  56              	.LBE89:
  57              	.LBE88:
ARM GAS  C:\Users\14122\AppData\Local\Temp\cclgVubw.s 			page 2


  58              	.LBB91:
  59              	.LBB92:
  60              	.LBB93:
  61 0014 C0E90844 		strd	r4, r4, [r0, #32]
  62              	.LVL4:
  63              	.LBE93:
  64              	.LBE92:
  65              	.LBE91:
  66              		.loc 1 99 0
  67 0018 30BC     		pop	{r4, r5}
  68              		.cfi_restore 5
  69              		.cfi_restore 4
  70              		.cfi_def_cfa_offset 0
  71              		.loc 1 91 0
  72 001a C0E90012 		strd	r1, r2, [r0]
  73              		.loc 1 93 0
  74 001e C0E90211 		strd	r1, r1, [r0, #8]
  75              		.loc 1 95 0
  76 0022 0361     		str	r3, [r0, #16]
  77              		.loc 1 96 0
  78 0024 0375     		strb	r3, [r0, #20]
  79              		.loc 1 99 0
  80 0026 7047     		bx	lr
  81              		.cfi_endproc
  82              	.LFE220:
  83              		.size	chMBObjectInit, .-chMBObjectInit
  84              		.section	.text.chMBResetI,"ax",%progbits
  85              		.align	1
  86              		.p2align 4,,15
  87              		.global	chMBResetI
  88              		.syntax unified
  89              		.thumb
  90              		.thumb_func
  91              		.fpu softvfp
  92              		.type	chMBResetI, %function
  93              	chMBResetI:
  94              	.LFB222:
  95              		.loc 1 133 0
  96              		.cfi_startproc
  97              		@ args = 0, pretend = 0, frame = 0
  98              		@ frame_needed = 0, uses_anonymous_args = 0
  99              	.LVL5:
 100              		.loc 1 140 0
 101 0000 0021     		movs	r1, #0
 102              		.loc 1 141 0
 103 0002 0122     		movs	r2, #1
 104              		.loc 1 133 0
 105 0004 10B5     		push	{r4, lr}
 106              		.cfi_def_cfa_offset 8
 107              		.cfi_offset 4, -8
 108              		.cfi_offset 14, -4
 109              		.loc 1 133 0
 110 0006 0446     		mov	r4, r0
 111              		.loc 1 138 0
 112 0008 0368     		ldr	r3, [r0]
 113              		.loc 1 140 0
 114 000a 0161     		str	r1, [r0, #16]
ARM GAS  C:\Users\14122\AppData\Local\Temp\cclgVubw.s 			page 3


 115              		.loc 1 141 0
 116 000c 0275     		strb	r2, [r0, #20]
 117              		.loc 1 139 0
 118 000e C0E90233 		strd	r3, r3, [r0, #8]
 119              		.loc 1 142 0
 120 0012 6FF00101 		mvn	r1, #1
 121 0016 1830     		adds	r0, r0, #24
 122              	.LVL6:
 123 0018 FFF7FEFF 		bl	chThdDequeueAllI
 124              	.LVL7:
 125              		.loc 1 143 0
 126 001c 04F12000 		add	r0, r4, #32
 127 0020 6FF00101 		mvn	r1, #1
 128              		.loc 1 144 0
 129 0024 BDE81040 		pop	{r4, lr}
 130              		.cfi_restore 14
 131              		.cfi_restore 4
 132              		.cfi_def_cfa_offset 0
 133              	.LVL8:
 134              		.loc 1 143 0
 135 0028 FFF7FEBF 		b	chThdDequeueAllI
 136              	.LVL9:
 137              		.cfi_endproc
 138              	.LFE222:
 139              		.size	chMBResetI, .-chMBResetI
 140              		.section	.text.chMBReset,"ax",%progbits
 141              		.align	1
 142              		.p2align 4,,15
 143              		.global	chMBReset
 144              		.syntax unified
 145              		.thumb
 146              		.thumb_func
 147              		.fpu softvfp
 148              		.type	chMBReset, %function
 149              	chMBReset:
 150              	.LFB221:
 151              		.loc 1 113 0
 152              		.cfi_startproc
 153              		@ args = 0, pretend = 0, frame = 0
 154              		@ frame_needed = 0, uses_anonymous_args = 0
 155              	.LVL10:
 156 0000 08B5     		push	{r3, lr}
 157              		.cfi_def_cfa_offset 8
 158              		.cfi_offset 3, -8
 159              		.cfi_offset 14, -4
 160              	.LBB94:
 161              	.LBB95:
 162              	.LBB96:
 163              	.LBB97:
 164              		.file 3 ".//os/common/ext/ARM/CMSIS/Core/Include/cmsis_gcc.h"
 165              		.loc 3 493 0
 166 0002 2023     		movs	r3, #32
 167              		.syntax unified
 168              	@ 493 ".//os/common/ext/ARM/CMSIS/Core/Include/cmsis_gcc.h" 1
 169 0004 83F31188 		MSR basepri, r3
 170              	@ 0 "" 2
 171              	.LVL11:
ARM GAS  C:\Users\14122\AppData\Local\Temp\cclgVubw.s 			page 4


 172              		.thumb
 173              		.syntax unified
 174              	.LBE97:
 175              	.LBE96:
 176              	.LBE95:
 177              	.LBE94:
 178              		.loc 1 116 0
 179 0008 FFF7FEFF 		bl	chMBResetI
 180              	.LVL12:
 181              		.loc 1 117 0
 182 000c FFF7FEFF 		bl	chSchRescheduleS
 183              	.LVL13:
 184              	.LBB98:
 185              	.LBB99:
 186              	.LBB100:
 187              	.LBB101:
 188              	.LBB102:
 189              		.loc 3 493 0
 190 0010 0023     		movs	r3, #0
 191              		.syntax unified
 192              	@ 493 ".//os/common/ext/ARM/CMSIS/Core/Include/cmsis_gcc.h" 1
 193 0012 83F31188 		MSR basepri, r3
 194              	@ 0 "" 2
 195              	.LVL14:
 196              		.thumb
 197              		.syntax unified
 198              	.LBE102:
 199              	.LBE101:
 200              	.LBE100:
 201              	.LBE99:
 202              	.LBE98:
 203              		.loc 1 119 0
 204 0016 08BD     		pop	{r3, pc}
 205              		.cfi_endproc
 206              	.LFE221:
 207              		.size	chMBReset, .-chMBReset
 208              		.section	.text.chMBPostTimeoutS,"ax",%progbits
 209              		.align	1
 210              		.p2align 4,,15
 211              		.global	chMBPostTimeoutS
 212              		.syntax unified
 213              		.thumb
 214              		.thumb_func
 215              		.fpu softvfp
 216              		.type	chMBPostTimeoutS, %function
 217              	chMBPostTimeoutS:
 218              	.LFB224:
 219              		.loc 1 194 0
 220              		.cfi_startproc
 221              		@ args = 0, pretend = 0, frame = 0
 222              		@ frame_needed = 0, uses_anonymous_args = 0
 223              	.LVL15:
 224 0000 F8B5     		push	{r3, r4, r5, r6, r7, lr}
 225              		.cfi_def_cfa_offset 24
 226              		.cfi_offset 3, -24
 227              		.cfi_offset 4, -20
 228              		.cfi_offset 5, -16
ARM GAS  C:\Users\14122\AppData\Local\Temp\cclgVubw.s 			page 5


 229              		.cfi_offset 6, -12
 230              		.cfi_offset 7, -8
 231              		.cfi_offset 14, -4
 232              		.loc 1 194 0
 233 0002 0446     		mov	r4, r0
 234 0004 0F46     		mov	r7, r1
 235 0006 1646     		mov	r6, r2
 236              		.loc 1 222 0
 237 0008 00F11805 		add	r5, r0, #24
 238 000c 0BE0     		b	.L12
 239              	.LVL16:
 240              	.L18:
 241 000e 2369     		ldr	r3, [r4, #16]
 242 0010 D4E90012 		ldrd	r1, r2, [r4]
 243              	.LVL17:
 244              	.LBB103:
 245              	.LBB104:
 246              	.LBB105:
 247              		.file 4 ".//os/lib/include/chmboxes.h"
 248              		.loc 4 140 0
 249 0014 501A     		subs	r0, r2, r1
 250              	.LBE105:
 251              	.LBE104:
 252              	.LBE103:
 253              		.loc 1 207 0
 254 0016 B3EBA00F 		cmp	r3, r0, asr #2
 255 001a 0AD1     		bne	.L17
 256              		.loc 1 222 0
 257 001c 3146     		mov	r1, r6
 258 001e 2846     		mov	r0, r5
 259 0020 FFF7FEFF 		bl	chThdEnqueueTimeoutS
 260              	.LVL18:
 261              		.loc 1 223 0
 262 0024 20B9     		cbnz	r0, .L8
 263              	.LVL19:
 264              	.L12:
 265              		.loc 1 202 0
 266 0026 237D     		ldrb	r3, [r4, #20]	@ zero_extendqisi2
 267 0028 002B     		cmp	r3, #0
 268 002a F0D0     		beq	.L18
 269              		.loc 1 203 0
 270 002c 6FF00100 		mvn	r0, #1
 271              	.LVL20:
 272              	.L8:
 273              		.loc 1 226 0
 274 0030 F8BD     		pop	{r3, r4, r5, r6, r7, pc}
 275              	.LVL21:
 276              	.L17:
 277              		.loc 1 208 0
 278 0032 A568     		ldr	r5, [r4, #8]
 279              		.loc 1 212 0
 280 0034 0133     		adds	r3, r3, #1
 281              		.loc 1 208 0
 282 0036 281D     		adds	r0, r5, #4
 283              		.loc 1 209 0
 284 0038 9042     		cmp	r0, r2
 285              		.loc 1 208 0
ARM GAS  C:\Users\14122\AppData\Local\Temp\cclgVubw.s 			page 6


 286 003a A060     		str	r0, [r4, #8]
 287 003c 2F60     		str	r7, [r5]
 288              		.loc 1 215 0
 289 003e 04F12000 		add	r0, r4, #32
 290              		.loc 1 210 0
 291 0042 28BF     		it	cs
 292 0044 A160     		strcs	r1, [r4, #8]
 293              		.loc 1 212 0
 294 0046 2361     		str	r3, [r4, #16]
 295              		.loc 1 215 0
 296 0048 0021     		movs	r1, #0
 297 004a FFF7FEFF 		bl	chThdDequeueNextI
 298              	.LVL22:
 299              		.loc 1 216 0
 300 004e FFF7FEFF 		bl	chSchRescheduleS
 301              	.LVL23:
 302              		.loc 1 218 0
 303 0052 0020     		movs	r0, #0
 304              		.loc 1 226 0
 305 0054 F8BD     		pop	{r3, r4, r5, r6, r7, pc}
 306              		.cfi_endproc
 307              	.LFE224:
 308              		.size	chMBPostTimeoutS, .-chMBPostTimeoutS
 309 0056 00BF     		.section	.text.chMBPostTimeout,"ax",%progbits
 310              		.align	1
 311              		.p2align 4,,15
 312              		.global	chMBPostTimeout
 313              		.syntax unified
 314              		.thumb
 315              		.thumb_func
 316              		.fpu softvfp
 317              		.type	chMBPostTimeout, %function
 318              	chMBPostTimeout:
 319              	.LFB223:
 320              		.loc 1 165 0
 321              		.cfi_startproc
 322              		@ args = 0, pretend = 0, frame = 0
 323              		@ frame_needed = 0, uses_anonymous_args = 0
 324              	.LVL24:
 325 0000 08B5     		push	{r3, lr}
 326              		.cfi_def_cfa_offset 8
 327              		.cfi_offset 3, -8
 328              		.cfi_offset 14, -4
 329              	.LBB106:
 330              	.LBB107:
 331              	.LBB108:
 332              	.LBB109:
 333              		.loc 3 493 0
 334 0002 2023     		movs	r3, #32
 335              		.syntax unified
 336              	@ 493 ".//os/common/ext/ARM/CMSIS/Core/Include/cmsis_gcc.h" 1
 337 0004 83F31188 		MSR basepri, r3
 338              	@ 0 "" 2
 339              	.LVL25:
 340              		.thumb
 341              		.syntax unified
 342              	.LBE109:
ARM GAS  C:\Users\14122\AppData\Local\Temp\cclgVubw.s 			page 7


 343              	.LBE108:
 344              	.LBE107:
 345              	.LBE106:
 346              		.loc 1 169 0
 347 0008 FFF7FEFF 		bl	chMBPostTimeoutS
 348              	.LVL26:
 349              	.LBB110:
 350              	.LBB111:
 351              	.LBB112:
 352              	.LBB113:
 353              	.LBB114:
 354              		.loc 3 493 0
 355 000c 0023     		movs	r3, #0
 356              		.syntax unified
 357              	@ 493 ".//os/common/ext/ARM/CMSIS/Core/Include/cmsis_gcc.h" 1
 358 000e 83F31188 		MSR basepri, r3
 359              	@ 0 "" 2
 360              	.LVL27:
 361              		.thumb
 362              		.syntax unified
 363              	.LBE114:
 364              	.LBE113:
 365              	.LBE112:
 366              	.LBE111:
 367              	.LBE110:
 368              		.loc 1 173 0
 369 0012 08BD     		pop	{r3, pc}
 370              		.cfi_endproc
 371              	.LFE223:
 372              		.size	chMBPostTimeout, .-chMBPostTimeout
 373              		.section	.text.chMBPostI,"ax",%progbits
 374              		.align	1
 375              		.p2align 4,,15
 376              		.global	chMBPostI
 377              		.syntax unified
 378              		.thumb
 379              		.thumb_func
 380              		.fpu softvfp
 381              		.type	chMBPostI, %function
 382              	chMBPostI:
 383              	.LFB225:
 384              		.loc 1 243 0
 385              		.cfi_startproc
 386              		@ args = 0, pretend = 0, frame = 0
 387              		@ frame_needed = 0, uses_anonymous_args = 0
 388              	.LVL28:
 389              		.loc 1 249 0
 390 0000 037D     		ldrb	r3, [r0, #20]	@ zero_extendqisi2
 391 0002 CBB9     		cbnz	r3, .L24
 392              	.LVL29:
 393 0004 0369     		ldr	r3, [r0, #16]
 394              		.loc 1 243 0
 395 0006 70B5     		push	{r4, r5, r6, lr}
 396              		.cfi_def_cfa_offset 16
 397              		.cfi_offset 4, -16
 398              		.cfi_offset 5, -12
 399              		.cfi_offset 6, -8
ARM GAS  C:\Users\14122\AppData\Local\Temp\cclgVubw.s 			page 8


 400              		.cfi_offset 14, -4
 401 0008 D0E90062 		ldrd	r6, r2, [r0]
 402              	.LVL30:
 403              	.LBB115:
 404              	.LBB116:
 405              	.LBB117:
 406              		.loc 4 140 0
 407 000c 941B     		subs	r4, r2, r6
 408              	.LBE117:
 409              	.LBE116:
 410              	.LBE115:
 411              		.loc 1 254 0
 412 000e B3EBA40F 		cmp	r3, r4, asr #2
 413 0012 14D0     		beq	.L25
 414              		.loc 1 255 0
 415 0014 8568     		ldr	r5, [r0, #8]
 416              		.loc 1 259 0
 417 0016 0133     		adds	r3, r3, #1
 418              		.loc 1 255 0
 419 0018 2C1D     		adds	r4, r5, #4
 420              		.loc 1 256 0
 421 001a 9442     		cmp	r4, r2
 422              		.loc 1 255 0
 423 001c 8460     		str	r4, [r0, #8]
 424 001e 2960     		str	r1, [r5]
 425              		.loc 1 262 0
 426 0020 00F12000 		add	r0, r0, #32
 427              	.LVL31:
 428              		.loc 1 257 0
 429 0024 28BF     		it	cs
 430 0026 40F8186C 		strcs	r6, [r0, #-24]
 431              		.loc 1 259 0
 432 002a 40F8103C 		str	r3, [r0, #-16]
 433              		.loc 1 262 0
 434 002e 0021     		movs	r1, #0
 435              	.LVL32:
 436 0030 FFF7FEFF 		bl	chThdDequeueNextI
 437              	.LVL33:
 438              		.loc 1 264 0
 439 0034 0020     		movs	r0, #0
 440              		.loc 1 269 0
 441 0036 70BD     		pop	{r4, r5, r6, pc}
 442              	.LVL34:
 443              	.L24:
 444              		.cfi_def_cfa_offset 0
 445              		.cfi_restore 4
 446              		.cfi_restore 5
 447              		.cfi_restore 6
 448              		.cfi_restore 14
 449              		.loc 1 250 0
 450 0038 6FF00100 		mvn	r0, #1
 451              	.LVL35:
 452              		.loc 1 269 0
 453 003c 7047     		bx	lr
 454              	.LVL36:
 455              	.L25:
 456              		.cfi_def_cfa_offset 16
ARM GAS  C:\Users\14122\AppData\Local\Temp\cclgVubw.s 			page 9


 457              		.cfi_offset 4, -16
 458              		.cfi_offset 5, -12
 459              		.cfi_offset 6, -8
 460              		.cfi_offset 14, -4
 461              		.loc 1 268 0
 462 003e 4FF0FF30 		mov	r0, #-1
 463              	.LVL37:
 464              		.loc 1 269 0
 465 0042 70BD     		pop	{r4, r5, r6, pc}
 466              		.cfi_endproc
 467              	.LFE225:
 468              		.size	chMBPostI, .-chMBPostI
 469              		.section	.text.chMBPostAheadTimeoutS,"ax",%progbits
 470              		.align	1
 471              		.p2align 4,,15
 472              		.global	chMBPostAheadTimeoutS
 473              		.syntax unified
 474              		.thumb
 475              		.thumb_func
 476              		.fpu softvfp
 477              		.type	chMBPostAheadTimeoutS, %function
 478              	chMBPostAheadTimeoutS:
 479              	.LFB227:
 480              		.loc 1 319 0
 481              		.cfi_startproc
 482              		@ args = 0, pretend = 0, frame = 0
 483              		@ frame_needed = 0, uses_anonymous_args = 0
 484              	.LVL38:
 485 0000 F8B5     		push	{r3, r4, r5, r6, r7, lr}
 486              		.cfi_def_cfa_offset 24
 487              		.cfi_offset 3, -24
 488              		.cfi_offset 4, -20
 489              		.cfi_offset 5, -16
 490              		.cfi_offset 6, -12
 491              		.cfi_offset 7, -8
 492              		.cfi_offset 14, -4
 493              		.loc 1 319 0
 494 0002 0446     		mov	r4, r0
 495 0004 0E46     		mov	r6, r1
 496 0006 1746     		mov	r7, r2
 497              		.loc 1 347 0
 498 0008 00F11805 		add	r5, r0, #24
 499 000c 0BE0     		b	.L35
 500              	.LVL39:
 501              	.L42:
 502 000e 2369     		ldr	r3, [r4, #16]
 503 0010 D4E90021 		ldrd	r2, r1, [r4]
 504              	.LVL40:
 505              	.LBB118:
 506              	.LBB119:
 507              	.LBB120:
 508              		.loc 4 140 0
 509 0014 881A     		subs	r0, r1, r2
 510              	.LBE120:
 511              	.LBE119:
 512              	.LBE118:
 513              		.loc 1 332 0
ARM GAS  C:\Users\14122\AppData\Local\Temp\cclgVubw.s 			page 10


 514 0016 B3EBA00F 		cmp	r3, r0, asr #2
 515 001a 0AD1     		bne	.L41
 516              		.loc 1 347 0
 517 001c 3946     		mov	r1, r7
 518 001e 2846     		mov	r0, r5
 519 0020 FFF7FEFF 		bl	chThdEnqueueTimeoutS
 520              	.LVL41:
 521              		.loc 1 348 0
 522 0024 20B9     		cbnz	r0, .L30
 523              	.LVL42:
 524              	.L35:
 525              		.loc 1 327 0
 526 0026 237D     		ldrb	r3, [r4, #20]	@ zero_extendqisi2
 527 0028 002B     		cmp	r3, #0
 528 002a F0D0     		beq	.L42
 529              		.loc 1 328 0
 530 002c 6FF00100 		mvn	r0, #1
 531              	.LVL43:
 532              	.L30:
 533              		.loc 1 351 0
 534 0030 F8BD     		pop	{r3, r4, r5, r6, r7, pc}
 535              	.LVL44:
 536              	.L41:
 537              		.loc 1 333 0
 538 0032 E068     		ldr	r0, [r4, #12]
 539              		.loc 1 337 0
 540 0034 0133     		adds	r3, r3, #1
 541              		.loc 1 333 0
 542 0036 0438     		subs	r0, r0, #4
 543 0038 9042     		cmp	r0, r2
 544              		.loc 1 334 0
 545 003a 38BF     		it	cc
 546 003c 081F     		subcc	r0, r1, #4
 547 003e E060     		str	r0, [r4, #12]
 548              		.loc 1 340 0
 549 0040 0021     		movs	r1, #0
 550              		.loc 1 336 0
 551 0042 0660     		str	r6, [r0]
 552              		.loc 1 340 0
 553 0044 04F12000 		add	r0, r4, #32
 554              		.loc 1 337 0
 555 0048 2361     		str	r3, [r4, #16]
 556              		.loc 1 340 0
 557 004a FFF7FEFF 		bl	chThdDequeueNextI
 558              	.LVL45:
 559              		.loc 1 341 0
 560 004e FFF7FEFF 		bl	chSchRescheduleS
 561              	.LVL46:
 562              		.loc 1 343 0
 563 0052 0020     		movs	r0, #0
 564              		.loc 1 351 0
 565 0054 F8BD     		pop	{r3, r4, r5, r6, r7, pc}
 566              		.cfi_endproc
 567              	.LFE227:
 568              		.size	chMBPostAheadTimeoutS, .-chMBPostAheadTimeoutS
 569 0056 00BF     		.section	.text.chMBPostAheadTimeout,"ax",%progbits
 570              		.align	1
ARM GAS  C:\Users\14122\AppData\Local\Temp\cclgVubw.s 			page 11


 571              		.p2align 4,,15
 572              		.global	chMBPostAheadTimeout
 573              		.syntax unified
 574              		.thumb
 575              		.thumb_func
 576              		.fpu softvfp
 577              		.type	chMBPostAheadTimeout, %function
 578              	chMBPostAheadTimeout:
 579              	.LFB226:
 580              		.loc 1 290 0
 581              		.cfi_startproc
 582              		@ args = 0, pretend = 0, frame = 0
 583              		@ frame_needed = 0, uses_anonymous_args = 0
 584              	.LVL47:
 585 0000 08B5     		push	{r3, lr}
 586              		.cfi_def_cfa_offset 8
 587              		.cfi_offset 3, -8
 588              		.cfi_offset 14, -4
 589              	.LBB121:
 590              	.LBB122:
 591              	.LBB123:
 592              	.LBB124:
 593              		.loc 3 493 0
 594 0002 2023     		movs	r3, #32
 595              		.syntax unified
 596              	@ 493 ".//os/common/ext/ARM/CMSIS/Core/Include/cmsis_gcc.h" 1
 597 0004 83F31188 		MSR basepri, r3
 598              	@ 0 "" 2
 599              	.LVL48:
 600              		.thumb
 601              		.syntax unified
 602              	.LBE124:
 603              	.LBE123:
 604              	.LBE122:
 605              	.LBE121:
 606              		.loc 1 294 0
 607 0008 FFF7FEFF 		bl	chMBPostAheadTimeoutS
 608              	.LVL49:
 609              	.LBB125:
 610              	.LBB126:
 611              	.LBB127:
 612              	.LBB128:
 613              	.LBB129:
 614              		.loc 3 493 0
 615 000c 0023     		movs	r3, #0
 616              		.syntax unified
 617              	@ 493 ".//os/common/ext/ARM/CMSIS/Core/Include/cmsis_gcc.h" 1
 618 000e 83F31188 		MSR basepri, r3
 619              	@ 0 "" 2
 620              	.LVL50:
 621              		.thumb
 622              		.syntax unified
 623              	.LBE129:
 624              	.LBE128:
 625              	.LBE127:
 626              	.LBE126:
 627              	.LBE125:
ARM GAS  C:\Users\14122\AppData\Local\Temp\cclgVubw.s 			page 12


 628              		.loc 1 298 0
 629 0012 08BD     		pop	{r3, pc}
 630              		.cfi_endproc
 631              	.LFE226:
 632              		.size	chMBPostAheadTimeout, .-chMBPostAheadTimeout
 633              		.section	.text.chMBPostAheadI,"ax",%progbits
 634              		.align	1
 635              		.p2align 4,,15
 636              		.global	chMBPostAheadI
 637              		.syntax unified
 638              		.thumb
 639              		.thumb_func
 640              		.fpu softvfp
 641              		.type	chMBPostAheadI, %function
 642              	chMBPostAheadI:
 643              	.LFB228:
 644              		.loc 1 368 0
 645              		.cfi_startproc
 646              		@ args = 0, pretend = 0, frame = 0
 647              		@ frame_needed = 0, uses_anonymous_args = 0
 648              	.LVL51:
 649 0000 38B5     		push	{r3, r4, r5, lr}
 650              		.cfi_def_cfa_offset 16
 651              		.cfi_offset 3, -16
 652              		.cfi_offset 4, -12
 653              		.cfi_offset 5, -8
 654              		.cfi_offset 14, -4
 655              		.loc 1 374 0
 656 0002 037D     		ldrb	r3, [r0, #20]	@ zero_extendqisi2
 657 0004 B3B9     		cbnz	r3, .L49
 658              	.LVL52:
 659 0006 D0E90035 		ldrd	r3, r5, [r0]
 660              	.LVL53:
 661 000a 0469     		ldr	r4, [r0, #16]
 662              	.LVL54:
 663              	.LBB130:
 664              	.LBB131:
 665              	.LBB132:
 666              		.loc 4 140 0
 667 000c EA1A     		subs	r2, r5, r3
 668              	.LBE132:
 669              	.LBE131:
 670              	.LBE130:
 671              		.loc 1 379 0
 672 000e B4EBA20F 		cmp	r4, r2, asr #2
 673 0012 12D0     		beq	.L50
 674              		.loc 1 380 0
 675 0014 C268     		ldr	r2, [r0, #12]
 676              		.loc 1 384 0
 677 0016 0134     		adds	r4, r4, #1
 678              		.loc 1 380 0
 679 0018 043A     		subs	r2, r2, #4
 680 001a 9A42     		cmp	r2, r3
 681 001c 0346     		mov	r3, r0
 682              		.loc 1 381 0
 683 001e 38BF     		it	cc
 684 0020 2A1F     		subcc	r2, r5, #4
ARM GAS  C:\Users\14122\AppData\Local\Temp\cclgVubw.s 			page 13


 685 0022 C260     		str	r2, [r0, #12]
 686              		.loc 1 383 0
 687 0024 1160     		str	r1, [r2]
 688              		.loc 1 387 0
 689 0026 2030     		adds	r0, r0, #32
 690              	.LVL55:
 691              		.loc 1 384 0
 692 0028 1C61     		str	r4, [r3, #16]
 693              		.loc 1 387 0
 694 002a 0021     		movs	r1, #0
 695              	.LVL56:
 696 002c FFF7FEFF 		bl	chThdDequeueNextI
 697              	.LVL57:
 698              		.loc 1 389 0
 699 0030 0020     		movs	r0, #0
 700              		.loc 1 394 0
 701 0032 38BD     		pop	{r3, r4, r5, pc}
 702              	.LVL58:
 703              	.L49:
 704              		.loc 1 375 0
 705 0034 6FF00100 		mvn	r0, #1
 706              	.LVL59:
 707              		.loc 1 394 0
 708 0038 38BD     		pop	{r3, r4, r5, pc}
 709              	.LVL60:
 710              	.L50:
 711              		.loc 1 393 0
 712 003a 4FF0FF30 		mov	r0, #-1
 713              	.LVL61:
 714              		.loc 1 394 0
 715 003e 38BD     		pop	{r3, r4, r5, pc}
 716              		.cfi_endproc
 717              	.LFE228:
 718              		.size	chMBPostAheadI, .-chMBPostAheadI
 719              		.section	.text.chMBFetchTimeoutS,"ax",%progbits
 720              		.align	1
 721              		.p2align 4,,15
 722              		.global	chMBFetchTimeoutS
 723              		.syntax unified
 724              		.thumb
 725              		.thumb_func
 726              		.fpu softvfp
 727              		.type	chMBFetchTimeoutS, %function
 728              	chMBFetchTimeoutS:
 729              	.LFB230:
 730              		.loc 1 444 0
 731              		.cfi_startproc
 732              		@ args = 0, pretend = 0, frame = 0
 733              		@ frame_needed = 0, uses_anonymous_args = 0
 734              	.LVL62:
 735 0000 F8B5     		push	{r3, r4, r5, r6, r7, lr}
 736              		.cfi_def_cfa_offset 24
 737              		.cfi_offset 3, -24
 738              		.cfi_offset 4, -20
 739              		.cfi_offset 5, -16
 740              		.cfi_offset 6, -12
 741              		.cfi_offset 7, -8
ARM GAS  C:\Users\14122\AppData\Local\Temp\cclgVubw.s 			page 14


 742              		.cfi_offset 14, -4
 743              		.loc 1 444 0
 744 0002 0446     		mov	r4, r0
 745 0004 0F46     		mov	r7, r1
 746 0006 1646     		mov	r6, r2
 747              		.loc 1 472 0
 748 0008 00F12005 		add	r5, r0, #32
 749 000c 06E0     		b	.L57
 750              	.LVL63:
 751              	.L63:
 752 000e 2369     		ldr	r3, [r4, #16]
 753              	.LVL64:
 754              		.loc 1 457 0
 755 0010 53B9     		cbnz	r3, .L62
 756              		.loc 1 472 0
 757 0012 3146     		mov	r1, r6
 758 0014 2846     		mov	r0, r5
 759 0016 FFF7FEFF 		bl	chThdEnqueueTimeoutS
 760              	.LVL65:
 761              		.loc 1 473 0
 762 001a 20B9     		cbnz	r0, .L53
 763              	.LVL66:
 764              	.L57:
 765              		.loc 1 452 0
 766 001c 237D     		ldrb	r3, [r4, #20]	@ zero_extendqisi2
 767 001e 002B     		cmp	r3, #0
 768 0020 F5D0     		beq	.L63
 769              		.loc 1 453 0
 770 0022 6FF00100 		mvn	r0, #1
 771              	.L53:
 772              		.loc 1 476 0
 773 0026 F8BD     		pop	{r3, r4, r5, r6, r7, pc}
 774              	.LVL67:
 775              	.L62:
 776              		.loc 1 458 0
 777 0028 E168     		ldr	r1, [r4, #12]
 778              		.loc 1 459 0
 779 002a 6068     		ldr	r0, [r4, #4]
 780              		.loc 1 458 0
 781 002c 0A1D     		adds	r2, r1, #4
 782              		.loc 1 459 0
 783 002e 8242     		cmp	r2, r0
 784              		.loc 1 458 0
 785 0030 0968     		ldr	r1, [r1]
 786 0032 E260     		str	r2, [r4, #12]
 787              		.loc 1 460 0
 788 0034 28BF     		it	cs
 789 0036 2268     		ldrcs	r2, [r4]
 790              		.loc 1 462 0
 791 0038 03F1FF33 		add	r3, r3, #-1
 792              		.loc 1 458 0
 793 003c 3960     		str	r1, [r7]
 794              		.loc 1 465 0
 795 003e 04F11800 		add	r0, r4, #24
 796              		.loc 1 460 0
 797 0042 28BF     		it	cs
 798 0044 E260     		strcs	r2, [r4, #12]
ARM GAS  C:\Users\14122\AppData\Local\Temp\cclgVubw.s 			page 15


 799              		.loc 1 462 0
 800 0046 2361     		str	r3, [r4, #16]
 801              		.loc 1 465 0
 802 0048 0021     		movs	r1, #0
 803 004a FFF7FEFF 		bl	chThdDequeueNextI
 804              	.LVL68:
 805              		.loc 1 466 0
 806 004e FFF7FEFF 		bl	chSchRescheduleS
 807              	.LVL69:
 808              		.loc 1 468 0
 809 0052 0020     		movs	r0, #0
 810              		.loc 1 476 0
 811 0054 F8BD     		pop	{r3, r4, r5, r6, r7, pc}
 812              		.cfi_endproc
 813              	.LFE230:
 814              		.size	chMBFetchTimeoutS, .-chMBFetchTimeoutS
 815 0056 00BF     		.section	.text.chMBFetchTimeout,"ax",%progbits
 816              		.align	1
 817              		.p2align 4,,15
 818              		.global	chMBFetchTimeout
 819              		.syntax unified
 820              		.thumb
 821              		.thumb_func
 822              		.fpu softvfp
 823              		.type	chMBFetchTimeout, %function
 824              	chMBFetchTimeout:
 825              	.LFB229:
 826              		.loc 1 415 0
 827              		.cfi_startproc
 828              		@ args = 0, pretend = 0, frame = 0
 829              		@ frame_needed = 0, uses_anonymous_args = 0
 830              	.LVL70:
 831 0000 08B5     		push	{r3, lr}
 832              		.cfi_def_cfa_offset 8
 833              		.cfi_offset 3, -8
 834              		.cfi_offset 14, -4
 835              	.LBB133:
 836              	.LBB134:
 837              	.LBB135:
 838              	.LBB136:
 839              		.loc 3 493 0
 840 0002 2023     		movs	r3, #32
 841              		.syntax unified
 842              	@ 493 ".//os/common/ext/ARM/CMSIS/Core/Include/cmsis_gcc.h" 1
 843 0004 83F31188 		MSR basepri, r3
 844              	@ 0 "" 2
 845              	.LVL71:
 846              		.thumb
 847              		.syntax unified
 848              	.LBE136:
 849              	.LBE135:
 850              	.LBE134:
 851              	.LBE133:
 852              		.loc 1 419 0
 853 0008 FFF7FEFF 		bl	chMBFetchTimeoutS
 854              	.LVL72:
 855              	.LBB137:
ARM GAS  C:\Users\14122\AppData\Local\Temp\cclgVubw.s 			page 16


 856              	.LBB138:
 857              	.LBB139:
 858              	.LBB140:
 859              	.LBB141:
 860              		.loc 3 493 0
 861 000c 0023     		movs	r3, #0
 862              		.syntax unified
 863              	@ 493 ".//os/common/ext/ARM/CMSIS/Core/Include/cmsis_gcc.h" 1
 864 000e 83F31188 		MSR basepri, r3
 865              	@ 0 "" 2
 866              	.LVL73:
 867              		.thumb
 868              		.syntax unified
 869              	.LBE141:
 870              	.LBE140:
 871              	.LBE139:
 872              	.LBE138:
 873              	.LBE137:
 874              		.loc 1 423 0
 875 0012 08BD     		pop	{r3, pc}
 876              		.cfi_endproc
 877              	.LFE229:
 878              		.size	chMBFetchTimeout, .-chMBFetchTimeout
 879              		.section	.text.chMBFetchI,"ax",%progbits
 880              		.align	1
 881              		.p2align 4,,15
 882              		.global	chMBFetchI
 883              		.syntax unified
 884              		.thumb
 885              		.thumb_func
 886              		.fpu softvfp
 887              		.type	chMBFetchI, %function
 888              	chMBFetchI:
 889              	.LFB231:
 890              		.loc 1 493 0
 891              		.cfi_startproc
 892              		@ args = 0, pretend = 0, frame = 0
 893              		@ frame_needed = 0, uses_anonymous_args = 0
 894              	.LVL74:
 895 0000 38B5     		push	{r3, r4, r5, lr}
 896              		.cfi_def_cfa_offset 16
 897              		.cfi_offset 3, -16
 898              		.cfi_offset 4, -12
 899              		.cfi_offset 5, -8
 900              		.cfi_offset 14, -4
 901              		.loc 1 499 0
 902 0002 037D     		ldrb	r3, [r0, #20]	@ zero_extendqisi2
 903 0004 C3B9     		cbnz	r3, .L69
 904 0006 0369     		ldr	r3, [r0, #16]
 905              	.LVL75:
 906              		.loc 1 504 0
 907 0008 CBB1     		cbz	r3, .L70
 908              		.loc 1 505 0
 909 000a C468     		ldr	r4, [r0, #12]
 910              		.loc 1 506 0
 911 000c 4568     		ldr	r5, [r0, #4]
 912              		.loc 1 505 0
ARM GAS  C:\Users\14122\AppData\Local\Temp\cclgVubw.s 			page 17


 913 000e 221D     		adds	r2, r4, #4
 914              		.loc 1 506 0
 915 0010 AA42     		cmp	r2, r5
 916              		.loc 1 505 0
 917 0012 2468     		ldr	r4, [r4]
 918 0014 C260     		str	r2, [r0, #12]
 919              		.loc 1 507 0
 920 0016 28BF     		it	cs
 921 0018 0268     		ldrcs	r2, [r0]
 922              		.loc 1 509 0
 923 001a 03F1FF33 		add	r3, r3, #-1
 924              		.loc 1 505 0
 925 001e 0C60     		str	r4, [r1]
 926              		.loc 1 512 0
 927 0020 00F11800 		add	r0, r0, #24
 928              	.LVL76:
 929              		.loc 1 507 0
 930 0024 28BF     		it	cs
 931 0026 40F80C2C 		strcs	r2, [r0, #-12]
 932              		.loc 1 509 0
 933 002a 40F8083C 		str	r3, [r0, #-8]
 934              		.loc 1 512 0
 935 002e 0021     		movs	r1, #0
 936              	.LVL77:
 937 0030 FFF7FEFF 		bl	chThdDequeueNextI
 938              	.LVL78:
 939              		.loc 1 514 0
 940 0034 0020     		movs	r0, #0
 941              		.loc 1 519 0
 942 0036 38BD     		pop	{r3, r4, r5, pc}
 943              	.LVL79:
 944              	.L69:
 945              		.loc 1 500 0
 946 0038 6FF00100 		mvn	r0, #1
 947              	.LVL80:
 948              		.loc 1 519 0
 949 003c 38BD     		pop	{r3, r4, r5, pc}
 950              	.LVL81:
 951              	.L70:
 952              		.loc 1 518 0
 953 003e 4FF0FF30 		mov	r0, #-1
 954              	.LVL82:
 955              		.loc 1 519 0
 956 0042 38BD     		pop	{r3, r4, r5, pc}
 957              		.cfi_endproc
 958              	.LFE231:
 959              		.size	chMBFetchI, .-chMBFetchI
 960              		.text
 961              	.Letext0:
 962              		.file 5 "c:\\chibistudio\\tools\\gnu tools arm embedded\\7.0 2017q4\\lib\\gcc\\arm-none-eabi\\7.2.
 963              		.file 6 "c:\\chibistudio\\tools\\gnu tools arm embedded\\7.0 2017q4\\arm-none-eabi\\include\\machi
 964              		.file 7 "c:\\chibistudio\\tools\\gnu tools arm embedded\\7.0 2017q4\\arm-none-eabi\\include\\sys\\
 965              		.file 8 ".//os/common/ports/ARMCMx/compilers/GCC/chtypes.h"
 966              		.file 9 ".//os/rt/include/chsystypes.h"
 967              		.file 10 ".//os/rt/include/chtime.h"
 968              		.file 11 ".//os/common/ext/ARM/CMSIS/Core/Include/core_cm3.h"
 969              		.file 12 ".//os/common/ext/ST/STM32F1xx/system_stm32f1xx.h"
ARM GAS  C:\Users\14122\AppData\Local\Temp\cclgVubw.s 			page 18


 970              		.file 13 ".//os/common/ports/ARMCMx/chcore.h"
 971              		.file 14 ".//os/common/ports/ARMCMx/chcore_v7m.h"
 972              		.file 15 ".//os/rt/include/chsem.h"
 973              		.file 16 ".//os/rt/include/chmtx.h"
 974              		.file 17 ".//os/rt/include/chsys.h"
 975              		.file 18 ".//os/rt/include/chregistry.h"
 976              		.file 19 ".//os/lib/include/chmemcore.h"
 977              		.file 20 ".//os/lib/include/chmempools.h"
 978              		.file 21 ".//os/lib/include/chfactory.h"
 979              		.file 22 ".//os/rt/include/chthreads.h"