ARM GAS  C:\Users\14122\AppData\Local\Temp\ccTFTeSX.s 			page 1


   1              		.cpu cortex-m3
   2              		.eabi_attribute 20, 1
   3              		.eabi_attribute 21, 1
   4              		.eabi_attribute 23, 3
   5              		.eabi_attribute 24, 1
   6              		.eabi_attribute 25, 1
   7              		.eabi_attribute 26, 1
   8              		.eabi_attribute 30, 2
   9              		.eabi_attribute 34, 1
  10              		.eabi_attribute 18, 4
  11              		.file	"chmempools.c"
  12              		.text
  13              	.Ltext0:
  14              		.cfi_sections	.debug_frame
  15              		.section	.text.chPoolAllocI.part.0,"ax",%progbits
  16              		.align	1
  17              		.p2align 4,,15
  18              		.syntax unified
  19              		.thumb
  20              		.thumb_func
  21              		.fpu softvfp
  22              		.type	chPoolAllocI.part.0, %function
  23              	chPoolAllocI.part.0:
  24              	.LFB231:
  25              		.file 1 ".//os/lib/src/chmempools.c"
  26              		.loc 1 126 0
  27              		.cfi_startproc
  28              		@ args = 0, pretend = 0, frame = 0
  29              		@ frame_needed = 0, uses_anonymous_args = 0
  30              		@ link register save eliminated.
  31              	.LVL0:
  32              		.loc 1 137 0
  33 0000 C368     		ldr	r3, [r0, #12]
  34 0002 13B1     		cbz	r3, .L2
  35              		.loc 1 138 0
  36 0004 8168     		ldr	r1, [r0, #8]
  37 0006 4068     		ldr	r0, [r0, #4]
  38              	.LVL1:
  39 0008 1847     		bx	r3
  40              	.LVL2:
  41              	.L2:
  42              		.loc 1 143 0
  43 000a 1846     		mov	r0, r3
  44              	.LVL3:
  45 000c 7047     		bx	lr
  46              		.cfi_endproc
  47              	.LFE231:
  48              		.size	chPoolAllocI.part.0, .-chPoolAllocI.part.0
  49 000e 00BF     		.section	.text.chPoolObjectInitAligned,"ax",%progbits
  50              		.align	1
  51              		.p2align 4,,15
  52              		.global	chPoolObjectInitAligned
  53              		.syntax unified
  54              		.thumb
  55              		.thumb_func
  56              		.fpu softvfp
  57              		.type	chPoolObjectInitAligned, %function
ARM GAS  C:\Users\14122\AppData\Local\Temp\ccTFTeSX.s 			page 2


  58              	chPoolObjectInitAligned:
  59              	.LFB220:
  60              		.loc 1 78 0
  61              		.cfi_startproc
  62              		@ args = 0, pretend = 0, frame = 0
  63              		@ frame_needed = 0, uses_anonymous_args = 0
  64              		@ link register save eliminated.
  65              	.LVL4:
  66 0000 10B4     		push	{r4}
  67              		.cfi_def_cfa_offset 4
  68              		.cfi_offset 4, -4
  69              		.loc 1 82 0
  70 0002 0024     		movs	r4, #0
  71              		.loc 1 84 0
  72 0004 C0E90112 		strd	r1, r2, [r0, #4]
  73              		.loc 1 82 0
  74 0008 0460     		str	r4, [r0]
  75              		.loc 1 85 0
  76 000a C360     		str	r3, [r0, #12]
  77              		.loc 1 86 0
  78 000c 10BC     		pop	{r4}
  79              		.cfi_restore 4
  80              		.cfi_def_cfa_offset 0
  81 000e 7047     		bx	lr
  82              		.cfi_endproc
  83              	.LFE220:
  84              		.size	chPoolObjectInitAligned, .-chPoolObjectInitAligned
  85              		.section	.text.chPoolLoadArray,"ax",%progbits
  86              		.align	1
  87              		.p2align 4,,15
  88              		.global	chPoolLoadArray
  89              		.syntax unified
  90              		.thumb
  91              		.thumb_func
  92              		.fpu softvfp
  93              		.type	chPoolLoadArray, %function
  94              	chPoolLoadArray:
  95              	.LFB221:
  96              		.loc 1 103 0
  97              		.cfi_startproc
  98              		@ args = 0, pretend = 0, frame = 0
  99              		@ frame_needed = 0, uses_anonymous_args = 0
 100              		@ link register save eliminated.
 101              	.LVL5:
 102              		.loc 1 107 0
 103 0000 7AB1     		cbz	r2, .L14
 104              		.loc 1 103 0
 105 0002 30B4     		push	{r4, r5}
 106              		.cfi_def_cfa_offset 8
 107              		.cfi_offset 4, -8
 108              		.cfi_offset 5, -4
 109              	.LBB139:
 110              	.LBB140:
 111              	.LBB141:
 112              	.LBB142:
 113              	.LBB143:
 114              	.LBB144:
ARM GAS  C:\Users\14122\AppData\Local\Temp\ccTFTeSX.s 			page 3


 115              		.file 2 ".//os/common/ext/ARM/CMSIS/Core/Include/cmsis_gcc.h"
 116              		.loc 2 493 0
 117 0004 2025     		movs	r5, #32
 118              	.LBE144:
 119              	.LBE143:
 120              	.LBE142:
 121              	.LBE141:
 122              	.LBB148:
 123              	.LBB149:
 124              	.LBB150:
 125              	.LBB151:
 126              	.LBB152:
 127 0006 0024     		movs	r4, #0
 128              	.LVL6:
 129              	.L8:
 130              	.LBE152:
 131              	.LBE151:
 132              	.LBE150:
 133              	.LBE149:
 134              	.LBE148:
 135              	.LBB157:
 136              	.LBB147:
 137              	.LBB146:
 138              	.LBB145:
 139              		.syntax unified
 140              	@ 493 ".//os/common/ext/ARM/CMSIS/Core/Include/cmsis_gcc.h" 1
 141 0008 85F31188 		MSR basepri, r5
 142              	@ 0 "" 2
 143              	.LVL7:
 144              		.thumb
 145              		.syntax unified
 146              	.LBE145:
 147              	.LBE146:
 148              	.LBE147:
 149              	.LBE157:
 150              	.LBB158:
 151              	.LBB159:
 152              		.loc 1 186 0
 153 000c 0368     		ldr	r3, [r0]
 154 000e 0B60     		str	r3, [r1]
 155              		.loc 1 187 0
 156 0010 0160     		str	r1, [r0]
 157              	.LVL8:
 158              	.LBE159:
 159              	.LBE158:
 160              	.LBB160:
 161              	.LBB156:
 162              	.LBB155:
 163              	.LBB154:
 164              	.LBB153:
 165              		.loc 2 493 0
 166              		.syntax unified
 167              	@ 493 ".//os/common/ext/ARM/CMSIS/Core/Include/cmsis_gcc.h" 1
 168 0012 84F31188 		MSR basepri, r4
 169              	@ 0 "" 2
 170              	.LVL9:
 171              		.thumb
ARM GAS  C:\Users\14122\AppData\Local\Temp\ccTFTeSX.s 			page 4


 172              		.syntax unified
 173              	.LBE153:
 174              	.LBE154:
 175              	.LBE155:
 176              	.LBE156:
 177              	.LBE160:
 178              	.LBE140:
 179              	.LBE139:
 180              		.loc 1 110 0
 181 0016 4368     		ldr	r3, [r0, #4]
 182              		.loc 1 107 0
 183 0018 013A     		subs	r2, r2, #1
 184              	.LVL10:
 185              		.loc 1 110 0
 186 001a 1944     		add	r1, r1, r3
 187              	.LVL11:
 188              		.loc 1 107 0
 189 001c F4D1     		bne	.L8
 190              		.loc 1 114 0
 191 001e 30BC     		pop	{r4, r5}
 192              		.cfi_restore 5
 193              		.cfi_restore 4
 194              		.cfi_def_cfa_offset 0
 195 0020 7047     		bx	lr
 196              	.LVL12:
 197              	.L14:
 198 0022 7047     		bx	lr
 199              		.cfi_endproc
 200              	.LFE221:
 201              		.size	chPoolLoadArray, .-chPoolLoadArray
 202              		.section	.text.chPoolAllocI,"ax",%progbits
 203              		.align	1
 204              		.p2align 4,,15
 205              		.global	chPoolAllocI
 206              		.syntax unified
 207              		.thumb
 208              		.thumb_func
 209              		.fpu softvfp
 210              		.type	chPoolAllocI, %function
 211              	chPoolAllocI:
 212              	.LFB222:
 213              		.loc 1 126 0
 214              		.cfi_startproc
 215              		@ args = 0, pretend = 0, frame = 0
 216              		@ frame_needed = 0, uses_anonymous_args = 0
 217              		@ link register save eliminated.
 218              	.LVL13:
 219              		.loc 1 132 0
 220 0000 0368     		ldr	r3, [r0]
 221              	.LVL14:
 222              		.loc 1 134 0
 223 0002 1BB1     		cbz	r3, .L22
 224              		.loc 1 135 0
 225 0004 1968     		ldr	r1, [r3]
 226 0006 0160     		str	r1, [r0]
 227              		.loc 1 143 0
 228 0008 1846     		mov	r0, r3
ARM GAS  C:\Users\14122\AppData\Local\Temp\ccTFTeSX.s 			page 5


 229              	.LVL15:
 230 000a 7047     		bx	lr
 231              	.LVL16:
 232              	.L22:
 233 000c FFF7FEBF 		b	chPoolAllocI.part.0
 234              	.LVL17:
 235              		.cfi_endproc
 236              	.LFE222:
 237              		.size	chPoolAllocI, .-chPoolAllocI
 238              		.section	.text.chPoolAlloc,"ax",%progbits
 239              		.align	1
 240              		.p2align 4,,15
 241              		.global	chPoolAlloc
 242              		.syntax unified
 243              		.thumb
 244              		.thumb_func
 245              		.fpu softvfp
 246              		.type	chPoolAlloc, %function
 247              	chPoolAlloc:
 248              	.LFB223:
 249              		.loc 1 155 0
 250              		.cfi_startproc
 251              		@ args = 0, pretend = 0, frame = 0
 252              		@ frame_needed = 0, uses_anonymous_args = 0
 253              	.LVL18:
 254 0000 08B5     		push	{r3, lr}
 255              		.cfi_def_cfa_offset 8
 256              		.cfi_offset 3, -8
 257              		.cfi_offset 14, -4
 258              	.LBB161:
 259              	.LBB162:
 260              	.LBB163:
 261              	.LBB164:
 262              		.loc 2 493 0
 263 0002 2023     		movs	r3, #32
 264              		.syntax unified
 265              	@ 493 ".//os/common/ext/ARM/CMSIS/Core/Include/cmsis_gcc.h" 1
 266 0004 83F31188 		MSR basepri, r3
 267              	@ 0 "" 2
 268              	.LVL19:
 269              		.thumb
 270              		.syntax unified
 271              	.LBE164:
 272              	.LBE163:
 273              	.LBE162:
 274              	.LBE161:
 275              	.LBB165:
 276              	.LBB166:
 277              		.loc 1 132 0
 278 0008 0368     		ldr	r3, [r0]
 279              	.LVL20:
 280              		.loc 1 134 0
 281 000a 33B1     		cbz	r3, .L24
 282              		.loc 1 135 0
 283 000c 1968     		ldr	r1, [r3]
 284              	.LBE166:
 285              	.LBE165:
ARM GAS  C:\Users\14122\AppData\Local\Temp\ccTFTeSX.s 			page 6


 286              	.LBB170:
 287              	.LBB171:
 288              	.LBB172:
 289              	.LBB173:
 290              	.LBB174:
 291              		.loc 2 493 0
 292 000e 0022     		movs	r2, #0
 293              	.LBE174:
 294              	.LBE173:
 295              	.LBE172:
 296              	.LBE171:
 297              	.LBE170:
 298              	.LBB187:
 299              	.LBB167:
 300              		.loc 1 135 0
 301 0010 0160     		str	r1, [r0]
 302              	.LVL21:
 303              	.LBE167:
 304              	.LBE187:
 305              	.LBB188:
 306              	.LBB184:
 307              	.LBB181:
 308              	.LBB178:
 309              	.LBB175:
 310              		.loc 2 493 0
 311              		.syntax unified
 312              	@ 493 ".//os/common/ext/ARM/CMSIS/Core/Include/cmsis_gcc.h" 1
 313 0012 82F31188 		MSR basepri, r2
 314              	@ 0 "" 2
 315              	.LVL22:
 316              		.thumb
 317              		.syntax unified
 318              	.LBE175:
 319              	.LBE178:
 320              	.LBE181:
 321              	.LBE184:
 322              	.LBE188:
 323              		.loc 1 163 0
 324 0016 1846     		mov	r0, r3
 325              	.LVL23:
 326 0018 08BD     		pop	{r3, pc}
 327              	.LVL24:
 328              	.L24:
 329              	.LBB189:
 330              	.LBB168:
 331 001a FFF7FEFF 		bl	chPoolAllocI.part.0
 332              	.LVL25:
 333              	.LBE168:
 334              	.LBE189:
 335              	.LBB190:
 336              	.LBB185:
 337              	.LBB182:
 338              	.LBB179:
 339              	.LBB176:
 340              		.loc 2 493 0
 341 001e 0022     		movs	r2, #0
 342              	.LBE176:
ARM GAS  C:\Users\14122\AppData\Local\Temp\ccTFTeSX.s 			page 7


 343              	.LBE179:
 344              	.LBE182:
 345              	.LBE185:
 346              	.LBE190:
 347              	.LBB191:
 348              	.LBB169:
 349 0020 0346     		mov	r3, r0
 350              	.LVL26:
 351              	.LBE169:
 352              	.LBE191:
 353              	.LBB192:
 354              	.LBB186:
 355              	.LBB183:
 356              	.LBB180:
 357              	.LBB177:
 358              		.syntax unified
 359              	@ 493 ".//os/common/ext/ARM/CMSIS/Core/Include/cmsis_gcc.h" 1
 360 0022 82F31188 		MSR basepri, r2
 361              	@ 0 "" 2
 362              	.LVL27:
 363              		.thumb
 364              		.syntax unified
 365              	.LBE177:
 366              	.LBE180:
 367              	.LBE183:
 368              	.LBE186:
 369              	.LBE192:
 370              		.loc 1 163 0
 371 0026 1846     		mov	r0, r3
 372 0028 08BD     		pop	{r3, pc}
 373              		.cfi_endproc
 374              	.LFE223:
 375              		.size	chPoolAlloc, .-chPoolAlloc
 376 002a 00BF     		.section	.text.chPoolFreeI,"ax",%progbits
 377              		.align	1
 378              		.p2align 4,,15
 379              		.global	chPoolFreeI
 380              		.syntax unified
 381              		.thumb
 382              		.thumb_func
 383              		.fpu softvfp
 384              		.type	chPoolFreeI, %function
 385              	chPoolFreeI:
 386              	.LFB224:
 387              		.loc 1 177 0
 388              		.cfi_startproc
 389              		@ args = 0, pretend = 0, frame = 0
 390              		@ frame_needed = 0, uses_anonymous_args = 0
 391              		@ link register save eliminated.
 392              	.LVL28:
 393              		.loc 1 186 0
 394 0000 0368     		ldr	r3, [r0]
 395 0002 0B60     		str	r3, [r1]
 396              		.loc 1 187 0
 397 0004 0160     		str	r1, [r0]
 398              		.loc 1 188 0
 399 0006 7047     		bx	lr
ARM GAS  C:\Users\14122\AppData\Local\Temp\ccTFTeSX.s 			page 8


 400              		.cfi_endproc
 401              	.LFE224:
 402              		.size	chPoolFreeI, .-chPoolFreeI
 403              		.section	.text.chPoolFree,"ax",%progbits
 404              		.align	1
 405              		.p2align 4,,15
 406              		.global	chPoolFree
 407              		.syntax unified
 408              		.thumb
 409              		.thumb_func
 410              		.fpu softvfp
 411              		.type	chPoolFree, %function
 412              	chPoolFree:
 413              	.LFB225:
 414              		.loc 1 202 0
 415              		.cfi_startproc
 416              		@ args = 0, pretend = 0, frame = 0
 417              		@ frame_needed = 0, uses_anonymous_args = 0
 418              		@ link register save eliminated.
 419              	.LVL29:
 420              	.LBB193:
 421              	.LBB194:
 422              	.LBB195:
 423              	.LBB196:
 424              		.loc 2 493 0
 425 0000 2023     		movs	r3, #32
 426              		.syntax unified
 427              	@ 493 ".//os/common/ext/ARM/CMSIS/Core/Include/cmsis_gcc.h" 1
 428 0002 83F31188 		MSR basepri, r3
 429              	@ 0 "" 2
 430              	.LVL30:
 431              		.thumb
 432              		.syntax unified
 433              	.LBE196:
 434              	.LBE195:
 435              	.LBE194:
 436              	.LBE193:
 437              	.LBB197:
 438              	.LBB198:
 439              		.loc 1 186 0
 440 0006 0268     		ldr	r2, [r0]
 441              	.LBE198:
 442              	.LBE197:
 443              	.LBB200:
 444              	.LBB201:
 445              	.LBB202:
 446              	.LBB203:
 447              	.LBB204:
 448              		.loc 2 493 0
 449 0008 0023     		movs	r3, #0
 450              	.LBE204:
 451              	.LBE203:
 452              	.LBE202:
 453              	.LBE201:
 454              	.LBE200:
 455              	.LBB209:
 456              	.LBB199:
ARM GAS  C:\Users\14122\AppData\Local\Temp\ccTFTeSX.s 			page 9


 457              		.loc 1 186 0
 458 000a 0A60     		str	r2, [r1]
 459              		.loc 1 187 0
 460 000c 0160     		str	r1, [r0]
 461              	.LVL31:
 462              	.LBE199:
 463              	.LBE209:
 464              	.LBB210:
 465              	.LBB208:
 466              	.LBB207:
 467              	.LBB206:
 468              	.LBB205:
 469              		.loc 2 493 0
 470              		.syntax unified
 471              	@ 493 ".//os/common/ext/ARM/CMSIS/Core/Include/cmsis_gcc.h" 1
 472 000e 83F31188 		MSR basepri, r3
 473              	@ 0 "" 2
 474              	.LVL32:
 475              		.thumb
 476              		.syntax unified
 477              	.LBE205:
 478              	.LBE206:
 479              	.LBE207:
 480              	.LBE208:
 481              	.LBE210:
 482              		.loc 1 207 0
 483 0012 7047     		bx	lr
 484              		.cfi_endproc
 485              	.LFE225:
 486              		.size	chPoolFree, .-chPoolFree
 487              		.section	.text.chGuardedPoolObjectInitAligned,"ax",%progbits
 488              		.align	1
 489              		.p2align 4,,15
 490              		.global	chGuardedPoolObjectInitAligned
 491              		.syntax unified
 492              		.thumb
 493              		.thumb_func
 494              		.fpu softvfp
 495              		.type	chGuardedPoolObjectInitAligned, %function
 496              	chGuardedPoolObjectInitAligned:
 497              	.LFB226:
 498              		.loc 1 223 0
 499              		.cfi_startproc
 500              		@ args = 0, pretend = 0, frame = 0
 501              		@ frame_needed = 0, uses_anonymous_args = 0
 502              		@ link register save eliminated.
 503              	.LVL33:
 504 0000 10B4     		push	{r4}
 505              		.cfi_def_cfa_offset 4
 506              		.cfi_offset 4, -4
 507              	.LBB211:
 508              	.LBB212:
 509              		.loc 1 82 0
 510 0002 0024     		movs	r4, #0
 511              		.loc 1 84 0
 512 0004 C0E90412 		strd	r1, r2, [r0, #16]
 513              		.loc 1 82 0
ARM GAS  C:\Users\14122\AppData\Local\Temp\ccTFTeSX.s 			page 10


 514 0008 C460     		str	r4, [r0, #12]
 515              		.loc 1 85 0
 516 000a 8461     		str	r4, [r0, #24]
 517              	.LVL34:
 518              	.LBE212:
 519              	.LBE211:
 520              		.loc 1 226 0
 521 000c 2146     		mov	r1, r4
 522              	.LVL35:
 523              		.loc 1 227 0
 524 000e 10BC     		pop	{r4}
 525              		.cfi_restore 4
 526              		.cfi_def_cfa_offset 0
 527              		.loc 1 226 0
 528 0010 FFF7FEBF 		b	chSemObjectInit
 529              	.LVL36:
 530              		.cfi_endproc
 531              	.LFE226:
 532              		.size	chGuardedPoolObjectInitAligned, .-chGuardedPoolObjectInitAligned
 533              		.section	.text.chGuardedPoolLoadArray,"ax",%progbits
 534              		.align	1
 535              		.p2align 4,,15
 536              		.global	chGuardedPoolLoadArray
 537              		.syntax unified
 538              		.thumb
 539              		.thumb_func
 540              		.fpu softvfp
 541              		.type	chGuardedPoolLoadArray, %function
 542              	chGuardedPoolLoadArray:
 543              	.LFB227:
 544              		.loc 1 242 0
 545              		.cfi_startproc
 546              		@ args = 0, pretend = 0, frame = 0
 547              		@ frame_needed = 0, uses_anonymous_args = 0
 548              	.LVL37:
 549              		.loc 1 246 0
 550 0000 CAB1     		cbz	r2, .L39
 551              		.loc 1 242 0
 552 0002 2DE9F041 		push	{r4, r5, r6, r7, r8, lr}
 553              		.cfi_def_cfa_offset 24
 554              		.cfi_offset 4, -24
 555              		.cfi_offset 5, -20
 556              		.cfi_offset 6, -16
 557              		.cfi_offset 7, -12
 558              		.cfi_offset 8, -8
 559              		.cfi_offset 14, -4
 560 0006 0446     		mov	r4, r0
 561 0008 0D46     		mov	r5, r1
 562 000a 1646     		mov	r6, r2
 563              	.LBB213:
 564              	.LBB214:
 565              	.LBB215:
 566              	.LBB216:
 567              	.LBB217:
 568              	.LBB218:
 569              	.LBB219:
 570              		.loc 2 493 0
ARM GAS  C:\Users\14122\AppData\Local\Temp\ccTFTeSX.s 			page 11


 571 000c 4FF02008 		mov	r8, #32
 572              	.LBE219:
 573              	.LBE218:
 574              	.LBE217:
 575              	.LBE216:
 576              	.LBB223:
 577              	.LBB224:
 578              	.LBB225:
 579              	.LBB226:
 580              	.LBB227:
 581 0010 0027     		movs	r7, #0
 582              	.LVL38:
 583              	.L33:
 584              	.LBE227:
 585              	.LBE226:
 586              	.LBE225:
 587              	.LBE224:
 588              	.LBE223:
 589              	.LBB232:
 590              	.LBB222:
 591              	.LBB221:
 592              	.LBB220:
 593              		.syntax unified
 594              	@ 493 ".//os/common/ext/ARM/CMSIS/Core/Include/cmsis_gcc.h" 1
 595 0012 88F31188 		MSR basepri, r8
 596              	@ 0 "" 2
 597              	.LVL39:
 598              		.thumb
 599              		.syntax unified
 600              	.LBE220:
 601              	.LBE221:
 602              	.LBE222:
 603              	.LBE232:
 604              	.LBB233:
 605              	.LBB234:
 606              	.LBB235:
 607              	.LBB236:
 608              		.loc 1 186 0
 609 0016 E368     		ldr	r3, [r4, #12]
 610              	.LBE236:
 611              	.LBE235:
 612              		.file 3 ".//os/lib/include/chmempools.h"
 613              		.loc 3 288 0
 614 0018 2046     		mov	r0, r4
 615              	.LBB238:
 616              	.LBB237:
 617              		.loc 1 186 0
 618 001a 2B60     		str	r3, [r5]
 619              		.loc 1 187 0
 620 001c E560     		str	r5, [r4, #12]
 621              	.LVL40:
 622              	.LBE237:
 623              	.LBE238:
 624              		.loc 3 288 0
 625 001e FFF7FEFF 		bl	chSemSignalI
 626              	.LVL41:
 627              	.LBE234:
ARM GAS  C:\Users\14122\AppData\Local\Temp\ccTFTeSX.s 			page 12


 628              	.LBE233:
 629              		.loc 1 324 0
 630 0022 FFF7FEFF 		bl	chSchRescheduleS
 631              	.LVL42:
 632              	.LBB239:
 633              	.LBB231:
 634              	.LBB230:
 635              	.LBB229:
 636              	.LBB228:
 637              		.loc 2 493 0
 638              		.syntax unified
 639              	@ 493 ".//os/common/ext/ARM/CMSIS/Core/Include/cmsis_gcc.h" 1
 640 0026 87F31188 		MSR basepri, r7
 641              	@ 0 "" 2
 642              	.LVL43:
 643              		.thumb
 644              		.syntax unified
 645              	.LBE228:
 646              	.LBE229:
 647              	.LBE230:
 648              	.LBE231:
 649              	.LBE239:
 650              	.LBE215:
 651              	.LBE214:
 652              	.LBE213:
 653              		.loc 1 249 0
 654 002a 2369     		ldr	r3, [r4, #16]
 655              		.loc 1 246 0
 656 002c 013E     		subs	r6, r6, #1
 657              	.LVL44:
 658              		.loc 1 249 0
 659 002e 1D44     		add	r5, r5, r3
 660              	.LVL45:
 661              		.loc 1 246 0
 662 0030 EFD1     		bne	.L33
 663              		.loc 1 253 0
 664 0032 BDE8F081 		pop	{r4, r5, r6, r7, r8, pc}
 665              	.LVL46:
 666              	.L39:
 667              		.cfi_def_cfa_offset 0
 668              		.cfi_restore 4
 669              		.cfi_restore 5
 670              		.cfi_restore 6
 671              		.cfi_restore 7
 672              		.cfi_restore 8
 673              		.cfi_restore 14
 674 0036 7047     		bx	lr
 675              		.cfi_endproc
 676              	.LFE227:
 677              		.size	chGuardedPoolLoadArray, .-chGuardedPoolLoadArray
 678              		.section	.text.chGuardedPoolAllocTimeoutS,"ax",%progbits
 679              		.align	1
 680              		.p2align 4,,15
 681              		.global	chGuardedPoolAllocTimeoutS
 682              		.syntax unified
 683              		.thumb
 684              		.thumb_func
ARM GAS  C:\Users\14122\AppData\Local\Temp\ccTFTeSX.s 			page 13


 685              		.fpu softvfp
 686              		.type	chGuardedPoolAllocTimeoutS, %function
 687              	chGuardedPoolAllocTimeoutS:
 688              	.LFB228:
 689              		.loc 1 271 0
 690              		.cfi_startproc
 691              		@ args = 0, pretend = 0, frame = 0
 692              		@ frame_needed = 0, uses_anonymous_args = 0
 693              	.LVL47:
 694 0000 10B5     		push	{r4, lr}
 695              		.cfi_def_cfa_offset 8
 696              		.cfi_offset 4, -8
 697              		.cfi_offset 14, -4
 698              		.loc 1 271 0
 699 0002 0446     		mov	r4, r0
 700              		.loc 1 274 0
 701 0004 FFF7FEFF 		bl	chSemWaitTimeoutS
 702              	.LVL48:
 703              		.loc 1 275 0
 704 0008 50B9     		cbnz	r0, .L45
 705              	.LVL49:
 706              	.LBB240:
 707              	.LBB241:
 708              		.loc 1 132 0
 709 000a E068     		ldr	r0, [r4, #12]
 710              	.LVL50:
 711              		.loc 1 134 0
 712 000c 10B1     		cbz	r0, .L44
 713              		.loc 1 135 0
 714 000e 0368     		ldr	r3, [r0]
 715 0010 E360     		str	r3, [r4, #12]
 716              	.LBE241:
 717              	.LBE240:
 718              		.loc 1 280 0
 719 0012 10BD     		pop	{r4, pc}
 720              	.LVL51:
 721              	.L44:
 722              	.LBB244:
 723              	.LBB242:
 724 0014 04F10C00 		add	r0, r4, #12
 725              	.LVL52:
 726              	.LBE242:
 727              	.LBE244:
 728 0018 BDE81040 		pop	{r4, lr}
 729              		.cfi_remember_state
 730              		.cfi_restore 14
 731              		.cfi_restore 4
 732              		.cfi_def_cfa_offset 0
 733              	.LVL53:
 734              	.LBB245:
 735              	.LBB243:
 736 001c FFF7FEBF 		b	chPoolAllocI.part.0
 737              	.LVL54:
 738              	.L45:
 739              		.cfi_restore_state
 740              	.LBE243:
 741              	.LBE245:
ARM GAS  C:\Users\14122\AppData\Local\Temp\ccTFTeSX.s 			page 14


 742              		.loc 1 276 0
 743 0020 0020     		movs	r0, #0
 744              	.LVL55:
 745              		.loc 1 280 0
 746 0022 10BD     		pop	{r4, pc}
 747              		.cfi_endproc
 748              	.LFE228:
 749              		.size	chGuardedPoolAllocTimeoutS, .-chGuardedPoolAllocTimeoutS
 750              		.section	.text.chGuardedPoolAllocTimeout,"ax",%progbits
 751              		.align	1
 752              		.p2align 4,,15
 753              		.global	chGuardedPoolAllocTimeout
 754              		.syntax unified
 755              		.thumb
 756              		.thumb_func
 757              		.fpu softvfp
 758              		.type	chGuardedPoolAllocTimeout, %function
 759              	chGuardedPoolAllocTimeout:
 760              	.LFB229:
 761              		.loc 1 298 0
 762              		.cfi_startproc
 763              		@ args = 0, pretend = 0, frame = 0
 764              		@ frame_needed = 0, uses_anonymous_args = 0
 765              	.LVL56:
 766 0000 08B5     		push	{r3, lr}
 767              		.cfi_def_cfa_offset 8
 768              		.cfi_offset 3, -8
 769              		.cfi_offset 14, -4
 770              	.LBB246:
 771              	.LBB247:
 772              	.LBB248:
 773              	.LBB249:
 774              		.loc 2 493 0
 775 0002 2023     		movs	r3, #32
 776              		.syntax unified
 777              	@ 493 ".//os/common/ext/ARM/CMSIS/Core/Include/cmsis_gcc.h" 1
 778 0004 83F31188 		MSR basepri, r3
 779              	@ 0 "" 2
 780              	.LVL57:
 781              		.thumb
 782              		.syntax unified
 783              	.LBE249:
 784              	.LBE248:
 785              	.LBE247:
 786              	.LBE246:
 787              		.loc 1 302 0
 788 0008 FFF7FEFF 		bl	chGuardedPoolAllocTimeoutS
 789              	.LVL58:
 790              	.LBB250:
 791              	.LBB251:
 792              	.LBB252:
 793              	.LBB253:
 794              	.LBB254:
 795              		.loc 2 493 0
 796 000c 0023     		movs	r3, #0
 797              		.syntax unified
 798              	@ 493 ".//os/common/ext/ARM/CMSIS/Core/Include/cmsis_gcc.h" 1
ARM GAS  C:\Users\14122\AppData\Local\Temp\ccTFTeSX.s 			page 15


 799 000e 83F31188 		MSR basepri, r3
 800              	@ 0 "" 2
 801              	.LVL59:
 802              		.thumb
 803              		.syntax unified
 804              	.LBE254:
 805              	.LBE253:
 806              	.LBE252:
 807              	.LBE251:
 808              	.LBE250:
 809              		.loc 1 306 0
 810 0012 08BD     		pop	{r3, pc}
 811              		.cfi_endproc
 812              	.LFE229:
 813              		.size	chGuardedPoolAllocTimeout, .-chGuardedPoolAllocTimeout
 814              		.section	.text.chGuardedPoolFree,"ax",%progbits
 815              		.align	1
 816              		.p2align 4,,15
 817              		.global	chGuardedPoolFree
 818              		.syntax unified
 819              		.thumb
 820              		.thumb_func
 821              		.fpu softvfp
 822              		.type	chGuardedPoolFree, %function
 823              	chGuardedPoolFree:
 824              	.LFB230:
 825              		.loc 1 320 0
 826              		.cfi_startproc
 827              		@ args = 0, pretend = 0, frame = 0
 828              		@ frame_needed = 0, uses_anonymous_args = 0
 829              	.LVL60:
 830 0000 08B5     		push	{r3, lr}
 831              		.cfi_def_cfa_offset 8
 832              		.cfi_offset 3, -8
 833              		.cfi_offset 14, -4
 834              	.LBB255:
 835              	.LBB256:
 836              	.LBB257:
 837              	.LBB258:
 838              		.loc 2 493 0
 839 0002 2022     		movs	r2, #32
 840              		.syntax unified
 841              	@ 493 ".//os/common/ext/ARM/CMSIS/Core/Include/cmsis_gcc.h" 1
 842 0004 82F31188 		MSR basepri, r2
 843              	@ 0 "" 2
 844              	.LVL61:
 845              		.thumb
 846              		.syntax unified
 847              	.LBE258:
 848              	.LBE257:
 849              	.LBE256:
 850              	.LBE255:
 851              	.LBB259:
 852              	.LBB260:
 853              	.LBB261:
 854              	.LBB262:
 855              		.loc 1 186 0
ARM GAS  C:\Users\14122\AppData\Local\Temp\ccTFTeSX.s 			page 16


 856 0008 C268     		ldr	r2, [r0, #12]
 857 000a 0A60     		str	r2, [r1]
 858              		.loc 1 187 0
 859 000c C160     		str	r1, [r0, #12]
 860              	.LVL62:
 861              	.LBE262:
 862              	.LBE261:
 863              		.loc 3 288 0
 864 000e FFF7FEFF 		bl	chSemSignalI
 865              	.LVL63:
 866              	.LBE260:
 867              	.LBE259:
 868              		.loc 1 324 0
 869 0012 FFF7FEFF 		bl	chSchRescheduleS
 870              	.LVL64:
 871              	.LBB263:
 872              	.LBB264:
 873              	.LBB265:
 874              	.LBB266:
 875              	.LBB267:
 876              		.loc 2 493 0
 877 0016 0023     		movs	r3, #0
 878              		.syntax unified
 879              	@ 493 ".//os/common/ext/ARM/CMSIS/Core/Include/cmsis_gcc.h" 1
 880 0018 83F31188 		MSR basepri, r3
 881              	@ 0 "" 2
 882              	.LVL65:
 883              		.thumb
 884              		.syntax unified
 885              	.LBE267:
 886              	.LBE266:
 887              	.LBE265:
 888              	.LBE264:
 889              	.LBE263:
 890              		.loc 1 326 0
 891 001c 08BD     		pop	{r3, pc}
 892              		.cfi_endproc
 893              	.LFE230:
 894              		.size	chGuardedPoolFree, .-chGuardedPoolFree
 895 001e 00BF     		.text
 896              	.Letext0:
 897              		.file 4 "c:\\chibistudio\\tools\\gnu tools arm embedded\\7.0 2017q4\\lib\\gcc\\arm-none-eabi\\7.2.
 898              		.file 5 "c:\\chibistudio\\tools\\gnu tools arm embedded\\7.0 2017q4\\arm-none-eabi\\include\\machi
 899              		.file 6 "c:\\chibistudio\\tools\\gnu tools arm embedded\\7.0 2017q4\\arm-none-eabi\\include\\sys\\
 900              		.file 7 ".//os/common/ports/ARMCMx/compilers/GCC/chtypes.h"
 901              		.file 8 ".//os/rt/include/chsystypes.h"
 902              		.file 9 ".//os/rt/include/chschd.h"
 903              		.file 10 ".//os/rt/include/chtime.h"
 904              		.file 11 ".//os/common/ext/ARM/CMSIS/Core/Include/core_cm3.h"
 905              		.file 12 ".//os/common/ext/ST/STM32F1xx/system_stm32f1xx.h"
 906              		.file 13 ".//os/common/ports/ARMCMx/chcore.h"
 907              		.file 14 ".//os/common/ports/ARMCMx/chcore_v7m.h"
 908              		.file 15 ".//os/rt/include/chsem.h"
 909              		.file 16 ".//os/rt/include/chmtx.h"
 910              		.file 17 ".//os/rt/include/chsys.h"
 911              		.file 18 ".//os/rt/include/chregistry.h"
 912              		.file 19 ".//os/lib/include/chmemcore.h"
ARM GAS  C:\Users\14122\AppData\Local\Temp\ccTFTeSX.s 			page 17


 913              		.file 20 ".//os/lib/include/chfactory.h"