ARM GAS  C:\Users\14122\AppData\Local\Temp\ccbdJqro.s 			page 1


   1              		.cpu cortex-m3
   2              		.eabi_attribute 20, 1
   3              		.eabi_attribute 21, 1
   4              		.eabi_attribute 23, 3
   5              		.eabi_attribute 24, 1
   6              		.eabi_attribute 25, 1
   7              		.eabi_attribute 26, 1
   8              		.eabi_attribute 30, 2
   9              		.eabi_attribute 34, 1
  10              		.eabi_attribute 18, 4
  11              		.file	"chmemcore.c"
  12              		.text
  13              	.Ltext0:
  14              		.cfi_sections	.debug_frame
  15              		.section	.text._core_init,"ax",%progbits
  16              		.align	1
  17              		.p2align 4,,15
  18              		.global	_core_init
  19              		.syntax unified
  20              		.thumb
  21              		.thumb_func
  22              		.fpu softvfp
  23              		.type	_core_init, %function
  24              	_core_init:
  25              	.LFB220:
  26              		.file 1 ".//os/lib/src/chmemcore.c"
  27              		.loc 1 81 0
  28              		.cfi_startproc
  29              		@ args = 0, pretend = 0, frame = 0
  30              		@ frame_needed = 0, uses_anonymous_args = 0
  31              		@ link register save eliminated.
  32              		.loc 1 87 0
  33 0000 024B     		ldr	r3, .L3
  34 0002 0349     		ldr	r1, .L3+4
  35              		.loc 1 88 0
  36 0004 034A     		ldr	r2, .L3+8
  37 0006 C3E90012 		strd	r1, r2, [r3]
  38              		.loc 1 96 0
  39 000a 7047     		bx	lr
  40              	.L4:
  41              		.align	2
  42              	.L3:
  43 000c 00000000 		.word	.LANCHOR0
  44 0010 00000000 		.word	__heap_base__
  45 0014 00000000 		.word	__heap_end__
  46              		.cfi_endproc
  47              	.LFE220:
  48              		.size	_core_init, .-_core_init
  49              		.section	.text.chCoreAllocAlignedWithOffsetI,"ax",%progbits
  50              		.align	1
  51              		.p2align 4,,15
  52              		.global	chCoreAllocAlignedWithOffsetI
  53              		.syntax unified
  54              		.thumb
  55              		.thumb_func
  56              		.fpu softvfp
  57              		.type	chCoreAllocAlignedWithOffsetI, %function
ARM GAS  C:\Users\14122\AppData\Local\Temp\ccbdJqro.s 			page 2


  58              	chCoreAllocAlignedWithOffsetI:
  59              	.LFB221:
  60              		.loc 1 114 0
  61              		.cfi_startproc
  62              		@ args = 0, pretend = 0, frame = 0
  63              		@ frame_needed = 0, uses_anonymous_args = 0
  64              		@ link register save eliminated.
  65              	.LVL0:
  66 0000 30B4     		push	{r4, r5}
  67              		.cfi_def_cfa_offset 8
  68              		.cfi_offset 4, -8
  69              		.cfi_offset 5, -4
  70              		.loc 1 121 0
  71 0002 0B4C     		ldr	r4, .L10
  72              		.loc 1 120 0
  73 0004 0138     		subs	r0, r0, #1
  74              	.LVL1:
  75              		.loc 1 121 0
  76 0006 2568     		ldr	r5, [r4]
  77              		.loc 1 120 0
  78 0008 4318     		adds	r3, r0, r1
  79              		.loc 1 121 0
  80 000a A818     		adds	r0, r5, r2
  81              	.LVL2:
  82 000c 0138     		subs	r0, r0, #1
  83 000e 0844     		add	r0, r0, r1
  84              		.loc 1 120 0
  85 0010 4942     		negs	r1, r1
  86              	.LVL3:
  87              		.loc 1 121 0
  88 0012 0840     		ands	r0, r0, r1
  89              	.LVL4:
  90              		.loc 1 120 0
  91 0014 1940     		ands	r1, r1, r3
  92              	.LVL5:
  93              		.loc 1 125 0
  94 0016 6368     		ldr	r3, [r4, #4]
  95              		.loc 1 122 0
  96 0018 0144     		add	r1, r1, r0
  97              	.LVL6:
  98              		.loc 1 125 0
  99 001a 8B42     		cmp	r3, r1
 100 001c 04D3     		bcc	.L8
 101              		.loc 1 125 0 is_stmt 0 discriminator 1
 102 001e 8D42     		cmp	r5, r1
 103 0020 02D8     		bhi	.L8
 104              		.loc 1 129 0 is_stmt 1
 105 0022 2160     		str	r1, [r4]
 106              		.loc 1 132 0
 107 0024 30BC     		pop	{r4, r5}
 108              		.cfi_remember_state
 109              		.cfi_restore 5
 110              		.cfi_restore 4
 111              		.cfi_def_cfa_offset 0
 112 0026 7047     		bx	lr
 113              	.L8:
 114              		.cfi_restore_state
ARM GAS  C:\Users\14122\AppData\Local\Temp\ccbdJqro.s 			page 3


 115              		.loc 1 126 0
 116 0028 0020     		movs	r0, #0
 117              	.LVL7:
 118              		.loc 1 132 0
 119 002a 30BC     		pop	{r4, r5}
 120              		.cfi_restore 5
 121              		.cfi_restore 4
 122              		.cfi_def_cfa_offset 0
 123              	.LVL8:
 124 002c 7047     		bx	lr
 125              	.L11:
 126 002e 00BF     		.align	2
 127              	.L10:
 128 0030 00000000 		.word	.LANCHOR0
 129              		.cfi_endproc
 130              	.LFE221:
 131              		.size	chCoreAllocAlignedWithOffsetI, .-chCoreAllocAlignedWithOffsetI
 132              		.section	.text.chCoreAllocAlignedWithOffset,"ax",%progbits
 133              		.align	1
 134              		.p2align 4,,15
 135              		.global	chCoreAllocAlignedWithOffset
 136              		.syntax unified
 137              		.thumb
 138              		.thumb_func
 139              		.fpu softvfp
 140              		.type	chCoreAllocAlignedWithOffset, %function
 141              	chCoreAllocAlignedWithOffset:
 142              	.LFB222:
 143              		.loc 1 150 0
 144              		.cfi_startproc
 145              		@ args = 0, pretend = 0, frame = 0
 146              		@ frame_needed = 0, uses_anonymous_args = 0
 147              		@ link register save eliminated.
 148              	.LVL9:
 149 0000 70B4     		push	{r4, r5, r6}
 150              		.cfi_def_cfa_offset 12
 151              		.cfi_offset 4, -12
 152              		.cfi_offset 5, -8
 153              		.cfi_offset 6, -4
 154              	.LBB26:
 155              	.LBB27:
 156              	.LBB28:
 157              	.LBB29:
 158              		.file 2 ".//os/common/ext/ARM/CMSIS/Core/Include/cmsis_gcc.h"
 159              		.loc 2 493 0
 160 0002 2023     		movs	r3, #32
 161              		.syntax unified
 162              	@ 493 ".//os/common/ext/ARM/CMSIS/Core/Include/cmsis_gcc.h" 1
 163 0004 83F31188 		MSR basepri, r3
 164              	@ 0 "" 2
 165              	.LVL10:
 166              		.thumb
 167              		.syntax unified
 168              	.LBE29:
 169              	.LBE28:
 170              	.LBE27:
 171              	.LBE26:
ARM GAS  C:\Users\14122\AppData\Local\Temp\ccbdJqro.s 			page 4


 172              	.LBB30:
 173              	.LBB31:
 174              		.loc 1 121 0
 175 0008 0D4C     		ldr	r4, .L17
 176 000a 4D1E     		subs	r5, r1, #1
 177 000c 2668     		ldr	r6, [r4]
 178              		.loc 1 120 0
 179 000e 4319     		adds	r3, r0, r5
 180              		.loc 1 121 0
 181 0010 B018     		adds	r0, r6, r2
 182              	.LVL11:
 183              		.loc 1 120 0
 184 0012 4942     		negs	r1, r1
 185              	.LVL12:
 186              		.loc 1 121 0
 187 0014 2844     		add	r0, r0, r5
 188              		.loc 1 120 0
 189 0016 0B40     		ands	r3, r3, r1
 190              		.loc 1 121 0
 191 0018 0840     		ands	r0, r0, r1
 192              	.LVL13:
 193              		.loc 1 125 0
 194 001a 6268     		ldr	r2, [r4, #4]
 195              	.LVL14:
 196              		.loc 1 122 0
 197 001c 0344     		add	r3, r3, r0
 198              	.LVL15:
 199              		.loc 1 125 0
 200 001e 9342     		cmp	r3, r2
 201 0020 07D8     		bhi	.L15
 202 0022 9E42     		cmp	r6, r3
 203 0024 05D8     		bhi	.L15
 204              		.loc 1 129 0
 205 0026 2360     		str	r3, [r4]
 206              	.LVL16:
 207              	.LBE31:
 208              	.LBE30:
 209              	.LBB33:
 210              	.LBB34:
 211              	.LBB35:
 212              	.LBB36:
 213              	.LBB37:
 214              		.loc 2 493 0
 215 0028 0023     		movs	r3, #0
 216              		.syntax unified
 217              	@ 493 ".//os/common/ext/ARM/CMSIS/Core/Include/cmsis_gcc.h" 1
 218 002a 83F31188 		MSR basepri, r3
 219              	@ 0 "" 2
 220              	.LVL17:
 221              		.thumb
 222              		.syntax unified
 223              	.LBE37:
 224              	.LBE36:
 225              	.LBE35:
 226              	.LBE34:
 227              	.LBE33:
 228              		.loc 1 158 0
ARM GAS  C:\Users\14122\AppData\Local\Temp\ccbdJqro.s 			page 5


 229 002e 70BC     		pop	{r4, r5, r6}
 230              		.cfi_remember_state
 231              		.cfi_restore 6
 232              		.cfi_restore 5
 233              		.cfi_restore 4
 234              		.cfi_def_cfa_offset 0
 235 0030 7047     		bx	lr
 236              	.LVL18:
 237              	.L15:
 238              		.cfi_restore_state
 239              	.LBB42:
 240              	.LBB32:
 241              		.loc 1 126 0
 242 0032 0020     		movs	r0, #0
 243              	.LVL19:
 244              	.LBE32:
 245              	.LBE42:
 246              	.LBB43:
 247              	.LBB41:
 248              	.LBB40:
 249              	.LBB39:
 250              	.LBB38:
 251              		.loc 2 493 0
 252 0034 0023     		movs	r3, #0
 253              		.syntax unified
 254              	@ 493 ".//os/common/ext/ARM/CMSIS/Core/Include/cmsis_gcc.h" 1
 255 0036 83F31188 		MSR basepri, r3
 256              	@ 0 "" 2
 257              	.LVL20:
 258              		.thumb
 259              		.syntax unified
 260              	.LBE38:
 261              	.LBE39:
 262              	.LBE40:
 263              	.LBE41:
 264              	.LBE43:
 265              		.loc 1 158 0
 266 003a 70BC     		pop	{r4, r5, r6}
 267              		.cfi_restore 6
 268              		.cfi_restore 5
 269              		.cfi_restore 4
 270              		.cfi_def_cfa_offset 0
 271 003c 7047     		bx	lr
 272              	.L18:
 273 003e 00BF     		.align	2
 274              	.L17:
 275 0040 00000000 		.word	.LANCHOR0
 276              		.cfi_endproc
 277              	.LFE222:
 278              		.size	chCoreAllocAlignedWithOffset, .-chCoreAllocAlignedWithOffset
 279              		.section	.text.chCoreGetStatusX,"ax",%progbits
 280              		.align	1
 281              		.p2align 4,,15
 282              		.global	chCoreGetStatusX
 283              		.syntax unified
 284              		.thumb
 285              		.thumb_func
ARM GAS  C:\Users\14122\AppData\Local\Temp\ccbdJqro.s 			page 6


 286              		.fpu softvfp
 287              		.type	chCoreGetStatusX, %function
 288              	chCoreGetStatusX:
 289              	.LFB223:
 290              		.loc 1 167 0
 291              		.cfi_startproc
 292              		@ args = 0, pretend = 0, frame = 0
 293              		@ frame_needed = 0, uses_anonymous_args = 0
 294              		@ link register save eliminated.
 295              		.loc 1 170 0
 296 0000 024B     		ldr	r3, .L20
 297 0002 5868     		ldr	r0, [r3, #4]
 298 0004 1B68     		ldr	r3, [r3]
 299              		.loc 1 172 0
 300 0006 C01A     		subs	r0, r0, r3
 301 0008 7047     		bx	lr
 302              	.L21:
 303 000a 00BF     		.align	2
 304              	.L20:
 305 000c 00000000 		.word	.LANCHOR0
 306              		.cfi_endproc
 307              	.LFE223:
 308              		.size	chCoreGetStatusX, .-chCoreGetStatusX
 309              		.global	ch_memcore
 310              		.section	.bss.ch_memcore,"aw",%nobits
 311              		.align	2
 312              		.set	.LANCHOR0,. + 0
 313              		.type	ch_memcore, %object
 314              		.size	ch_memcore, 8
 315              	ch_memcore:
 316 0000 00000000 		.space	8
 316      00000000 
 317              		.text
 318              	.Letext0:
 319              		.file 3 "c:\\chibistudio\\tools\\gnu tools arm embedded\\7.0 2017q4\\lib\\gcc\\arm-none-eabi\\7.2.
 320              		.file 4 "c:\\chibistudio\\tools\\gnu tools arm embedded\\7.0 2017q4\\arm-none-eabi\\include\\machi
 321              		.file 5 "c:\\chibistudio\\tools\\gnu tools arm embedded\\7.0 2017q4\\arm-none-eabi\\include\\sys\\
 322              		.file 6 ".//os/common/ports/ARMCMx/compilers/GCC/chtypes.h"
 323              		.file 7 ".//os/rt/include/chsystypes.h"
 324              		.file 8 ".//os/rt/include/chschd.h"
 325              		.file 9 ".//os/rt/include/chtime.h"
 326              		.file 10 ".//os/common/ext/ARM/CMSIS/Core/Include/core_cm3.h"
 327              		.file 11 ".//os/common/ext/ST/STM32F1xx/system_stm32f1xx.h"
 328              		.file 12 ".//os/common/ports/ARMCMx/chcore.h"
 329              		.file 13 ".//os/common/ports/ARMCMx/chcore_v7m.h"
 330              		.file 14 ".//os/rt/include/chsem.h"
 331              		.file 15 ".//os/rt/include/chmtx.h"
 332              		.file 16 ".//os/rt/include/chsys.h"
 333              		.file 17 ".//os/rt/include/chregistry.h"
 334              		.file 18 ".//os/lib/include/chmemcore.h"
 335              		.file 19 ".//os/lib/include/chmempools.h"
 336              		.file 20 ".//os/lib/include/chfactory.h"