ARM GAS  C:\Users\14122\AppData\Local\Temp\ccW1nTH3.s 			page 1


   1              		.cpu cortex-m3
   2              		.eabi_attribute 20, 1
   3              		.eabi_attribute 21, 1
   4              		.eabi_attribute 23, 3
   5              		.eabi_attribute 24, 1
   6              		.eabi_attribute 25, 1
   7              		.eabi_attribute 26, 1
   8              		.eabi_attribute 30, 2
   9              		.eabi_attribute 34, 1
  10              		.eabi_attribute 18, 4
  11              		.file	"chmsg.c"
  12              		.text
  13              	.Ltext0:
  14              		.cfi_sections	.debug_frame
  15              		.section	.text.chMsgSend,"ax",%progbits
  16              		.align	1
  17              		.p2align 4,,15
  18              		.global	chMsgSend
  19              		.syntax unified
  20              		.thumb
  21              		.thumb_func
  22              		.fpu softvfp
  23              		.type	chMsgSend, %function
  24              	chMsgSend:
  25              	.LFB220:
  26              		.file 1 ".//os/rt/src/chmsg.c"
  27              		.loc 1 87 0
  28              		.cfi_startproc
  29              		@ args = 0, pretend = 0, frame = 0
  30              		@ frame_needed = 0, uses_anonymous_args = 0
  31              	.LVL0:
  32 0000 38B5     		push	{r3, r4, r5, lr}
  33              		.cfi_def_cfa_offset 16
  34              		.cfi_offset 3, -16
  35              		.cfi_offset 4, -12
  36              		.cfi_offset 5, -8
  37              		.cfi_offset 14, -4
  38              		.loc 1 88 0
  39 0002 0E4B     		ldr	r3, .L6
  40              	.LBB52:
  41              	.LBB53:
  42              	.LBB54:
  43              	.LBB55:
  44              		.file 2 ".//os/common/ext/ARM/CMSIS/Core/Include/cmsis_gcc.h"
  45              		.loc 2 493 0
  46 0004 2022     		movs	r2, #32
  47              	.LBE55:
  48              	.LBE54:
  49              	.LBE53:
  50              	.LBE52:
  51              		.loc 1 88 0
  52 0006 9C69     		ldr	r4, [r3, #24]
  53              	.LVL1:
  54              	.LBB59:
  55              	.LBB58:
  56              	.LBB57:
  57              	.LBB56:
ARM GAS  C:\Users\14122\AppData\Local\Temp\ccW1nTH3.s 			page 2


  58              		.loc 2 493 0
  59              		.syntax unified
  60              	@ 493 ".//os/common/ext/ARM/CMSIS/Core/Include/cmsis_gcc.h" 1
  61 0008 82F31188 		MSR basepri, r2
  62              	@ 0 "" 2
  63              	.LVL2:
  64              		.thumb
  65              		.syntax unified
  66              	.LBE56:
  67              	.LBE57:
  68              	.LBE58:
  69              	.LBE59:
  70              	.LBB60:
  71              	.LBB61:
  72              		.file 3 ".//os/rt/include/chschd.h"
  73              		.loc 3 601 0
  74 000c 026B     		ldr	r2, [r0, #48]
  75              	.LBE61:
  76              	.LBE60:
  77              		.loc 1 94 0
  78 000e 00F12C05 		add	r5, r0, #44
  79              	.LBB65:
  80              	.LBB62:
  81              		.loc 3 601 0
  82 0012 C4E90052 		strd	r5, r2, [r4]
  83              	.LBE62:
  84              	.LBE65:
  85              		.loc 1 93 0
  86 0016 6162     		str	r1, [r4, #36]
  87              	.LVL3:
  88              	.LBB66:
  89              	.LBB63:
  90              		.loc 3 602 0
  91 0018 1460     		str	r4, [r2]
  92              	.LBE63:
  93              	.LBE66:
  94              		.loc 1 95 0
  95 001a 90F82020 		ldrb	r2, [r0, #32]	@ zero_extendqisi2
  96              	.LBB67:
  97              	.LBB64:
  98              		.loc 3 603 0
  99 001e 0463     		str	r4, [r0, #48]
 100              	.LVL4:
 101              	.LBE64:
 102              	.LBE67:
 103              		.loc 1 95 0
 104 0020 0E2A     		cmp	r2, #14
 105 0022 07D0     		beq	.L5
 106              	.LVL5:
 107              	.L2:
 108              		.loc 1 98 0
 109 0024 0C20     		movs	r0, #12
 110 0026 FFF7FEFF 		bl	chSchGoSleepS
 111              	.LVL6:
 112              		.loc 1 99 0
 113 002a 606A     		ldr	r0, [r4, #36]
 114              	.LVL7:
ARM GAS  C:\Users\14122\AppData\Local\Temp\ccW1nTH3.s 			page 3


 115              	.LBB68:
 116              	.LBB69:
 117              	.LBB70:
 118              	.LBB71:
 119              	.LBB72:
 120              		.loc 2 493 0
 121 002c 0023     		movs	r3, #0
 122              		.syntax unified
 123              	@ 493 ".//os/common/ext/ARM/CMSIS/Core/Include/cmsis_gcc.h" 1
 124 002e 83F31188 		MSR basepri, r3
 125              	@ 0 "" 2
 126              	.LVL8:
 127              		.thumb
 128              		.syntax unified
 129              	.LBE72:
 130              	.LBE71:
 131              	.LBE70:
 132              	.LBE69:
 133              	.LBE68:
 134              		.loc 1 103 0
 135 0032 38BD     		pop	{r3, r4, r5, pc}
 136              	.LVL9:
 137              	.L5:
 138              		.loc 1 96 0
 139 0034 FFF7FEFF 		bl	chSchReadyI
 140              	.LVL10:
 141 0038 F4E7     		b	.L2
 142              	.L7:
 143 003a 00BF     		.align	2
 144              	.L6:
 145 003c 00000000 		.word	ch
 146              		.cfi_endproc
 147              	.LFE220:
 148              		.size	chMsgSend, .-chMsgSend
 149              		.section	.text.chMsgWait,"ax",%progbits
 150              		.align	1
 151              		.p2align 4,,15
 152              		.global	chMsgWait
 153              		.syntax unified
 154              		.thumb
 155              		.thumb_func
 156              		.fpu softvfp
 157              		.type	chMsgWait, %function
 158              	chMsgWait:
 159              	.LFB221:
 160              		.loc 1 121 0
 161              		.cfi_startproc
 162              		@ args = 0, pretend = 0, frame = 0
 163              		@ frame_needed = 0, uses_anonymous_args = 0
 164              	.LVL11:
 165 0000 38B5     		push	{r3, r4, r5, lr}
 166              		.cfi_def_cfa_offset 16
 167              		.cfi_offset 3, -16
 168              		.cfi_offset 4, -12
 169              		.cfi_offset 5, -8
 170              		.cfi_offset 14, -4
 171              	.LBB73:
ARM GAS  C:\Users\14122\AppData\Local\Temp\ccW1nTH3.s 			page 4


 172              	.LBB74:
 173              	.LBB75:
 174              	.LBB76:
 175              		.loc 2 493 0
 176 0002 2023     		movs	r3, #32
 177              		.syntax unified
 178              	@ 493 ".//os/common/ext/ARM/CMSIS/Core/Include/cmsis_gcc.h" 1
 179 0004 83F31188 		MSR basepri, r3
 180              	@ 0 "" 2
 181              	.LVL12:
 182              		.thumb
 183              		.syntax unified
 184              	.LBE76:
 185              	.LBE75:
 186              	.LBE74:
 187              	.LBE73:
 188              		.loc 1 125 0
 189 0008 0C4C     		ldr	r4, .L12
 190 000a A269     		ldr	r2, [r4, #24]
 191              	.LVL13:
 192              	.LBB77:
 193              	.LBB78:
 194              		.file 4 ".//os/rt/include/chmsg.h"
 195              		.loc 4 83 0
 196 000c 1346     		mov	r3, r2
 197 000e 53F82C0F 		ldr	r0, [r3, #44]!
 198              	.LVL14:
 199              	.LBE78:
 200              	.LBE77:
 201              		.loc 1 125 0
 202 0012 9842     		cmp	r0, r3
 203 0014 09D0     		beq	.L11
 204              	.L9:
 205              	.LVL15:
 206              		.loc 1 129 0
 207 0016 0D25     		movs	r5, #13
 208              	.LBB79:
 209              	.LBB80:
 210              		.loc 3 609 0
 211 0018 0168     		ldr	r1, [r0]
 212              	.LBE80:
 213              	.LBE79:
 214              	.LBB82:
 215              	.LBB83:
 216              	.LBB84:
 217              	.LBB85:
 218              	.LBB86:
 219              		.loc 2 493 0
 220 001a 0024     		movs	r4, #0
 221              	.LBE86:
 222              	.LBE85:
 223              	.LBE84:
 224              	.LBE83:
 225              	.LBE82:
 226              	.LBB91:
 227              	.LBB81:
 228              		.loc 3 609 0
ARM GAS  C:\Users\14122\AppData\Local\Temp\ccW1nTH3.s 			page 5


 229 001c D162     		str	r1, [r2, #44]
 230              	.LVL16:
 231              		.loc 3 610 0
 232 001e 4B60     		str	r3, [r1, #4]
 233              	.LVL17:
 234              	.LBE81:
 235              	.LBE91:
 236              		.loc 1 129 0
 237 0020 80F82050 		strb	r5, [r0, #32]
 238              	.LVL18:
 239              	.LBB92:
 240              	.LBB90:
 241              	.LBB89:
 242              	.LBB88:
 243              	.LBB87:
 244              		.loc 2 493 0
 245              		.syntax unified
 246              	@ 493 ".//os/common/ext/ARM/CMSIS/Core/Include/cmsis_gcc.h" 1
 247 0024 84F31188 		MSR basepri, r4
 248              	@ 0 "" 2
 249              	.LVL19:
 250              		.thumb
 251              		.syntax unified
 252              	.LBE87:
 253              	.LBE88:
 254              	.LBE89:
 255              	.LBE90:
 256              	.LBE92:
 257              		.loc 1 133 0
 258 0028 38BD     		pop	{r3, r4, r5, pc}
 259              	.L11:
 260              		.loc 1 126 0
 261 002a 0E20     		movs	r0, #14
 262 002c FFF7FEFF 		bl	chSchGoSleepS
 263              	.LVL20:
 264 0030 A269     		ldr	r2, [r4, #24]
 265 0032 D06A     		ldr	r0, [r2, #44]
 266 0034 02F12C03 		add	r3, r2, #44
 267 0038 EDE7     		b	.L9
 268              	.L13:
 269 003a 00BF     		.align	2
 270              	.L12:
 271 003c 00000000 		.word	ch
 272              		.cfi_endproc
 273              	.LFE221:
 274              		.size	chMsgWait, .-chMsgWait
 275              		.section	.text.chMsgRelease,"ax",%progbits
 276              		.align	1
 277              		.p2align 4,,15
 278              		.global	chMsgRelease
 279              		.syntax unified
 280              		.thumb
 281              		.thumb_func
 282              		.fpu softvfp
 283              		.type	chMsgRelease, %function
 284              	chMsgRelease:
 285              	.LFB222:
ARM GAS  C:\Users\14122\AppData\Local\Temp\ccW1nTH3.s 			page 6


 286              		.loc 1 145 0
 287              		.cfi_startproc
 288              		@ args = 0, pretend = 0, frame = 0
 289              		@ frame_needed = 0, uses_anonymous_args = 0
 290              	.LVL21:
 291 0000 08B5     		push	{r3, lr}
 292              		.cfi_def_cfa_offset 8
 293              		.cfi_offset 3, -8
 294              		.cfi_offset 14, -4
 295              	.LBB93:
 296              	.LBB94:
 297              	.LBB95:
 298              	.LBB96:
 299              		.loc 2 493 0
 300 0002 2023     		movs	r3, #32
 301              		.syntax unified
 302              	@ 493 ".//os/common/ext/ARM/CMSIS/Core/Include/cmsis_gcc.h" 1
 303 0004 83F31188 		MSR basepri, r3
 304              	@ 0 "" 2
 305              	.LVL22:
 306              		.thumb
 307              		.syntax unified
 308              	.LBE96:
 309              	.LBE95:
 310              	.LBE94:
 311              	.LBE93:
 312              	.LBB97:
 313              	.LBB98:
 314              		.loc 4 117 0
 315 0008 FFF7FEFF 		bl	chSchWakeupS
 316              	.LVL23:
 317              	.LBE98:
 318              	.LBE97:
 319              	.LBB99:
 320              	.LBB100:
 321              	.LBB101:
 322              	.LBB102:
 323              	.LBB103:
 324              		.loc 2 493 0
 325 000c 0023     		movs	r3, #0
 326              		.syntax unified
 327              	@ 493 ".//os/common/ext/ARM/CMSIS/Core/Include/cmsis_gcc.h" 1
 328 000e 83F31188 		MSR basepri, r3
 329              	@ 0 "" 2
 330              	.LVL24:
 331              		.thumb
 332              		.syntax unified
 333              	.LBE103:
 334              	.LBE102:
 335              	.LBE101:
 336              	.LBE100:
 337              	.LBE99:
 338              		.loc 1 151 0
 339 0012 08BD     		pop	{r3, pc}
 340              		.cfi_endproc
 341              	.LFE222:
 342              		.size	chMsgRelease, .-chMsgRelease
ARM GAS  C:\Users\14122\AppData\Local\Temp\ccW1nTH3.s 			page 7


 343              		.text
 344              	.Letext0:
 345              		.file 5 "c:\\chibistudio\\tools\\gnu tools arm embedded\\7.0 2017q4\\lib\\gcc\\arm-none-eabi\\7.2.
 346              		.file 6 "c:\\chibistudio\\tools\\gnu tools arm embedded\\7.0 2017q4\\arm-none-eabi\\include\\machi
 347              		.file 7 "c:\\chibistudio\\tools\\gnu tools arm embedded\\7.0 2017q4\\arm-none-eabi\\include\\sys\\
 348              		.file 8 ".//os/common/ports/ARMCMx/compilers/GCC/chtypes.h"
 349              		.file 9 ".//os/rt/include/chsystypes.h"
 350              		.file 10 ".//os/rt/include/chtime.h"
 351              		.file 11 ".//os/common/ext/ARM/CMSIS/Core/Include/core_cm3.h"
 352              		.file 12 ".//os/common/ext/ST/STM32F1xx/system_stm32f1xx.h"
 353              		.file 13 ".//os/common/ports/ARMCMx/chcore.h"
 354              		.file 14 ".//os/common/ports/ARMCMx/chcore_v7m.h"
 355              		.file 15 ".//os/rt/include/chsem.h"
 356              		.file 16 ".//os/rt/include/chmtx.h"
 357              		.file 17 ".//os/rt/include/chsys.h"
 358              		.file 18 ".//os/rt/include/chregistry.h"
 359              		.file 19 ".//os/lib/include/chmemcore.h"
 360              		.file 20 ".//os/lib/include/chmempools.h"
 361              		.file 21 ".//os/lib/include/chfactory.h"
 362              		.section	.debug_info,"",%progbits
 363              	.Ldebug_info0:
 364 0000 B60D0000 		.4byte	0xdb6
 365 0004 0400     		.2byte	0x4
 366 0006 00000000 		.4byte	.Ldebug_abbrev0
 367 000a 04       		.byte	0x4
 368 000b 01       		.uleb128 0x1
 369 000c E7040000 		.4byte	.LASF157
 370 0010 0C       		.byte	0xc
 371 0011 C7050000 		.4byte	.LASF158
 372 0015 0F010000 		.4byte	.LASF159
 373 0019 70000000 		.4byte	.Ldebug_ranges0+0x70
 374 001d 00000000 		.4byte	0
 375 0021 00000000 		.4byte	.Ldebug_line0
 376 0025 02       		.uleb128 0x2
 377 0026 04       		.byte	0x4
 378 0027 05       		.byte	0x5
 379 0028 696E7400 		.ascii	"int\000"
 380 002c 03       		.uleb128 0x3
 381 002d B5020000 		.4byte	.LASF4
 382 0031 05       		.byte	0x5
 383 0032 D8       		.byte	0xd8
 384 0033 37000000 		.4byte	0x37
 385 0037 04       		.uleb128 0x4
 386 0038 04       		.byte	0x4
 387 0039 07       		.byte	0x7
 388 003a 7E000000 		.4byte	.LASF0
 389 003e 04       		.uleb128 0x4
 390 003f 08       		.byte	0x8
 391 0040 05       		.byte	0x5
 392 0041 D9030000 		.4byte	.LASF1
 393 0045 04       		.uleb128 0x4
 394 0046 08       		.byte	0x8
 395 0047 04       		.byte	0x4
 396 0048 73040000 		.4byte	.LASF2
 397 004c 04       		.uleb128 0x4
 398 004d 01       		.byte	0x1
 399 004e 06       		.byte	0x6
ARM GAS  C:\Users\14122\AppData\Local\Temp\ccW1nTH3.s 			page 8


 400 004f 06070000 		.4byte	.LASF3
 401 0053 03       		.uleb128 0x3
 402 0054 E2050000 		.4byte	.LASF5
 403 0058 06       		.byte	0x6
 404 0059 2B       		.byte	0x2b
 405 005a 5E000000 		.4byte	0x5e
 406 005e 04       		.uleb128 0x4
 407 005f 01       		.byte	0x1
 408 0060 08       		.byte	0x8
 409 0061 79060000 		.4byte	.LASF6
 410 0065 04       		.uleb128 0x4
 411 0066 02       		.byte	0x2
 412 0067 05       		.byte	0x5
 413 0068 A6040000 		.4byte	.LASF7
 414 006c 03       		.uleb128 0x3
 415 006d 3D020000 		.4byte	.LASF8
 416 0071 06       		.byte	0x6
 417 0072 39       		.byte	0x39
 418 0073 77000000 		.4byte	0x77
 419 0077 04       		.uleb128 0x4
 420 0078 02       		.byte	0x2
 421 0079 07       		.byte	0x7
 422 007a 18070000 		.4byte	.LASF9
 423 007e 03       		.uleb128 0x3
 424 007f B0000000 		.4byte	.LASF10
 425 0083 06       		.byte	0x6
 426 0084 4D       		.byte	0x4d
 427 0085 89000000 		.4byte	0x89
 428 0089 04       		.uleb128 0x4
 429 008a 04       		.byte	0x4
 430 008b 05       		.byte	0x5
 431 008c B0040000 		.4byte	.LASF11
 432 0090 03       		.uleb128 0x3
 433 0091 87060000 		.4byte	.LASF12
 434 0095 06       		.byte	0x6
 435 0096 4F       		.byte	0x4f
 436 0097 9B000000 		.4byte	0x9b
 437 009b 04       		.uleb128 0x4
 438 009c 04       		.byte	0x4
 439 009d 07       		.byte	0x7
 440 009e 37060000 		.4byte	.LASF13
 441 00a2 03       		.uleb128 0x3
 442 00a3 F0020000 		.4byte	.LASF14
 443 00a7 06       		.byte	0x6
 444 00a8 69       		.byte	0x69
 445 00a9 AD000000 		.4byte	0xad
 446 00ad 04       		.uleb128 0x4
 447 00ae 08       		.byte	0x8
 448 00af 07       		.byte	0x7
 449 00b0 26020000 		.4byte	.LASF15
 450 00b4 03       		.uleb128 0x3
 451 00b5 8B030000 		.4byte	.LASF16
 452 00b9 07       		.byte	0x7
 453 00ba 18       		.byte	0x18
 454 00bb 53000000 		.4byte	0x53
 455 00bf 05       		.uleb128 0x5
 456 00c0 B4000000 		.4byte	0xb4
ARM GAS  C:\Users\14122\AppData\Local\Temp\ccW1nTH3.s 			page 9


 457 00c4 03       		.uleb128 0x3
 458 00c5 7F040000 		.4byte	.LASF17
 459 00c9 07       		.byte	0x7
 460 00ca 24       		.byte	0x24
 461 00cb 6C000000 		.4byte	0x6c
 462 00cf 03       		.uleb128 0x3
 463 00d0 5C060000 		.4byte	.LASF18
 464 00d4 07       		.byte	0x7
 465 00d5 2C       		.byte	0x2c
 466 00d6 7E000000 		.4byte	0x7e
 467 00da 06       		.uleb128 0x6
 468 00db CF000000 		.4byte	0xcf
 469 00df 03       		.uleb128 0x3
 470 00e0 CE010000 		.4byte	.LASF19
 471 00e4 07       		.byte	0x7
 472 00e5 30       		.byte	0x30
 473 00e6 90000000 		.4byte	0x90
 474 00ea 03       		.uleb128 0x3
 475 00eb BE050000 		.4byte	.LASF20
 476 00ef 07       		.byte	0x7
 477 00f0 3C       		.byte	0x3c
 478 00f1 A2000000 		.4byte	0xa2
 479 00f5 03       		.uleb128 0x3
 480 00f6 59040000 		.4byte	.LASF21
 481 00fa 08       		.byte	0x8
 482 00fb 2A       		.byte	0x2a
 483 00fc B4000000 		.4byte	0xb4
 484 0100 03       		.uleb128 0x3
 485 0101 82030000 		.4byte	.LASF22
 486 0105 08       		.byte	0x8
 487 0106 2B       		.byte	0x2b
 488 0107 B4000000 		.4byte	0xb4
 489 010b 03       		.uleb128 0x3
 490 010c 2F060000 		.4byte	.LASF23
 491 0110 08       		.byte	0x8
 492 0111 2C       		.byte	0x2c
 493 0112 B4000000 		.4byte	0xb4
 494 0116 03       		.uleb128 0x3
 495 0117 03020000 		.4byte	.LASF24
 496 011b 08       		.byte	0x8
 497 011c 2E       		.byte	0x2e
 498 011d DF000000 		.4byte	0xdf
 499 0121 03       		.uleb128 0x3
 500 0122 EC030000 		.4byte	.LASF25
 501 0126 08       		.byte	0x8
 502 0127 2F       		.byte	0x2f
 503 0128 CF000000 		.4byte	0xcf
 504 012c 03       		.uleb128 0x3
 505 012d DF010000 		.4byte	.LASF26
 506 0131 08       		.byte	0x8
 507 0132 31       		.byte	0x31
 508 0133 DF000000 		.4byte	0xdf
 509 0137 03       		.uleb128 0x3
 510 0138 48020000 		.4byte	.LASF27
 511 013c 08       		.byte	0x8
 512 013d 33       		.byte	0x33
 513 013e CF000000 		.4byte	0xcf
ARM GAS  C:\Users\14122\AppData\Local\Temp\ccW1nTH3.s 			page 10


 514 0142 03       		.uleb128 0x3
 515 0143 61040000 		.4byte	.LASF28
 516 0147 08       		.byte	0x8
 517 0148 34       		.byte	0x34
 518 0149 DF000000 		.4byte	0xdf
 519 014d 03       		.uleb128 0x3
 520 014e 98020000 		.4byte	.LASF29
 521 0152 09       		.byte	0x9
 522 0153 34       		.byte	0x34
 523 0154 58010000 		.4byte	0x158
 524 0158 07       		.uleb128 0x7
 525 0159 AB030000 		.4byte	.LASF47
 526 015d 44       		.byte	0x44
 527 015e 03       		.byte	0x3
 528 015f 8E       		.byte	0x8e
 529 0160 36020000 		.4byte	0x236
 530 0164 08       		.uleb128 0x8
 531 0165 56060000 		.4byte	.LASF30
 532 0169 03       		.byte	0x3
 533 016a 8F       		.byte	0x8f
 534 016b 6B020000 		.4byte	0x26b
 535 016f 00       		.byte	0
 536 0170 08       		.uleb128 0x8
 537 0171 43030000 		.4byte	.LASF31
 538 0175 03       		.byte	0x3
 539 0176 90       		.byte	0x90
 540 0177 16010000 		.4byte	0x116
 541 017b 08       		.byte	0x8
 542 017c 09       		.uleb128 0x9
 543 017d 63747800 		.ascii	"ctx\000"
 544 0181 03       		.byte	0x3
 545 0182 91       		.byte	0x91
 546 0183 BD040000 		.4byte	0x4bd
 547 0187 0C       		.byte	0xc
 548 0188 08       		.uleb128 0x8
 549 0189 73060000 		.4byte	.LASF32
 550 018d 03       		.byte	0x3
 551 018e 93       		.byte	0x93
 552 018f 41020000 		.4byte	0x241
 553 0193 10       		.byte	0x10
 554 0194 08       		.uleb128 0x8
 555 0195 7F070000 		.4byte	.LASF33
 556 0199 03       		.byte	0x3
 557 019a 94       		.byte	0x94
 558 019b 41020000 		.4byte	0x241
 559 019f 14       		.byte	0x14
 560 01a0 08       		.uleb128 0x8
 561 01a1 F9050000 		.4byte	.LASF34
 562 01a5 03       		.byte	0x3
 563 01a6 9B       		.byte	0x9b
 564 01a7 21060000 		.4byte	0x621
 565 01ab 18       		.byte	0x18
 566 01ac 08       		.uleb128 0x8
 567 01ad 69030000 		.4byte	.LASF35
 568 01b1 03       		.byte	0x3
 569 01b2 A4       		.byte	0xa4
 570 01b3 38060000 		.4byte	0x638
ARM GAS  C:\Users\14122\AppData\Local\Temp\ccW1nTH3.s 			page 11


 571 01b7 1C       		.byte	0x1c
 572 01b8 08       		.uleb128 0x8
 573 01b9 E2060000 		.4byte	.LASF36
 574 01bd 03       		.byte	0x3
 575 01be A9       		.byte	0xa9
 576 01bf 00010000 		.4byte	0x100
 577 01c3 20       		.byte	0x20
 578 01c4 08       		.uleb128 0x8
 579 01c5 5C000000 		.4byte	.LASF37
 580 01c9 03       		.byte	0x3
 581 01ca AD       		.byte	0xad
 582 01cb F5000000 		.4byte	0xf5
 583 01cf 21       		.byte	0x21
 584 01d0 08       		.uleb128 0x8
 585 01d1 BA000000 		.4byte	.LASF38
 586 01d5 03       		.byte	0x3
 587 01d6 B2       		.byte	0xb2
 588 01d7 0B010000 		.4byte	0x10b
 589 01db 22       		.byte	0x22
 590 01dc 0A       		.uleb128 0xa
 591 01dd 7500     		.ascii	"u\000"
 592 01df 03       		.byte	0x3
 593 01e0 0301     		.2byte	0x103
 594 01e2 57050000 		.4byte	0x557
 595 01e6 24       		.byte	0x24
 596 01e7 0B       		.uleb128 0xb
 597 01e8 92060000 		.4byte	.LASF39
 598 01ec 03       		.byte	0x3
 599 01ed 0801     		.2byte	0x108
 600 01ef 47020000 		.4byte	0x247
 601 01f3 28       		.byte	0x28
 602 01f4 0B       		.uleb128 0xb
 603 01f5 A2030000 		.4byte	.LASF40
 604 01f9 03       		.byte	0x3
 605 01fa 0E01     		.2byte	0x10e
 606 01fc 6B020000 		.4byte	0x26b
 607 0200 2C       		.byte	0x2c
 608 0201 0B       		.uleb128 0xb
 609 0202 75000000 		.4byte	.LASF41
 610 0206 03       		.byte	0x3
 611 0207 1401     		.2byte	0x114
 612 0209 2C010000 		.4byte	0x12c
 613 020d 34       		.byte	0x34
 614 020e 0B       		.uleb128 0xb
 615 020f 71020000 		.4byte	.LASF42
 616 0213 03       		.byte	0x3
 617 0214 1B01     		.2byte	0x11b
 618 0216 1B060000 		.4byte	0x61b
 619 021a 38       		.byte	0x38
 620 021b 0B       		.uleb128 0xb
 621 021c 6C000000 		.4byte	.LASF43
 622 0220 03       		.byte	0x3
 623 0221 1F01     		.2byte	0x11f
 624 0223 16010000 		.4byte	0x116
 625 0227 3C       		.byte	0x3c
 626 0228 0B       		.uleb128 0xb
 627 0229 9F070000 		.4byte	.LASF44
ARM GAS  C:\Users\14122\AppData\Local\Temp\ccW1nTH3.s 			page 12


 628 022d 03       		.byte	0x3
 629 022e 2601     		.2byte	0x126
 630 0230 1E030000 		.4byte	0x31e
 631 0234 40       		.byte	0x40
 632 0235 00       		.byte	0
 633 0236 03       		.uleb128 0x3
 634 0237 56030000 		.4byte	.LASF45
 635 023b 09       		.byte	0x9
 636 023c 39       		.byte	0x39
 637 023d 41020000 		.4byte	0x241
 638 0241 0C       		.uleb128 0xc
 639 0242 04       		.byte	0x4
 640 0243 4D010000 		.4byte	0x14d
 641 0247 03       		.uleb128 0x3
 642 0248 98000000 		.4byte	.LASF46
 643 024c 09       		.byte	0x9
 644 024d 3E       		.byte	0x3e
 645 024e 52020000 		.4byte	0x252
 646 0252 07       		.uleb128 0x7
 647 0253 00000000 		.4byte	.LASF48
 648 0257 04       		.byte	0x4
 649 0258 03       		.byte	0x3
 650 0259 7C       		.byte	0x7c
 651 025a 6B020000 		.4byte	0x26b
 652 025e 08       		.uleb128 0x8
 653 025f 8B000000 		.4byte	.LASF49
 654 0263 03       		.byte	0x3
 655 0264 7D       		.byte	0x7d
 656 0265 41020000 		.4byte	0x241
 657 0269 00       		.byte	0
 658 026a 00       		.byte	0
 659 026b 03       		.uleb128 0x3
 660 026c 61020000 		.4byte	.LASF50
 661 0270 09       		.byte	0x9
 662 0271 45       		.byte	0x45
 663 0272 76020000 		.4byte	0x276
 664 0276 07       		.uleb128 0x7
 665 0277 6E010000 		.4byte	.LASF51
 666 027b 08       		.byte	0x8
 667 027c 03       		.byte	0x3
 668 027d 83       		.byte	0x83
 669 027e 9B020000 		.4byte	0x29b
 670 0282 08       		.uleb128 0x8
 671 0283 8B000000 		.4byte	.LASF49
 672 0287 03       		.byte	0x3
 673 0288 84       		.byte	0x84
 674 0289 41020000 		.4byte	0x241
 675 028d 00       		.byte	0
 676 028e 08       		.uleb128 0x8
 677 028f 69010000 		.4byte	.LASF52
 678 0293 03       		.byte	0x3
 679 0294 85       		.byte	0x85
 680 0295 41020000 		.4byte	0x241
 681 0299 04       		.byte	0x4
 682 029a 00       		.byte	0
 683 029b 03       		.uleb128 0x3
 684 029c 49060000 		.4byte	.LASF53
ARM GAS  C:\Users\14122\AppData\Local\Temp\ccW1nTH3.s 			page 13


 685 02a0 09       		.byte	0x9
 686 02a1 4C       		.byte	0x4c
 687 02a2 A6020000 		.4byte	0x2a6
 688 02a6 0D       		.uleb128 0xd
 689 02a7 01010000 		.4byte	.LASF54
 690 02ab 1C       		.byte	0x1c
 691 02ac 03       		.byte	0x3
 692 02ad 5E01     		.2byte	0x15e
 693 02af 02030000 		.4byte	0x302
 694 02b3 0B       		.uleb128 0xb
 695 02b4 56060000 		.4byte	.LASF30
 696 02b8 03       		.byte	0x3
 697 02b9 5F01     		.2byte	0x15f
 698 02bb 6B020000 		.4byte	0x26b
 699 02bf 00       		.byte	0
 700 02c0 0B       		.uleb128 0xb
 701 02c1 43030000 		.4byte	.LASF31
 702 02c5 03       		.byte	0x3
 703 02c6 6001     		.2byte	0x160
 704 02c8 16010000 		.4byte	0x116
 705 02cc 08       		.byte	0x8
 706 02cd 0A       		.uleb128 0xa
 707 02ce 63747800 		.ascii	"ctx\000"
 708 02d2 03       		.byte	0x3
 709 02d3 6201     		.2byte	0x162
 710 02d5 BD040000 		.4byte	0x4bd
 711 02d9 0C       		.byte	0xc
 712 02da 0B       		.uleb128 0xb
 713 02db 73060000 		.4byte	.LASF32
 714 02df 03       		.byte	0x3
 715 02e0 6501     		.2byte	0x165
 716 02e2 41020000 		.4byte	0x241
 717 02e6 10       		.byte	0x10
 718 02e7 0B       		.uleb128 0xb
 719 02e8 7F070000 		.4byte	.LASF33
 720 02ec 03       		.byte	0x3
 721 02ed 6601     		.2byte	0x166
 722 02ef 41020000 		.4byte	0x241
 723 02f3 14       		.byte	0x14
 724 02f4 0B       		.uleb128 0xb
 725 02f5 53070000 		.4byte	.LASF55
 726 02f9 03       		.byte	0x3
 727 02fa 6901     		.2byte	0x169
 728 02fc 41020000 		.4byte	0x241
 729 0300 18       		.byte	0x18
 730 0301 00       		.byte	0
 731 0302 03       		.uleb128 0x3
 732 0303 9C010000 		.4byte	.LASF56
 733 0307 09       		.byte	0x9
 734 0308 51       		.byte	0x51
 735 0309 0D030000 		.4byte	0x30d
 736 030d 0C       		.uleb128 0xc
 737 030e 04       		.byte	0x4
 738 030f 13030000 		.4byte	0x313
 739 0313 0E       		.uleb128 0xe
 740 0314 1E030000 		.4byte	0x31e
 741 0318 0F       		.uleb128 0xf
ARM GAS  C:\Users\14122\AppData\Local\Temp\ccW1nTH3.s 			page 14


 742 0319 1E030000 		.4byte	0x31e
 743 031d 00       		.byte	0
 744 031e 10       		.uleb128 0x10
 745 031f 04       		.byte	0x4
 746 0320 03       		.uleb128 0x3
 747 0321 FB030000 		.4byte	.LASF57
 748 0325 09       		.byte	0x9
 749 0326 56       		.byte	0x56
 750 0327 2B030000 		.4byte	0x32b
 751 032b 0D       		.uleb128 0xd
 752 032c 0B020000 		.4byte	.LASF58
 753 0330 14       		.byte	0x14
 754 0331 03       		.byte	0x3
 755 0332 3901     		.2byte	0x139
 756 0334 7A030000 		.4byte	0x37a
 757 0338 0B       		.uleb128 0xb
 758 0339 8B000000 		.4byte	.LASF49
 759 033d 03       		.byte	0x3
 760 033e 3A01     		.2byte	0x13a
 761 0340 3E060000 		.4byte	0x63e
 762 0344 00       		.byte	0
 763 0345 0B       		.uleb128 0xb
 764 0346 69010000 		.4byte	.LASF52
 765 034a 03       		.byte	0x3
 766 034b 3B01     		.2byte	0x13b
 767 034d 3E060000 		.4byte	0x63e
 768 0351 04       		.byte	0x4
 769 0352 0B       		.uleb128 0xb
 770 0353 12070000 		.4byte	.LASF59
 771 0357 03       		.byte	0x3
 772 0358 3C01     		.2byte	0x13c
 773 035a 45040000 		.4byte	0x445
 774 035e 08       		.byte	0x8
 775 035f 0B       		.uleb128 0xb
 776 0360 5D010000 		.4byte	.LASF60
 777 0364 03       		.byte	0x3
 778 0365 3D01     		.2byte	0x13d
 779 0367 02030000 		.4byte	0x302
 780 036b 0C       		.byte	0xc
 781 036c 0A       		.uleb128 0xa
 782 036d 70617200 		.ascii	"par\000"
 783 0371 03       		.byte	0x3
 784 0372 3F01     		.2byte	0x13f
 785 0374 1E030000 		.4byte	0x31e
 786 0378 10       		.byte	0x10
 787 0379 00       		.byte	0
 788 037a 03       		.uleb128 0x3
 789 037b 9A060000 		.4byte	.LASF61
 790 037f 09       		.byte	0x9
 791 0380 5B       		.byte	0x5b
 792 0381 85030000 		.4byte	0x385
 793 0385 0D       		.uleb128 0xd
 794 0386 79020000 		.4byte	.LASF62
 795 038a 10       		.byte	0x10
 796 038b 03       		.byte	0x3
 797 038c 4901     		.2byte	0x149
 798 038e C7030000 		.4byte	0x3c7
ARM GAS  C:\Users\14122\AppData\Local\Temp\ccW1nTH3.s 			page 15


 799 0392 0B       		.uleb128 0xb
 800 0393 8B000000 		.4byte	.LASF49
 801 0397 03       		.byte	0x3
 802 0398 4A01     		.2byte	0x14a
 803 039a 3E060000 		.4byte	0x63e
 804 039e 00       		.byte	0
 805 039f 0B       		.uleb128 0xb
 806 03a0 69010000 		.4byte	.LASF52
 807 03a4 03       		.byte	0x3
 808 03a5 4C01     		.2byte	0x14c
 809 03a7 3E060000 		.4byte	0x63e
 810 03ab 04       		.byte	0x4
 811 03ac 0B       		.uleb128 0xb
 812 03ad 12070000 		.4byte	.LASF59
 813 03b1 03       		.byte	0x3
 814 03b2 4E01     		.2byte	0x14e
 815 03b4 45040000 		.4byte	0x445
 816 03b8 08       		.byte	0x8
 817 03b9 0B       		.uleb128 0xb
 818 03ba B5050000 		.4byte	.LASF63
 819 03be 03       		.byte	0x3
 820 03bf 5601     		.2byte	0x156
 821 03c1 3A040000 		.4byte	0x43a
 822 03c5 0C       		.byte	0xc
 823 03c6 00       		.byte	0
 824 03c7 03       		.uleb128 0x3
 825 03c8 CA030000 		.4byte	.LASF64
 826 03cc 09       		.byte	0x9
 827 03cd 60       		.byte	0x60
 828 03ce D2030000 		.4byte	0x3d2
 829 03d2 0D       		.uleb128 0xd
 830 03d3 BE010000 		.4byte	.LASF65
 831 03d7 04       		.byte	0x4
 832 03d8 03       		.byte	0x3
 833 03d9 7001     		.2byte	0x170
 834 03db ED030000 		.4byte	0x3ed
 835 03df 0B       		.uleb128 0xb
 836 03e0 4F040000 		.4byte	.LASF66
 837 03e4 03       		.byte	0x3
 838 03e5 7801     		.2byte	0x178
 839 03e7 27060000 		.4byte	0x627
 840 03eb 00       		.byte	0
 841 03ec 00       		.byte	0
 842 03ed 03       		.uleb128 0x3
 843 03ee F4060000 		.4byte	.LASF67
 844 03f2 09       		.byte	0x9
 845 03f3 65       		.byte	0x65
 846 03f4 F8030000 		.4byte	0x3f8
 847 03f8 0D       		.uleb128 0xd
 848 03f9 DD040000 		.4byte	.LASF68
 849 03fd 74       		.byte	0x74
 850 03fe 03       		.byte	0x3
 851 03ff 9001     		.2byte	0x190
 852 0401 3A040000 		.4byte	0x43a
 853 0405 0B       		.uleb128 0xb
 854 0406 DC050000 		.4byte	.LASF69
 855 040a 03       		.byte	0x3
ARM GAS  C:\Users\14122\AppData\Local\Temp\ccW1nTH3.s 			page 16


 856 040b 9401     		.2byte	0x194
 857 040d 9B020000 		.4byte	0x29b
 858 0411 00       		.byte	0
 859 0412 0B       		.uleb128 0xb
 860 0413 E3000000 		.4byte	.LASF70
 861 0417 03       		.byte	0x3
 862 0418 9801     		.2byte	0x198
 863 041a 7A030000 		.4byte	0x37a
 864 041e 1C       		.byte	0x1c
 865 041f 0A       		.uleb128 0xa
 866 0420 64626700 		.ascii	"dbg\000"
 867 0424 03       		.byte	0x3
 868 0425 9C01     		.2byte	0x19c
 869 0427 C7030000 		.4byte	0x3c7
 870 042b 2C       		.byte	0x2c
 871 042c 0B       		.uleb128 0xb
 872 042d 68040000 		.4byte	.LASF71
 873 0431 03       		.byte	0x3
 874 0432 A001     		.2byte	0x1a0
 875 0434 4D010000 		.4byte	0x14d
 876 0438 30       		.byte	0x30
 877 0439 00       		.byte	0
 878 043a 03       		.uleb128 0x3
 879 043b 62000000 		.4byte	.LASF72
 880 043f 0A       		.byte	0xa
 881 0440 6F       		.byte	0x6f
 882 0441 C4000000 		.4byte	0xc4
 883 0445 03       		.uleb128 0x3
 884 0446 38040000 		.4byte	.LASF73
 885 044a 0A       		.byte	0xa
 886 044b 79       		.byte	0x79
 887 044c DF000000 		.4byte	0xdf
 888 0450 11       		.uleb128 0x11
 889 0451 C5040000 		.4byte	.LASF74
 890 0455 0B       		.byte	0xb
 891 0456 4007     		.2byte	0x740
 892 0458 DA000000 		.4byte	0xda
 893 045c 12       		.uleb128 0x12
 894 045d 19000000 		.4byte	.LASF75
 895 0461 0C       		.byte	0xc
 896 0462 45       		.byte	0x45
 897 0463 DF000000 		.4byte	0xdf
 898 0467 13       		.uleb128 0x13
 899 0468 BF000000 		.4byte	0xbf
 900 046c 77040000 		.4byte	0x477
 901 0470 14       		.uleb128 0x14
 902 0471 37000000 		.4byte	0x37
 903 0475 0F       		.byte	0xf
 904 0476 00       		.byte	0
 905 0477 05       		.uleb128 0x5
 906 0478 67040000 		.4byte	0x467
 907 047c 12       		.uleb128 0x12
 908 047d 2A040000 		.4byte	.LASF76
 909 0481 0C       		.byte	0xc
 910 0482 46       		.byte	0x46
 911 0483 77040000 		.4byte	0x477
 912 0487 13       		.uleb128 0x13
ARM GAS  C:\Users\14122\AppData\Local\Temp\ccW1nTH3.s 			page 17


 913 0488 BF000000 		.4byte	0xbf
 914 048c 97040000 		.4byte	0x497
 915 0490 14       		.uleb128 0x14
 916 0491 37000000 		.4byte	0x37
 917 0495 07       		.byte	0x7
 918 0496 00       		.byte	0
 919 0497 05       		.uleb128 0x5
 920 0498 87040000 		.4byte	0x487
 921 049c 12       		.uleb128 0x12
 922 049d FB020000 		.4byte	.LASF77
 923 04a1 0C       		.byte	0xc
 924 04a2 47       		.byte	0x47
 925 04a3 97040000 		.4byte	0x497
 926 04a7 03       		.uleb128 0x3
 927 04a8 48000000 		.4byte	.LASF78
 928 04ac 0D       		.byte	0xd
 929 04ad 65       		.byte	0x65
 930 04ae 1E030000 		.4byte	0x31e
 931 04b2 03       		.uleb128 0x3
 932 04b3 38070000 		.4byte	.LASF79
 933 04b7 0D       		.byte	0xd
 934 04b8 6D       		.byte	0x6d
 935 04b9 EA000000 		.4byte	0xea
 936 04bd 07       		.uleb128 0x7
 937 04be F4000000 		.4byte	.LASF80
 938 04c2 04       		.byte	0x4
 939 04c3 0D       		.byte	0xd
 940 04c4 89       		.byte	0x89
 941 04c5 D5040000 		.4byte	0x4d5
 942 04c9 09       		.uleb128 0x9
 943 04ca 737000   		.ascii	"sp\000"
 944 04cd 0D       		.byte	0xd
 945 04ce 8A       		.byte	0x8a
 946 04cf 51050000 		.4byte	0x551
 947 04d3 00       		.byte	0
 948 04d4 00       		.byte	0
 949 04d5 0D       		.uleb128 0xd
 950 04d6 B9040000 		.4byte	.LASF81
 951 04da 24       		.byte	0x24
 952 04db 0E       		.byte	0xe
 953 04dc 5901     		.2byte	0x159
 954 04de 51050000 		.4byte	0x551
 955 04e2 0A       		.uleb128 0xa
 956 04e3 723400   		.ascii	"r4\000"
 957 04e6 0E       		.byte	0xe
 958 04e7 6C01     		.2byte	0x16c
 959 04e9 A7040000 		.4byte	0x4a7
 960 04ed 00       		.byte	0
 961 04ee 0A       		.uleb128 0xa
 962 04ef 723500   		.ascii	"r5\000"
 963 04f2 0E       		.byte	0xe
 964 04f3 6D01     		.2byte	0x16d
 965 04f5 A7040000 		.4byte	0x4a7
 966 04f9 04       		.byte	0x4
 967 04fa 0A       		.uleb128 0xa
 968 04fb 723600   		.ascii	"r6\000"
 969 04fe 0E       		.byte	0xe
ARM GAS  C:\Users\14122\AppData\Local\Temp\ccW1nTH3.s 			page 18


 970 04ff 6E01     		.2byte	0x16e
 971 0501 A7040000 		.4byte	0x4a7
 972 0505 08       		.byte	0x8
 973 0506 0A       		.uleb128 0xa
 974 0507 723700   		.ascii	"r7\000"
 975 050a 0E       		.byte	0xe
 976 050b 6F01     		.2byte	0x16f
 977 050d A7040000 		.4byte	0x4a7
 978 0511 0C       		.byte	0xc
 979 0512 0A       		.uleb128 0xa
 980 0513 723800   		.ascii	"r8\000"
 981 0516 0E       		.byte	0xe
 982 0517 7001     		.2byte	0x170
 983 0519 A7040000 		.4byte	0x4a7
 984 051d 10       		.byte	0x10
 985 051e 0A       		.uleb128 0xa
 986 051f 723900   		.ascii	"r9\000"
 987 0522 0E       		.byte	0xe
 988 0523 7101     		.2byte	0x171
 989 0525 A7040000 		.4byte	0x4a7
 990 0529 14       		.byte	0x14
 991 052a 0A       		.uleb128 0xa
 992 052b 72313000 		.ascii	"r10\000"
 993 052f 0E       		.byte	0xe
 994 0530 7201     		.2byte	0x172
 995 0532 A7040000 		.4byte	0x4a7
 996 0536 18       		.byte	0x18
 997 0537 0A       		.uleb128 0xa
 998 0538 72313100 		.ascii	"r11\000"
 999 053c 0E       		.byte	0xe
 1000 053d 7301     		.2byte	0x173
 1001 053f A7040000 		.4byte	0x4a7
 1002 0543 1C       		.byte	0x1c
 1003 0544 0A       		.uleb128 0xa
 1004 0545 6C7200   		.ascii	"lr\000"
 1005 0548 0E       		.byte	0xe
 1006 0549 7401     		.2byte	0x174
 1007 054b A7040000 		.4byte	0x4a7
 1008 054f 20       		.byte	0x20
 1009 0550 00       		.byte	0
 1010 0551 0C       		.uleb128 0xc
 1011 0552 04       		.byte	0x4
 1012 0553 D5040000 		.4byte	0x4d5
 1013 0557 15       		.uleb128 0x15
 1014 0558 04       		.byte	0x4
 1015 0559 03       		.byte	0x3
 1016 055a C6       		.byte	0xc6
 1017 055b B9050000 		.4byte	0x5b9
 1018 055f 16       		.uleb128 0x16
 1019 0560 BC020000 		.4byte	.LASF82
 1020 0564 03       		.byte	0x3
 1021 0565 CD       		.byte	0xcd
 1022 0566 21010000 		.4byte	0x121
 1023 056a 16       		.uleb128 0x16
 1024 056b 8D070000 		.4byte	.LASF83
 1025 056f 03       		.byte	0x3
 1026 0570 D4       		.byte	0xd4
ARM GAS  C:\Users\14122\AppData\Local\Temp\ccW1nTH3.s 			page 19


 1027 0571 21010000 		.4byte	0x121
 1028 0575 16       		.uleb128 0x16
 1029 0576 D2000000 		.4byte	.LASF84
 1030 057a 03       		.byte	0x3
 1031 057b DB       		.byte	0xdb
 1032 057c 1E030000 		.4byte	0x31e
 1033 0580 16       		.uleb128 0x16
 1034 0581 00070000 		.4byte	.LASF85
 1035 0585 03       		.byte	0x3
 1036 0586 E2       		.byte	0xe2
 1037 0587 B9050000 		.4byte	0x5b9
 1038 058b 16       		.uleb128 0x16
 1039 058c D7010000 		.4byte	.LASF86
 1040 0590 03       		.byte	0x3
 1041 0591 E7       		.byte	0xe7
 1042 0592 21010000 		.4byte	0x121
 1043 0596 16       		.uleb128 0x16
 1044 0597 64060000 		.4byte	.LASF87
 1045 059b 03       		.byte	0x3
 1046 059c F0       		.byte	0xf0
 1047 059d E4050000 		.4byte	0x5e4
 1048 05a1 16       		.uleb128 0x16
 1049 05a2 29000000 		.4byte	.LASF88
 1050 05a6 03       		.byte	0x3
 1051 05a7 F9       		.byte	0xf9
 1052 05a8 1B060000 		.4byte	0x61b
 1053 05ac 17       		.uleb128 0x17
 1054 05ad 62010000 		.4byte	.LASF89
 1055 05b1 03       		.byte	0x3
 1056 05b2 0101     		.2byte	0x101
 1057 05b4 2C010000 		.4byte	0x12c
 1058 05b8 00       		.byte	0
 1059 05b9 0C       		.uleb128 0xc
 1060 05ba 04       		.byte	0x4
 1061 05bb 36020000 		.4byte	0x236
 1062 05bf 07       		.uleb128 0x7
 1063 05c0 F6010000 		.4byte	.LASF90
 1064 05c4 0C       		.byte	0xc
 1065 05c5 0F       		.byte	0xf
 1066 05c6 34       		.byte	0x34
 1067 05c7 E4050000 		.4byte	0x5e4
 1068 05cb 08       		.uleb128 0x8
 1069 05cc 56060000 		.4byte	.LASF30
 1070 05d0 0F       		.byte	0xf
 1071 05d1 35       		.byte	0x35
 1072 05d2 6B020000 		.4byte	0x26b
 1073 05d6 00       		.byte	0
 1074 05d7 09       		.uleb128 0x9
 1075 05d8 636E7400 		.ascii	"cnt\000"
 1076 05dc 0F       		.byte	0xf
 1077 05dd 37       		.byte	0x37
 1078 05de 37010000 		.4byte	0x137
 1079 05e2 08       		.byte	0x8
 1080 05e3 00       		.byte	0
 1081 05e4 0C       		.uleb128 0xc
 1082 05e5 04       		.byte	0x4
 1083 05e6 BF050000 		.4byte	0x5bf
ARM GAS  C:\Users\14122\AppData\Local\Temp\ccW1nTH3.s 			page 20


 1084 05ea 07       		.uleb128 0x7
 1085 05eb E7020000 		.4byte	.LASF91
 1086 05ef 10       		.byte	0x10
 1087 05f0 10       		.byte	0x10
 1088 05f1 39       		.byte	0x39
 1089 05f2 1B060000 		.4byte	0x61b
 1090 05f6 08       		.uleb128 0x8
 1091 05f7 56060000 		.4byte	.LASF30
 1092 05fb 10       		.byte	0x10
 1093 05fc 3A       		.byte	0x3a
 1094 05fd 6B020000 		.4byte	0x26b
 1095 0601 00       		.byte	0
 1096 0602 08       		.uleb128 0x8
 1097 0603 5B020000 		.4byte	.LASF92
 1098 0607 10       		.byte	0x10
 1099 0608 3C       		.byte	0x3c
 1100 0609 41020000 		.4byte	0x241
 1101 060d 08       		.byte	0x8
 1102 060e 08       		.uleb128 0x8
 1103 060f 8B000000 		.4byte	.LASF49
 1104 0613 10       		.byte	0x10
 1105 0614 3E       		.byte	0x3e
 1106 0615 7D070000 		.4byte	0x77d
 1107 0619 0C       		.byte	0xc
 1108 061a 00       		.byte	0
 1109 061b 0C       		.uleb128 0xc
 1110 061c 04       		.byte	0x4
 1111 061d EA050000 		.4byte	0x5ea
 1112 0621 0C       		.uleb128 0xc
 1113 0622 04       		.byte	0x4
 1114 0623 33060000 		.4byte	0x633
 1115 0627 06       		.uleb128 0x6
 1116 0628 21060000 		.4byte	0x621
 1117 062c 04       		.uleb128 0x4
 1118 062d 01       		.byte	0x1
 1119 062e 08       		.byte	0x8
 1120 062f 51030000 		.4byte	.LASF93
 1121 0633 05       		.uleb128 0x5
 1122 0634 2C060000 		.4byte	0x62c
 1123 0638 0C       		.uleb128 0xc
 1124 0639 04       		.byte	0x4
 1125 063a B2040000 		.4byte	0x4b2
 1126 063e 0C       		.uleb128 0xc
 1127 063f 04       		.byte	0x4
 1128 0640 20030000 		.4byte	0x320
 1129 0644 18       		.uleb128 0x18
 1130 0645 636800   		.ascii	"ch\000"
 1131 0648 03       		.byte	0x3
 1132 0649 C701     		.2byte	0x1c7
 1133 064b ED030000 		.4byte	0x3ed
 1134 064f 13       		.uleb128 0x13
 1135 0650 B2040000 		.4byte	0x4b2
 1136 0654 5A060000 		.4byte	0x65a
 1137 0658 19       		.uleb128 0x19
 1138 0659 00       		.byte	0
 1139 065a 11       		.uleb128 0x11
 1140 065b 70030000 		.4byte	.LASF94
ARM GAS  C:\Users\14122\AppData\Local\Temp\ccW1nTH3.s 			page 21


 1141 065f 11       		.byte	0x11
 1142 0660 1701     		.2byte	0x117
 1143 0662 4F060000 		.4byte	0x64f
 1144 0666 1A       		.uleb128 0x1a
 1145 0667 16       		.byte	0x16
 1146 0668 12       		.byte	0x12
 1147 0669 34       		.byte	0x34
 1148 066a 47070000 		.4byte	0x747
 1149 066e 08       		.uleb128 0x8
 1150 066f 0C060000 		.4byte	.LASF95
 1151 0673 12       		.byte	0x12
 1152 0674 35       		.byte	0x35
 1153 0675 47070000 		.4byte	0x747
 1154 0679 00       		.byte	0
 1155 067a 08       		.uleb128 0x8
 1156 067b E7030000 		.4byte	.LASF96
 1157 067f 12       		.byte	0x12
 1158 0680 36       		.byte	0x36
 1159 0681 B4000000 		.4byte	0xb4
 1160 0685 04       		.byte	0x4
 1161 0686 08       		.uleb128 0x8
 1162 0687 1D040000 		.4byte	.LASF97
 1163 068b 12       		.byte	0x12
 1164 068c 37       		.byte	0x37
 1165 068d B4000000 		.4byte	0xb4
 1166 0691 05       		.byte	0x5
 1167 0692 08       		.uleb128 0x8
 1168 0693 90000000 		.4byte	.LASF98
 1169 0697 12       		.byte	0x12
 1170 0698 38       		.byte	0x38
 1171 0699 C4000000 		.4byte	0xc4
 1172 069d 06       		.byte	0x6
 1173 069e 08       		.uleb128 0x8
 1174 069f 22040000 		.4byte	.LASF99
 1175 06a3 12       		.byte	0x12
 1176 06a4 39       		.byte	0x39
 1177 06a5 B4000000 		.4byte	0xb4
 1178 06a9 08       		.byte	0x8
 1179 06aa 08       		.uleb128 0x8
 1180 06ab 10000000 		.4byte	.LASF100
 1181 06af 12       		.byte	0x12
 1182 06b0 3A       		.byte	0x3a
 1183 06b1 B4000000 		.4byte	0xb4
 1184 06b5 09       		.byte	0x9
 1185 06b6 08       		.uleb128 0x8
 1186 06b7 EB010000 		.4byte	.LASF101
 1187 06bb 12       		.byte	0x12
 1188 06bc 3B       		.byte	0x3b
 1189 06bd B4000000 		.4byte	0xb4
 1190 06c1 0A       		.byte	0xa
 1191 06c2 08       		.uleb128 0x8
 1192 06c3 92040000 		.4byte	.LASF102
 1193 06c7 12       		.byte	0x12
 1194 06c8 3C       		.byte	0x3c
 1195 06c9 B4000000 		.4byte	0xb4
 1196 06cd 0B       		.byte	0xb
 1197 06ce 08       		.uleb128 0x8
ARM GAS  C:\Users\14122\AppData\Local\Temp\ccW1nTH3.s 			page 22


 1198 06cf 09030000 		.4byte	.LASF103
 1199 06d3 12       		.byte	0x12
 1200 06d4 3D       		.byte	0x3d
 1201 06d5 B4000000 		.4byte	0xb4
 1202 06d9 0C       		.byte	0xc
 1203 06da 08       		.uleb128 0x8
 1204 06db 92010000 		.4byte	.LASF104
 1205 06df 12       		.byte	0x12
 1206 06e0 3E       		.byte	0x3e
 1207 06e1 B4000000 		.4byte	0xb4
 1208 06e5 0D       		.byte	0xd
 1209 06e6 08       		.uleb128 0x8
 1210 06e7 A1020000 		.4byte	.LASF105
 1211 06eb 12       		.byte	0x12
 1212 06ec 3F       		.byte	0x3f
 1213 06ed B4000000 		.4byte	0xb4
 1214 06f1 0E       		.byte	0xe
 1215 06f2 08       		.uleb128 0x8
 1216 06f3 C1030000 		.4byte	.LASF106
 1217 06f7 12       		.byte	0x12
 1218 06f8 40       		.byte	0x40
 1219 06f9 B4000000 		.4byte	0xb4
 1220 06fd 0F       		.byte	0xf
 1221 06fe 08       		.uleb128 0x8
 1222 06ff 4E020000 		.4byte	.LASF107
 1223 0703 12       		.byte	0x12
 1224 0704 41       		.byte	0x41
 1225 0705 B4000000 		.4byte	0xb4
 1226 0709 10       		.byte	0x10
 1227 070a 08       		.uleb128 0x8
 1228 070b AB020000 		.4byte	.LASF108
 1229 070f 12       		.byte	0x12
 1230 0710 42       		.byte	0x42
 1231 0711 B4000000 		.4byte	0xb4
 1232 0715 11       		.byte	0x11
 1233 0716 08       		.uleb128 0x8
 1234 0717 39030000 		.4byte	.LASF109
 1235 071b 12       		.byte	0x12
 1236 071c 43       		.byte	0x43
 1237 071d B4000000 		.4byte	0xb4
 1238 0721 12       		.byte	0x12
 1239 0722 08       		.uleb128 0x8
 1240 0723 43070000 		.4byte	.LASF110
 1241 0727 12       		.byte	0x12
 1242 0728 44       		.byte	0x44
 1243 0729 B4000000 		.4byte	0xb4
 1244 072d 13       		.byte	0x13
 1245 072e 08       		.uleb128 0x8
 1246 072f 17060000 		.4byte	.LASF111
 1247 0733 12       		.byte	0x12
 1248 0734 45       		.byte	0x45
 1249 0735 B4000000 		.4byte	0xb4
 1250 0739 14       		.byte	0x14
 1251 073a 08       		.uleb128 0x8
 1252 073b C9000000 		.4byte	.LASF112
 1253 073f 12       		.byte	0x12
 1254 0740 46       		.byte	0x46
ARM GAS  C:\Users\14122\AppData\Local\Temp\ccW1nTH3.s 			page 23


 1255 0741 B4000000 		.4byte	0xb4
 1256 0745 15       		.byte	0x15
 1257 0746 00       		.byte	0
 1258 0747 13       		.uleb128 0x13
 1259 0748 2C060000 		.4byte	0x62c
 1260 074c 57070000 		.4byte	0x757
 1261 0750 14       		.uleb128 0x14
 1262 0751 37000000 		.4byte	0x37
 1263 0755 03       		.byte	0x3
 1264 0756 00       		.byte	0
 1265 0757 03       		.uleb128 0x3
 1266 0758 88040000 		.4byte	.LASF113
 1267 075c 12       		.byte	0x12
 1268 075d 47       		.byte	0x47
 1269 075e 66060000 		.4byte	0x666
 1270 0762 05       		.uleb128 0x5
 1271 0763 57070000 		.4byte	0x757
 1272 0767 12       		.uleb128 0x12
 1273 0768 64070000 		.4byte	.LASF114
 1274 076c 12       		.byte	0x12
 1275 076d 6C       		.byte	0x6c
 1276 076e 62070000 		.4byte	0x762
 1277 0772 03       		.uleb128 0x3
 1278 0773 6B060000 		.4byte	.LASF115
 1279 0777 10       		.byte	0x10
 1280 0778 34       		.byte	0x34
 1281 0779 EA050000 		.4byte	0x5ea
 1282 077d 0C       		.uleb128 0xc
 1283 077e 04       		.byte	0x4
 1284 077f 72070000 		.4byte	0x772
 1285 0783 04       		.uleb128 0x4
 1286 0784 01       		.byte	0x1
 1287 0785 02       		.byte	0x2
 1288 0786 CF020000 		.4byte	.LASF116
 1289 078a 03       		.uleb128 0x3
 1290 078b EC050000 		.4byte	.LASF117
 1291 078f 13       		.byte	0x13
 1292 0790 47       		.byte	0x47
 1293 0791 95070000 		.4byte	0x795
 1294 0795 0C       		.uleb128 0xc
 1295 0796 04       		.byte	0x4
 1296 0797 9B070000 		.4byte	0x79b
 1297 079b 1B       		.uleb128 0x1b
 1298 079c 1E030000 		.4byte	0x31e
 1299 07a0 AF070000 		.4byte	0x7af
 1300 07a4 0F       		.uleb128 0xf
 1301 07a5 2C000000 		.4byte	0x2c
 1302 07a9 0F       		.uleb128 0xf
 1303 07aa 37000000 		.4byte	0x37
 1304 07ae 00       		.byte	0
 1305 07af 1A       		.uleb128 0x1a
 1306 07b0 08       		.byte	0x8
 1307 07b1 13       		.byte	0x13
 1308 07b2 51       		.byte	0x51
 1309 07b3 D0070000 		.4byte	0x7d0
 1310 07b7 08       		.uleb128 0x8
 1311 07b8 85070000 		.4byte	.LASF118
ARM GAS  C:\Users\14122\AppData\Local\Temp\ccW1nTH3.s 			page 24


 1312 07bc 13       		.byte	0x13
 1313 07bd 55       		.byte	0x55
 1314 07be D0070000 		.4byte	0x7d0
 1315 07c2 00       		.byte	0
 1316 07c3 08       		.uleb128 0x8
 1317 07c4 4C070000 		.4byte	.LASF119
 1318 07c8 13       		.byte	0x13
 1319 07c9 59       		.byte	0x59
 1320 07ca D0070000 		.4byte	0x7d0
 1321 07ce 04       		.byte	0x4
 1322 07cf 00       		.byte	0
 1323 07d0 0C       		.uleb128 0xc
 1324 07d1 04       		.byte	0x4
 1325 07d2 B4000000 		.4byte	0xb4
 1326 07d6 03       		.uleb128 0x3
 1327 07d7 1C020000 		.4byte	.LASF120
 1328 07db 13       		.byte	0x13
 1329 07dc 5A       		.byte	0x5a
 1330 07dd AF070000 		.4byte	0x7af
 1331 07e1 12       		.uleb128 0x12
 1332 07e2 9B040000 		.4byte	.LASF121
 1333 07e6 13       		.byte	0x13
 1334 07e7 65       		.byte	0x65
 1335 07e8 D6070000 		.4byte	0x7d6
 1336 07ec 07       		.uleb128 0x7
 1337 07ed E8060000 		.4byte	.LASF122
 1338 07f1 04       		.byte	0x4
 1339 07f2 14       		.byte	0x14
 1340 07f3 38       		.byte	0x38
 1341 07f4 05080000 		.4byte	0x805
 1342 07f8 08       		.uleb128 0x8
 1343 07f9 8B000000 		.4byte	.LASF49
 1344 07fd 14       		.byte	0x14
 1345 07fe 39       		.byte	0x39
 1346 07ff 05080000 		.4byte	0x805
 1347 0803 00       		.byte	0
 1348 0804 00       		.byte	0
 1349 0805 0C       		.uleb128 0xc
 1350 0806 04       		.byte	0x4
 1351 0807 EC070000 		.4byte	0x7ec
 1352 080b 1A       		.uleb128 0x1a
 1353 080c 10       		.byte	0x10
 1354 080d 14       		.byte	0x14
 1355 080e 40       		.byte	0x40
 1356 080f 44080000 		.4byte	0x844
 1357 0813 08       		.uleb128 0x8
 1358 0814 8B000000 		.4byte	.LASF49
 1359 0818 14       		.byte	0x14
 1360 0819 41       		.byte	0x41
 1361 081a 05080000 		.4byte	0x805
 1362 081e 00       		.byte	0
 1363 081f 08       		.uleb128 0x8
 1364 0820 C3020000 		.4byte	.LASF123
 1365 0824 14       		.byte	0x14
 1366 0825 42       		.byte	0x42
 1367 0826 2C000000 		.4byte	0x2c
 1368 082a 04       		.byte	0x4
ARM GAS  C:\Users\14122\AppData\Local\Temp\ccW1nTH3.s 			page 25


 1369 082b 08       		.uleb128 0x8
 1370 082c 79070000 		.4byte	.LASF124
 1371 0830 14       		.byte	0x14
 1372 0831 44       		.byte	0x44
 1373 0832 37000000 		.4byte	0x37
 1374 0836 08       		.byte	0x8
 1375 0837 08       		.uleb128 0x8
 1376 0838 AC050000 		.4byte	.LASF125
 1377 083c 14       		.byte	0x14
 1378 083d 45       		.byte	0x45
 1379 083e 8A070000 		.4byte	0x78a
 1380 0842 0C       		.byte	0xc
 1381 0843 00       		.byte	0
 1382 0844 03       		.uleb128 0x3
 1383 0845 30000000 		.4byte	.LASF126
 1384 0849 14       		.byte	0x14
 1385 084a 47       		.byte	0x47
 1386 084b 0B080000 		.4byte	0x80b
 1387 084f 07       		.uleb128 0x7
 1388 0850 93030000 		.4byte	.LASF127
 1389 0854 10       		.byte	0x10
 1390 0855 15       		.byte	0x15
 1391 0856 93       		.byte	0x93
 1392 0857 80080000 		.4byte	0x880
 1393 085b 08       		.uleb128 0x8
 1394 085c 8B000000 		.4byte	.LASF49
 1395 0860 15       		.byte	0x15
 1396 0861 97       		.byte	0x97
 1397 0862 80080000 		.4byte	0x880
 1398 0866 00       		.byte	0
 1399 0867 08       		.uleb128 0x8
 1400 0868 BA000000 		.4byte	.LASF38
 1401 086c 15       		.byte	0x15
 1402 086d 9B       		.byte	0x9b
 1403 086e 42010000 		.4byte	0x142
 1404 0872 04       		.byte	0x4
 1405 0873 08       		.uleb128 0x8
 1406 0874 F9050000 		.4byte	.LASF34
 1407 0878 15       		.byte	0x15
 1408 0879 9D       		.byte	0x9d
 1409 087a 86080000 		.4byte	0x886
 1410 087e 08       		.byte	0x8
 1411 087f 00       		.byte	0
 1412 0880 0C       		.uleb128 0xc
 1413 0881 04       		.byte	0x4
 1414 0882 4F080000 		.4byte	0x84f
 1415 0886 13       		.uleb128 0x13
 1416 0887 2C060000 		.4byte	0x62c
 1417 088b 96080000 		.4byte	0x896
 1418 088f 14       		.uleb128 0x14
 1419 0890 37000000 		.4byte	0x37
 1420 0894 07       		.byte	0x7
 1421 0895 00       		.byte	0
 1422 0896 03       		.uleb128 0x3
 1423 0897 BE060000 		.4byte	.LASF128
 1424 089b 15       		.byte	0x15
 1425 089c A1       		.byte	0xa1
ARM GAS  C:\Users\14122\AppData\Local\Temp\ccW1nTH3.s 			page 26


 1426 089d 4F080000 		.4byte	0x84f
 1427 08a1 07       		.uleb128 0x7
 1428 08a2 B5030000 		.4byte	.LASF129
 1429 08a6 04       		.byte	0x4
 1430 08a7 15       		.byte	0x15
 1431 08a8 A6       		.byte	0xa6
 1432 08a9 BA080000 		.4byte	0x8ba
 1433 08ad 08       		.uleb128 0x8
 1434 08ae 8B000000 		.4byte	.LASF49
 1435 08b2 15       		.byte	0x15
 1436 08b3 A7       		.byte	0xa7
 1437 08b4 BA080000 		.4byte	0x8ba
 1438 08b8 00       		.byte	0
 1439 08b9 00       		.byte	0
 1440 08ba 0C       		.uleb128 0xc
 1441 08bb 04       		.byte	0x4
 1442 08bc 96080000 		.4byte	0x896
 1443 08c0 03       		.uleb128 0x3
 1444 08c1 51000000 		.4byte	.LASF130
 1445 08c5 15       		.byte	0x15
 1446 08c6 A8       		.byte	0xa8
 1447 08c7 A1080000 		.4byte	0x8a1
 1448 08cb 0D       		.uleb128 0xd
 1449 08cc 7F010000 		.4byte	.LASF131
 1450 08d0 44       		.byte	0x44
 1451 08d1 15       		.byte	0x15
 1452 08d2 1101     		.2byte	0x111
 1453 08d4 41090000 		.4byte	0x941
 1454 08d8 0A       		.uleb128 0xa
 1455 08d9 6D747800 		.ascii	"mtx\000"
 1456 08dd 15       		.byte	0x15
 1457 08de 1601     		.2byte	0x116
 1458 08e0 72070000 		.4byte	0x772
 1459 08e4 00       		.byte	0
 1460 08e5 0B       		.uleb128 0xb
 1461 08e6 A7000000 		.4byte	.LASF132
 1462 08ea 15       		.byte	0x15
 1463 08eb 1D01     		.2byte	0x11d
 1464 08ed C0080000 		.4byte	0x8c0
 1465 08f1 10       		.byte	0x10
 1466 08f2 0B       		.uleb128 0xb
 1467 08f3 F2030000 		.4byte	.LASF133
 1468 08f7 15       		.byte	0x15
 1469 08f8 2101     		.2byte	0x121
 1470 08fa 44080000 		.4byte	0x844
 1471 08fe 14       		.byte	0x14
 1472 08ff 0B       		.uleb128 0xb
 1473 0900 46040000 		.4byte	.LASF134
 1474 0904 15       		.byte	0x15
 1475 0905 2601     		.2byte	0x126
 1476 0907 C0080000 		.4byte	0x8c0
 1477 090b 24       		.byte	0x24
 1478 090c 0B       		.uleb128 0xb
 1479 090d 96070000 		.4byte	.LASF135
 1480 0911 15       		.byte	0x15
 1481 0912 2C01     		.2byte	0x12c
 1482 0914 C0080000 		.4byte	0x8c0
ARM GAS  C:\Users\14122\AppData\Local\Temp\ccW1nTH3.s 			page 27


 1483 0918 28       		.byte	0x28
 1484 0919 0B       		.uleb128 0xb
 1485 091a 48030000 		.4byte	.LASF136
 1486 091e 15       		.byte	0x15
 1487 091f 3001     		.2byte	0x130
 1488 0921 44080000 		.4byte	0x844
 1489 0925 2C       		.byte	0x2c
 1490 0926 0B       		.uleb128 0xb
 1491 0927 CC060000 		.4byte	.LASF137
 1492 092b 15       		.byte	0x15
 1493 092c 3601     		.2byte	0x136
 1494 092e C0080000 		.4byte	0x8c0
 1495 0932 3C       		.byte	0x3c
 1496 0933 0B       		.uleb128 0xb
 1497 0934 3E000000 		.4byte	.LASF138
 1498 0938 15       		.byte	0x15
 1499 0939 3C01     		.2byte	0x13c
 1500 093b C0080000 		.4byte	0x8c0
 1501 093f 40       		.byte	0x40
 1502 0940 00       		.byte	0
 1503 0941 1C       		.uleb128 0x1c
 1504 0942 D5020000 		.4byte	.LASF139
 1505 0946 15       		.byte	0x15
 1506 0947 3E01     		.2byte	0x13e
 1507 0949 CB080000 		.4byte	0x8cb
 1508 094d 11       		.uleb128 0x11
 1509 094e D2040000 		.4byte	.LASF140
 1510 0952 15       		.byte	0x15
 1511 0953 4901     		.2byte	0x149
 1512 0955 41090000 		.4byte	0x941
 1513 0959 1D       		.uleb128 0x1d
 1514 095a A5010000 		.4byte	.LASF160
 1515 095e 01       		.byte	0x1
 1516 095f 91       		.byte	0x91
 1517 0960 00000000 		.4byte	.LFB222
 1518 0964 14000000 		.4byte	.LFE222-.LFB222
 1519 0968 01       		.uleb128 0x1
 1520 0969 9C       		.byte	0x9c
 1521 096a 5C0A0000 		.4byte	0xa5c
 1522 096e 1E       		.uleb128 0x1e
 1523 096f 747000   		.ascii	"tp\000"
 1524 0972 01       		.byte	0x1
 1525 0973 91       		.byte	0x91
 1526 0974 41020000 		.4byte	0x241
 1527 0978 00000000 		.4byte	.LLST9
 1528 097c 1E       		.uleb128 0x1e
 1529 097d 6D736700 		.ascii	"msg\000"
 1530 0981 01       		.byte	0x1
 1531 0982 91       		.byte	0x91
 1532 0983 21010000 		.4byte	0x121
 1533 0987 21000000 		.4byte	.LLST10
 1534 098b 1F       		.uleb128 0x1f
 1535 098c 5B070000 		.4byte	.LASF143
 1536 0990 6C0A0000 		.4byte	0xa6c
 1537 0994 20       		.uleb128 0x20
 1538 0995 0C0D0000 		.4byte	0xd0c
 1539 0999 02000000 		.4byte	.LBB93
ARM GAS  C:\Users\14122\AppData\Local\Temp\ccW1nTH3.s 			page 28


 1540 099d 06000000 		.4byte	.LBE93-.LBB93
 1541 09a1 01       		.byte	0x1
 1542 09a2 93       		.byte	0x93
 1543 09a3 D3090000 		.4byte	0x9d3
 1544 09a7 21       		.uleb128 0x21
 1545 09a8 720D0000 		.4byte	0xd72
 1546 09ac 02000000 		.4byte	.LBB94
 1547 09b0 06000000 		.4byte	.LBE94-.LBB94
 1548 09b4 11       		.byte	0x11
 1549 09b5 6301     		.2byte	0x163
 1550 09b7 21       		.uleb128 0x21
 1551 09b8 7B0D0000 		.4byte	0xd7b
 1552 09bc 02000000 		.4byte	.LBB95
 1553 09c0 06000000 		.4byte	.LBE95-.LBB95
 1554 09c4 0E       		.byte	0xe
 1555 09c5 5A02     		.2byte	0x25a
 1556 09c7 22       		.uleb128 0x22
 1557 09c8 880D0000 		.4byte	0xd88
 1558 09cc 42000000 		.4byte	.LLST11
 1559 09d0 00       		.byte	0
 1560 09d1 00       		.byte	0
 1561 09d2 00       		.byte	0
 1562 09d3 20       		.uleb128 0x20
 1563 09d4 9F0C0000 		.4byte	0xc9f
 1564 09d8 08000000 		.4byte	.LBB97
 1565 09dc 04000000 		.4byte	.LBE97-.LBB97
 1566 09e0 01       		.byte	0x1
 1567 09e1 95       		.byte	0x95
 1568 09e2 110A0000 		.4byte	0xa11
 1569 09e6 22       		.uleb128 0x22
 1570 09e7 B50C0000 		.4byte	0xcb5
 1571 09eb 57000000 		.4byte	.LLST12
 1572 09ef 22       		.uleb128 0x22
 1573 09f0 AB0C0000 		.4byte	0xcab
 1574 09f4 78000000 		.4byte	.LLST13
 1575 09f8 23       		.uleb128 0x23
 1576 09f9 0C000000 		.4byte	.LVL23
 1577 09fd 950D0000 		.4byte	0xd95
 1578 0a01 24       		.uleb128 0x24
 1579 0a02 01       		.uleb128 0x1
 1580 0a03 50       		.byte	0x50
 1581 0a04 03       		.uleb128 0x3
 1582 0a05 F3       		.byte	0xf3
 1583 0a06 01       		.uleb128 0x1
 1584 0a07 50       		.byte	0x50
 1585 0a08 24       		.uleb128 0x24
 1586 0a09 01       		.uleb128 0x1
 1587 0a0a 51       		.byte	0x51
 1588 0a0b 03       		.uleb128 0x3
 1589 0a0c F3       		.byte	0xf3
 1590 0a0d 01       		.uleb128 0x1
 1591 0a0e 51       		.byte	0x51
 1592 0a0f 00       		.byte	0
 1593 0a10 00       		.byte	0
 1594 0a11 25       		.uleb128 0x25
 1595 0a12 DC0C0000 		.4byte	0xcdc
 1596 0a16 0C000000 		.4byte	.LBB99
ARM GAS  C:\Users\14122\AppData\Local\Temp\ccW1nTH3.s 			page 29


 1597 0a1a 06000000 		.4byte	.LBE99-.LBB99
 1598 0a1e 01       		.byte	0x1
 1599 0a1f 96       		.byte	0x96
 1600 0a20 26       		.uleb128 0x26
 1601 0a21 0C000000 		.4byte	.LBB100
 1602 0a25 06000000 		.4byte	.LBE100-.LBB100
 1603 0a29 27       		.uleb128 0x27
 1604 0a2a E90C0000 		.4byte	0xce9
 1605 0a2e 21       		.uleb128 0x21
 1606 0a2f 690D0000 		.4byte	0xd69
 1607 0a33 0C000000 		.4byte	.LBB101
 1608 0a37 06000000 		.4byte	.LBE101-.LBB101
 1609 0a3b 11       		.byte	0x11
 1610 0a3c 7A01     		.2byte	0x17a
 1611 0a3e 21       		.uleb128 0x21
 1612 0a3f 7B0D0000 		.4byte	0xd7b
 1613 0a43 0C000000 		.4byte	.LBB102
 1614 0a47 06000000 		.4byte	.LBE102-.LBB102
 1615 0a4b 0E       		.byte	0xe
 1616 0a4c 6D02     		.2byte	0x26d
 1617 0a4e 22       		.uleb128 0x22
 1618 0a4f 880D0000 		.4byte	0xd88
 1619 0a53 99000000 		.4byte	.LLST14
 1620 0a57 00       		.byte	0
 1621 0a58 00       		.byte	0
 1622 0a59 00       		.byte	0
 1623 0a5a 00       		.byte	0
 1624 0a5b 00       		.byte	0
 1625 0a5c 13       		.uleb128 0x13
 1626 0a5d 33060000 		.4byte	0x633
 1627 0a61 6C0A0000 		.4byte	0xa6c
 1628 0a65 14       		.uleb128 0x14
 1629 0a66 37000000 		.4byte	0x37
 1630 0a6a 0C       		.byte	0xc
 1631 0a6b 00       		.byte	0
 1632 0a6c 05       		.uleb128 0x5
 1633 0a6d 5C0A0000 		.4byte	0xa5c
 1634 0a71 28       		.uleb128 0x28
 1635 0a72 EA000000 		.4byte	.LASF141
 1636 0a76 01       		.byte	0x1
 1637 0a77 79       		.byte	0x79
 1638 0a78 41020000 		.4byte	0x241
 1639 0a7c 00000000 		.4byte	.LFB221
 1640 0a80 40000000 		.4byte	.LFE221-.LFB221
 1641 0a84 01       		.uleb128 0x1
 1642 0a85 9C       		.byte	0x9c
 1643 0a86 6E0B0000 		.4byte	0xb6e
 1644 0a8a 29       		.uleb128 0x29
 1645 0a8b 747000   		.ascii	"tp\000"
 1646 0a8e 01       		.byte	0x1
 1647 0a8f 7A       		.byte	0x7a
 1648 0a90 41020000 		.4byte	0x241
 1649 0a94 20       		.uleb128 0x20
 1650 0a95 0C0D0000 		.4byte	0xd0c
 1651 0a99 02000000 		.4byte	.LBB73
 1652 0a9d 06000000 		.4byte	.LBE73-.LBB73
 1653 0aa1 01       		.byte	0x1
ARM GAS  C:\Users\14122\AppData\Local\Temp\ccW1nTH3.s 			page 30


 1654 0aa2 7C       		.byte	0x7c
 1655 0aa3 D30A0000 		.4byte	0xad3
 1656 0aa7 21       		.uleb128 0x21
 1657 0aa8 720D0000 		.4byte	0xd72
 1658 0aac 02000000 		.4byte	.LBB74
 1659 0ab0 06000000 		.4byte	.LBE74-.LBB74
 1660 0ab4 11       		.byte	0x11
 1661 0ab5 6301     		.2byte	0x163
 1662 0ab7 21       		.uleb128 0x21
 1663 0ab8 7B0D0000 		.4byte	0xd7b
 1664 0abc 02000000 		.4byte	.LBB75
 1665 0ac0 06000000 		.4byte	.LBE75-.LBB75
 1666 0ac4 0E       		.byte	0xe
 1667 0ac5 5A02     		.2byte	0x25a
 1668 0ac7 22       		.uleb128 0x22
 1669 0ac8 880D0000 		.4byte	0xd88
 1670 0acc AD000000 		.4byte	.LLST6
 1671 0ad0 00       		.byte	0
 1672 0ad1 00       		.byte	0
 1673 0ad2 00       		.byte	0
 1674 0ad3 20       		.uleb128 0x20
 1675 0ad4 C10C0000 		.4byte	0xcc1
 1676 0ad8 0C000000 		.4byte	.LBB77
 1677 0adc 06000000 		.4byte	.LBE77-.LBB77
 1678 0ae0 01       		.byte	0x1
 1679 0ae1 7D       		.byte	0x7d
 1680 0ae2 F00A0000 		.4byte	0xaf0
 1681 0ae6 22       		.uleb128 0x22
 1682 0ae7 D10C0000 		.4byte	0xcd1
 1683 0aeb C2000000 		.4byte	.LLST7
 1684 0aef 00       		.byte	0
 1685 0af0 2A       		.uleb128 0x2a
 1686 0af1 150D0000 		.4byte	0xd15
 1687 0af5 18000000 		.4byte	.LBB79
 1688 0af9 40000000 		.4byte	.Ldebug_ranges0+0x40
 1689 0afd 01       		.byte	0x1
 1690 0afe 80       		.byte	0x80
 1691 0aff 140B0000 		.4byte	0xb14
 1692 0b03 2B       		.uleb128 0x2b
 1693 0b04 260D0000 		.4byte	0xd26
 1694 0b08 2C       		.uleb128 0x2c
 1695 0b09 40000000 		.4byte	.Ldebug_ranges0+0x40
 1696 0b0d 27       		.uleb128 0x27
 1697 0b0e 320D0000 		.4byte	0xd32
 1698 0b12 00       		.byte	0
 1699 0b13 00       		.byte	0
 1700 0b14 2A       		.uleb128 0x2a
 1701 0b15 DC0C0000 		.4byte	0xcdc
 1702 0b19 1A000000 		.4byte	.LBB82
 1703 0b1d 58000000 		.4byte	.Ldebug_ranges0+0x58
 1704 0b21 01       		.byte	0x1
 1705 0b22 82       		.byte	0x82
 1706 0b23 5E0B0000 		.4byte	0xb5e
 1707 0b27 2C       		.uleb128 0x2c
 1708 0b28 58000000 		.4byte	.Ldebug_ranges0+0x58
 1709 0b2c 27       		.uleb128 0x27
 1710 0b2d E90C0000 		.4byte	0xce9
ARM GAS  C:\Users\14122\AppData\Local\Temp\ccW1nTH3.s 			page 31


 1711 0b31 2D       		.uleb128 0x2d
 1712 0b32 690D0000 		.4byte	0xd69
 1713 0b36 1A000000 		.4byte	.LBB84
 1714 0b3a 58000000 		.4byte	.Ldebug_ranges0+0x58
 1715 0b3e 11       		.byte	0x11
 1716 0b3f 7A01     		.2byte	0x17a
 1717 0b41 2D       		.uleb128 0x2d
 1718 0b42 7B0D0000 		.4byte	0xd7b
 1719 0b46 1A000000 		.4byte	.LBB85
 1720 0b4a 58000000 		.4byte	.Ldebug_ranges0+0x58
 1721 0b4e 0E       		.byte	0xe
 1722 0b4f 6D02     		.2byte	0x26d
 1723 0b51 22       		.uleb128 0x22
 1724 0b52 880D0000 		.4byte	0xd88
 1725 0b56 D5000000 		.4byte	.LLST8
 1726 0b5a 00       		.byte	0
 1727 0b5b 00       		.byte	0
 1728 0b5c 00       		.byte	0
 1729 0b5d 00       		.byte	0
 1730 0b5e 23       		.uleb128 0x23
 1731 0b5f 30000000 		.4byte	.LVL20
 1732 0b63 A10D0000 		.4byte	0xda1
 1733 0b67 24       		.uleb128 0x24
 1734 0b68 01       		.uleb128 0x1
 1735 0b69 50       		.byte	0x50
 1736 0b6a 01       		.uleb128 0x1
 1737 0b6b 3E       		.byte	0x3e
 1738 0b6c 00       		.byte	0
 1739 0b6d 00       		.byte	0
 1740 0b6e 28       		.uleb128 0x28
 1741 0b6f BF000000 		.4byte	.LASF142
 1742 0b73 01       		.byte	0x1
 1743 0b74 57       		.byte	0x57
 1744 0b75 21010000 		.4byte	0x121
 1745 0b79 00000000 		.4byte	.LFB220
 1746 0b7d 40000000 		.4byte	.LFE220-.LFB220
 1747 0b81 01       		.uleb128 0x1
 1748 0b82 9C       		.byte	0x9c
 1749 0b83 8A0C0000 		.4byte	0xc8a
 1750 0b87 1E       		.uleb128 0x1e
 1751 0b88 747000   		.ascii	"tp\000"
 1752 0b8b 01       		.byte	0x1
 1753 0b8c 57       		.byte	0x57
 1754 0b8d 41020000 		.4byte	0x241
 1755 0b91 E9000000 		.4byte	.LLST0
 1756 0b95 1E       		.uleb128 0x1e
 1757 0b96 6D736700 		.ascii	"msg\000"
 1758 0b9a 01       		.byte	0x1
 1759 0b9b 57       		.byte	0x57
 1760 0b9c 21010000 		.4byte	0x121
 1761 0ba0 21010000 		.4byte	.LLST1
 1762 0ba4 2E       		.uleb128 0x2e
 1763 0ba5 63747000 		.ascii	"ctp\000"
 1764 0ba9 01       		.byte	0x1
 1765 0baa 58       		.byte	0x58
 1766 0bab 41020000 		.4byte	0x241
 1767 0baf 01       		.uleb128 0x1
ARM GAS  C:\Users\14122\AppData\Local\Temp\ccW1nTH3.s 			page 32


 1768 0bb0 54       		.byte	0x54
 1769 0bb1 1F       		.uleb128 0x1f
 1770 0bb2 5B070000 		.4byte	.LASF143
 1771 0bb6 9A0C0000 		.4byte	0xc9a
 1772 0bba 2A       		.uleb128 0x2a
 1773 0bbb 0C0D0000 		.4byte	0xd0c
 1774 0bbf 04000000 		.4byte	.LBB52
 1775 0bc3 00000000 		.4byte	.Ldebug_ranges0+0
 1776 0bc7 01       		.byte	0x1
 1777 0bc8 5C       		.byte	0x5c
 1778 0bc9 F90B0000 		.4byte	0xbf9
 1779 0bcd 2D       		.uleb128 0x2d
 1780 0bce 720D0000 		.4byte	0xd72
 1781 0bd2 04000000 		.4byte	.LBB53
 1782 0bd6 00000000 		.4byte	.Ldebug_ranges0+0
 1783 0bda 11       		.byte	0x11
 1784 0bdb 6301     		.2byte	0x163
 1785 0bdd 2D       		.uleb128 0x2d
 1786 0bde 7B0D0000 		.4byte	0xd7b
 1787 0be2 04000000 		.4byte	.LBB54
 1788 0be6 00000000 		.4byte	.Ldebug_ranges0+0
 1789 0bea 0E       		.byte	0xe
 1790 0beb 5A02     		.2byte	0x25a
 1791 0bed 22       		.uleb128 0x22
 1792 0bee 880D0000 		.4byte	0xd88
 1793 0bf2 66010000 		.4byte	.LLST2
 1794 0bf6 00       		.byte	0
 1795 0bf7 00       		.byte	0
 1796 0bf8 00       		.byte	0
 1797 0bf9 2A       		.uleb128 0x2a
 1798 0bfa 440D0000 		.4byte	0xd44
 1799 0bfe 0C000000 		.4byte	.LBB60
 1800 0c02 18000000 		.4byte	.Ldebug_ranges0+0x18
 1801 0c06 01       		.byte	0x1
 1802 0c07 5E       		.byte	0x5e
 1803 0c08 1F0C0000 		.4byte	0xc1f
 1804 0c0c 22       		.uleb128 0x22
 1805 0c0d 5C0D0000 		.4byte	0xd5c
 1806 0c11 7B010000 		.4byte	.LLST3
 1807 0c15 22       		.uleb128 0x22
 1808 0c16 510D0000 		.4byte	0xd51
 1809 0c1a 90010000 		.4byte	.LLST4
 1810 0c1e 00       		.byte	0
 1811 0c1f 20       		.uleb128 0x20
 1812 0c20 DC0C0000 		.4byte	0xcdc
 1813 0c24 2C000000 		.4byte	.LBB68
 1814 0c28 06000000 		.4byte	.LBE68-.LBB68
 1815 0c2c 01       		.byte	0x1
 1816 0c2d 64       		.byte	0x64
 1817 0c2e 6D0C0000 		.4byte	0xc6d
 1818 0c32 26       		.uleb128 0x26
 1819 0c33 2C000000 		.4byte	.LBB69
 1820 0c37 06000000 		.4byte	.LBE69-.LBB69
 1821 0c3b 27       		.uleb128 0x27
 1822 0c3c E90C0000 		.4byte	0xce9
 1823 0c40 21       		.uleb128 0x21
 1824 0c41 690D0000 		.4byte	0xd69
ARM GAS  C:\Users\14122\AppData\Local\Temp\ccW1nTH3.s 			page 33


 1825 0c45 2C000000 		.4byte	.LBB70
 1826 0c49 06000000 		.4byte	.LBE70-.LBB70
 1827 0c4d 11       		.byte	0x11
 1828 0c4e 7A01     		.2byte	0x17a
 1829 0c50 21       		.uleb128 0x21
 1830 0c51 7B0D0000 		.4byte	0xd7b
 1831 0c55 2C000000 		.4byte	.LBB71
 1832 0c59 06000000 		.4byte	.LBE71-.LBB71
 1833 0c5d 0E       		.byte	0xe
 1834 0c5e 6D02     		.2byte	0x26d
 1835 0c60 22       		.uleb128 0x22
 1836 0c61 880D0000 		.4byte	0xd88
 1837 0c65 A3010000 		.4byte	.LLST5
 1838 0c69 00       		.byte	0
 1839 0c6a 00       		.byte	0
 1840 0c6b 00       		.byte	0
 1841 0c6c 00       		.byte	0
 1842 0c6d 2F       		.uleb128 0x2f
 1843 0c6e 2A000000 		.4byte	.LVL6
 1844 0c72 A10D0000 		.4byte	0xda1
 1845 0c76 800C0000 		.4byte	0xc80
 1846 0c7a 24       		.uleb128 0x24
 1847 0c7b 01       		.uleb128 0x1
 1848 0c7c 50       		.byte	0x50
 1849 0c7d 01       		.uleb128 0x1
 1850 0c7e 3C       		.byte	0x3c
 1851 0c7f 00       		.byte	0
 1852 0c80 30       		.uleb128 0x30
 1853 0c81 38000000 		.4byte	.LVL10
 1854 0c85 AD0D0000 		.4byte	0xdad
 1855 0c89 00       		.byte	0
 1856 0c8a 13       		.uleb128 0x13
 1857 0c8b 33060000 		.4byte	0x633
 1858 0c8f 9A0C0000 		.4byte	0xc9a
 1859 0c93 14       		.uleb128 0x14
 1860 0c94 37000000 		.4byte	0x37
 1861 0c98 09       		.byte	0x9
 1862 0c99 00       		.byte	0
 1863 0c9a 05       		.uleb128 0x5
 1864 0c9b 8A0C0000 		.4byte	0xc8a
 1865 0c9f 31       		.uleb128 0x31
 1866 0ca0 B0060000 		.4byte	.LASF144
 1867 0ca4 04       		.byte	0x4
 1868 0ca5 71       		.byte	0x71
 1869 0ca6 03       		.byte	0x3
 1870 0ca7 C10C0000 		.4byte	0xcc1
 1871 0cab 32       		.uleb128 0x32
 1872 0cac 747000   		.ascii	"tp\000"
 1873 0caf 04       		.byte	0x4
 1874 0cb0 71       		.byte	0x71
 1875 0cb1 41020000 		.4byte	0x241
 1876 0cb5 32       		.uleb128 0x32
 1877 0cb6 6D736700 		.ascii	"msg\000"
 1878 0cba 04       		.byte	0x4
 1879 0cbb 71       		.byte	0x71
 1880 0cbc 21010000 		.4byte	0x121
 1881 0cc0 00       		.byte	0
ARM GAS  C:\Users\14122\AppData\Local\Temp\ccW1nTH3.s 			page 34


 1882 0cc1 33       		.uleb128 0x33
 1883 0cc2 29030000 		.4byte	.LASF146
 1884 0cc6 04       		.byte	0x4
 1885 0cc7 4F       		.byte	0x4f
 1886 0cc8 83070000 		.4byte	0x783
 1887 0ccc 03       		.byte	0x3
 1888 0ccd DC0C0000 		.4byte	0xcdc
 1889 0cd1 32       		.uleb128 0x32
 1890 0cd2 747000   		.ascii	"tp\000"
 1891 0cd5 04       		.byte	0x4
 1892 0cd6 4F       		.byte	0x4f
 1893 0cd7 41020000 		.4byte	0x241
 1894 0cdb 00       		.byte	0
 1895 0cdc 34       		.uleb128 0x34
 1896 0cdd 23060000 		.4byte	.LASF145
 1897 0ce1 11       		.byte	0x11
 1898 0ce2 6D01     		.2byte	0x16d
 1899 0ce4 03       		.byte	0x3
 1900 0ce5 F70C0000 		.4byte	0xcf7
 1901 0ce9 35       		.uleb128 0x35
 1902 0cea 5B070000 		.4byte	.LASF143
 1903 0cee 070D0000 		.4byte	0xd07
 1904 0cf2 23060000 		.4byte	.LASF145
 1905 0cf6 00       		.byte	0
 1906 0cf7 13       		.uleb128 0x13
 1907 0cf8 33060000 		.4byte	0x633
 1908 0cfc 070D0000 		.4byte	0xd07
 1909 0d00 14       		.uleb128 0x14
 1910 0d01 37000000 		.4byte	0x37
 1911 0d05 0B       		.byte	0xb
 1912 0d06 00       		.byte	0
 1913 0d07 05       		.uleb128 0x5
 1914 0d08 F70C0000 		.4byte	0xcf7
 1915 0d0c 36       		.uleb128 0x36
 1916 0d0d 1F030000 		.4byte	.LASF149
 1917 0d11 11       		.byte	0x11
 1918 0d12 6101     		.2byte	0x161
 1919 0d14 03       		.byte	0x3
 1920 0d15 37       		.uleb128 0x37
 1921 0d16 0B040000 		.4byte	.LASF147
 1922 0d1a 03       		.byte	0x3
 1923 0d1b 5E02     		.2byte	0x25e
 1924 0d1d 41020000 		.4byte	0x241
 1925 0d21 03       		.byte	0x3
 1926 0d22 3E0D0000 		.4byte	0xd3e
 1927 0d26 38       		.uleb128 0x38
 1928 0d27 74717000 		.ascii	"tqp\000"
 1929 0d2b 03       		.byte	0x3
 1930 0d2c 5E02     		.2byte	0x25e
 1931 0d2e 3E0D0000 		.4byte	0xd3e
 1932 0d32 39       		.uleb128 0x39
 1933 0d33 747000   		.ascii	"tp\000"
 1934 0d36 03       		.byte	0x3
 1935 0d37 5F02     		.2byte	0x25f
 1936 0d39 41020000 		.4byte	0x241
 1937 0d3d 00       		.byte	0
 1938 0d3e 0C       		.uleb128 0xc
ARM GAS  C:\Users\14122\AppData\Local\Temp\ccW1nTH3.s 			page 35


 1939 0d3f 04       		.byte	0x4
 1940 0d40 6B020000 		.4byte	0x26b
 1941 0d44 34       		.uleb128 0x34
 1942 0d45 2B070000 		.4byte	.LASF148
 1943 0d49 03       		.byte	0x3
 1944 0d4a 5602     		.2byte	0x256
 1945 0d4c 03       		.byte	0x3
 1946 0d4d 690D0000 		.4byte	0xd69
 1947 0d51 38       		.uleb128 0x38
 1948 0d52 747000   		.ascii	"tp\000"
 1949 0d55 03       		.byte	0x3
 1950 0d56 5602     		.2byte	0x256
 1951 0d58 41020000 		.4byte	0x241
 1952 0d5c 38       		.uleb128 0x38
 1953 0d5d 74717000 		.ascii	"tqp\000"
 1954 0d61 03       		.byte	0x3
 1955 0d62 5602     		.2byte	0x256
 1956 0d64 3E0D0000 		.4byte	0xd3e
 1957 0d68 00       		.byte	0
 1958 0d69 36       		.uleb128 0x36
 1959 0d6a 6D070000 		.4byte	.LASF150
 1960 0d6e 0E       		.byte	0xe
 1961 0d6f 6A02     		.2byte	0x26a
 1962 0d71 03       		.byte	0x3
 1963 0d72 36       		.uleb128 0x36
 1964 0d73 D9000000 		.4byte	.LASF151
 1965 0d77 0E       		.byte	0xe
 1966 0d78 5202     		.2byte	0x252
 1967 0d7a 03       		.byte	0x3
 1968 0d7b 34       		.uleb128 0x34
 1969 0d7c 11030000 		.4byte	.LASF152
 1970 0d80 02       		.byte	0x2
 1971 0d81 EB01     		.2byte	0x1eb
 1972 0d83 03       		.byte	0x3
 1973 0d84 950D0000 		.4byte	0xd95
 1974 0d88 3A       		.uleb128 0x3a
 1975 0d89 90020000 		.4byte	.LASF153
 1976 0d8d 02       		.byte	0x2
 1977 0d8e EB01     		.2byte	0x1eb
 1978 0d90 DF000000 		.4byte	0xdf
 1979 0d94 00       		.byte	0
 1980 0d95 3B       		.uleb128 0x3b
 1981 0d96 D5060000 		.4byte	.LASF154
 1982 0d9a D5060000 		.4byte	.LASF154
 1983 0d9e 03       		.byte	0x3
 1984 0d9f D501     		.2byte	0x1d5
 1985 0da1 3B       		.uleb128 0x3b
 1986 0da2 FE050000 		.4byte	.LASF155
 1987 0da6 FE050000 		.4byte	.LASF155
 1988 0daa 03       		.byte	0x3
 1989 0dab D301     		.2byte	0x1d3
 1990 0dad 3B       		.uleb128 0x3b
 1991 0dae B2010000 		.4byte	.LASF156
 1992 0db2 B2010000 		.4byte	.LASF156
 1993 0db6 03       		.byte	0x3
 1994 0db7 D101     		.2byte	0x1d1
 1995 0db9 00       		.byte	0
ARM GAS  C:\Users\14122\AppData\Local\Temp\ccW1nTH3.s 			page 36


 1996              		.section	.debug_abbrev,"",%progbits
 1997              	.Ldebug_abbrev0:
 1998 0000 01       		.uleb128 0x1
 1999 0001 11       		.uleb128 0x11
 2000 0002 01       		.byte	0x1
 2001 0003 25       		.uleb128 0x25
 2002 0004 0E       		.uleb128 0xe
 2003 0005 13       		.uleb128 0x13
 2004 0006 0B       		.uleb128 0xb
 2005 0007 03       		.uleb128 0x3
 2006 0008 0E       		.uleb128 0xe
 2007 0009 1B       		.uleb128 0x1b
 2008 000a 0E       		.uleb128 0xe
 2009 000b 55       		.uleb128 0x55
 2010 000c 17       		.uleb128 0x17
 2011 000d 11       		.uleb128 0x11
 2012 000e 01       		.uleb128 0x1
 2013 000f 10       		.uleb128 0x10
 2014 0010 17       		.uleb128 0x17
 2015 0011 00       		.byte	0
 2016 0012 00       		.byte	0
 2017 0013 02       		.uleb128 0x2
 2018 0014 24       		.uleb128 0x24
 2019 0015 00       		.byte	0
 2020 0016 0B       		.uleb128 0xb
 2021 0017 0B       		.uleb128 0xb
 2022 0018 3E       		.uleb128 0x3e
 2023 0019 0B       		.uleb128 0xb
 2024 001a 03       		.uleb128 0x3
 2025 001b 08       		.uleb128 0x8
 2026 001c 00       		.byte	0
 2027 001d 00       		.byte	0
 2028 001e 03       		.uleb128 0x3
 2029 001f 16       		.uleb128 0x16
 2030 0020 00       		.byte	0
 2031 0021 03       		.uleb128 0x3
 2032 0022 0E       		.uleb128 0xe
 2033 0023 3A       		.uleb128 0x3a
 2034 0024 0B       		.uleb128 0xb
 2035 0025 3B       		.uleb128 0x3b
 2036 0026 0B       		.uleb128 0xb
 2037 0027 49       		.uleb128 0x49
 2038 0028 13       		.uleb128 0x13
 2039 0029 00       		.byte	0
 2040 002a 00       		.byte	0
 2041 002b 04       		.uleb128 0x4
 2042 002c 24       		.uleb128 0x24
 2043 002d 00       		.byte	0
 2044 002e 0B       		.uleb128 0xb
 2045 002f 0B       		.uleb128 0xb
 2046 0030 3E       		.uleb128 0x3e
 2047 0031 0B       		.uleb128 0xb
 2048 0032 03       		.uleb128 0x3
 2049 0033 0E       		.uleb128 0xe
 2050 0034 00       		.byte	0
 2051 0035 00       		.byte	0
 2052 0036 05       		.uleb128 0x5
ARM GAS  C:\Users\14122\AppData\Local\Temp\ccW1nTH3.s 			page 37


 2053 0037 26       		.uleb128 0x26
 2054 0038 00       		.byte	0
 2055 0039 49       		.uleb128 0x49
 2056 003a 13       		.uleb128 0x13
 2057 003b 00       		.byte	0
 2058 003c 00       		.byte	0
 2059 003d 06       		.uleb128 0x6
 2060 003e 35       		.uleb128 0x35
 2061 003f 00       		.byte	0
 2062 0040 49       		.uleb128 0x49
 2063 0041 13       		.uleb128 0x13
 2064 0042 00       		.byte	0
 2065 0043 00       		.byte	0
 2066 0044 07       		.uleb128 0x7
 2067 0045 13       		.uleb128 0x13
 2068 0046 01       		.byte	0x1
 2069 0047 03       		.uleb128 0x3
 2070 0048 0E       		.uleb128 0xe
 2071 0049 0B       		.uleb128 0xb
 2072 004a 0B       		.uleb128 0xb
 2073 004b 3A       		.uleb128 0x3a
 2074 004c 0B       		.uleb128 0xb
 2075 004d 3B       		.uleb128 0x3b
 2076 004e 0B       		.uleb128 0xb
 2077 004f 01       		.uleb128 0x1
 2078 0050 13       		.uleb128 0x13
 2079 0051 00       		.byte	0
 2080 0052 00       		.byte	0
 2081 0053 08       		.uleb128 0x8
 2082 0054 0D       		.uleb128 0xd
 2083 0055 00       		.byte	0
 2084 0056 03       		.uleb128 0x3
 2085 0057 0E       		.uleb128 0xe
 2086 0058 3A       		.uleb128 0x3a
 2087 0059 0B       		.uleb128 0xb
 2088 005a 3B       		.uleb128 0x3b
 2089 005b 0B       		.uleb128 0xb
 2090 005c 49       		.uleb128 0x49
 2091 005d 13       		.uleb128 0x13
 2092 005e 38       		.uleb128 0x38
 2093 005f 0B       		.uleb128 0xb
 2094 0060 00       		.byte	0
 2095 0061 00       		.byte	0
 2096 0062 09       		.uleb128 0x9
 2097 0063 0D       		.uleb128 0xd
 2098 0064 00       		.byte	0
 2099 0065 03       		.uleb128 0x3
 2100 0066 08       		.uleb128 0x8
 2101 0067 3A       		.uleb128 0x3a
 2102 0068 0B       		.uleb128 0xb
 2103 0069 3B       		.uleb128 0x3b
 2104 006a 0B       		.uleb128 0xb
 2105 006b 49       		.uleb128 0x49
 2106 006c 13       		.uleb128 0x13
 2107 006d 38       		.uleb128 0x38
 2108 006e 0B       		.uleb128 0xb
 2109 006f 00       		.byte	0
ARM GAS  C:\Users\14122\AppData\Local\Temp\ccW1nTH3.s 			page 38


 2110 0070 00       		.byte	0
 2111 0071 0A       		.uleb128 0xa
 2112 0072 0D       		.uleb128 0xd
 2113 0073 00       		.byte	0
 2114 0074 03       		.uleb128 0x3
 2115 0075 08       		.uleb128 0x8
 2116 0076 3A       		.uleb128 0x3a
 2117 0077 0B       		.uleb128 0xb
 2118 0078 3B       		.uleb128 0x3b
 2119 0079 05       		.uleb128 0x5
 2120 007a 49       		.uleb128 0x49
 2121 007b 13       		.uleb128 0x13
 2122 007c 38       		.uleb128 0x38
 2123 007d 0B       		.uleb128 0xb
 2124 007e 00       		.byte	0
 2125 007f 00       		.byte	0
 2126 0080 0B       		.uleb128 0xb
 2127 0081 0D       		.uleb128 0xd
 2128 0082 00       		.byte	0
 2129 0083 03       		.uleb128 0x3
 2130 0084 0E       		.uleb128 0xe
 2131 0085 3A       		.uleb128 0x3a
 2132 0086 0B       		.uleb128 0xb
 2133 0087 3B       		.uleb128 0x3b
 2134 0088 05       		.uleb128 0x5
 2135 0089 49       		.uleb128 0x49
 2136 008a 13       		.uleb128 0x13
 2137 008b 38       		.uleb128 0x38
 2138 008c 0B       		.uleb128 0xb
 2139 008d 00       		.byte	0
 2140 008e 00       		.byte	0
 2141 008f 0C       		.uleb128 0xc
 2142 0090 0F       		.uleb128 0xf
 2143 0091 00       		.byte	0
 2144 0092 0B       		.uleb128 0xb
 2145 0093 0B       		.uleb128 0xb
 2146 0094 49       		.uleb128 0x49
 2147 0095 13       		.uleb128 0x13
 2148 0096 00       		.byte	0
 2149 0097 00       		.byte	0
 2150 0098 0D       		.uleb128 0xd
 2151 0099 13       		.uleb128 0x13
 2152 009a 01       		.byte	0x1
 2153 009b 03       		.uleb128 0x3
 2154 009c 0E       		.uleb128 0xe
 2155 009d 0B       		.uleb128 0xb
 2156 009e 0B       		.uleb128 0xb
 2157 009f 3A       		.uleb128 0x3a
 2158 00a0 0B       		.uleb128 0xb
 2159 00a1 3B       		.uleb128 0x3b
 2160 00a2 05       		.uleb128 0x5
 2161 00a3 01       		.uleb128 0x1
 2162 00a4 13       		.uleb128 0x13
 2163 00a5 00       		.byte	0
 2164 00a6 00       		.byte	0
 2165 00a7 0E       		.uleb128 0xe
 2166 00a8 15       		.uleb128 0x15
ARM GAS  C:\Users\14122\AppData\Local\Temp\ccW1nTH3.s 			page 39


 2167 00a9 01       		.byte	0x1
 2168 00aa 27       		.uleb128 0x27
 2169 00ab 19       		.uleb128 0x19
 2170 00ac 01       		.uleb128 0x1
 2171 00ad 13       		.uleb128 0x13
 2172 00ae 00       		.byte	0
 2173 00af 00       		.byte	0
 2174 00b0 0F       		.uleb128 0xf
 2175 00b1 05       		.uleb128 0x5
 2176 00b2 00       		.byte	0
 2177 00b3 49       		.uleb128 0x49
 2178 00b4 13       		.uleb128 0x13
 2179 00b5 00       		.byte	0
 2180 00b6 00       		.byte	0
 2181 00b7 10       		.uleb128 0x10
 2182 00b8 0F       		.uleb128 0xf
 2183 00b9 00       		.byte	0
 2184 00ba 0B       		.uleb128 0xb
 2185 00bb 0B       		.uleb128 0xb
 2186 00bc 00       		.byte	0
 2187 00bd 00       		.byte	0
 2188 00be 11       		.uleb128 0x11
 2189 00bf 34       		.uleb128 0x34
 2190 00c0 00       		.byte	0
 2191 00c1 03       		.uleb128 0x3
 2192 00c2 0E       		.uleb128 0xe
 2193 00c3 3A       		.uleb128 0x3a
 2194 00c4 0B       		.uleb128 0xb
 2195 00c5 3B       		.uleb128 0x3b
 2196 00c6 05       		.uleb128 0x5
 2197 00c7 49       		.uleb128 0x49
 2198 00c8 13       		.uleb128 0x13
 2199 00c9 3F       		.uleb128 0x3f
 2200 00ca 19       		.uleb128 0x19
 2201 00cb 3C       		.uleb128 0x3c
 2202 00cc 19       		.uleb128 0x19
 2203 00cd 00       		.byte	0
 2204 00ce 00       		.byte	0
 2205 00cf 12       		.uleb128 0x12
 2206 00d0 34       		.uleb128 0x34
 2207 00d1 00       		.byte	0
 2208 00d2 03       		.uleb128 0x3
 2209 00d3 0E       		.uleb128 0xe
 2210 00d4 3A       		.uleb128 0x3a
 2211 00d5 0B       		.uleb128 0xb
 2212 00d6 3B       		.uleb128 0x3b
 2213 00d7 0B       		.uleb128 0xb
 2214 00d8 49       		.uleb128 0x49
 2215 00d9 13       		.uleb128 0x13
 2216 00da 3F       		.uleb128 0x3f
 2217 00db 19       		.uleb128 0x19
 2218 00dc 3C       		.uleb128 0x3c
 2219 00dd 19       		.uleb128 0x19
 2220 00de 00       		.byte	0
 2221 00df 00       		.byte	0
 2222 00e0 13       		.uleb128 0x13
 2223 00e1 01       		.uleb128 0x1
ARM GAS  C:\Users\14122\AppData\Local\Temp\ccW1nTH3.s 			page 40


 2224 00e2 01       		.byte	0x1
 2225 00e3 49       		.uleb128 0x49
 2226 00e4 13       		.uleb128 0x13
 2227 00e5 01       		.uleb128 0x1
 2228 00e6 13       		.uleb128 0x13
 2229 00e7 00       		.byte	0
 2230 00e8 00       		.byte	0
 2231 00e9 14       		.uleb128 0x14
 2232 00ea 21       		.uleb128 0x21
 2233 00eb 00       		.byte	0
 2234 00ec 49       		.uleb128 0x49
 2235 00ed 13       		.uleb128 0x13
 2236 00ee 2F       		.uleb128 0x2f
 2237 00ef 0B       		.uleb128 0xb
 2238 00f0 00       		.byte	0
 2239 00f1 00       		.byte	0
 2240 00f2 15       		.uleb128 0x15
 2241 00f3 17       		.uleb128 0x17
 2242 00f4 01       		.byte	0x1
 2243 00f5 0B       		.uleb128 0xb
 2244 00f6 0B       		.uleb128 0xb
 2245 00f7 3A       		.uleb128 0x3a
 2246 00f8 0B       		.uleb128 0xb
 2247 00f9 3B       		.uleb128 0x3b
 2248 00fa 0B       		.uleb128 0xb
 2249 00fb 01       		.uleb128 0x1
 2250 00fc 13       		.uleb128 0x13
 2251 00fd 00       		.byte	0
 2252 00fe 00       		.byte	0
 2253 00ff 16       		.uleb128 0x16
 2254 0100 0D       		.uleb128 0xd
 2255 0101 00       		.byte	0
 2256 0102 03       		.uleb128 0x3
 2257 0103 0E       		.uleb128 0xe
 2258 0104 3A       		.uleb128 0x3a
 2259 0105 0B       		.uleb128 0xb
 2260 0106 3B       		.uleb128 0x3b
 2261 0107 0B       		.uleb128 0xb
 2262 0108 49       		.uleb128 0x49
 2263 0109 13       		.uleb128 0x13
 2264 010a 00       		.byte	0
 2265 010b 00       		.byte	0
 2266 010c 17       		.uleb128 0x17
 2267 010d 0D       		.uleb128 0xd
 2268 010e 00       		.byte	0
 2269 010f 03       		.uleb128 0x3
 2270 0110 0E       		.uleb128 0xe
 2271 0111 3A       		.uleb128 0x3a
 2272 0112 0B       		.uleb128 0xb
 2273 0113 3B       		.uleb128 0x3b
 2274 0114 05       		.uleb128 0x5
 2275 0115 49       		.uleb128 0x49
 2276 0116 13       		.uleb128 0x13
 2277 0117 00       		.byte	0
 2278 0118 00       		.byte	0
 2279 0119 18       		.uleb128 0x18
 2280 011a 34       		.uleb128 0x34
ARM GAS  C:\Users\14122\AppData\Local\Temp\ccW1nTH3.s 			page 41


 2281 011b 00       		.byte	0
 2282 011c 03       		.uleb128 0x3
 2283 011d 08       		.uleb128 0x8
 2284 011e 3A       		.uleb128 0x3a
 2285 011f 0B       		.uleb128 0xb
 2286 0120 3B       		.uleb128 0x3b
 2287 0121 05       		.uleb128 0x5
 2288 0122 49       		.uleb128 0x49
 2289 0123 13       		.uleb128 0x13
 2290 0124 3F       		.uleb128 0x3f
 2291 0125 19       		.uleb128 0x19
 2292 0126 3C       		.uleb128 0x3c
 2293 0127 19       		.uleb128 0x19
 2294 0128 00       		.byte	0
 2295 0129 00       		.byte	0
 2296 012a 19       		.uleb128 0x19
 2297 012b 21       		.uleb128 0x21
 2298 012c 00       		.byte	0
 2299 012d 00       		.byte	0
 2300 012e 00       		.byte	0
 2301 012f 1A       		.uleb128 0x1a
 2302 0130 13       		.uleb128 0x13
 2303 0131 01       		.byte	0x1
 2304 0132 0B       		.uleb128 0xb
 2305 0133 0B       		.uleb128 0xb
 2306 0134 3A       		.uleb128 0x3a
 2307 0135 0B       		.uleb128 0xb
 2308 0136 3B       		.uleb128 0x3b
 2309 0137 0B       		.uleb128 0xb
 2310 0138 01       		.uleb128 0x1
 2311 0139 13       		.uleb128 0x13
 2312 013a 00       		.byte	0
 2313 013b 00       		.byte	0
 2314 013c 1B       		.uleb128 0x1b
 2315 013d 15       		.uleb128 0x15
 2316 013e 01       		.byte	0x1
 2317 013f 27       		.uleb128 0x27
 2318 0140 19       		.uleb128 0x19
 2319 0141 49       		.uleb128 0x49
 2320 0142 13       		.uleb128 0x13
 2321 0143 01       		.uleb128 0x1
 2322 0144 13       		.uleb128 0x13
 2323 0145 00       		.byte	0
 2324 0146 00       		.byte	0
 2325 0147 1C       		.uleb128 0x1c
 2326 0148 16       		.uleb128 0x16
 2327 0149 00       		.byte	0
 2328 014a 03       		.uleb128 0x3
 2329 014b 0E       		.uleb128 0xe
 2330 014c 3A       		.uleb128 0x3a
 2331 014d 0B       		.uleb128 0xb
 2332 014e 3B       		.uleb128 0x3b
 2333 014f 05       		.uleb128 0x5
 2334 0150 49       		.uleb128 0x49
 2335 0151 13       		.uleb128 0x13
 2336 0152 00       		.byte	0
 2337 0153 00       		.byte	0
ARM GAS  C:\Users\14122\AppData\Local\Temp\ccW1nTH3.s 			page 42


 2338 0154 1D       		.uleb128 0x1d
 2339 0155 2E       		.uleb128 0x2e
 2340 0156 01       		.byte	0x1
 2341 0157 3F       		.uleb128 0x3f
 2342 0158 19       		.uleb128 0x19
 2343 0159 03       		.uleb128 0x3
 2344 015a 0E       		.uleb128 0xe
 2345 015b 3A       		.uleb128 0x3a
 2346 015c 0B       		.uleb128 0xb
 2347 015d 3B       		.uleb128 0x3b
 2348 015e 0B       		.uleb128 0xb
 2349 015f 27       		.uleb128 0x27
 2350 0160 19       		.uleb128 0x19
 2351 0161 11       		.uleb128 0x11
 2352 0162 01       		.uleb128 0x1
 2353 0163 12       		.uleb128 0x12
 2354 0164 06       		.uleb128 0x6
 2355 0165 40       		.uleb128 0x40
 2356 0166 18       		.uleb128 0x18
 2357 0167 9742     		.uleb128 0x2117
 2358 0169 19       		.uleb128 0x19
 2359 016a 01       		.uleb128 0x1
 2360 016b 13       		.uleb128 0x13
 2361 016c 00       		.byte	0
 2362 016d 00       		.byte	0
 2363 016e 1E       		.uleb128 0x1e
 2364 016f 05       		.uleb128 0x5
 2365 0170 00       		.byte	0
 2366 0171 03       		.uleb128 0x3
 2367 0172 08       		.uleb128 0x8
 2368 0173 3A       		.uleb128 0x3a
 2369 0174 0B       		.uleb128 0xb
 2370 0175 3B       		.uleb128 0x3b
 2371 0176 0B       		.uleb128 0xb
 2372 0177 49       		.uleb128 0x49
 2373 0178 13       		.uleb128 0x13
 2374 0179 02       		.uleb128 0x2
 2375 017a 17       		.uleb128 0x17
 2376 017b 00       		.byte	0
 2377 017c 00       		.byte	0
 2378 017d 1F       		.uleb128 0x1f
 2379 017e 34       		.uleb128 0x34
 2380 017f 00       		.byte	0
 2381 0180 03       		.uleb128 0x3
 2382 0181 0E       		.uleb128 0xe
 2383 0182 49       		.uleb128 0x49
 2384 0183 13       		.uleb128 0x13
 2385 0184 34       		.uleb128 0x34
 2386 0185 19       		.uleb128 0x19
 2387 0186 00       		.byte	0
 2388 0187 00       		.byte	0
 2389 0188 20       		.uleb128 0x20
 2390 0189 1D       		.uleb128 0x1d
 2391 018a 01       		.byte	0x1
 2392 018b 31       		.uleb128 0x31
 2393 018c 13       		.uleb128 0x13
 2394 018d 11       		.uleb128 0x11
ARM GAS  C:\Users\14122\AppData\Local\Temp\ccW1nTH3.s 			page 43


 2395 018e 01       		.uleb128 0x1
 2396 018f 12       		.uleb128 0x12
 2397 0190 06       		.uleb128 0x6
 2398 0191 58       		.uleb128 0x58
 2399 0192 0B       		.uleb128 0xb
 2400 0193 59       		.uleb128 0x59
 2401 0194 0B       		.uleb128 0xb
 2402 0195 01       		.uleb128 0x1
 2403 0196 13       		.uleb128 0x13
 2404 0197 00       		.byte	0
 2405 0198 00       		.byte	0
 2406 0199 21       		.uleb128 0x21
 2407 019a 1D       		.uleb128 0x1d
 2408 019b 01       		.byte	0x1
 2409 019c 31       		.uleb128 0x31
 2410 019d 13       		.uleb128 0x13
 2411 019e 11       		.uleb128 0x11
 2412 019f 01       		.uleb128 0x1
 2413 01a0 12       		.uleb128 0x12
 2414 01a1 06       		.uleb128 0x6
 2415 01a2 58       		.uleb128 0x58
 2416 01a3 0B       		.uleb128 0xb
 2417 01a4 59       		.uleb128 0x59
 2418 01a5 05       		.uleb128 0x5
 2419 01a6 00       		.byte	0
 2420 01a7 00       		.byte	0
 2421 01a8 22       		.uleb128 0x22
 2422 01a9 05       		.uleb128 0x5
 2423 01aa 00       		.byte	0
 2424 01ab 31       		.uleb128 0x31
 2425 01ac 13       		.uleb128 0x13
 2426 01ad 02       		.uleb128 0x2
 2427 01ae 17       		.uleb128 0x17
 2428 01af 00       		.byte	0
 2429 01b0 00       		.byte	0
 2430 01b1 23       		.uleb128 0x23
 2431 01b2 898201   		.uleb128 0x4109
 2432 01b5 01       		.byte	0x1
 2433 01b6 11       		.uleb128 0x11
 2434 01b7 01       		.uleb128 0x1
 2435 01b8 31       		.uleb128 0x31
 2436 01b9 13       		.uleb128 0x13
 2437 01ba 00       		.byte	0
 2438 01bb 00       		.byte	0
 2439 01bc 24       		.uleb128 0x24
 2440 01bd 8A8201   		.uleb128 0x410a
 2441 01c0 00       		.byte	0
 2442 01c1 02       		.uleb128 0x2
 2443 01c2 18       		.uleb128 0x18
 2444 01c3 9142     		.uleb128 0x2111
 2445 01c5 18       		.uleb128 0x18
 2446 01c6 00       		.byte	0
 2447 01c7 00       		.byte	0
 2448 01c8 25       		.uleb128 0x25
 2449 01c9 1D       		.uleb128 0x1d
 2450 01ca 01       		.byte	0x1
 2451 01cb 31       		.uleb128 0x31
ARM GAS  C:\Users\14122\AppData\Local\Temp\ccW1nTH3.s 			page 44


 2452 01cc 13       		.uleb128 0x13
 2453 01cd 11       		.uleb128 0x11
 2454 01ce 01       		.uleb128 0x1
 2455 01cf 12       		.uleb128 0x12
 2456 01d0 06       		.uleb128 0x6
 2457 01d1 58       		.uleb128 0x58
 2458 01d2 0B       		.uleb128 0xb
 2459 01d3 59       		.uleb128 0x59
 2460 01d4 0B       		.uleb128 0xb
 2461 01d5 00       		.byte	0
 2462 01d6 00       		.byte	0
 2463 01d7 26       		.uleb128 0x26
 2464 01d8 0B       		.uleb128 0xb
 2465 01d9 01       		.byte	0x1
 2466 01da 11       		.uleb128 0x11
 2467 01db 01       		.uleb128 0x1
 2468 01dc 12       		.uleb128 0x12
 2469 01dd 06       		.uleb128 0x6
 2470 01de 00       		.byte	0
 2471 01df 00       		.byte	0
 2472 01e0 27       		.uleb128 0x27
 2473 01e1 34       		.uleb128 0x34
 2474 01e2 00       		.byte	0
 2475 01e3 31       		.uleb128 0x31
 2476 01e4 13       		.uleb128 0x13
 2477 01e5 00       		.byte	0
 2478 01e6 00       		.byte	0
 2479 01e7 28       		.uleb128 0x28
 2480 01e8 2E       		.uleb128 0x2e
 2481 01e9 01       		.byte	0x1
 2482 01ea 3F       		.uleb128 0x3f
 2483 01eb 19       		.uleb128 0x19
 2484 01ec 03       		.uleb128 0x3
 2485 01ed 0E       		.uleb128 0xe
 2486 01ee 3A       		.uleb128 0x3a
 2487 01ef 0B       		.uleb128 0xb
 2488 01f0 3B       		.uleb128 0x3b
 2489 01f1 0B       		.uleb128 0xb
 2490 01f2 27       		.uleb128 0x27
 2491 01f3 19       		.uleb128 0x19
 2492 01f4 49       		.uleb128 0x49
 2493 01f5 13       		.uleb128 0x13
 2494 01f6 11       		.uleb128 0x11
 2495 01f7 01       		.uleb128 0x1
 2496 01f8 12       		.uleb128 0x12
 2497 01f9 06       		.uleb128 0x6
 2498 01fa 40       		.uleb128 0x40
 2499 01fb 18       		.uleb128 0x18
 2500 01fc 9742     		.uleb128 0x2117
 2501 01fe 19       		.uleb128 0x19
 2502 01ff 01       		.uleb128 0x1
 2503 0200 13       		.uleb128 0x13
 2504 0201 00       		.byte	0
 2505 0202 00       		.byte	0
 2506 0203 29       		.uleb128 0x29
 2507 0204 34       		.uleb128 0x34
 2508 0205 00       		.byte	0
ARM GAS  C:\Users\14122\AppData\Local\Temp\ccW1nTH3.s 			page 45


 2509 0206 03       		.uleb128 0x3
 2510 0207 08       		.uleb128 0x8
 2511 0208 3A       		.uleb128 0x3a
 2512 0209 0B       		.uleb128 0xb
 2513 020a 3B       		.uleb128 0x3b
 2514 020b 0B       		.uleb128 0xb
 2515 020c 49       		.uleb128 0x49
 2516 020d 13       		.uleb128 0x13
 2517 020e 00       		.byte	0
 2518 020f 00       		.byte	0
 2519 0210 2A       		.uleb128 0x2a
 2520 0211 1D       		.uleb128 0x1d
 2521 0212 01       		.byte	0x1
 2522 0213 31       		.uleb128 0x31
 2523 0214 13       		.uleb128 0x13
 2524 0215 52       		.uleb128 0x52
 2525 0216 01       		.uleb128 0x1
 2526 0217 55       		.uleb128 0x55
 2527 0218 17       		.uleb128 0x17
 2528 0219 58       		.uleb128 0x58
 2529 021a 0B       		.uleb128 0xb
 2530 021b 59       		.uleb128 0x59
 2531 021c 0B       		.uleb128 0xb
 2532 021d 01       		.uleb128 0x1
 2533 021e 13       		.uleb128 0x13
 2534 021f 00       		.byte	0
 2535 0220 00       		.byte	0
 2536 0221 2B       		.uleb128 0x2b
 2537 0222 05       		.uleb128 0x5
 2538 0223 00       		.byte	0
 2539 0224 31       		.uleb128 0x31
 2540 0225 13       		.uleb128 0x13
 2541 0226 00       		.byte	0
 2542 0227 00       		.byte	0
 2543 0228 2C       		.uleb128 0x2c
 2544 0229 0B       		.uleb128 0xb
 2545 022a 01       		.byte	0x1
 2546 022b 55       		.uleb128 0x55
 2547 022c 17       		.uleb128 0x17
 2548 022d 00       		.byte	0
 2549 022e 00       		.byte	0
 2550 022f 2D       		.uleb128 0x2d
 2551 0230 1D       		.uleb128 0x1d
 2552 0231 01       		.byte	0x1
 2553 0232 31       		.uleb128 0x31
 2554 0233 13       		.uleb128 0x13
 2555 0234 52       		.uleb128 0x52
 2556 0235 01       		.uleb128 0x1
 2557 0236 55       		.uleb128 0x55
 2558 0237 17       		.uleb128 0x17
 2559 0238 58       		.uleb128 0x58
 2560 0239 0B       		.uleb128 0xb
 2561 023a 59       		.uleb128 0x59
 2562 023b 05       		.uleb128 0x5
 2563 023c 00       		.byte	0
 2564 023d 00       		.byte	0
 2565 023e 2E       		.uleb128 0x2e
ARM GAS  C:\Users\14122\AppData\Local\Temp\ccW1nTH3.s 			page 46


 2566 023f 34       		.uleb128 0x34
 2567 0240 00       		.byte	0
 2568 0241 03       		.uleb128 0x3
 2569 0242 08       		.uleb128 0x8
 2570 0243 3A       		.uleb128 0x3a
 2571 0244 0B       		.uleb128 0xb
 2572 0245 3B       		.uleb128 0x3b
 2573 0246 0B       		.uleb128 0xb
 2574 0247 49       		.uleb128 0x49
 2575 0248 13       		.uleb128 0x13
 2576 0249 02       		.uleb128 0x2
 2577 024a 18       		.uleb128 0x18
 2578 024b 00       		.byte	0
 2579 024c 00       		.byte	0
 2580 024d 2F       		.uleb128 0x2f
 2581 024e 898201   		.uleb128 0x4109
 2582 0251 01       		.byte	0x1
 2583 0252 11       		.uleb128 0x11
 2584 0253 01       		.uleb128 0x1
 2585 0254 31       		.uleb128 0x31
 2586 0255 13       		.uleb128 0x13
 2587 0256 01       		.uleb128 0x1
 2588 0257 13       		.uleb128 0x13
 2589 0258 00       		.byte	0
 2590 0259 00       		.byte	0
 2591 025a 30       		.uleb128 0x30
 2592 025b 898201   		.uleb128 0x4109
 2593 025e 00       		.byte	0
 2594 025f 11       		.uleb128 0x11
 2595 0260 01       		.uleb128 0x1
 2596 0261 31       		.uleb128 0x31
 2597 0262 13       		.uleb128 0x13
 2598 0263 00       		.byte	0
 2599 0264 00       		.byte	0
 2600 0265 31       		.uleb128 0x31
 2601 0266 2E       		.uleb128 0x2e
 2602 0267 01       		.byte	0x1
 2603 0268 03       		.uleb128 0x3
 2604 0269 0E       		.uleb128 0xe
 2605 026a 3A       		.uleb128 0x3a
 2606 026b 0B       		.uleb128 0xb
 2607 026c 3B       		.uleb128 0x3b
 2608 026d 0B       		.uleb128 0xb
 2609 026e 27       		.uleb128 0x27
 2610 026f 19       		.uleb128 0x19
 2611 0270 20       		.uleb128 0x20
 2612 0271 0B       		.uleb128 0xb
 2613 0272 01       		.uleb128 0x1
 2614 0273 13       		.uleb128 0x13
 2615 0274 00       		.byte	0
 2616 0275 00       		.byte	0
 2617 0276 32       		.uleb128 0x32
 2618 0277 05       		.uleb128 0x5
 2619 0278 00       		.byte	0
 2620 0279 03       		.uleb128 0x3
 2621 027a 08       		.uleb128 0x8
 2622 027b 3A       		.uleb128 0x3a
ARM GAS  C:\Users\14122\AppData\Local\Temp\ccW1nTH3.s 			page 47


 2623 027c 0B       		.uleb128 0xb
 2624 027d 3B       		.uleb128 0x3b
 2625 027e 0B       		.uleb128 0xb
 2626 027f 49       		.uleb128 0x49
 2627 0280 13       		.uleb128 0x13
 2628 0281 00       		.byte	0
 2629 0282 00       		.byte	0
 2630 0283 33       		.uleb128 0x33
 2631 0284 2E       		.uleb128 0x2e
 2632 0285 01       		.byte	0x1
 2633 0286 03       		.uleb128 0x3
 2634 0287 0E       		.uleb128 0xe
 2635 0288 3A       		.uleb128 0x3a
 2636 0289 0B       		.uleb128 0xb
 2637 028a 3B       		.uleb128 0x3b
 2638 028b 0B       		.uleb128 0xb
 2639 028c 27       		.uleb128 0x27
 2640 028d 19       		.uleb128 0x19
 2641 028e 49       		.uleb128 0x49
 2642 028f 13       		.uleb128 0x13
 2643 0290 20       		.uleb128 0x20
 2644 0291 0B       		.uleb128 0xb
 2645 0292 01       		.uleb128 0x1
 2646 0293 13       		.uleb128 0x13
 2647 0294 00       		.byte	0
 2648 0295 00       		.byte	0
 2649 0296 34       		.uleb128 0x34
 2650 0297 2E       		.uleb128 0x2e
 2651 0298 01       		.byte	0x1
 2652 0299 03       		.uleb128 0x3
 2653 029a 0E       		.uleb128 0xe
 2654 029b 3A       		.uleb128 0x3a
 2655 029c 0B       		.uleb128 0xb
 2656 029d 3B       		.uleb128 0x3b
 2657 029e 05       		.uleb128 0x5
 2658 029f 27       		.uleb128 0x27
 2659 02a0 19       		.uleb128 0x19
 2660 02a1 20       		.uleb128 0x20
 2661 02a2 0B       		.uleb128 0xb
 2662 02a3 01       		.uleb128 0x1
 2663 02a4 13       		.uleb128 0x13
 2664 02a5 00       		.byte	0
 2665 02a6 00       		.byte	0
 2666 02a7 35       		.uleb128 0x35
 2667 02a8 34       		.uleb128 0x34
 2668 02a9 00       		.byte	0
 2669 02aa 03       		.uleb128 0x3
 2670 02ab 0E       		.uleb128 0xe
 2671 02ac 49       		.uleb128 0x49
 2672 02ad 13       		.uleb128 0x13
 2673 02ae 34       		.uleb128 0x34
 2674 02af 19       		.uleb128 0x19
 2675 02b0 1C       		.uleb128 0x1c
 2676 02b1 0E       		.uleb128 0xe
 2677 02b2 00       		.byte	0
 2678 02b3 00       		.byte	0
 2679 02b4 36       		.uleb128 0x36
ARM GAS  C:\Users\14122\AppData\Local\Temp\ccW1nTH3.s 			page 48


 2680 02b5 2E       		.uleb128 0x2e
 2681 02b6 00       		.byte	0
 2682 02b7 03       		.uleb128 0x3
 2683 02b8 0E       		.uleb128 0xe
 2684 02b9 3A       		.uleb128 0x3a
 2685 02ba 0B       		.uleb128 0xb
 2686 02bb 3B       		.uleb128 0x3b
 2687 02bc 05       		.uleb128 0x5
 2688 02bd 27       		.uleb128 0x27
 2689 02be 19       		.uleb128 0x19
 2690 02bf 20       		.uleb128 0x20
 2691 02c0 0B       		.uleb128 0xb
 2692 02c1 00       		.byte	0
 2693 02c2 00       		.byte	0
 2694 02c3 37       		.uleb128 0x37
 2695 02c4 2E       		.uleb128 0x2e
 2696 02c5 01       		.byte	0x1
 2697 02c6 03       		.uleb128 0x3
 2698 02c7 0E       		.uleb128 0xe
 2699 02c8 3A       		.uleb128 0x3a
 2700 02c9 0B       		.uleb128 0xb
 2701 02ca 3B       		.uleb128 0x3b
 2702 02cb 05       		.uleb128 0x5
 2703 02cc 27       		.uleb128 0x27
 2704 02cd 19       		.uleb128 0x19
 2705 02ce 49       		.uleb128 0x49
 2706 02cf 13       		.uleb128 0x13
 2707 02d0 20       		.uleb128 0x20
 2708 02d1 0B       		.uleb128 0xb
 2709 02d2 01       		.uleb128 0x1
 2710 02d3 13       		.uleb128 0x13
 2711 02d4 00       		.byte	0
 2712 02d5 00       		.byte	0
 2713 02d6 38       		.uleb128 0x38
 2714 02d7 05       		.uleb128 0x5
 2715 02d8 00       		.byte	0
 2716 02d9 03       		.uleb128 0x3
 2717 02da 08       		.uleb128 0x8
 2718 02db 3A       		.uleb128 0x3a
 2719 02dc 0B       		.uleb128 0xb
 2720 02dd 3B       		.uleb128 0x3b
 2721 02de 05       		.uleb128 0x5
 2722 02df 49       		.uleb128 0x49
 2723 02e0 13       		.uleb128 0x13
 2724 02e1 00       		.byte	0
 2725 02e2 00       		.byte	0
 2726 02e3 39       		.uleb128 0x39
 2727 02e4 34       		.uleb128 0x34
 2728 02e5 00       		.byte	0
 2729 02e6 03       		.uleb128 0x3
 2730 02e7 08       		.uleb128 0x8
 2731 02e8 3A       		.uleb128 0x3a
 2732 02e9 0B       		.uleb128 0xb
 2733 02ea 3B       		.uleb128 0x3b
 2734 02eb 05       		.uleb128 0x5
 2735 02ec 49       		.uleb128 0x49
 2736 02ed 13       		.uleb128 0x13
ARM GAS  C:\Users\14122\AppData\Local\Temp\ccW1nTH3.s 			page 49


 2737 02ee 00       		.byte	0
 2738 02ef 00       		.byte	0
 2739 02f0 3A       		.uleb128 0x3a
 2740 02f1 05       		.uleb128 0x5
 2741 02f2 00       		.byte	0
 2742 02f3 03       		.uleb128 0x3
 2743 02f4 0E       		.uleb128 0xe
 2744 02f5 3A       		.uleb128 0x3a
 2745 02f6 0B       		.uleb128 0xb
 2746 02f7 3B       		.uleb128 0x3b
 2747 02f8 05       		.uleb128 0x5
 2748 02f9 49       		.uleb128 0x49
 2749 02fa 13       		.uleb128 0x13
 2750 02fb 00       		.byte	0
 2751 02fc 00       		.byte	0
 2752 02fd 3B       		.uleb128 0x3b
 2753 02fe 2E       		.uleb128 0x2e
 2754 02ff 00       		.byte	0
 2755 0300 3F       		.uleb128 0x3f
 2756 0301 19       		.uleb128 0x19
 2757 0302 3C       		.uleb128 0x3c
 2758 0303 19       		.uleb128 0x19
 2759 0304 6E       		.uleb128 0x6e
 2760 0305 0E       		.uleb128 0xe
 2761 0306 03       		.uleb128 0x3
 2762 0307 0E       		.uleb128 0xe
 2763 0308 3A       		.uleb128 0x3a
 2764 0309 0B       		.uleb128 0xb
 2765 030a 3B       		.uleb128 0x3b
 2766 030b 05       		.uleb128 0x5
 2767 030c 00       		.byte	0
 2768 030d 00       		.byte	0
 2769 030e 00       		.byte	0
 2770              		.section	.debug_loc,"",%progbits
 2771              	.Ldebug_loc0:
 2772              	.LLST9:
 2773 0000 00000000 		.4byte	.LVL21
 2774 0004 0B000000 		.4byte	.LVL23-1
 2775 0008 0100     		.2byte	0x1
 2776 000a 50       		.byte	0x50
 2777 000b 0B000000 		.4byte	.LVL23-1
 2778 000f 14000000 		.4byte	.LFE222
 2779 0013 0400     		.2byte	0x4
 2780 0015 F3       		.byte	0xf3
 2781 0016 01       		.uleb128 0x1
 2782 0017 50       		.byte	0x50
 2783 0018 9F       		.byte	0x9f
 2784 0019 00000000 		.4byte	0
 2785 001d 00000000 		.4byte	0
 2786              	.LLST10:
 2787 0021 00000000 		.4byte	.LVL21
 2788 0025 0B000000 		.4byte	.LVL23-1
 2789 0029 0100     		.2byte	0x1
 2790 002b 51       		.byte	0x51
 2791 002c 0B000000 		.4byte	.LVL23-1
 2792 0030 14000000 		.4byte	.LFE222
 2793 0034 0400     		.2byte	0x4
ARM GAS  C:\Users\14122\AppData\Local\Temp\ccW1nTH3.s 			page 50


 2794 0036 F3       		.byte	0xf3
 2795 0037 01       		.uleb128 0x1
 2796 0038 51       		.byte	0x51
 2797 0039 9F       		.byte	0x9f
 2798 003a 00000000 		.4byte	0
 2799 003e 00000000 		.4byte	0
 2800              	.LLST11:
 2801 0042 00000000 		.4byte	.LVL21
 2802 0046 08000000 		.4byte	.LVL22
 2803 004a 0300     		.2byte	0x3
 2804 004c 08       		.byte	0x8
 2805 004d 20       		.byte	0x20
 2806 004e 9F       		.byte	0x9f
 2807 004f 00000000 		.4byte	0
 2808 0053 00000000 		.4byte	0
 2809              	.LLST12:
 2810 0057 08000000 		.4byte	.LVL22
 2811 005b 0B000000 		.4byte	.LVL23-1
 2812 005f 0100     		.2byte	0x1
 2813 0061 51       		.byte	0x51
 2814 0062 0B000000 		.4byte	.LVL23-1
 2815 0066 0C000000 		.4byte	.LVL23
 2816 006a 0400     		.2byte	0x4
 2817 006c F3       		.byte	0xf3
 2818 006d 01       		.uleb128 0x1
 2819 006e 51       		.byte	0x51
 2820 006f 9F       		.byte	0x9f
 2821 0070 00000000 		.4byte	0
 2822 0074 00000000 		.4byte	0
 2823              	.LLST13:
 2824 0078 08000000 		.4byte	.LVL22
 2825 007c 0B000000 		.4byte	.LVL23-1
 2826 0080 0100     		.2byte	0x1
 2827 0082 50       		.byte	0x50
 2828 0083 0B000000 		.4byte	.LVL23-1
 2829 0087 0C000000 		.4byte	.LVL23
 2830 008b 0400     		.2byte	0x4
 2831 008d F3       		.byte	0xf3
 2832 008e 01       		.uleb128 0x1
 2833 008f 50       		.byte	0x50
 2834 0090 9F       		.byte	0x9f
 2835 0091 00000000 		.4byte	0
 2836 0095 00000000 		.4byte	0
 2837              	.LLST14:
 2838 0099 0C000000 		.4byte	.LVL23
 2839 009d 12000000 		.4byte	.LVL24
 2840 00a1 0200     		.2byte	0x2
 2841 00a3 30       		.byte	0x30
 2842 00a4 9F       		.byte	0x9f
 2843 00a5 00000000 		.4byte	0
 2844 00a9 00000000 		.4byte	0
 2845              	.LLST6:
 2846 00ad 00000000 		.4byte	.LVL11
 2847 00b1 08000000 		.4byte	.LVL12
 2848 00b5 0300     		.2byte	0x3
 2849 00b7 08       		.byte	0x8
 2850 00b8 20       		.byte	0x20
ARM GAS  C:\Users\14122\AppData\Local\Temp\ccW1nTH3.s 			page 51


 2851 00b9 9F       		.byte	0x9f
 2852 00ba 00000000 		.4byte	0
 2853 00be 00000000 		.4byte	0
 2854              	.LLST7:
 2855 00c2 0C000000 		.4byte	.LVL13
 2856 00c6 12000000 		.4byte	.LVL14
 2857 00ca 0100     		.2byte	0x1
 2858 00cc 52       		.byte	0x52
 2859 00cd 00000000 		.4byte	0
 2860 00d1 00000000 		.4byte	0
 2861              	.LLST8:
 2862 00d5 24000000 		.4byte	.LVL18
 2863 00d9 28000000 		.4byte	.LVL19
 2864 00dd 0200     		.2byte	0x2
 2865 00df 30       		.byte	0x30
 2866 00e0 9F       		.byte	0x9f
 2867 00e1 00000000 		.4byte	0
 2868 00e5 00000000 		.4byte	0
 2869              	.LLST0:
 2870 00e9 00000000 		.4byte	.LVL0
 2871 00ed 24000000 		.4byte	.LVL5
 2872 00f1 0100     		.2byte	0x1
 2873 00f3 50       		.byte	0x50
 2874 00f4 24000000 		.4byte	.LVL5
 2875 00f8 34000000 		.4byte	.LVL9
 2876 00fc 0300     		.2byte	0x3
 2877 00fe 75       		.byte	0x75
 2878 00ff 54       		.sleb128 -44
 2879 0100 9F       		.byte	0x9f
 2880 0101 34000000 		.4byte	.LVL9
 2881 0105 37000000 		.4byte	.LVL10-1
 2882 0109 0100     		.2byte	0x1
 2883 010b 50       		.byte	0x50
 2884 010c 37000000 		.4byte	.LVL10-1
 2885 0110 40000000 		.4byte	.LFE220
 2886 0114 0300     		.2byte	0x3
 2887 0116 75       		.byte	0x75
 2888 0117 54       		.sleb128 -44
 2889 0118 9F       		.byte	0x9f
 2890 0119 00000000 		.4byte	0
 2891 011d 00000000 		.4byte	0
 2892              	.LLST1:
 2893 0121 00000000 		.4byte	.LVL0
 2894 0125 24000000 		.4byte	.LVL5
 2895 0129 0100     		.2byte	0x1
 2896 012b 51       		.byte	0x51
 2897 012c 24000000 		.4byte	.LVL5
 2898 0130 2C000000 		.4byte	.LVL7
 2899 0134 0400     		.2byte	0x4
 2900 0136 F3       		.byte	0xf3
 2901 0137 01       		.uleb128 0x1
 2902 0138 51       		.byte	0x51
 2903 0139 9F       		.byte	0x9f
 2904 013a 2C000000 		.4byte	.LVL7
 2905 013e 34000000 		.4byte	.LVL9
 2906 0142 0100     		.2byte	0x1
 2907 0144 50       		.byte	0x50
ARM GAS  C:\Users\14122\AppData\Local\Temp\ccW1nTH3.s 			page 52


 2908 0145 34000000 		.4byte	.LVL9
 2909 0149 37000000 		.4byte	.LVL10-1
 2910 014d 0100     		.2byte	0x1
 2911 014f 51       		.byte	0x51
 2912 0150 37000000 		.4byte	.LVL10-1
 2913 0154 40000000 		.4byte	.LFE220
 2914 0158 0400     		.2byte	0x4
 2915 015a F3       		.byte	0xf3
 2916 015b 01       		.uleb128 0x1
 2917 015c 51       		.byte	0x51
 2918 015d 9F       		.byte	0x9f
 2919 015e 00000000 		.4byte	0
 2920 0162 00000000 		.4byte	0
 2921              	.LLST2:
 2922 0166 08000000 		.4byte	.LVL1
 2923 016a 0C000000 		.4byte	.LVL2
 2924 016e 0300     		.2byte	0x3
 2925 0170 08       		.byte	0x8
 2926 0171 20       		.byte	0x20
 2927 0172 9F       		.byte	0x9f
 2928 0173 00000000 		.4byte	0
 2929 0177 00000000 		.4byte	0
 2930              	.LLST3:
 2931 017b 18000000 		.4byte	.LVL3
 2932 017f 20000000 		.4byte	.LVL4
 2933 0183 0300     		.2byte	0x3
 2934 0185 70       		.byte	0x70
 2935 0186 2C       		.sleb128 44
 2936 0187 9F       		.byte	0x9f
 2937 0188 00000000 		.4byte	0
 2938 018c 00000000 		.4byte	0
 2939              	.LLST4:
 2940 0190 18000000 		.4byte	.LVL3
 2941 0194 20000000 		.4byte	.LVL4
 2942 0198 0100     		.2byte	0x1
 2943 019a 54       		.byte	0x54
 2944 019b 00000000 		.4byte	0
 2945 019f 00000000 		.4byte	0
 2946              	.LLST5:
 2947 01a3 2C000000 		.4byte	.LVL7
 2948 01a7 32000000 		.4byte	.LVL8
 2949 01ab 0200     		.2byte	0x2
 2950 01ad 30       		.byte	0x30
 2951 01ae 9F       		.byte	0x9f
 2952 01af 00000000 		.4byte	0
 2953 01b3 00000000 		.4byte	0
 2954              		.section	.debug_aranges,"",%progbits
 2955 0000 2C000000 		.4byte	0x2c
 2956 0004 0200     		.2byte	0x2
 2957 0006 00000000 		.4byte	.Ldebug_info0
 2958 000a 04       		.byte	0x4
 2959 000b 00       		.byte	0
 2960 000c 0000     		.2byte	0
 2961 000e 0000     		.2byte	0
 2962 0010 00000000 		.4byte	.LFB220
 2963 0014 40000000 		.4byte	.LFE220-.LFB220
 2964 0018 00000000 		.4byte	.LFB221
ARM GAS  C:\Users\14122\AppData\Local\Temp\ccW1nTH3.s 			page 53


 2965 001c 40000000 		.4byte	.LFE221-.LFB221
 2966 0020 00000000 		.4byte	.LFB222
 2967 0024 14000000 		.4byte	.LFE222-.LFB222
 2968 0028 00000000 		.4byte	0
 2969 002c 00000000 		.4byte	0
 2970              		.section	.debug_ranges,"",%progbits
 2971              	.Ldebug_ranges0:
 2972 0000 04000000 		.4byte	.LBB52
 2973 0004 06000000 		.4byte	.LBE52
 2974 0008 08000000 		.4byte	.LBB59
 2975 000c 0C000000 		.4byte	.LBE59
 2976 0010 00000000 		.4byte	0
 2977 0014 00000000 		.4byte	0
 2978 0018 0C000000 		.4byte	.LBB60
 2979 001c 0E000000 		.4byte	.LBE60
 2980 0020 12000000 		.4byte	.LBB65
 2981 0024 16000000 		.4byte	.LBE65
 2982 0028 18000000 		.4byte	.LBB66
 2983 002c 1A000000 		.4byte	.LBE66
 2984 0030 1E000000 		.4byte	.LBB67
 2985 0034 20000000 		.4byte	.LBE67
 2986 0038 00000000 		.4byte	0
 2987 003c 00000000 		.4byte	0
 2988 0040 18000000 		.4byte	.LBB79
 2989 0044 1A000000 		.4byte	.LBE79
 2990 0048 1C000000 		.4byte	.LBB91
 2991 004c 20000000 		.4byte	.LBE91
 2992 0050 00000000 		.4byte	0
 2993 0054 00000000 		.4byte	0
 2994 0058 1A000000 		.4byte	.LBB82
 2995 005c 1C000000 		.4byte	.LBE82
 2996 0060 24000000 		.4byte	.LBB92
 2997 0064 28000000 		.4byte	.LBE92
 2998 0068 00000000 		.4byte	0
 2999 006c 00000000 		.4byte	0
 3000 0070 00000000 		.4byte	.LFB220
 3001 0074 40000000 		.4byte	.LFE220
 3002 0078 00000000 		.4byte	.LFB221
 3003 007c 40000000 		.4byte	.LFE221
 3004 0080 00000000 		.4byte	.LFB222
 3005 0084 14000000 		.4byte	.LFE222
 3006 0088 00000000 		.4byte	0
 3007 008c 00000000 		.4byte	0
 3008              		.section	.debug_line,"",%progbits
 3009              	.Ldebug_line0:
 3010 0000 D3030000 		.section	.debug_str,"MS",%progbits,1
 3010      0200F202 
 3010      00000201 
 3010      FB0E0D00 
 3010      01010101 
 3011              	.LASF48:
 3012 0000 63685F74 		.ascii	"ch_threads_list\000"
 3012      68726561 
 3012      64735F6C 
 3012      69737400 
 3013              	.LASF100:
 3014 0010 74696D65 		.ascii	"timesize\000"
ARM GAS  C:\Users\14122\AppData\Local\Temp\ccW1nTH3.s 			page 54


 3014      73697A65 
 3014      00
 3015              	.LASF75:
 3016 0019 53797374 		.ascii	"SystemCoreClock\000"
 3016      656D436F 
 3016      7265436C 
 3016      6F636B00 
 3017              	.LASF88:
 3018 0029 77746D74 		.ascii	"wtmtxp\000"
 3018      787000
 3019              	.LASF126:
 3020 0030 6D656D6F 		.ascii	"memory_pool_t\000"
 3020      72795F70 
 3020      6F6F6C5F 
 3020      7400
 3021              	.LASF138:
 3022 003e 6669666F 		.ascii	"fifo_list\000"
 3022      5F6C6973 
 3022      7400
 3023              	.LASF78:
 3024 0048 72656761 		.ascii	"regarm_t\000"
 3024      726D5F74 
 3024      00
 3025              	.LASF130:
 3026 0051 64796E5F 		.ascii	"dyn_list_t\000"
 3026      6C697374 
 3026      5F7400
 3027              	.LASF37:
 3028 005c 666C6167 		.ascii	"flags\000"
 3028      7300
 3029              	.LASF72:
 3030 0062 73797374 		.ascii	"systime_t\000"
 3030      696D655F 
 3030      7400
 3031              	.LASF43:
 3032 006c 7265616C 		.ascii	"realprio\000"
 3032      7072696F 
 3032      00
 3033              	.LASF41:
 3034 0075 6570656E 		.ascii	"epending\000"
 3034      64696E67 
 3034      00
 3035              	.LASF0:
 3036 007e 756E7369 		.ascii	"unsigned int\000"
 3036      676E6564 
 3036      20696E74 
 3036      00
 3037              	.LASF49:
 3038 008b 6E657874 		.ascii	"next\000"
 3038      00
 3039              	.LASF98:
 3040 0090 76657273 		.ascii	"version\000"
 3040      696F6E00 
 3041              	.LASF46:
 3042 0098 74687265 		.ascii	"threads_list_t\000"
 3042      6164735F 
 3042      6C697374 
ARM GAS  C:\Users\14122\AppData\Local\Temp\ccW1nTH3.s 			page 55


 3042      5F7400
 3043              	.LASF132:
 3044 00a7 6F626A5F 		.ascii	"obj_list\000"
 3044      6C697374 
 3044      00
 3045              	.LASF10:
 3046 00b0 5F5F696E 		.ascii	"__int32_t\000"
 3046      7433325F 
 3046      7400
 3047              	.LASF38:
 3048 00ba 72656673 		.ascii	"refs\000"
 3048      00
 3049              	.LASF142:
 3050 00bf 63684D73 		.ascii	"chMsgSend\000"
 3050      6753656E 
 3050      6400
 3051              	.LASF112:
 3052 00c9 6F66665F 		.ascii	"off_time\000"
 3052      74696D65 
 3052      00
 3053              	.LASF84:
 3054 00d2 77746F62 		.ascii	"wtobjp\000"
 3054      6A7000
 3055              	.LASF151:
 3056 00d9 706F7274 		.ascii	"port_lock\000"
 3056      5F6C6F63 
 3056      6B00
 3057              	.LASF70:
 3058 00e3 76746C69 		.ascii	"vtlist\000"
 3058      737400
 3059              	.LASF141:
 3060 00ea 63684D73 		.ascii	"chMsgWait\000"
 3060      67576169 
 3060      7400
 3061              	.LASF80:
 3062 00f4 706F7274 		.ascii	"port_context\000"
 3062      5F636F6E 
 3062      74657874 
 3062      00
 3063              	.LASF54:
 3064 0101 63685F72 		.ascii	"ch_ready_list\000"
 3064      65616479 
 3064      5F6C6973 
 3064      7400
 3065              	.LASF159:
 3066 010f 443A5C68 		.ascii	"D:\\hkust\\robomaster\\eclipse___files\\cundang\\as"
 3066      6B757374 
 3066      5C726F62 
 3066      6F6D6173 
 3066      7465725C 
 3067 013d 7369676E 		.ascii	"signment2-master_10.20_turret_2\000"
 3067      6D656E74 
 3067      322D6D61 
 3067      73746572 
 3067      5F31302E 
 3068              	.LASF60:
 3069 015d 66756E63 		.ascii	"func\000"
ARM GAS  C:\Users\14122\AppData\Local\Temp\ccW1nTH3.s 			page 56


 3069      00
 3070              	.LASF89:
 3071 0162 65776D61 		.ascii	"ewmask\000"
 3071      736B00
 3072              	.LASF52:
 3073 0169 70726576 		.ascii	"prev\000"
 3073      00
 3074              	.LASF51:
 3075 016e 63685F74 		.ascii	"ch_threads_queue\000"
 3075      68726561 
 3075      64735F71 
 3075      75657565 
 3075      00
 3076              	.LASF131:
 3077 017f 63685F6F 		.ascii	"ch_objects_factory\000"
 3077      626A6563 
 3077      74735F66 
 3077      6163746F 
 3077      727900
 3078              	.LASF104:
 3079 0192 6F66665F 		.ascii	"off_newer\000"
 3079      6E657765 
 3079      7200
 3080              	.LASF56:
 3081 019c 76746675 		.ascii	"vtfunc_t\000"
 3081      6E635F74 
 3081      00
 3082              	.LASF160:
 3083 01a5 63684D73 		.ascii	"chMsgRelease\000"
 3083      6752656C 
 3083      65617365 
 3083      00
 3084              	.LASF156:
 3085 01b2 63685363 		.ascii	"chSchReadyI\000"
 3085      68526561 
 3085      64794900 
 3086              	.LASF65:
 3087 01be 63685F73 		.ascii	"ch_system_debug\000"
 3087      79737465 
 3087      6D5F6465 
 3087      62756700 
 3088              	.LASF19:
 3089 01ce 75696E74 		.ascii	"uint32_t\000"
 3089      33325F74 
 3089      00
 3090              	.LASF86:
 3091 01d7 73656E74 		.ascii	"sentmsg\000"
 3091      6D736700 
 3092              	.LASF26:
 3093 01df 6576656E 		.ascii	"eventmask_t\000"
 3093      746D6173 
 3093      6B5F7400 
 3094              	.LASF101:
 3095 01eb 74687265 		.ascii	"threadsize\000"
 3095      61647369 
 3095      7A6500
 3096              	.LASF90:
ARM GAS  C:\Users\14122\AppData\Local\Temp\ccW1nTH3.s 			page 57


 3097 01f6 63685F73 		.ascii	"ch_semaphore\000"
 3097      656D6170 
 3097      686F7265 
 3097      00
 3098              	.LASF24:
 3099 0203 74707269 		.ascii	"tprio_t\000"
 3099      6F5F7400 
 3100              	.LASF58:
 3101 020b 63685F76 		.ascii	"ch_virtual_timer\000"
 3101      69727475 
 3101      616C5F74 
 3101      696D6572 
 3101      00
 3102              	.LASF120:
 3103 021c 6D656D63 		.ascii	"memcore_t\000"
 3103      6F72655F 
 3103      7400
 3104              	.LASF15:
 3105 0226 6C6F6E67 		.ascii	"long long unsigned int\000"
 3105      206C6F6E 
 3105      6720756E 
 3105      7369676E 
 3105      65642069 
 3106              	.LASF8:
 3107 023d 5F5F7569 		.ascii	"__uint16_t\000"
 3107      6E743136 
 3107      5F7400
 3108              	.LASF27:
 3109 0248 636E745F 		.ascii	"cnt_t\000"
 3109      7400
 3110              	.LASF107:
 3111 024e 6F66665F 		.ascii	"off_stklimit\000"
 3111      73746B6C 
 3111      696D6974 
 3111      00
 3112              	.LASF92:
 3113 025b 6F776E65 		.ascii	"owner\000"
 3113      7200
 3114              	.LASF50:
 3115 0261 74687265 		.ascii	"threads_queue_t\000"
 3115      6164735F 
 3115      71756575 
 3115      655F7400 
 3116              	.LASF42:
 3117 0271 6D74786C 		.ascii	"mtxlist\000"
 3117      69737400 
 3118              	.LASF62:
 3119 0279 63685F76 		.ascii	"ch_virtual_timers_list\000"
 3119      69727475 
 3119      616C5F74 
 3119      696D6572 
 3119      735F6C69 
 3120              	.LASF153:
 3121 0290 62617365 		.ascii	"basePri\000"
 3121      50726900 
 3122              	.LASF29:
 3123 0298 74687265 		.ascii	"thread_t\000"
ARM GAS  C:\Users\14122\AppData\Local\Temp\ccW1nTH3.s 			page 58


 3123      61645F74 
 3123      00
 3124              	.LASF105:
 3125 02a1 6F66665F 		.ascii	"off_older\000"
 3125      6F6C6465 
 3125      7200
 3126              	.LASF108:
 3127 02ab 6F66665F 		.ascii	"off_state\000"
 3127      73746174 
 3127      6500
 3128              	.LASF4:
 3129 02b5 73697A65 		.ascii	"size_t\000"
 3129      5F7400
 3130              	.LASF82:
 3131 02bc 7264796D 		.ascii	"rdymsg\000"
 3131      736700
 3132              	.LASF123:
 3133 02c3 6F626A65 		.ascii	"object_size\000"
 3133      63745F73 
 3133      697A6500 
 3134              	.LASF116:
 3135 02cf 5F426F6F 		.ascii	"_Bool\000"
 3135      6C00
 3136              	.LASF139:
 3137 02d5 6F626A65 		.ascii	"objects_factory_t\000"
 3137      6374735F 
 3137      66616374 
 3137      6F72795F 
 3137      7400
 3138              	.LASF91:
 3139 02e7 63685F6D 		.ascii	"ch_mutex\000"
 3139      75746578 
 3139      00
 3140              	.LASF14:
 3141 02f0 5F5F7569 		.ascii	"__uint64_t\000"
 3141      6E743634 
 3141      5F7400
 3142              	.LASF77:
 3143 02fb 41504250 		.ascii	"APBPrescTable\000"
 3143      72657363 
 3143      5461626C 
 3143      6500
 3144              	.LASF103:
 3145 0309 6F66665F 		.ascii	"off_ctx\000"
 3145      63747800 
 3146              	.LASF152:
 3147 0311 5F5F7365 		.ascii	"__set_BASEPRI\000"
 3147      745F4241 
 3147      53455052 
 3147      4900
 3148              	.LASF149:
 3149 031f 63685379 		.ascii	"chSysLock\000"
 3149      734C6F63 
 3149      6B00
 3150              	.LASF146:
 3151 0329 63684D73 		.ascii	"chMsgIsPendingI\000"
 3151      67497350 
ARM GAS  C:\Users\14122\AppData\Local\Temp\ccW1nTH3.s 			page 59


 3151      656E6469 
 3151      6E674900 
 3152              	.LASF109:
 3153 0339 6F66665F 		.ascii	"off_flags\000"
 3153      666C6167 
 3153      7300
 3154              	.LASF31:
 3155 0343 7072696F 		.ascii	"prio\000"
 3155      00
 3156              	.LASF136:
 3157 0348 73656D5F 		.ascii	"sem_pool\000"
 3157      706F6F6C 
 3157      00
 3158              	.LASF93:
 3159 0351 63686172 		.ascii	"char\000"
 3159      00
 3160              	.LASF45:
 3161 0356 74687265 		.ascii	"thread_reference_t\000"
 3161      61645F72 
 3161      65666572 
 3161      656E6365 
 3161      5F7400
 3162              	.LASF35:
 3163 0369 77616261 		.ascii	"wabase\000"
 3163      736500
 3164              	.LASF94:
 3165 0370 63685F69 		.ascii	"ch_idle_thread_wa\000"
 3165      646C655F 
 3165      74687265 
 3165      61645F77 
 3165      6100
 3166              	.LASF22:
 3167 0382 74737461 		.ascii	"tstate_t\000"
 3167      74655F74 
 3167      00
 3168              	.LASF16:
 3169 038b 75696E74 		.ascii	"uint8_t\000"
 3169      385F7400 
 3170              	.LASF127:
 3171 0393 63685F64 		.ascii	"ch_dyn_element\000"
 3171      796E5F65 
 3171      6C656D65 
 3171      6E7400
 3172              	.LASF40:
 3173 03a2 6D736771 		.ascii	"msgqueue\000"
 3173      75657565 
 3173      00
 3174              	.LASF47:
 3175 03ab 63685F74 		.ascii	"ch_thread\000"
 3175      68726561 
 3175      6400
 3176              	.LASF129:
 3177 03b5 63685F64 		.ascii	"ch_dyn_list\000"
 3177      796E5F6C 
 3177      69737400 
 3178              	.LASF106:
 3179 03c1 6F66665F 		.ascii	"off_name\000"
ARM GAS  C:\Users\14122\AppData\Local\Temp\ccW1nTH3.s 			page 60


 3179      6E616D65 
 3179      00
 3180              	.LASF64:
 3181 03ca 73797374 		.ascii	"system_debug_t\000"
 3181      656D5F64 
 3181      65627567 
 3181      5F7400
 3182              	.LASF1:
 3183 03d9 6C6F6E67 		.ascii	"long long int\000"
 3183      206C6F6E 
 3183      6720696E 
 3183      7400
 3184              	.LASF96:
 3185 03e7 7A65726F 		.ascii	"zero\000"
 3185      00
 3186              	.LASF25:
 3187 03ec 6D73675F 		.ascii	"msg_t\000"
 3187      7400
 3188              	.LASF133:
 3189 03f2 6F626A5F 		.ascii	"obj_pool\000"
 3189      706F6F6C 
 3189      00
 3190              	.LASF57:
 3191 03fb 76697274 		.ascii	"virtual_timer_t\000"
 3191      75616C5F 
 3191      74696D65 
 3191      725F7400 
 3192              	.LASF147:
 3193 040b 71756575 		.ascii	"queue_fifo_remove\000"
 3193      655F6669 
 3193      666F5F72 
 3193      656D6F76 
 3193      6500
 3194              	.LASF97:
 3195 041d 73697A65 		.ascii	"size\000"
 3195      00
 3196              	.LASF99:
 3197 0422 70747273 		.ascii	"ptrsize\000"
 3197      697A6500 
 3198              	.LASF76:
 3199 042a 41484250 		.ascii	"AHBPrescTable\000"
 3199      72657363 
 3199      5461626C 
 3199      6500
 3200              	.LASF73:
 3201 0438 73797369 		.ascii	"sysinterval_t\000"
 3201      6E746572 
 3201      76616C5F 
 3201      7400
 3202              	.LASF134:
 3203 0446 6275665F 		.ascii	"buf_list\000"
 3203      6C697374 
 3203      00
 3204              	.LASF66:
 3205 044f 70616E69 		.ascii	"panic_msg\000"
 3205      635F6D73 
 3205      6700
ARM GAS  C:\Users\14122\AppData\Local\Temp\ccW1nTH3.s 			page 61


 3206              	.LASF21:
 3207 0459 746D6F64 		.ascii	"tmode_t\000"
 3207      655F7400 
 3208              	.LASF28:
 3209 0461 75636E74 		.ascii	"ucnt_t\000"
 3209      5F7400
 3210              	.LASF71:
 3211 0468 6D61696E 		.ascii	"mainthread\000"
 3211      74687265 
 3211      616400
 3212              	.LASF2:
 3213 0473 6C6F6E67 		.ascii	"long double\000"
 3213      20646F75 
 3213      626C6500 
 3214              	.LASF17:
 3215 047f 75696E74 		.ascii	"uint16_t\000"
 3215      31365F74 
 3215      00
 3216              	.LASF113:
 3217 0488 63686465 		.ascii	"chdebug_t\000"
 3217      6275675F 
 3217      7400
 3218              	.LASF102:
 3219 0492 6F66665F 		.ascii	"off_prio\000"
 3219      7072696F 
 3219      00
 3220              	.LASF121:
 3221 049b 63685F6D 		.ascii	"ch_memcore\000"
 3221      656D636F 
 3221      726500
 3222              	.LASF7:
 3223 04a6 73686F72 		.ascii	"short int\000"
 3223      7420696E 
 3223      7400
 3224              	.LASF11:
 3225 04b0 6C6F6E67 		.ascii	"long int\000"
 3225      20696E74 
 3225      00
 3226              	.LASF81:
 3227 04b9 706F7274 		.ascii	"port_intctx\000"
 3227      5F696E74 
 3227      63747800 
 3228              	.LASF74:
 3229 04c5 49544D5F 		.ascii	"ITM_RxBuffer\000"
 3229      52784275 
 3229      66666572 
 3229      00
 3230              	.LASF140:
 3231 04d2 63685F66 		.ascii	"ch_factory\000"
 3231      6163746F 
 3231      727900
 3232              	.LASF68:
 3233 04dd 63685F73 		.ascii	"ch_system\000"
 3233      79737465 
 3233      6D00
 3234              	.LASF157:
 3235 04e7 474E5520 		.ascii	"GNU C11 7.2.1 20170904 (release) [ARM/embedded-7-br"
ARM GAS  C:\Users\14122\AppData\Local\Temp\ccW1nTH3.s 			page 62


 3235      43313120 
 3235      372E322E 
 3235      31203230 
 3235      31373039 
 3236 051a 616E6368 		.ascii	"anch revision 255204] -mcpu=cortex-m3 -mthumb -ggdb"
 3236      20726576 
 3236      6973696F 
 3236      6E203235 
 3236      35323034 
 3237 054d 202D4F32 		.ascii	" -O2 -fomit-frame-pointer -falign-functions=16 -ffu"
 3237      202D666F 
 3237      6D69742D 
 3237      6672616D 
 3237      652D706F 
 3238 0580 6E637469 		.ascii	"nction-sections -fdata-sections -fno-common\000"
 3238      6F6E2D73 
 3238      65637469 
 3238      6F6E7320 
 3238      2D666461 
 3239              	.LASF125:
 3240 05ac 70726F76 		.ascii	"provider\000"
 3240      69646572 
 3240      00
 3241              	.LASF63:
 3242 05b5 6C617374 		.ascii	"lasttime\000"
 3242      74696D65 
 3242      00
 3243              	.LASF20:
 3244 05be 75696E74 		.ascii	"uint64_t\000"
 3244      36345F74 
 3244      00
 3245              	.LASF158:
 3246 05c7 2E2F2F6F 		.ascii	".//os/rt/src/chmsg.c\000"
 3246      732F7274 
 3246      2F737263 
 3246      2F63686D 
 3246      73672E63 
 3247              	.LASF69:
 3248 05dc 726C6973 		.ascii	"rlist\000"
 3248      7400
 3249              	.LASF5:
 3250 05e2 5F5F7569 		.ascii	"__uint8_t\000"
 3250      6E74385F 
 3250      7400
 3251              	.LASF117:
 3252 05ec 6D656D67 		.ascii	"memgetfunc_t\000"
 3252      65746675 
 3252      6E635F74 
 3252      00
 3253              	.LASF34:
 3254 05f9 6E616D65 		.ascii	"name\000"
 3254      00
 3255              	.LASF155:
 3256 05fe 63685363 		.ascii	"chSchGoSleepS\000"
 3256      68476F53 
 3256      6C656570 
 3256      5300
ARM GAS  C:\Users\14122\AppData\Local\Temp\ccW1nTH3.s 			page 63


 3257              	.LASF95:
 3258 060c 6964656E 		.ascii	"identifier\000"
 3258      74696669 
 3258      657200
 3259              	.LASF111:
 3260 0617 6F66665F 		.ascii	"off_preempt\000"
 3260      70726565 
 3260      6D707400 
 3261              	.LASF145:
 3262 0623 63685379 		.ascii	"chSysUnlock\000"
 3262      73556E6C 
 3262      6F636B00 
 3263              	.LASF23:
 3264 062f 74726566 		.ascii	"trefs_t\000"
 3264      735F7400 
 3265              	.LASF13:
 3266 0637 6C6F6E67 		.ascii	"long unsigned int\000"
 3266      20756E73 
 3266      69676E65 
 3266      6420696E 
 3266      7400
 3267              	.LASF53:
 3268 0649 72656164 		.ascii	"ready_list_t\000"
 3268      795F6C69 
 3268      73745F74 
 3268      00
 3269              	.LASF30:
 3270 0656 71756575 		.ascii	"queue\000"
 3270      6500
 3271              	.LASF18:
 3272 065c 696E7433 		.ascii	"int32_t\000"
 3272      325F7400 
 3273              	.LASF87:
 3274 0664 77747365 		.ascii	"wtsemp\000"
 3274      6D7000
 3275              	.LASF115:
 3276 066b 6D757465 		.ascii	"mutex_t\000"
 3276      785F7400 
 3277              	.LASF32:
 3278 0673 6E657765 		.ascii	"newer\000"
 3278      7200
 3279              	.LASF6:
 3280 0679 756E7369 		.ascii	"unsigned char\000"
 3280      676E6564 
 3280      20636861 
 3280      7200
 3281              	.LASF12:
 3282 0687 5F5F7569 		.ascii	"__uint32_t\000"
 3282      6E743332 
 3282      5F7400
 3283              	.LASF39:
 3284 0692 77616974 		.ascii	"waiting\000"
 3284      696E6700 
 3285              	.LASF61:
 3286 069a 76697274 		.ascii	"virtual_timers_list_t\000"
 3286      75616C5F 
 3286      74696D65 
ARM GAS  C:\Users\14122\AppData\Local\Temp\ccW1nTH3.s 			page 64


 3286      72735F6C 
 3286      6973745F 
 3287              	.LASF144:
 3288 06b0 63684D73 		.ascii	"chMsgReleaseS\000"
 3288      6752656C 
 3288      65617365 
 3288      5300
 3289              	.LASF128:
 3290 06be 64796E5F 		.ascii	"dyn_element_t\000"
 3290      656C656D 
 3290      656E745F 
 3290      7400
 3291              	.LASF137:
 3292 06cc 6D62785F 		.ascii	"mbx_list\000"
 3292      6C697374 
 3292      00
 3293              	.LASF154:
 3294 06d5 63685363 		.ascii	"chSchWakeupS\000"
 3294      6857616B 
 3294      65757053 
 3294      00
 3295              	.LASF36:
 3296 06e2 73746174 		.ascii	"state\000"
 3296      6500
 3297              	.LASF122:
 3298 06e8 706F6F6C 		.ascii	"pool_header\000"
 3298      5F686561 
 3298      64657200 
 3299              	.LASF67:
 3300 06f4 63685F73 		.ascii	"ch_system_t\000"
 3300      79737465 
 3300      6D5F7400 
 3301              	.LASF85:
 3302 0700 77747472 		.ascii	"wttrp\000"
 3302      7000
 3303              	.LASF3:
 3304 0706 7369676E 		.ascii	"signed char\000"
 3304      65642063 
 3304      68617200 
 3305              	.LASF59:
 3306 0712 64656C74 		.ascii	"delta\000"
 3306      6100
 3307              	.LASF9:
 3308 0718 73686F72 		.ascii	"short unsigned int\000"
 3308      7420756E 
 3308      7369676E 
 3308      65642069 
 3308      6E7400
 3309              	.LASF148:
 3310 072b 71756575 		.ascii	"queue_insert\000"
 3310      655F696E 
 3310      73657274 
 3310      00
 3311              	.LASF79:
 3312 0738 73746B61 		.ascii	"stkalign_t\000"
 3312      6C69676E 
 3312      5F7400
ARM GAS  C:\Users\14122\AppData\Local\Temp\ccW1nTH3.s 			page 65


 3313              	.LASF110:
 3314 0743 6F66665F 		.ascii	"off_refs\000"
 3314      72656673 
 3314      00
 3315              	.LASF119:
 3316 074c 656E646D 		.ascii	"endmem\000"
 3316      656D00
 3317              	.LASF55:
 3318 0753 63757272 		.ascii	"current\000"
 3318      656E7400 
 3319              	.LASF143:
 3320 075b 5F5F6675 		.ascii	"__func__\000"
 3320      6E635F5F 
 3320      00
 3321              	.LASF114:
 3322 0764 63685F64 		.ascii	"ch_debug\000"
 3322      65627567 
 3322      00
 3323              	.LASF150:
 3324 076d 706F7274 		.ascii	"port_unlock\000"
 3324      5F756E6C 
 3324      6F636B00 
 3325              	.LASF124:
 3326 0779 616C6967 		.ascii	"align\000"
 3326      6E00
 3327              	.LASF33:
 3328 077f 6F6C6465 		.ascii	"older\000"
 3328      7200
 3329              	.LASF118:
 3330 0785 6E657874 		.ascii	"nextmem\000"
 3330      6D656D00 
 3331              	.LASF83:
 3332 078d 65786974 		.ascii	"exitcode\000"
 3332      636F6465 
 3332      00
 3333              	.LASF135:
 3334 0796 73656D5F 		.ascii	"sem_list\000"
 3334      6C697374 
 3334      00
 3335              	.LASF44:
 3336 079f 6D706F6F 		.ascii	"mpool\000"
 3336      6C00
 3337              		.ident	"GCC: (GNU Tools for Arm Embedded Processors 7-2017-q4-major) 7.2.1 20170904 (release) [ARM
ARM GAS  C:\Users\14122\AppData\Local\Temp\ccW1nTH3.s 			page 66


DEFINED SYMBOLS
                            *ABS*:00000000 chmsg.c
C:\Users\14122\AppData\Local\Temp\ccW1nTH3.s:16     .text.chMsgSend:00000000 $t
C:\Users\14122\AppData\Local\Temp\ccW1nTH3.s:24     .text.chMsgSend:00000000 chMsgSend
C:\Users\14122\AppData\Local\Temp\ccW1nTH3.s:145    .text.chMsgSend:0000003c $d
C:\Users\14122\AppData\Local\Temp\ccW1nTH3.s:150    .text.chMsgWait:00000000 $t
C:\Users\14122\AppData\Local\Temp\ccW1nTH3.s:158    .text.chMsgWait:00000000 chMsgWait
C:\Users\14122\AppData\Local\Temp\ccW1nTH3.s:271    .text.chMsgWait:0000003c $d
C:\Users\14122\AppData\Local\Temp\ccW1nTH3.s:276    .text.chMsgRelease:00000000 $t
C:\Users\14122\AppData\Local\Temp\ccW1nTH3.s:284    .text.chMsgRelease:00000000 chMsgRelease

UNDEFINED SYMBOLS
chSchGoSleepS
chSchReadyI
ch
chSchWakeupS
