ARM GAS  C:\Users\14122\AppData\Local\Temp\ccW1nTH3.s 			page 1


   1              		.cpu cortex-m3
   2              		.eabi_attribute 20, 1
   3              		.eabi_attribute 21, 1
   4              		.eabi_attribute 23, 3
   5              		.eabi_attribute 24, 1
   6              		.eabi_attribute 25, 1
   7              		.eabi_attribute 26, 1
   8              		.eabi_attribute 30, 2
   9              		.eabi_attribute 34, 1
  10              		.eabi_attribute 18, 4
  11              		.file	"chmsg.c"
  12              		.text
  13              	.Ltext0:
  14              		.cfi_sections	.debug_frame
  15              		.section	.text.chMsgSend,"ax",%progbits
  16              		.align	1
  17              		.p2align 4,,15
  18              		.global	chMsgSend
  19              		.syntax unified
  20              		.thumb
  21              		.thumb_func
  22              		.fpu softvfp
  23              		.type	chMsgSend, %function
  24              	chMsgSend:
  25              	.LFB220:
  26              		.file 1 ".//os/rt/src/chmsg.c"
  27              		.loc 1 87 0
  28              		.cfi_startproc
  29              		@ args = 0, pretend = 0, frame = 0
  30              		@ frame_needed = 0, uses_anonymous_args = 0
  31              	.LVL0:
  32 0000 38B5     		push	{r3, r4, r5, lr}
  33              		.cfi_def_cfa_offset 16
  34              		.cfi_offset 3, -16
  35              		.cfi_offset 4, -12
  36              		.cfi_offset 5, -8
  37              		.cfi_offset 14, -4
  38              		.loc 1 88 0
  39 0002 0E4B     		ldr	r3, .L6
  40              	.LBB52:
  41              	.LBB53:
  42              	.LBB54:
  43              	.LBB55:
  44              		.file 2 ".//os/common/ext/ARM/CMSIS/Core/Include/cmsis_gcc.h"
  45              		.loc 2 493 0
  46 0004 2022     		movs	r2, #32
  47              	.LBE55:
  48              	.LBE54:
  49              	.LBE53:
  50              	.LBE52:
  51              		.loc 1 88 0
  52 0006 9C69     		ldr	r4, [r3, #24]
  53              	.LVL1:
  54              	.LBB59:
  55              	.LBB58:
  56              	.LBB57:
  57              	.LBB56:
ARM GAS  C:\Users\14122\AppData\Local\Temp\ccW1nTH3.s 			page 2


  58              		.loc 2 493 0
  59              		.syntax unified
  60              	@ 493 ".//os/common/ext/ARM/CMSIS/Core/Include/cmsis_gcc.h" 1
  61 0008 82F31188 		MSR basepri, r2
  62              	@ 0 "" 2
  63              	.LVL2:
  64              		.thumb
  65              		.syntax unified
  66              	.LBE56:
  67              	.LBE57:
  68              	.LBE58:
  69              	.LBE59:
  70              	.LBB60:
  71              	.LBB61:
  72              		.file 3 ".//os/rt/include/chschd.h"
  73              		.loc 3 601 0
  74 000c 026B     		ldr	r2, [r0, #48]
  75              	.LBE61:
  76              	.LBE60:
  77              		.loc 1 94 0
  78 000e 00F12C05 		add	r5, r0, #44
  79              	.LBB65:
  80              	.LBB62:
  81              		.loc 3 601 0
  82 0012 C4E90052 		strd	r5, r2, [r4]
  83              	.LBE62:
  84              	.LBE65:
  85              		.loc 1 93 0
  86 0016 6162     		str	r1, [r4, #36]
  87              	.LVL3:
  88              	.LBB66:
  89              	.LBB63:
  90              		.loc 3 602 0
  91 0018 1460     		str	r4, [r2]
  92              	.LBE63:
  93              	.LBE66:
  94              		.loc 1 95 0
  95 001a 90F82020 		ldrb	r2, [r0, #32]	@ zero_extendqisi2
  96              	.LBB67:
  97              	.LBB64:
  98              		.loc 3 603 0
  99 001e 0463     		str	r4, [r0, #48]
 100              	.LVL4:
 101              	.LBE64:
 102              	.LBE67:
 103              		.loc 1 95 0
 104 0020 0E2A     		cmp	r2, #14
 105 0022 07D0     		beq	.L5
 106              	.LVL5:
 107              	.L2:
 108              		.loc 1 98 0
 109 0024 0C20     		movs	r0, #12
 110 0026 FFF7FEFF 		bl	chSchGoSleepS
 111              	.LVL6:
 112              		.loc 1 99 0
 113 002a 606A     		ldr	r0, [r4, #36]
 114              	.LVL7:
ARM GAS  C:\Users\14122\AppData\Local\Temp\ccW1nTH3.s 			page 3


 115              	.LBB68:
 116              	.LBB69:
 117              	.LBB70:
 118              	.LBB71:
 119              	.LBB72:
 120              		.loc 2 493 0
 121 002c 0023     		movs	r3, #0
 122              		.syntax unified
 123              	@ 493 ".//os/common/ext/ARM/CMSIS/Core/Include/cmsis_gcc.h" 1
 124 002e 83F31188 		MSR basepri, r3
 125              	@ 0 "" 2
 126              	.LVL8:
 127              		.thumb
 128              		.syntax unified
 129              	.LBE72:
 130              	.LBE71:
 131              	.LBE70:
 132              	.LBE69:
 133              	.LBE68:
 134              		.loc 1 103 0
 135 0032 38BD     		pop	{r3, r4, r5, pc}
 136              	.LVL9:
 137              	.L5:
 138              		.loc 1 96 0
 139 0034 FFF7FEFF 		bl	chSchReadyI
 140              	.LVL10:
 141 0038 F4E7     		b	.L2
 142              	.L7:
 143 003a 00BF     		.align	2
 144              	.L6:
 145 003c 00000000 		.word	ch
 146              		.cfi_endproc
 147              	.LFE220:
 148              		.size	chMsgSend, .-chMsgSend
 149              		.section	.text.chMsgWait,"ax",%progbits
 150              		.align	1
 151              		.p2align 4,,15
 152              		.global	chMsgWait
 153              		.syntax unified
 154              		.thumb
 155              		.thumb_func
 156              		.fpu softvfp
 157              		.type	chMsgWait, %function
 158              	chMsgWait:
 159              	.LFB221:
 160              		.loc 1 121 0
 161              		.cfi_startproc
 162              		@ args = 0, pretend = 0, frame = 0
 163              		@ frame_needed = 0, uses_anonymous_args = 0
 164              	.LVL11:
 165 0000 38B5     		push	{r3, r4, r5, lr}
 166              		.cfi_def_cfa_offset 16
 167              		.cfi_offset 3, -16
 168              		.cfi_offset 4, -12
 169              		.cfi_offset 5, -8
 170              		.cfi_offset 14, -4
 171              	.LBB73:
ARM GAS  C:\Users\14122\AppData\Local\Temp\ccW1nTH3.s 			page 4


 172              	.LBB74:
 173              	.LBB75:
 174              	.LBB76:
 175              		.loc 2 493 0
 176 0002 2023     		movs	r3, #32
 177              		.syntax unified
 178              	@ 493 ".//os/common/ext/ARM/CMSIS/Core/Include/cmsis_gcc.h" 1
 179 0004 83F31188 		MSR basepri, r3
 180              	@ 0 "" 2
 181              	.LVL12:
 182              		.thumb
 183              		.syntax unified
 184              	.LBE76:
 185              	.LBE75:
 186              	.LBE74:
 187              	.LBE73:
 188              		.loc 1 125 0
 189 0008 0C4C     		ldr	r4, .L12
 190 000a A269     		ldr	r2, [r4, #24]
 191              	.LVL13:
 192              	.LBB77:
 193              	.LBB78:
 194              		.file 4 ".//os/rt/include/chmsg.h"
 195              		.loc 4 83 0
 196 000c 1346     		mov	r3, r2
 197 000e 53F82C0F 		ldr	r0, [r3, #44]!
 198              	.LVL14:
 199              	.LBE78:
 200              	.LBE77:
 201              		.loc 1 125 0
 202 0012 9842     		cmp	r0, r3
 203 0014 09D0     		beq	.L11
 204              	.L9:
 205              	.LVL15:
 206              		.loc 1 129 0
 207 0016 0D25     		movs	r5, #13
 208              	.LBB79:
 209              	.LBB80:
 210              		.loc 3 609 0
 211 0018 0168     		ldr	r1, [r0]
 212              	.LBE80:
 213              	.LBE79:
 214              	.LBB82:
 215              	.LBB83:
 216              	.LBB84:
 217              	.LBB85:
 218              	.LBB86:
 219              		.loc 2 493 0
 220 001a 0024     		movs	r4, #0
 221              	.LBE86:
 222              	.LBE85:
 223              	.LBE84:
 224              	.LBE83:
 225              	.LBE82:
 226              	.LBB91:
 227              	.LBB81:
 228              		.loc 3 609 0
ARM GAS  C:\Users\14122\AppData\Local\Temp\ccW1nTH3.s 			page 5


 229 001c D162     		str	r1, [r2, #44]
 230              	.LVL16:
 231              		.loc 3 610 0
 232 001e 4B60     		str	r3, [r1, #4]
 233              	.LVL17:
 234              	.LBE81:
 235              	.LBE91:
 236              		.loc 1 129 0
 237 0020 80F82050 		strb	r5, [r0, #32]
 238              	.LVL18:
 239              	.LBB92:
 240              	.LBB90:
 241              	.LBB89:
 242              	.LBB88:
 243              	.LBB87:
 244              		.loc 2 493 0
 245              		.syntax unified
 246              	@ 493 ".//os/common/ext/ARM/CMSIS/Core/Include/cmsis_gcc.h" 1
 247 0024 84F31188 		MSR basepri, r4
 248              	@ 0 "" 2
 249              	.LVL19:
 250              		.thumb
 251              		.syntax unified
 252              	.LBE87:
 253              	.LBE88:
 254              	.LBE89:
 255              	.LBE90:
 256              	.LBE92:
 257              		.loc 1 133 0
 258 0028 38BD     		pop	{r3, r4, r5, pc}
 259              	.L11:
 260              		.loc 1 126 0
 261 002a 0E20     		movs	r0, #14
 262 002c FFF7FEFF 		bl	chSchGoSleepS
 263              	.LVL20:
 264 0030 A269     		ldr	r2, [r4, #24]
 265 0032 D06A     		ldr	r0, [r2, #44]
 266 0034 02F12C03 		add	r3, r2, #44
 267 0038 EDE7     		b	.L9
 268              	.L13:
 269 003a 00BF     		.align	2
 270              	.L12:
 271 003c 00000000 		.word	ch
 272              		.cfi_endproc
 273              	.LFE221:
 274              		.size	chMsgWait, .-chMsgWait
 275              		.section	.text.chMsgRelease,"ax",%progbits
 276              		.align	1
 277              		.p2align 4,,15
 278              		.global	chMsgRelease
 279              		.syntax unified
 280              		.thumb
 281              		.thumb_func
 282              		.fpu softvfp
 283              		.type	chMsgRelease, %function
 284              	chMsgRelease:
 285              	.LFB222:
ARM GAS  C:\Users\14122\AppData\Local\Temp\ccW1nTH3.s 			page 6


 286              		.loc 1 145 0
 287              		.cfi_startproc
 288              		@ args = 0, pretend = 0, frame = 0
 289              		@ frame_needed = 0, uses_anonymous_args = 0
 290              	.LVL21:
 291 0000 08B5     		push	{r3, lr}
 292              		.cfi_def_cfa_offset 8
 293              		.cfi_offset 3, -8
 294              		.cfi_offset 14, -4
 295              	.LBB93:
 296              	.LBB94:
 297              	.LBB95:
 298              	.LBB96:
 299              		.loc 2 493 0
 300 0002 2023     		movs	r3, #32
 301              		.syntax unified
 302              	@ 493 ".//os/common/ext/ARM/CMSIS/Core/Include/cmsis_gcc.h" 1
 303 0004 83F31188 		MSR basepri, r3
 304              	@ 0 "" 2
 305              	.LVL22:
 306              		.thumb
 307              		.syntax unified
 308              	.LBE96:
 309              	.LBE95:
 310              	.LBE94:
 311              	.LBE93:
 312              	.LBB97:
 313              	.LBB98:
 314              		.loc 4 117 0
 315 0008 FFF7FEFF 		bl	chSchWakeupS
 316              	.LVL23:
 317              	.LBE98:
 318              	.LBE97:
 319              	.LBB99:
 320              	.LBB100:
 321              	.LBB101:
 322              	.LBB102:
 323              	.LBB103:
 324              		.loc 2 493 0
 325 000c 0023     		movs	r3, #0
 326              		.syntax unified
 327              	@ 493 ".//os/common/ext/ARM/CMSIS/Core/Include/cmsis_gcc.h" 1
 328 000e 83F31188 		MSR basepri, r3
 329              	@ 0 "" 2
 330              	.LVL24:
 331              		.thumb
 332              		.syntax unified
 333              	.LBE103:
 334              	.LBE102:
 335              	.LBE101:
 336              	.LBE100:
 337              	.LBE99:
 338              		.loc 1 151 0
 339 0012 08BD     		pop	{r3, pc}
 340              		.cfi_endproc
 341              	.LFE222:
 342              		.size	chMsgRelease, .-chMsgRelease
ARM GAS  C:\Users\14122\AppData\Local\Temp\ccW1nTH3.s 			page 7


 343              		.text
 344              	.Letext0:
 345              		.file 5 "c:\\chibistudio\\tools\\gnu tools arm embedded\\7.0 2017q4\\lib\\gcc\\arm-none-eabi\\7.2.
 346              		.file 6 "c:\\chibistudio\\tools\\gnu tools arm embedded\\7.0 2017q4\\arm-none-eabi\\include\\machi
 347              		.file 7 "c:\\chibistudio\\tools\\gnu tools arm embedded\\7.0 2017q4\\arm-none-eabi\\include\\sys\\
 348              		.file 8 ".//os/common/ports/ARMCMx/compilers/GCC/chtypes.h"
 349              		.file 9 ".//os/rt/include/chsystypes.h"
 350              		.file 10 ".//os/rt/include/chtime.h"
 351              		.file 11 ".//os/common/ext/ARM/CMSIS/Core/Include/core_cm3.h"
 352              		.file 12 ".//os/common/ext/ST/STM32F1xx/system_stm32f1xx.h"
 353              		.file 13 ".//os/common/ports/ARMCMx/chcore.h"
 354              		.file 14 ".//os/common/ports/ARMCMx/chcore_v7m.h"
 355              		.file 15 ".//os/rt/include/chsem.h"
 356              		.file 16 ".//os/rt/include/chmtx.h"
 357              		.file 17 ".//os/rt/include/chsys.h"
 358              		.file 18 ".//os/rt/include/chregistry.h"
 359              		.file 19 ".//os/lib/include/chmemcore.h"
 360              		.file 20 ".//os/lib/include/chmempools.h"
 361              		.file 21 ".//os/lib/include/chfactory.h"