ARM GAS  C:\Users\14122\AppData\Local\Temp\ccDC0w41.s 			page 1


   1              		.cpu cortex-m3
   2              		.eabi_attribute 20, 1
   3              		.eabi_attribute 21, 1
   4              		.eabi_attribute 23, 3
   5              		.eabi_attribute 24, 1
   6              		.eabi_attribute 25, 1
   7              		.eabi_attribute 26, 1
   8              		.eabi_attribute 30, 2
   9              		.eabi_attribute 34, 1
  10              		.eabi_attribute 18, 4
  11              		.file	"chmtx.c"
  12              		.text
  13              	.Ltext0:
  14              		.cfi_sections	.debug_frame
  15              		.section	.text.chMtxObjectInit,"ax",%progbits
  16              		.align	1
  17              		.p2align 4,,15
  18              		.global	chMtxObjectInit
  19              		.syntax unified
  20              		.thumb
  21              		.thumb_func
  22              		.fpu softvfp
  23              		.type	chMtxObjectInit, %function
  24              	chMtxObjectInit:
  25              	.LFB220:
  26              		.file 1 ".//os/rt/src/chmtx.c"
  27              		.loc 1 103 0
  28              		.cfi_startproc
  29              		@ args = 0, pretend = 0, frame = 0
  30              		@ frame_needed = 0, uses_anonymous_args = 0
  31              		@ link register save eliminated.
  32              	.LVL0:
  33              		.loc 1 108 0
  34 0000 0023     		movs	r3, #0
  35              	.LBB111:
  36              	.LBB112:
  37              		.file 2 ".//os/rt/include/chschd.h"
  38              		.loc 2 540 0
  39 0002 C0E90000 		strd	r0, r0, [r0]
  40              	.LVL1:
  41              	.LBE112:
  42              	.LBE111:
  43              		.loc 1 108 0
  44 0006 8360     		str	r3, [r0, #8]
  45              		.loc 1 112 0
  46 0008 7047     		bx	lr
  47              		.cfi_endproc
  48              	.LFE220:
  49              		.size	chMtxObjectInit, .-chMtxObjectInit
  50 000a 00BF     		.section	.text.chMtxLockS,"ax",%progbits
  51              		.align	1
  52              		.p2align 4,,15
  53              		.global	chMtxLockS
  54              		.syntax unified
  55              		.thumb
  56              		.thumb_func
  57              		.fpu softvfp
ARM GAS  C:\Users\14122\AppData\Local\Temp\ccDC0w41.s 			page 2


  58              		.type	chMtxLockS, %function
  59              	chMtxLockS:
  60              	.LFB222:
  61              		.loc 1 139 0
  62              		.cfi_startproc
  63              		@ args = 0, pretend = 0, frame = 0
  64              		@ frame_needed = 0, uses_anonymous_args = 0
  65              	.LVL2:
  66 0000 F8B5     		push	{r3, r4, r5, r6, r7, lr}
  67              		.cfi_def_cfa_offset 24
  68              		.cfi_offset 3, -24
  69              		.cfi_offset 4, -20
  70              		.cfi_offset 5, -16
  71              		.cfi_offset 6, -12
  72              		.cfi_offset 7, -8
  73              		.cfi_offset 14, -4
  74              		.loc 1 140 0
  75 0002 384A     		ldr	r2, .L33
  76              		.loc 1 146 0
  77 0004 8368     		ldr	r3, [r0, #8]
  78              		.loc 1 140 0
  79 0006 9569     		ldr	r5, [r2, #24]
  80              	.LVL3:
  81              		.loc 1 146 0
  82 0008 002B     		cmp	r3, #0
  83 000a 40D0     		beq	.L25
  84              	.LBB113:
  85              		.loc 1 165 0
  86 000c A968     		ldr	r1, [r5, #8]
  87 000e 9A68     		ldr	r2, [r3, #8]
  88 0010 0446     		mov	r4, r0
  89              	.LVL4:
  90 0012 9142     		cmp	r1, r2
  91 0014 07D9     		bls	.L6
  92              	.LVL5:
  93              	.L12:
  94              		.loc 1 170 0
  95 0016 93F82020 		ldrb	r2, [r3, #32]	@ zero_extendqisi2
  96              		.loc 1 167 0
  97 001a 9960     		str	r1, [r3, #8]
  98              		.loc 1 170 0
  99 001c 062A     		cmp	r2, #6
 100 001e 3BD0     		beq	.L7
 101 0020 072A     		cmp	r2, #7
 102 0022 15D0     		beq	.L8
 103 0024 42B3     		cbz	r2, .L26
 104              	.LVL6:
 105              	.L6:
 106              		.loc 1 212 0
 107 0026 2646     		mov	r6, r4
 108              	.LVL7:
 109 0028 2346     		mov	r3, r4
 110 002a 03E0     		b	.L17
 111              	.LVL8:
 112              	.L28:
 113              	.LBB114:
 114              	.LBB115:
ARM GAS  C:\Users\14122\AppData\Local\Temp\ccDC0w41.s 			page 3


 115              		.loc 2 591 0
 116 002c 9968     		ldr	r1, [r3, #8]
 117 002e AA68     		ldr	r2, [r5, #8]
 118 0030 9142     		cmp	r1, r2
 119 0032 2AD3     		bcc	.L27
 120              	.L17:
 121              		.loc 2 590 0
 122 0034 1B68     		ldr	r3, [r3]
 123              	.LVL9:
 124              		.loc 2 591 0
 125 0036 9C42     		cmp	r4, r3
 126 0038 F8D1     		bne	.L28
 127              	.L16:
 128              		.loc 2 593 0
 129 003a 7368     		ldr	r3, [r6, #4]
 130              	.LVL10:
 131              	.LBE115:
 132              	.LBE114:
 133              		.loc 1 214 0
 134 003c 0620     		movs	r0, #6
 135              	.LBB118:
 136              	.LBB116:
 137              		.loc 2 593 0
 138 003e C5E90063 		strd	r6, r3, [r5]
 139              		.loc 2 594 0
 140 0042 1D60     		str	r5, [r3]
 141              		.loc 2 595 0
 142 0044 7560     		str	r5, [r6, #4]
 143              	.LVL11:
 144              	.LBE116:
 145              	.LBE118:
 146              		.loc 1 213 0
 147 0046 6C62     		str	r4, [r5, #36]
 148              	.LBE113:
 149              		.loc 1 236 0
 150 0048 BDE8F840 		pop	{r3, r4, r5, r6, r7, lr}
 151              		.cfi_remember_state
 152              		.cfi_restore 14
 153              		.cfi_restore 7
 154              		.cfi_restore 6
 155              		.cfi_restore 5
 156              		.cfi_restore 4
 157              		.cfi_restore 3
 158              		.cfi_def_cfa_offset 0
 159              	.LVL12:
 160              	.LBB146:
 161              		.loc 1 214 0
 162 004c FFF7FEBF 		b	chSchGoSleepS
 163              	.LVL13:
 164              	.L8:
 165              		.cfi_restore_state
 166              	.LBB119:
 167              	.LBB120:
 168              		.loc 2 626 0
 169 0050 1F68     		ldr	r7, [r3]
 170 0052 5868     		ldr	r0, [r3, #4]
 171              	.LBE120:
ARM GAS  C:\Users\14122\AppData\Local\Temp\ccDC0w41.s 			page 4


 172              	.LBE119:
 173              		.loc 1 193 0
 174 0054 5E6A     		ldr	r6, [r3, #36]
 175              	.LBB123:
 176              	.LBB121:
 177              		.loc 2 626 0
 178 0056 0760     		str	r7, [r0]
 179              		.loc 2 627 0
 180 0058 1F68     		ldr	r7, [r3]
 181              	.LBE121:
 182              	.LBE123:
 183              		.loc 1 193 0
 184 005a 3246     		mov	r2, r6
 185              	.LBB124:
 186              	.LBB122:
 187              		.loc 2 627 0
 188 005c 7860     		str	r0, [r7, #4]
 189              	.LVL14:
 190 005e 02E0     		b	.L14
 191              	.LVL15:
 192              	.L30:
 193              	.LBE122:
 194              	.LBE124:
 195              	.LBB125:
 196              	.LBB126:
 197              		.loc 2 591 0
 198 0060 9068     		ldr	r0, [r2, #8]
 199 0062 8842     		cmp	r0, r1
 200 0064 34D3     		bcc	.L29
 201              	.LVL16:
 202              	.L14:
 203              		.loc 2 590 0
 204 0066 1268     		ldr	r2, [r2]
 205              	.LVL17:
 206              		.loc 2 591 0
 207 0068 9642     		cmp	r6, r2
 208 006a F9D1     		bne	.L30
 209              		.loc 2 593 0
 210 006c 7268     		ldr	r2, [r6, #4]
 211              	.LVL18:
 212 006e C3E90062 		strd	r6, r2, [r3]
 213              		.loc 2 594 0
 214 0072 1360     		str	r3, [r2]
 215              		.loc 2 595 0
 216 0074 7360     		str	r3, [r6, #4]
 217 0076 D6E7     		b	.L6
 218              	.LVL19:
 219              	.L26:
 220              	.LBE126:
 221              	.LBE125:
 222              	.LBB128:
 223              	.LBB129:
 224              		.loc 2 626 0
 225 0078 D3E90012 		ldrd	r1, r2, [r3]
 226 007c 1160     		str	r1, [r2]
 227              	.LBE129:
 228              	.LBE128:
ARM GAS  C:\Users\14122\AppData\Local\Temp\ccDC0w41.s 			page 5


 229              		.loc 1 202 0
 230 007e 1846     		mov	r0, r3
 231              	.LBB131:
 232              	.LBB130:
 233              		.loc 2 627 0
 234 0080 1B68     		ldr	r3, [r3]
 235              	.LVL20:
 236 0082 5A60     		str	r2, [r3, #4]
 237              	.LVL21:
 238              	.LBE130:
 239              	.LBE131:
 240              		.loc 1 202 0
 241 0084 FFF7FEFF 		bl	chSchReadyI
 242              	.LVL22:
 243              		.loc 1 203 0
 244 0088 CDE7     		b	.L6
 245              	.LVL23:
 246              	.L27:
 247              	.LBB132:
 248              	.LBB117:
 249              		.loc 2 590 0
 250 008a 1E46     		mov	r6, r3
 251 008c D5E7     		b	.L16
 252              	.LVL24:
 253              	.L25:
 254              	.LBE117:
 255              	.LBE132:
 256              	.LBE146:
 257              		.loc 1 233 0
 258 008e AB6B     		ldr	r3, [r5, #56]
 259 0090 C0E90253 		strd	r5, r3, [r0, #8]
 260              		.loc 1 234 0
 261 0094 A863     		str	r0, [r5, #56]
 262              		.loc 1 236 0
 263 0096 F8BD     		pop	{r3, r4, r5, r6, r7, pc}
 264              	.LVL25:
 265              	.L7:
 266              	.LBB147:
 267              	.LBB133:
 268              	.LBB134:
 269              		.loc 2 626 0
 270 0098 1F68     		ldr	r7, [r3]
 271 009a 5868     		ldr	r0, [r3, #4]
 272              	.LBE134:
 273              	.LBE133:
 274              		.loc 1 173 0
 275 009c 5E6A     		ldr	r6, [r3, #36]
 276              	.LBB137:
 277              	.LBB135:
 278              		.loc 2 626 0
 279 009e 0760     		str	r7, [r0]
 280              		.loc 2 627 0
 281 00a0 1F68     		ldr	r7, [r3]
 282              	.LBE135:
 283              	.LBE137:
 284              		.loc 1 173 0
 285 00a2 B446     		mov	ip, r6
ARM GAS  C:\Users\14122\AppData\Local\Temp\ccDC0w41.s 			page 6


 286 00a4 3246     		mov	r2, r6
 287              	.LBB138:
 288              	.LBB136:
 289              		.loc 2 627 0
 290 00a6 7860     		str	r0, [r7, #4]
 291              	.LVL26:
 292 00a8 02E0     		b	.L11
 293              	.LVL27:
 294              	.L32:
 295              	.LBE136:
 296              	.LBE138:
 297              	.LBB139:
 298              	.LBB140:
 299              		.loc 2 591 0
 300 00aa 9068     		ldr	r0, [r2, #8]
 301 00ac 8842     		cmp	r0, r1
 302 00ae 16D3     		bcc	.L31
 303              	.LVL28:
 304              	.L11:
 305              		.loc 2 590 0
 306 00b0 1268     		ldr	r2, [r2]
 307              	.LVL29:
 308              		.loc 2 591 0
 309 00b2 9642     		cmp	r6, r2
 310 00b4 F9D1     		bne	.L32
 311              	.L10:
 312              		.loc 2 593 0
 313 00b6 DCF80420 		ldr	r2, [ip, #4]
 314              	.LVL30:
 315              	.LBE140:
 316              	.LBE139:
 317              		.loc 1 165 0
 318 00ba A968     		ldr	r1, [r5, #8]
 319              	.LBB143:
 320              	.LBB141:
 321              		.loc 2 593 0
 322 00bc C3E900C2 		strd	ip, r2, [r3]
 323              		.loc 2 594 0
 324 00c0 1360     		str	r3, [r2]
 325              		.loc 2 595 0
 326 00c2 CCF80430 		str	r3, [ip, #4]
 327              	.LVL31:
 328              	.LBE141:
 329              	.LBE143:
 330              		.loc 1 174 0
 331 00c6 B368     		ldr	r3, [r6, #8]
 332              	.LVL32:
 333              		.loc 1 165 0
 334 00c8 9A68     		ldr	r2, [r3, #8]
 335 00ca 8A42     		cmp	r2, r1
 336 00cc A3D3     		bcc	.L12
 337 00ce AAE7     		b	.L6
 338              	.LVL33:
 339              	.L29:
 340              	.LBB144:
 341              	.LBB127:
 342              		.loc 2 590 0
ARM GAS  C:\Users\14122\AppData\Local\Temp\ccDC0w41.s 			page 7


 343 00d0 1646     		mov	r6, r2
 344              	.LVL34:
 345              		.loc 2 593 0
 346 00d2 7268     		ldr	r2, [r6, #4]
 347              	.LVL35:
 348 00d4 C3E90062 		strd	r6, r2, [r3]
 349              		.loc 2 594 0
 350 00d8 1360     		str	r3, [r2]
 351              		.loc 2 595 0
 352 00da 7360     		str	r3, [r6, #4]
 353 00dc A3E7     		b	.L6
 354              	.LVL36:
 355              	.L31:
 356              	.LBE127:
 357              	.LBE144:
 358              	.LBB145:
 359              	.LBB142:
 360              		.loc 2 590 0
 361 00de 9446     		mov	ip, r2
 362 00e0 E9E7     		b	.L10
 363              	.L34:
 364 00e2 00BF     		.align	2
 365              	.L33:
 366 00e4 00000000 		.word	ch
 367              	.LBE142:
 368              	.LBE145:
 369              	.LBE147:
 370              		.cfi_endproc
 371              	.LFE222:
 372              		.size	chMtxLockS, .-chMtxLockS
 373              		.section	.text.chMtxLock,"ax",%progbits
 374              		.align	1
 375              		.p2align 4,,15
 376              		.global	chMtxLock
 377              		.syntax unified
 378              		.thumb
 379              		.thumb_func
 380              		.fpu softvfp
 381              		.type	chMtxLock, %function
 382              	chMtxLock:
 383              	.LFB221:
 384              		.loc 1 123 0
 385              		.cfi_startproc
 386              		@ args = 0, pretend = 0, frame = 0
 387              		@ frame_needed = 0, uses_anonymous_args = 0
 388              	.LVL37:
 389 0000 08B5     		push	{r3, lr}
 390              		.cfi_def_cfa_offset 8
 391              		.cfi_offset 3, -8
 392              		.cfi_offset 14, -4
 393              	.LBB148:
 394              	.LBB149:
 395              	.LBB150:
 396              	.LBB151:
 397              		.file 3 ".//os/common/ext/ARM/CMSIS/Core/Include/cmsis_gcc.h"
 398              		.loc 3 493 0
 399 0002 2023     		movs	r3, #32
ARM GAS  C:\Users\14122\AppData\Local\Temp\ccDC0w41.s 			page 8


 400              		.syntax unified
 401              	@ 493 ".//os/common/ext/ARM/CMSIS/Core/Include/cmsis_gcc.h" 1
 402 0004 83F31188 		MSR basepri, r3
 403              	@ 0 "" 2
 404              	.LVL38:
 405              		.thumb
 406              		.syntax unified
 407              	.LBE151:
 408              	.LBE150:
 409              	.LBE149:
 410              	.LBE148:
 411              		.loc 1 126 0
 412 0008 FFF7FEFF 		bl	chMtxLockS
 413              	.LVL39:
 414              	.LBB152:
 415              	.LBB153:
 416              	.LBB154:
 417              	.LBB155:
 418              	.LBB156:
 419              		.loc 3 493 0
 420 000c 0023     		movs	r3, #0
 421              		.syntax unified
 422              	@ 493 ".//os/common/ext/ARM/CMSIS/Core/Include/cmsis_gcc.h" 1
 423 000e 83F31188 		MSR basepri, r3
 424              	@ 0 "" 2
 425              	.LVL40:
 426              		.thumb
 427              		.syntax unified
 428              	.LBE156:
 429              	.LBE155:
 430              	.LBE154:
 431              	.LBE153:
 432              	.LBE152:
 433              		.loc 1 128 0
 434 0012 08BD     		pop	{r3, pc}
 435              		.cfi_endproc
 436              	.LFE221:
 437              		.size	chMtxLock, .-chMtxLock
 438              		.section	.text.chMtxTryLock,"ax",%progbits
 439              		.align	1
 440              		.p2align 4,,15
 441              		.global	chMtxTryLock
 442              		.syntax unified
 443              		.thumb
 444              		.thumb_func
 445              		.fpu softvfp
 446              		.type	chMtxTryLock, %function
 447              	chMtxTryLock:
 448              	.LFB223:
 449              		.loc 1 255 0
 450              		.cfi_startproc
 451              		@ args = 0, pretend = 0, frame = 0
 452              		@ frame_needed = 0, uses_anonymous_args = 0
 453              		@ link register save eliminated.
 454              	.LVL41:
 455              		.loc 1 255 0
 456 0000 0346     		mov	r3, r0
ARM GAS  C:\Users\14122\AppData\Local\Temp\ccDC0w41.s 			page 9


 457              	.LBB170:
 458              	.LBB171:
 459              	.LBB172:
 460              	.LBB173:
 461              		.loc 3 493 0
 462 0002 2022     		movs	r2, #32
 463              		.syntax unified
 464              	@ 493 ".//os/common/ext/ARM/CMSIS/Core/Include/cmsis_gcc.h" 1
 465 0004 82F31188 		MSR basepri, r2
 466              	@ 0 "" 2
 467              	.LVL42:
 468              		.thumb
 469              		.syntax unified
 470              	.LBE173:
 471              	.LBE172:
 472              	.LBE171:
 473              	.LBE170:
 474              	.LBB174:
 475              	.LBB175:
 476              		.loc 1 287 0
 477 0008 8268     		ldr	r2, [r0, #8]
 478 000a 22B1     		cbz	r2, .L40
 479              		.loc 1 297 0
 480 000c 0020     		movs	r0, #0
 481              	.LVL43:
 482              	.LBE175:
 483              	.LBE174:
 484              	.LBB179:
 485              	.LBB180:
 486              	.LBB181:
 487              	.LBB182:
 488              	.LBB183:
 489              		.loc 3 493 0
 490 000e 0023     		movs	r3, #0
 491              	.LVL44:
 492              		.syntax unified
 493              	@ 493 ".//os/common/ext/ARM/CMSIS/Core/Include/cmsis_gcc.h" 1
 494 0010 83F31188 		MSR basepri, r3
 495              	@ 0 "" 2
 496              	.LVL45:
 497              		.thumb
 498              		.syntax unified
 499              	.LBE183:
 500              	.LBE182:
 501              	.LBE181:
 502              	.LBE180:
 503              	.LBE179:
 504              		.loc 1 263 0
 505 0014 7047     		bx	lr
 506              	.LVL46:
 507              	.L40:
 508              	.LBB188:
 509              	.LBB178:
 510              	.LBB176:
 511              	.LBB177:
 512              		.loc 1 305 0
 513 0016 054A     		ldr	r2, .L41
ARM GAS  C:\Users\14122\AppData\Local\Temp\ccDC0w41.s 			page 10


 514              		.loc 1 307 0
 515 0018 0120     		movs	r0, #1
 516              	.LVL47:
 517              		.loc 1 305 0
 518 001a 9269     		ldr	r2, [r2, #24]
 519              		.loc 1 306 0
 520 001c 916B     		ldr	r1, [r2, #56]
 521 001e C3E90221 		strd	r2, r1, [r3, #8]
 522              		.loc 1 307 0
 523 0022 9363     		str	r3, [r2, #56]
 524              	.LVL48:
 525              	.LBE177:
 526              	.LBE176:
 527              	.LBE178:
 528              	.LBE188:
 529              	.LBB189:
 530              	.LBB187:
 531              	.LBB186:
 532              	.LBB185:
 533              	.LBB184:
 534              		.loc 3 493 0
 535 0024 0023     		movs	r3, #0
 536              	.LVL49:
 537              		.syntax unified
 538              	@ 493 ".//os/common/ext/ARM/CMSIS/Core/Include/cmsis_gcc.h" 1
 539 0026 83F31188 		MSR basepri, r3
 540              	@ 0 "" 2
 541              	.LVL50:
 542              		.thumb
 543              		.syntax unified
 544              	.LBE184:
 545              	.LBE185:
 546              	.LBE186:
 547              	.LBE187:
 548              	.LBE189:
 549              		.loc 1 263 0
 550 002a 7047     		bx	lr
 551              	.L42:
 552              		.align	2
 553              	.L41:
 554 002c 00000000 		.word	ch
 555              		.cfi_endproc
 556              	.LFE223:
 557              		.size	chMtxTryLock, .-chMtxTryLock
 558              		.section	.text.chMtxTryLockS,"ax",%progbits
 559              		.align	1
 560              		.p2align 4,,15
 561              		.global	chMtxTryLockS
 562              		.syntax unified
 563              		.thumb
 564              		.thumb_func
 565              		.fpu softvfp
 566              		.type	chMtxTryLockS, %function
 567              	chMtxTryLockS:
 568              	.LFB224:
 569              		.loc 1 282 0
 570              		.cfi_startproc
ARM GAS  C:\Users\14122\AppData\Local\Temp\ccDC0w41.s 			page 11


 571              		@ args = 0, pretend = 0, frame = 0
 572              		@ frame_needed = 0, uses_anonymous_args = 0
 573              		@ link register save eliminated.
 574              	.LVL51:
 575              		.loc 1 287 0
 576 0000 8268     		ldr	r2, [r0, #8]
 577              		.loc 1 282 0
 578 0002 0346     		mov	r3, r0
 579              		.loc 1 287 0
 580 0004 0AB1     		cbz	r2, .L46
 581              		.loc 1 297 0
 582 0006 0020     		movs	r0, #0
 583              	.LVL52:
 584              		.loc 1 309 0
 585 0008 7047     		bx	lr
 586              	.LVL53:
 587              	.L46:
 588              	.LBB192:
 589              	.LBB193:
 590              		.loc 1 305 0
 591 000a 044A     		ldr	r2, .L47
 592              		.loc 1 307 0
 593 000c 0120     		movs	r0, #1
 594              	.LVL54:
 595              		.loc 1 305 0
 596 000e 9269     		ldr	r2, [r2, #24]
 597              		.loc 1 306 0
 598 0010 916B     		ldr	r1, [r2, #56]
 599 0012 C3E90221 		strd	r2, r1, [r3, #8]
 600              		.loc 1 307 0
 601 0016 9363     		str	r3, [r2, #56]
 602              	.LVL55:
 603 0018 7047     		bx	lr
 604              	.L48:
 605 001a 00BF     		.align	2
 606              	.L47:
 607 001c 00000000 		.word	ch
 608              	.LBE193:
 609              	.LBE192:
 610              		.cfi_endproc
 611              	.LFE224:
 612              		.size	chMtxTryLockS, .-chMtxTryLockS
 613              		.section	.text.chMtxUnlock,"ax",%progbits
 614              		.align	1
 615              		.p2align 4,,15
 616              		.global	chMtxUnlock
 617              		.syntax unified
 618              		.thumb
 619              		.thumb_func
 620              		.fpu softvfp
 621              		.type	chMtxUnlock, %function
 622              	chMtxUnlock:
 623              	.LFB225:
 624              		.loc 1 323 0
 625              		.cfi_startproc
 626              		@ args = 0, pretend = 0, frame = 0
 627              		@ frame_needed = 0, uses_anonymous_args = 0
ARM GAS  C:\Users\14122\AppData\Local\Temp\ccDC0w41.s 			page 12


 628              	.LVL56:
 629              		.loc 1 324 0
 630 0000 174B     		ldr	r3, .L60
 631              		.loc 1 323 0
 632 0002 70B5     		push	{r4, r5, r6, lr}
 633              		.cfi_def_cfa_offset 16
 634              		.cfi_offset 4, -16
 635              		.cfi_offset 5, -12
 636              		.cfi_offset 6, -8
 637              		.cfi_offset 14, -4
 638              		.loc 1 324 0
 639 0004 9D69     		ldr	r5, [r3, #24]
 640              	.LVL57:
 641              	.LBB194:
 642              	.LBB195:
 643              	.LBB196:
 644              	.LBB197:
 645              		.loc 3 493 0
 646 0006 2023     		movs	r3, #32
 647              		.syntax unified
 648              	@ 493 ".//os/common/ext/ARM/CMSIS/Core/Include/cmsis_gcc.h" 1
 649 0008 83F31188 		MSR basepri, r3
 650              	@ 0 "" 2
 651              	.LVL58:
 652              		.thumb
 653              		.syntax unified
 654              	.LBE197:
 655              	.LBE196:
 656              	.LBE195:
 657              	.LBE194:
 658              	.LBB198:
 659              	.LBB199:
 660              	.LBB200:
 661              	.LBB201:
 662              		.loc 2 566 0
 663 000c 0468     		ldr	r4, [r0]
 664              	.LBE201:
 665              	.LBE200:
 666              	.LBE199:
 667              	.LBE198:
 668              		.loc 1 344 0
 669 000e C368     		ldr	r3, [r0, #12]
 670              		.loc 1 347 0
 671 0010 8442     		cmp	r4, r0
 672              		.loc 1 344 0
 673 0012 AB63     		str	r3, [r5, #56]
 674              		.loc 1 347 0
 675 0014 1DD0     		beq	.L50
 676              	.LBB202:
 677              		.loc 1 352 0
 678 0016 E96B     		ldr	r1, [r5, #60]
 679              	.LVL59:
 680              		.loc 1 354 0
 681 0018 4BB1     		cbz	r3, .L51
 682              	.L53:
 683              	.LVL60:
 684              	.LBB203:
ARM GAS  C:\Users\14122\AppData\Local\Temp\ccDC0w41.s 			page 13


 685              	.LBB204:
 686              	.LBB205:
 687              	.LBB206:
 688              		.loc 2 566 0
 689 001a 1A68     		ldr	r2, [r3]
 690              	.LVL61:
 691              	.LBE206:
 692              	.LBE205:
 693              	.LBE204:
 694              	.LBE203:
 695              		.loc 1 358 0
 696 001c 9342     		cmp	r3, r2
 697 001e 03D0     		beq	.L52
 698 0020 9268     		ldr	r2, [r2, #8]
 699 0022 9142     		cmp	r1, r2
 700 0024 38BF     		it	cc
 701 0026 1146     		movcc	r1, r2
 702              	.LVL62:
 703              	.L52:
 704              		.loc 1 362 0
 705 0028 DB68     		ldr	r3, [r3, #12]
 706              	.LVL63:
 707              		.loc 1 354 0
 708 002a 002B     		cmp	r3, #0
 709 002c F5D1     		bne	.L53
 710              	.L51:
 711 002e 0346     		mov	r3, r0
 712              	.LVL64:
 713              	.LBB207:
 714              	.LBB208:
 715              		.loc 2 609 0
 716 0030 2268     		ldr	r2, [r4]
 717              	.LBE208:
 718              	.LBE207:
 719              		.loc 1 376 0
 720 0032 A66B     		ldr	r6, [r4, #56]
 721              		.loc 1 383 0
 722 0034 2046     		mov	r0, r4
 723              	.LVL65:
 724              		.loc 1 367 0
 725 0036 A960     		str	r1, [r5, #8]
 726              	.LVL66:
 727              	.LBB210:
 728              	.LBB209:
 729              		.loc 2 609 0
 730 0038 1A60     		str	r2, [r3]
 731              		.loc 2 610 0
 732 003a 5360     		str	r3, [r2, #4]
 733              	.LVL67:
 734              	.LBE209:
 735              	.LBE210:
 736              		.loc 1 376 0
 737 003c C3E90246 		strd	r4, r6, [r3, #8]
 738              		.loc 1 377 0
 739 0040 A363     		str	r3, [r4, #56]
 740              		.loc 1 383 0
 741 0042 FFF7FEFF 		bl	chSchReadyI
ARM GAS  C:\Users\14122\AppData\Local\Temp\ccDC0w41.s 			page 14


 742              	.LVL68:
 743              		.loc 1 384 0
 744 0046 FFF7FEFF 		bl	chSchRescheduleS
 745              	.LVL69:
 746              	.LBE202:
 747              	.LBB211:
 748              	.LBB212:
 749              	.LBB213:
 750              	.LBB214:
 751              	.LBB215:
 752              		.loc 3 493 0
 753 004a 0023     		movs	r3, #0
 754              		.syntax unified
 755              	@ 493 ".//os/common/ext/ARM/CMSIS/Core/Include/cmsis_gcc.h" 1
 756 004c 83F31188 		MSR basepri, r3
 757              	@ 0 "" 2
 758              	.LVL70:
 759              		.thumb
 760              		.syntax unified
 761              	.LBE215:
 762              	.LBE214:
 763              	.LBE213:
 764              	.LBE212:
 765              	.LBE211:
 766              		.loc 1 394 0
 767 0050 70BD     		pop	{r4, r5, r6, pc}
 768              	.LVL71:
 769              	.L50:
 770              		.loc 1 387 0
 771 0052 0023     		movs	r3, #0
 772 0054 A360     		str	r3, [r4, #8]
 773              	.LVL72:
 774              	.LBB220:
 775              	.LBB219:
 776              	.LBB218:
 777              	.LBB217:
 778              	.LBB216:
 779              		.loc 3 493 0
 780 0056 0023     		movs	r3, #0
 781              		.syntax unified
 782              	@ 493 ".//os/common/ext/ARM/CMSIS/Core/Include/cmsis_gcc.h" 1
 783 0058 83F31188 		MSR basepri, r3
 784              	@ 0 "" 2
 785              	.LVL73:
 786              		.thumb
 787              		.syntax unified
 788              	.LBE216:
 789              	.LBE217:
 790              	.LBE218:
 791              	.LBE219:
 792              	.LBE220:
 793              		.loc 1 394 0
 794 005c 70BD     		pop	{r4, r5, r6, pc}
 795              	.LVL74:
 796              	.L61:
 797 005e 00BF     		.align	2
 798              	.L60:
ARM GAS  C:\Users\14122\AppData\Local\Temp\ccDC0w41.s 			page 15


 799 0060 00000000 		.word	ch
 800              		.cfi_endproc
 801              	.LFE225:
 802              		.size	chMtxUnlock, .-chMtxUnlock
 803              		.section	.text.chMtxUnlockS,"ax",%progbits
 804              		.align	1
 805              		.p2align 4,,15
 806              		.global	chMtxUnlockS
 807              		.syntax unified
 808              		.thumb
 809              		.thumb_func
 810              		.fpu softvfp
 811              		.type	chMtxUnlockS, %function
 812              	chMtxUnlockS:
 813              	.LFB226:
 814              		.loc 1 410 0
 815              		.cfi_startproc
 816              		@ args = 0, pretend = 0, frame = 0
 817              		@ frame_needed = 0, uses_anonymous_args = 0
 818              		@ link register save eliminated.
 819              	.LVL75:
 820              		.loc 1 411 0
 821 0000 124A     		ldr	r2, .L72
 822              		.loc 1 410 0
 823 0002 30B4     		push	{r4, r5}
 824              		.cfi_def_cfa_offset 8
 825              		.cfi_offset 4, -8
 826              		.cfi_offset 5, -4
 827              	.LBB221:
 828              	.LBB222:
 829              	.LBB223:
 830              	.LBB224:
 831              		.loc 2 566 0
 832 0004 0468     		ldr	r4, [r0]
 833              	.LBE224:
 834              	.LBE223:
 835              	.LBE222:
 836              	.LBE221:
 837              		.loc 1 430 0
 838 0006 C368     		ldr	r3, [r0, #12]
 839              		.loc 1 411 0
 840 0008 9569     		ldr	r5, [r2, #24]
 841              	.LVL76:
 842              		.loc 1 433 0
 843 000a 8442     		cmp	r4, r0
 844              		.loc 1 430 0
 845 000c AB63     		str	r3, [r5, #56]
 846              		.loc 1 433 0
 847 000e 18D0     		beq	.L63
 848 0010 0146     		mov	r1, r0
 849              	.LBB225:
 850              		.loc 1 438 0
 851 0012 E86B     		ldr	r0, [r5, #60]
 852              	.LVL77:
 853              		.loc 1 440 0
 854 0014 4BB1     		cbz	r3, .L64
 855              	.L66:
ARM GAS  C:\Users\14122\AppData\Local\Temp\ccDC0w41.s 			page 16


 856              	.LVL78:
 857              	.LBB226:
 858              	.LBB227:
 859              	.LBB228:
 860              	.LBB229:
 861              		.loc 2 566 0
 862 0016 1A68     		ldr	r2, [r3]
 863              	.LVL79:
 864              	.LBE229:
 865              	.LBE228:
 866              	.LBE227:
 867              	.LBE226:
 868              		.loc 1 444 0
 869 0018 9342     		cmp	r3, r2
 870 001a 03D0     		beq	.L65
 871 001c 9268     		ldr	r2, [r2, #8]
 872 001e 9042     		cmp	r0, r2
 873 0020 38BF     		it	cc
 874 0022 1046     		movcc	r0, r2
 875              	.LVL80:
 876              	.L65:
 877              		.loc 1 448 0
 878 0024 DB68     		ldr	r3, [r3, #12]
 879              	.LVL81:
 880              		.loc 1 440 0
 881 0026 002B     		cmp	r3, #0
 882 0028 F5D1     		bne	.L66
 883              	.L64:
 884              		.loc 1 462 0
 885 002a A26B     		ldr	r2, [r4, #56]
 886              	.LBB230:
 887              	.LBB231:
 888              		.loc 2 609 0
 889 002c 2368     		ldr	r3, [r4]
 890              	.LVL82:
 891              	.LBE231:
 892              	.LBE230:
 893              		.loc 1 453 0
 894 002e A860     		str	r0, [r5, #8]
 895              	.LVL83:
 896              	.LBB234:
 897              	.LBB232:
 898              		.loc 2 609 0
 899 0030 0B60     		str	r3, [r1]
 900              	.LBE232:
 901              	.LBE234:
 902              		.loc 1 464 0
 903 0032 2046     		mov	r0, r4
 904              	.LVL84:
 905              	.LBB235:
 906              	.LBB233:
 907              		.loc 2 610 0
 908 0034 5960     		str	r1, [r3, #4]
 909              	.LVL85:
 910              	.LBE233:
 911              	.LBE235:
 912              		.loc 1 462 0
ARM GAS  C:\Users\14122\AppData\Local\Temp\ccDC0w41.s 			page 17


 913 0036 C1E90242 		strd	r4, r2, [r1, #8]
 914              		.loc 1 463 0
 915 003a A163     		str	r1, [r4, #56]
 916              	.LBE225:
 917              		.loc 1 472 0
 918 003c 30BC     		pop	{r4, r5}
 919              		.cfi_remember_state
 920              		.cfi_restore 5
 921              		.cfi_restore 4
 922              		.cfi_def_cfa_offset 0
 923              	.LVL86:
 924              	.LBB236:
 925              		.loc 1 464 0
 926 003e FFF7FEBF 		b	chSchReadyI
 927              	.LVL87:
 928              	.L63:
 929              		.cfi_restore_state
 930              	.LBE236:
 931              		.loc 1 467 0
 932 0042 0023     		movs	r3, #0
 933 0044 A360     		str	r3, [r4, #8]
 934              		.loc 1 472 0
 935 0046 30BC     		pop	{r4, r5}
 936              		.cfi_restore 5
 937              		.cfi_restore 4
 938              		.cfi_def_cfa_offset 0
 939              	.LVL88:
 940 0048 7047     		bx	lr
 941              	.L73:
 942 004a 00BF     		.align	2
 943              	.L72:
 944 004c 00000000 		.word	ch
 945              		.cfi_endproc
 946              	.LFE226:
 947              		.size	chMtxUnlockS, .-chMtxUnlockS
 948              		.section	.text.chMtxUnlockAllS,"ax",%progbits
 949              		.align	1
 950              		.p2align 4,,15
 951              		.global	chMtxUnlockAllS
 952              		.syntax unified
 953              		.thumb
 954              		.thumb_func
 955              		.fpu softvfp
 956              		.type	chMtxUnlockAllS, %function
 957              	chMtxUnlockAllS:
 958              	.LFB227:
 959              		.loc 1 487 0
 960              		.cfi_startproc
 961              		@ args = 0, pretend = 0, frame = 0
 962              		@ frame_needed = 0, uses_anonymous_args = 0
 963 0000 70B5     		push	{r4, r5, r6, lr}
 964              		.cfi_def_cfa_offset 16
 965              		.cfi_offset 4, -16
 966              		.cfi_offset 5, -12
 967              		.cfi_offset 6, -8
 968              		.cfi_offset 14, -4
 969              	.LBB237:
ARM GAS  C:\Users\14122\AppData\Local\Temp\ccDC0w41.s 			page 18


 970              		.loc 1 507 0
 971 0002 0026     		movs	r6, #0
 972              	.LBE237:
 973              		.loc 1 488 0
 974 0004 0D4B     		ldr	r3, .L81
 975 0006 9C69     		ldr	r4, [r3, #24]
 976              	.LVL89:
 977 0008 A36B     		ldr	r3, [r4, #56]
 978              	.L75:
 979              	.LVL90:
 980              		.loc 1 490 0
 981 000a 8BB1     		cbz	r3, .L80
 982              	.L78:
 983              	.LBB247:
 984              	.LBB238:
 985              	.LBB239:
 986              	.LBB240:
 987              	.LBB241:
 988              		.loc 2 566 0
 989 000c 1A68     		ldr	r2, [r3]
 990              	.LVL91:
 991              	.LBE241:
 992              	.LBE240:
 993              	.LBE239:
 994              	.LBE238:
 995              		.loc 1 492 0
 996 000e D968     		ldr	r1, [r3, #12]
 997              		.loc 1 493 0
 998 0010 9342     		cmp	r3, r2
 999              		.loc 1 492 0
 1000 0012 A163     		str	r1, [r4, #56]
 1001              		.loc 1 493 0
 1002 0014 0FD0     		beq	.L76
 1003              	.LBB242:
 1004              		.loc 1 499 0
 1005 0016 956B     		ldr	r5, [r2, #56]
 1006              	.LBB243:
 1007              	.LBB244:
 1008              		.loc 2 609 0
 1009 0018 1168     		ldr	r1, [r2]
 1010              	.LBE244:
 1011              	.LBE243:
 1012              		.loc 1 501 0
 1013 001a 1046     		mov	r0, r2
 1014              	.LBB246:
 1015              	.LBB245:
 1016              		.loc 2 609 0
 1017 001c 1960     		str	r1, [r3]
 1018              		.loc 2 610 0
 1019 001e 4B60     		str	r3, [r1, #4]
 1020              	.LVL92:
 1021              	.LBE245:
 1022              	.LBE246:
 1023              		.loc 1 499 0
 1024 0020 C3E90225 		strd	r2, r5, [r3, #8]
 1025              		.loc 1 500 0
 1026 0024 9363     		str	r3, [r2, #56]
ARM GAS  C:\Users\14122\AppData\Local\Temp\ccDC0w41.s 			page 19


 1027              		.loc 1 501 0
 1028 0026 FFF7FEFF 		bl	chSchReadyI
 1029              	.LVL93:
 1030 002a A36B     		ldr	r3, [r4, #56]
 1031              	.LVL94:
 1032              	.LBE242:
 1033              	.LBE247:
 1034              		.loc 1 490 0
 1035 002c 002B     		cmp	r3, #0
 1036 002e EDD1     		bne	.L78
 1037              	.L80:
 1038              		.loc 1 510 0
 1039 0030 E36B     		ldr	r3, [r4, #60]
 1040              	.LVL95:
 1041 0032 A360     		str	r3, [r4, #8]
 1042              		.loc 1 511 0
 1043 0034 70BD     		pop	{r4, r5, r6, pc}
 1044              	.LVL96:
 1045              	.L76:
 1046              	.LBB248:
 1047              		.loc 1 507 0
 1048 0036 9E60     		str	r6, [r3, #8]
 1049 0038 0B46     		mov	r3, r1
 1050              	.LVL97:
 1051 003a E6E7     		b	.L75
 1052              	.L82:
 1053              		.align	2
 1054              	.L81:
 1055 003c 00000000 		.word	ch
 1056              	.LBE248:
 1057              		.cfi_endproc
 1058              	.LFE227:
 1059              		.size	chMtxUnlockAllS, .-chMtxUnlockAllS
 1060              		.section	.text.chMtxUnlockAll,"ax",%progbits
 1061              		.align	1
 1062              		.p2align 4,,15
 1063              		.global	chMtxUnlockAll
 1064              		.syntax unified
 1065              		.thumb
 1066              		.thumb_func
 1067              		.fpu softvfp
 1068              		.type	chMtxUnlockAll, %function
 1069              	chMtxUnlockAll:
 1070              	.LFB228:
 1071              		.loc 1 524 0
 1072              		.cfi_startproc
 1073              		@ args = 0, pretend = 0, frame = 0
 1074              		@ frame_needed = 0, uses_anonymous_args = 0
 1075              		.loc 1 525 0
 1076 0000 134A     		ldr	r2, .L94
 1077              		.loc 1 524 0
 1078 0002 70B5     		push	{r4, r5, r6, lr}
 1079              		.cfi_def_cfa_offset 16
 1080              		.cfi_offset 4, -16
 1081              		.cfi_offset 5, -12
 1082              		.cfi_offset 6, -8
 1083              		.cfi_offset 14, -4
ARM GAS  C:\Users\14122\AppData\Local\Temp\ccDC0w41.s 			page 20


 1084              	.LBB249:
 1085              	.LBB250:
 1086              	.LBB251:
 1087              	.LBB252:
 1088              		.loc 3 493 0
 1089 0004 2023     		movs	r3, #32
 1090              	.LBE252:
 1091              	.LBE251:
 1092              	.LBE250:
 1093              	.LBE249:
 1094              		.loc 1 525 0
 1095 0006 9469     		ldr	r4, [r2, #24]
 1096              	.LVL98:
 1097              	.LBB256:
 1098              	.LBB255:
 1099              	.LBB254:
 1100              	.LBB253:
 1101              		.loc 3 493 0
 1102              		.syntax unified
 1103              	@ 493 ".//os/common/ext/ARM/CMSIS/Core/Include/cmsis_gcc.h" 1
 1104 0008 83F31188 		MSR basepri, r3
 1105              	@ 0 "" 2
 1106              	.LVL99:
 1107              		.thumb
 1108              		.syntax unified
 1109              	.LBE253:
 1110              	.LBE254:
 1111              	.LBE255:
 1112              	.LBE256:
 1113              		.loc 1 528 0
 1114 000c A36B     		ldr	r3, [r4, #56]
 1115 000e B3B1     		cbz	r3, .L84
 1116              	.LBB257:
 1117              		.loc 1 546 0
 1118 0010 0026     		movs	r6, #0
 1119              	.L87:
 1120              	.LVL100:
 1121              	.LBB258:
 1122              	.LBB259:
 1123              	.LBB260:
 1124              	.LBB261:
 1125              		.loc 2 566 0
 1126 0012 1A68     		ldr	r2, [r3]
 1127              	.LVL101:
 1128              	.LBE261:
 1129              	.LBE260:
 1130              	.LBE259:
 1131              	.LBE258:
 1132              		.loc 1 531 0
 1133 0014 D968     		ldr	r1, [r3, #12]
 1134              		.loc 1 532 0
 1135 0016 9342     		cmp	r3, r2
 1136              		.loc 1 531 0
 1137 0018 A163     		str	r1, [r4, #56]
 1138              	.LVL102:
 1139              		.loc 1 532 0
 1140 001a 14D0     		beq	.L85
ARM GAS  C:\Users\14122\AppData\Local\Temp\ccDC0w41.s 			page 21


 1141              	.LBB262:
 1142              		.loc 1 538 0
 1143 001c 956B     		ldr	r5, [r2, #56]
 1144              	.LBB263:
 1145              	.LBB264:
 1146              		.loc 2 609 0
 1147 001e 1168     		ldr	r1, [r2]
 1148              	.LBE264:
 1149              	.LBE263:
 1150              		.loc 1 540 0
 1151 0020 1046     		mov	r0, r2
 1152              	.LBB266:
 1153              	.LBB265:
 1154              		.loc 2 609 0
 1155 0022 1960     		str	r1, [r3]
 1156              		.loc 2 610 0
 1157 0024 4B60     		str	r3, [r1, #4]
 1158              	.LVL103:
 1159              	.LBE265:
 1160              	.LBE266:
 1161              		.loc 1 538 0
 1162 0026 C3E90225 		strd	r2, r5, [r3, #8]
 1163              		.loc 1 539 0
 1164 002a 9363     		str	r3, [r2, #56]
 1165              		.loc 1 540 0
 1166 002c FFF7FEFF 		bl	chSchReadyI
 1167              	.LVL104:
 1168 0030 A36B     		ldr	r3, [r4, #56]
 1169              	.LBE262:
 1170              	.LBE257:
 1171              		.loc 1 548 0
 1172 0032 002B     		cmp	r3, #0
 1173 0034 EDD1     		bne	.L87
 1174              	.L93:
 1175              		.loc 1 549 0
 1176 0036 E36B     		ldr	r3, [r4, #60]
 1177 0038 A360     		str	r3, [r4, #8]
 1178              		.loc 1 550 0
 1179 003a FFF7FEFF 		bl	chSchRescheduleS
 1180              	.LVL105:
 1181              	.L84:
 1182              	.LBB267:
 1183              	.LBB268:
 1184              	.LBB269:
 1185              	.LBB270:
 1186              	.LBB271:
 1187              		.loc 3 493 0
 1188 003e 0023     		movs	r3, #0
 1189              		.syntax unified
 1190              	@ 493 ".//os/common/ext/ARM/CMSIS/Core/Include/cmsis_gcc.h" 1
 1191 0040 83F31188 		MSR basepri, r3
 1192              	@ 0 "" 2
 1193              	.LVL106:
 1194              		.thumb
 1195              		.syntax unified
 1196              	.LBE271:
 1197              	.LBE270:
ARM GAS  C:\Users\14122\AppData\Local\Temp\ccDC0w41.s 			page 22


 1198              	.LBE269:
 1199              	.LBE268:
 1200              	.LBE267:
 1201              		.loc 1 553 0
 1202 0044 70BD     		pop	{r4, r5, r6, pc}
 1203              	.LVL107:
 1204              	.L85:
 1205              	.LBB272:
 1206              		.loc 1 546 0
 1207 0046 9E60     		str	r6, [r3, #8]
 1208 0048 0B46     		mov	r3, r1
 1209              	.LVL108:
 1210              	.LBE272:
 1211              		.loc 1 548 0
 1212 004a 002B     		cmp	r3, #0
 1213 004c E1D1     		bne	.L87
 1214 004e F2E7     		b	.L93
 1215              	.L95:
 1216              		.align	2
 1217              	.L94:
 1218 0050 00000000 		.word	ch
 1219              		.cfi_endproc
 1220              	.LFE228:
 1221              		.size	chMtxUnlockAll, .-chMtxUnlockAll
 1222              		.text
 1223              	.Letext0:
 1224              		.file 4 "c:\\chibistudio\\tools\\gnu tools arm embedded\\7.0 2017q4\\lib\\gcc\\arm-none-eabi\\7.2.
 1225              		.file 5 "c:\\chibistudio\\tools\\gnu tools arm embedded\\7.0 2017q4\\arm-none-eabi\\include\\machi
 1226              		.file 6 "c:\\chibistudio\\tools\\gnu tools arm embedded\\7.0 2017q4\\arm-none-eabi\\include\\sys\\
 1227              		.file 7 ".//os/common/ports/ARMCMx/compilers/GCC/chtypes.h"
 1228              		.file 8 ".//os/rt/include/chsystypes.h"
 1229              		.file 9 ".//os/rt/include/chtime.h"
 1230              		.file 10 ".//os/common/ext/ARM/CMSIS/Core/Include/core_cm3.h"
 1231              		.file 11 ".//os/common/ext/ST/STM32F1xx/system_stm32f1xx.h"
 1232              		.file 12 ".//os/common/ports/ARMCMx/chcore.h"
 1233              		.file 13 ".//os/common/ports/ARMCMx/chcore_v7m.h"
 1234              		.file 14 ".//os/rt/include/chsem.h"
 1235              		.file 15 ".//os/rt/include/chmtx.h"
 1236              		.file 16 ".//os/rt/include/chsys.h"
 1237              		.file 17 ".//os/rt/include/chregistry.h"
 1238              		.file 18 ".//os/lib/include/chmemcore.h"
 1239              		.file 19 ".//os/lib/include/chmempools.h"
 1240              		.file 20 ".//os/lib/include/chfactory.h"