ARM GAS  C:\Users\14122\AppData\Local\Temp\ccbCkaAg.s 			page 1


   1              		.cpu cortex-m3
   2              		.eabi_attribute 20, 1
   3              		.eabi_attribute 21, 1
   4              		.eabi_attribute 23, 3
   5              		.eabi_attribute 24, 1
   6              		.eabi_attribute 25, 1
   7              		.eabi_attribute 26, 1
   8              		.eabi_attribute 30, 2
   9              		.eabi_attribute 34, 1
  10              		.eabi_attribute 18, 4
  11              		.file	"chregistry.c"
  12              		.text
  13              	.Ltext0:
  14              		.cfi_sections	.debug_frame
  15              		.section	.text.chRegFirstThread,"ax",%progbits
  16              		.align	1
  17              		.p2align 4,,15
  18              		.global	chRegFirstThread
  19              		.syntax unified
  20              		.thumb
  21              		.thumb_func
  22              		.fpu softvfp
  23              		.type	chRegFirstThread, %function
  24              	chRegFirstThread:
  25              	.LFB220:
  26              		.file 1 ".//os/rt/src/chregistry.c"
  27              		.loc 1 134 0
  28              		.cfi_startproc
  29              		@ args = 0, pretend = 0, frame = 0
  30              		@ frame_needed = 0, uses_anonymous_args = 0
  31              		@ link register save eliminated.
  32              	.LVL0:
  33              	.LBB104:
  34              	.LBB105:
  35              	.LBB106:
  36              	.LBB107:
  37              		.file 2 ".//os/common/ext/ARM/CMSIS/Core/Include/cmsis_gcc.h"
  38              		.loc 2 493 0
  39 0000 2023     		movs	r3, #32
  40              		.syntax unified
  41              	@ 493 ".//os/common/ext/ARM/CMSIS/Core/Include/cmsis_gcc.h" 1
  42 0002 83F31188 		MSR basepri, r3
  43              	@ 0 "" 2
  44              	.LVL1:
  45              		.thumb
  46              		.syntax unified
  47              	.LBE107:
  48              	.LBE106:
  49              	.LBE105:
  50              	.LBE104:
  51              		.loc 1 138 0
  52 0006 054B     		ldr	r3, .L3
  53              	.LBB108:
  54              	.LBB109:
  55              	.LBB110:
  56              	.LBB111:
  57              	.LBB112:
ARM GAS  C:\Users\14122\AppData\Local\Temp\ccbCkaAg.s 			page 2


  58              		.loc 2 493 0
  59 0008 0022     		movs	r2, #0
  60              	.LBE112:
  61              	.LBE111:
  62              	.LBE110:
  63              	.LBE109:
  64              	.LBE108:
  65              		.loc 1 138 0
  66 000a 1869     		ldr	r0, [r3, #16]
  67              	.LVL2:
  68              		.loc 1 140 0
  69 000c 90F82230 		ldrb	r3, [r0, #34]	@ zero_extendqisi2
  70 0010 0133     		adds	r3, r3, #1
  71 0012 80F82230 		strb	r3, [r0, #34]
  72              	.LVL3:
  73              	.LBB117:
  74              	.LBB116:
  75              	.LBB115:
  76              	.LBB114:
  77              	.LBB113:
  78              		.loc 2 493 0
  79              		.syntax unified
  80              	@ 493 ".//os/common/ext/ARM/CMSIS/Core/Include/cmsis_gcc.h" 1
  81 0016 82F31188 		MSR basepri, r2
  82              	@ 0 "" 2
  83              	.LVL4:
  84              		.thumb
  85              		.syntax unified
  86              	.LBE113:
  87              	.LBE114:
  88              	.LBE115:
  89              	.LBE116:
  90              	.LBE117:
  91              		.loc 1 145 0
  92 001a 7047     		bx	lr
  93              	.L4:
  94              		.align	2
  95              	.L3:
  96 001c 00000000 		.word	ch
  97              		.cfi_endproc
  98              	.LFE220:
  99              		.size	chRegFirstThread, .-chRegFirstThread
 100              		.section	.text.chRegNextThread,"ax",%progbits
 101              		.align	1
 102              		.p2align 4,,15
 103              		.global	chRegNextThread
 104              		.syntax unified
 105              		.thumb
 106              		.thumb_func
 107              		.fpu softvfp
 108              		.type	chRegNextThread, %function
 109              	chRegNextThread:
 110              	.LFB221:
 111              		.loc 1 158 0
 112              		.cfi_startproc
 113              		@ args = 0, pretend = 0, frame = 0
 114              		@ frame_needed = 0, uses_anonymous_args = 0
ARM GAS  C:\Users\14122\AppData\Local\Temp\ccbCkaAg.s 			page 3


 115              	.LVL5:
 116 0000 10B5     		push	{r4, lr}
 117              		.cfi_def_cfa_offset 8
 118              		.cfi_offset 4, -8
 119              		.cfi_offset 14, -4
 120              	.LBB118:
 121              	.LBB119:
 122              	.LBB120:
 123              	.LBB121:
 124              		.loc 2 493 0
 125 0002 2023     		movs	r3, #32
 126              		.syntax unified
 127              	@ 493 ".//os/common/ext/ARM/CMSIS/Core/Include/cmsis_gcc.h" 1
 128 0004 83F31188 		MSR basepri, r3
 129              	@ 0 "" 2
 130              	.LVL6:
 131              		.thumb
 132              		.syntax unified
 133              	.LBE121:
 134              	.LBE120:
 135              	.LBE119:
 136              	.LBE118:
 137              		.loc 1 164 0
 138 0008 084B     		ldr	r3, .L9
 139              		.loc 1 162 0
 140 000a 0469     		ldr	r4, [r0, #16]
 141              	.LVL7:
 142              		.loc 1 164 0
 143 000c 9C42     		cmp	r4, r3
 144              		.loc 1 171 0
 145 000e 17BF     		itett	ne
 146 0010 94F82230 		ldrbne	r3, [r4, #34]	@ zero_extendqisi2
 147              		.loc 1 166 0
 148 0014 0024     		moveq	r4, #0
 149              	.LVL8:
 150              		.loc 1 171 0
 151 0016 0133     		addne	r3, r3, #1
 152 0018 84F82230 		strbne	r3, [r4, #34]
 153              	.LBB122:
 154              	.LBB123:
 155              	.LBB124:
 156              	.LBB125:
 157              	.LBB126:
 158              		.loc 2 493 0
 159 001c 0023     		movs	r3, #0
 160              		.syntax unified
 161              	@ 493 ".//os/common/ext/ARM/CMSIS/Core/Include/cmsis_gcc.h" 1
 162 001e 83F31188 		MSR basepri, r3
 163              	@ 0 "" 2
 164              	.LVL9:
 165              		.thumb
 166              		.syntax unified
 167              	.LBE126:
 168              	.LBE125:
 169              	.LBE124:
 170              	.LBE123:
 171              	.LBE122:
ARM GAS  C:\Users\14122\AppData\Local\Temp\ccbCkaAg.s 			page 4


 172              		.loc 1 176 0
 173 0022 FFF7FEFF 		bl	chThdRelease
 174              	.LVL10:
 175              		.loc 1 180 0
 176 0026 2046     		mov	r0, r4
 177 0028 10BD     		pop	{r4, pc}
 178              	.LVL11:
 179              	.L10:
 180 002a 00BF     		.align	2
 181              	.L9:
 182 002c 00000000 		.word	ch
 183              		.cfi_endproc
 184              	.LFE221:
 185              		.size	chRegNextThread, .-chRegNextThread
 186              		.section	.text.chRegFindThreadByName,"ax",%progbits
 187              		.align	1
 188              		.p2align 4,,15
 189              		.global	chRegFindThreadByName
 190              		.syntax unified
 191              		.thumb
 192              		.thumb_func
 193              		.fpu softvfp
 194              		.type	chRegFindThreadByName, %function
 195              	chRegFindThreadByName:
 196              	.LFB222:
 197              		.loc 1 194 0
 198              		.cfi_startproc
 199              		@ args = 0, pretend = 0, frame = 0
 200              		@ frame_needed = 0, uses_anonymous_args = 0
 201              	.LVL12:
 202 0000 2DE9F843 		push	{r3, r4, r5, r6, r7, r8, r9, lr}
 203              		.cfi_def_cfa_offset 32
 204              		.cfi_offset 3, -32
 205              		.cfi_offset 4, -28
 206              		.cfi_offset 5, -24
 207              		.cfi_offset 6, -20
 208              		.cfi_offset 7, -16
 209              		.cfi_offset 8, -12
 210              		.cfi_offset 9, -8
 211              		.cfi_offset 14, -4
 212              		.loc 1 194 0
 213 0004 8146     		mov	r9, r0
 214              	.LBB127:
 215              	.LBB128:
 216              	.LBB129:
 217              	.LBB130:
 218              	.LBB131:
 219              	.LBB132:
 220              		.loc 2 493 0
 221 0006 2026     		movs	r6, #32
 222              		.syntax unified
 223              	@ 493 ".//os/common/ext/ARM/CMSIS/Core/Include/cmsis_gcc.h" 1
 224 0008 86F31188 		MSR basepri, r6
 225              	@ 0 "" 2
 226              	.LVL13:
 227              		.thumb
 228              		.syntax unified
ARM GAS  C:\Users\14122\AppData\Local\Temp\ccbCkaAg.s 			page 5


 229              	.LBE132:
 230              	.LBE131:
 231              	.LBE130:
 232              	.LBE129:
 233              		.loc 1 138 0
 234 000c DFF86480 		ldr	r8, .L21
 235              	.LBB133:
 236              	.LBB134:
 237              	.LBB135:
 238              	.LBB136:
 239              	.LBB137:
 240              		.loc 2 493 0
 241 0010 0027     		movs	r7, #0
 242              	.LBE137:
 243              	.LBE136:
 244              	.LBE135:
 245              	.LBE134:
 246              	.LBE133:
 247              		.loc 1 138 0
 248 0012 D8F81040 		ldr	r4, [r8, #16]
 249              	.LVL14:
 250              		.loc 1 140 0
 251 0016 94F82230 		ldrb	r3, [r4, #34]	@ zero_extendqisi2
 252 001a 0133     		adds	r3, r3, #1
 253 001c 84F82230 		strb	r3, [r4, #34]
 254              	.LVL15:
 255              	.LBB142:
 256              	.LBB141:
 257              	.LBB140:
 258              	.LBB139:
 259              	.LBB138:
 260              		.loc 2 493 0
 261              		.syntax unified
 262              	@ 493 ".//os/common/ext/ARM/CMSIS/Core/Include/cmsis_gcc.h" 1
 263 0020 87F31188 		MSR basepri, r7
 264              	@ 0 "" 2
 265              	.LVL16:
 266              		.thumb
 267              		.syntax unified
 268              	.LBE138:
 269              	.LBE139:
 270              	.LBE140:
 271              	.LBE141:
 272              	.LBE142:
 273              	.LBE128:
 274              	.LBE127:
 275              		.loc 1 200 0
 276 0024 4946     		mov	r1, r9
 277 0026 A069     		ldr	r0, [r4, #24]
 278              	.LVL17:
 279 0028 FFF7FEFF 		bl	strcmp
 280              	.LVL18:
 281 002c A8B1     		cbz	r0, .L11
 282              	.L20:
 283              	.LBB143:
 284              	.LBB144:
 285              	.LBB145:
ARM GAS  C:\Users\14122\AppData\Local\Temp\ccbCkaAg.s 			page 6


 286              	.LBB146:
 287              	.LBB147:
 288              	.LBB148:
 289              		.loc 2 493 0
 290              		.syntax unified
 291              	@ 493 ".//os/common/ext/ARM/CMSIS/Core/Include/cmsis_gcc.h" 1
 292 002e 86F31188 		MSR basepri, r6
 293              	@ 0 "" 2
 294              	.LVL19:
 295              		.thumb
 296              		.syntax unified
 297              	.LBE148:
 298              	.LBE147:
 299              	.LBE146:
 300              	.LBE145:
 301              		.loc 1 162 0
 302 0032 2569     		ldr	r5, [r4, #16]
 303              	.LVL20:
 304              		.loc 1 164 0
 305 0034 4545     		cmp	r5, r8
 306 0036 13D0     		beq	.L19
 307              		.loc 1 171 0
 308 0038 95F82230 		ldrb	r3, [r5, #34]	@ zero_extendqisi2
 309 003c 0133     		adds	r3, r3, #1
 310 003e 85F82230 		strb	r3, [r5, #34]
 311              	.LVL21:
 312              	.LBB149:
 313              	.LBB150:
 314              	.LBB151:
 315              	.LBB152:
 316              	.LBB153:
 317              		.loc 2 493 0
 318              		.syntax unified
 319              	@ 493 ".//os/common/ext/ARM/CMSIS/Core/Include/cmsis_gcc.h" 1
 320 0042 87F31188 		MSR basepri, r7
 321              	@ 0 "" 2
 322              	.LVL22:
 323              		.thumb
 324              		.syntax unified
 325              	.LBE153:
 326              	.LBE152:
 327              	.LBE151:
 328              	.LBE150:
 329              	.LBE149:
 330              		.loc 1 176 0
 331 0046 2046     		mov	r0, r4
 332 0048 2C46     		mov	r4, r5
 333              	.LVL23:
 334 004a FFF7FEFF 		bl	chThdRelease
 335              	.LVL24:
 336              	.LBE144:
 337              	.LBE143:
 338              		.loc 1 200 0
 339 004e 4946     		mov	r1, r9
 340 0050 A069     		ldr	r0, [r4, #24]
 341 0052 FFF7FEFF 		bl	strcmp
 342              	.LVL25:
ARM GAS  C:\Users\14122\AppData\Local\Temp\ccbCkaAg.s 			page 7


 343 0056 0028     		cmp	r0, #0
 344 0058 E9D1     		bne	.L20
 345              	.LVL26:
 346              	.L11:
 347              		.loc 1 207 0
 348 005a 2046     		mov	r0, r4
 349 005c BDE8F883 		pop	{r3, r4, r5, r6, r7, r8, r9, pc}
 350              	.LVL27:
 351              	.L19:
 352              	.LBB161:
 353              	.LBB159:
 354              	.LBB158:
 355              	.LBB157:
 356              	.LBB156:
 357              	.LBB155:
 358              	.LBB154:
 359              		.loc 2 493 0
 360 0060 0025     		movs	r5, #0
 361              		.syntax unified
 362              	@ 493 ".//os/common/ext/ARM/CMSIS/Core/Include/cmsis_gcc.h" 1
 363 0062 85F31188 		MSR basepri, r5
 364              	@ 0 "" 2
 365              	.LVL28:
 366              		.thumb
 367              		.syntax unified
 368              	.LBE154:
 369              	.LBE155:
 370              	.LBE156:
 371              	.LBE157:
 372              	.LBE158:
 373              		.loc 1 176 0
 374 0066 2046     		mov	r0, r4
 375              	.LBE159:
 376              	.LBE161:
 377              		.loc 1 206 0
 378 0068 2C46     		mov	r4, r5
 379              	.LVL29:
 380              	.LBB162:
 381              	.LBB160:
 382              		.loc 1 176 0
 383 006a FFF7FEFF 		bl	chThdRelease
 384              	.LVL30:
 385              	.LBE160:
 386              	.LBE162:
 387              		.loc 1 207 0
 388 006e 2046     		mov	r0, r4
 389 0070 BDE8F883 		pop	{r3, r4, r5, r6, r7, r8, r9, pc}
 390              	.LVL31:
 391              	.L22:
 392              		.align	2
 393              	.L21:
 394 0074 00000000 		.word	ch
 395              		.cfi_endproc
 396              	.LFE222:
 397              		.size	chRegFindThreadByName, .-chRegFindThreadByName
 398              		.section	.text.chRegFindThreadByPointer,"ax",%progbits
 399              		.align	1
ARM GAS  C:\Users\14122\AppData\Local\Temp\ccbCkaAg.s 			page 8


 400              		.p2align 4,,15
 401              		.global	chRegFindThreadByPointer
 402              		.syntax unified
 403              		.thumb
 404              		.thumb_func
 405              		.fpu softvfp
 406              		.type	chRegFindThreadByPointer, %function
 407              	chRegFindThreadByPointer:
 408              	.LFB223:
 409              		.loc 1 221 0
 410              		.cfi_startproc
 411              		@ args = 0, pretend = 0, frame = 0
 412              		@ frame_needed = 0, uses_anonymous_args = 0
 413              	.LVL32:
 414 0000 2DE9F041 		push	{r4, r5, r6, r7, r8, lr}
 415              		.cfi_def_cfa_offset 24
 416              		.cfi_offset 4, -24
 417              		.cfi_offset 5, -20
 418              		.cfi_offset 6, -16
 419              		.cfi_offset 7, -12
 420              		.cfi_offset 8, -8
 421              		.cfi_offset 14, -4
 422              		.loc 1 221 0
 423 0004 0546     		mov	r5, r0
 424              	.LBB163:
 425              	.LBB164:
 426              	.LBB165:
 427              	.LBB166:
 428              	.LBB167:
 429              	.LBB168:
 430              		.loc 2 493 0
 431 0006 2026     		movs	r6, #32
 432              		.syntax unified
 433              	@ 493 ".//os/common/ext/ARM/CMSIS/Core/Include/cmsis_gcc.h" 1
 434 0008 86F31188 		MSR basepri, r6
 435              	@ 0 "" 2
 436              	.LVL33:
 437              		.thumb
 438              		.syntax unified
 439              	.LBE168:
 440              	.LBE167:
 441              	.LBE166:
 442              	.LBE165:
 443              		.loc 1 138 0
 444 000c DFF86480 		ldr	r8, .L32
 445              	.LBB169:
 446              	.LBB170:
 447              	.LBB171:
 448              	.LBB172:
 449              	.LBB173:
 450              		.loc 2 493 0
 451 0010 0027     		movs	r7, #0
 452              	.LBE173:
 453              	.LBE172:
 454              	.LBE171:
 455              	.LBE170:
 456              	.LBE169:
ARM GAS  C:\Users\14122\AppData\Local\Temp\ccbCkaAg.s 			page 9


 457              		.loc 1 138 0
 458 0012 D8F81000 		ldr	r0, [r8, #16]
 459              	.LVL34:
 460              		.loc 1 140 0
 461 0016 90F82230 		ldrb	r3, [r0, #34]	@ zero_extendqisi2
 462 001a 0133     		adds	r3, r3, #1
 463 001c 80F82230 		strb	r3, [r0, #34]
 464              	.LVL35:
 465              	.LBB178:
 466              	.LBB177:
 467              	.LBB176:
 468              	.LBB175:
 469              	.LBB174:
 470              		.loc 2 493 0
 471              		.syntax unified
 472              	@ 493 ".//os/common/ext/ARM/CMSIS/Core/Include/cmsis_gcc.h" 1
 473 0020 87F31188 		MSR basepri, r7
 474              	@ 0 "" 2
 475              	.LVL36:
 476              		.thumb
 477              		.syntax unified
 478              	.LBE174:
 479              	.LBE175:
 480              	.LBE176:
 481              	.LBE177:
 482              	.LBE178:
 483              	.LBE164:
 484              	.LBE163:
 485              		.loc 1 227 0
 486 0024 8542     		cmp	r5, r0
 487 0026 1FD0     		beq	.L23
 488              	.LVL37:
 489              	.LBB179:
 490              	.LBB180:
 491              	.LBB181:
 492              	.LBB182:
 493              	.LBB183:
 494              	.LBB184:
 495              		.loc 2 493 0
 496              		.syntax unified
 497              	@ 493 ".//os/common/ext/ARM/CMSIS/Core/Include/cmsis_gcc.h" 1
 498 0028 86F31188 		MSR basepri, r6
 499              	@ 0 "" 2
 500              	.LVL38:
 501              		.thumb
 502              		.syntax unified
 503              	.LBE184:
 504              	.LBE183:
 505              	.LBE182:
 506              	.LBE181:
 507              		.loc 1 162 0
 508 002c 0469     		ldr	r4, [r0, #16]
 509              	.LVL39:
 510              		.loc 1 164 0
 511 002e 4445     		cmp	r4, r8
 512 0030 12D0     		beq	.L28
 513              	.LVL40:
ARM GAS  C:\Users\14122\AppData\Local\Temp\ccbCkaAg.s 			page 10


 514              	.L26:
 515              		.loc 1 171 0
 516 0032 94F82230 		ldrb	r3, [r4, #34]	@ zero_extendqisi2
 517 0036 0133     		adds	r3, r3, #1
 518 0038 84F82230 		strb	r3, [r4, #34]
 519              	.LVL41:
 520              	.LBB188:
 521              	.LBB189:
 522              	.LBB190:
 523              	.LBB191:
 524              	.LBB192:
 525              		.loc 2 493 0
 526              		.syntax unified
 527              	@ 493 ".//os/common/ext/ARM/CMSIS/Core/Include/cmsis_gcc.h" 1
 528 003c 87F31188 		MSR basepri, r7
 529              	@ 0 "" 2
 530              	.LVL42:
 531              		.thumb
 532              		.syntax unified
 533              	.LBE192:
 534              	.LBE191:
 535              	.LBE190:
 536              	.LBE189:
 537              	.LBE188:
 538              		.loc 1 176 0
 539 0040 FFF7FEFF 		bl	chThdRelease
 540              	.LVL43:
 541              	.LBE180:
 542              	.LBE179:
 543              		.loc 1 227 0
 544 0044 A542     		cmp	r5, r4
 545 0046 11D0     		beq	.L31
 546              	.LBB200:
 547              	.LBB199:
 548              	.LBB197:
 549              	.LBB187:
 550              	.LBB186:
 551              	.LBB185:
 552              		.loc 2 493 0
 553              		.syntax unified
 554              	@ 493 ".//os/common/ext/ARM/CMSIS/Core/Include/cmsis_gcc.h" 1
 555 0048 86F31188 		MSR basepri, r6
 556              	@ 0 "" 2
 557              	.LVL44:
 558              		.thumb
 559              		.syntax unified
 560              	.LBE185:
 561              	.LBE186:
 562              	.LBE187:
 563              	.LBE197:
 564              		.loc 1 162 0
 565 004c 2369     		ldr	r3, [r4, #16]
 566              	.LVL45:
 567 004e 2046     		mov	r0, r4
 568              		.loc 1 164 0
 569 0050 4345     		cmp	r3, r8
 570 0052 02D0     		beq	.L25
ARM GAS  C:\Users\14122\AppData\Local\Temp\ccbCkaAg.s 			page 11


 571 0054 1C46     		mov	r4, r3
 572              	.LVL46:
 573 0056 ECE7     		b	.L26
 574              	.LVL47:
 575              	.L28:
 576 0058 0446     		mov	r4, r0
 577              	.LVL48:
 578              	.L25:
 579              	.LBB198:
 580              	.LBB196:
 581              	.LBB195:
 582              	.LBB194:
 583              	.LBB193:
 584              		.loc 2 493 0
 585 005a 0025     		movs	r5, #0
 586              	.LVL49:
 587              		.syntax unified
 588              	@ 493 ".//os/common/ext/ARM/CMSIS/Core/Include/cmsis_gcc.h" 1
 589 005c 85F31188 		MSR basepri, r5
 590              	@ 0 "" 2
 591              	.LVL50:
 592              		.thumb
 593              		.syntax unified
 594              	.LBE193:
 595              	.LBE194:
 596              	.LBE195:
 597              	.LBE196:
 598              	.LBE198:
 599              		.loc 1 176 0
 600 0060 2046     		mov	r0, r4
 601              	.LVL51:
 602 0062 FFF7FEFF 		bl	chThdRelease
 603              	.LVL52:
 604              	.LBE199:
 605              	.LBE200:
 606              		.loc 1 233 0
 607 0066 2846     		mov	r0, r5
 608              	.L23:
 609              		.loc 1 234 0
 610 0068 BDE8F081 		pop	{r4, r5, r6, r7, r8, pc}
 611              	.LVL53:
 612              	.L31:
 613 006c 2846     		mov	r0, r5
 614 006e BDE8F081 		pop	{r4, r5, r6, r7, r8, pc}
 615              	.LVL54:
 616              	.L33:
 617 0072 00BF     		.align	2
 618              	.L32:
 619 0074 00000000 		.word	ch
 620              		.cfi_endproc
 621              	.LFE223:
 622              		.size	chRegFindThreadByPointer, .-chRegFindThreadByPointer
 623              		.section	.text.chRegFindThreadByWorkingArea,"ax",%progbits
 624              		.align	1
 625              		.p2align 4,,15
 626              		.global	chRegFindThreadByWorkingArea
 627              		.syntax unified
ARM GAS  C:\Users\14122\AppData\Local\Temp\ccbCkaAg.s 			page 12


 628              		.thumb
 629              		.thumb_func
 630              		.fpu softvfp
 631              		.type	chRegFindThreadByWorkingArea, %function
 632              	chRegFindThreadByWorkingArea:
 633              	.LFB224:
 634              		.loc 1 250 0
 635              		.cfi_startproc
 636              		@ args = 0, pretend = 0, frame = 0
 637              		@ frame_needed = 0, uses_anonymous_args = 0
 638              	.LVL55:
 639 0000 2DE9F041 		push	{r4, r5, r6, r7, r8, lr}
 640              		.cfi_def_cfa_offset 24
 641              		.cfi_offset 4, -24
 642              		.cfi_offset 5, -20
 643              		.cfi_offset 6, -16
 644              		.cfi_offset 7, -12
 645              		.cfi_offset 8, -8
 646              		.cfi_offset 14, -4
 647              		.loc 1 250 0
 648 0004 0646     		mov	r6, r0
 649              	.LBB201:
 650              	.LBB202:
 651              	.LBB203:
 652              	.LBB204:
 653              	.LBB205:
 654              	.LBB206:
 655              		.loc 2 493 0
 656 0006 2025     		movs	r5, #32
 657              		.syntax unified
 658              	@ 493 ".//os/common/ext/ARM/CMSIS/Core/Include/cmsis_gcc.h" 1
 659 0008 85F31188 		MSR basepri, r5
 660              	@ 0 "" 2
 661              	.LVL56:
 662              		.thumb
 663              		.syntax unified
 664              	.LBE206:
 665              	.LBE205:
 666              	.LBE204:
 667              	.LBE203:
 668              		.loc 1 138 0
 669 000c DFF86880 		ldr	r8, .L43
 670              	.LBB207:
 671              	.LBB208:
 672              	.LBB209:
 673              	.LBB210:
 674              	.LBB211:
 675              		.loc 2 493 0
 676 0010 0027     		movs	r7, #0
 677              	.LBE211:
 678              	.LBE210:
 679              	.LBE209:
 680              	.LBE208:
 681              	.LBE207:
 682              		.loc 1 138 0
 683 0012 D8F81000 		ldr	r0, [r8, #16]
 684              	.LVL57:
ARM GAS  C:\Users\14122\AppData\Local\Temp\ccbCkaAg.s 			page 13


 685              		.loc 1 140 0
 686 0016 90F82230 		ldrb	r3, [r0, #34]	@ zero_extendqisi2
 687 001a 0133     		adds	r3, r3, #1
 688 001c 80F82230 		strb	r3, [r0, #34]
 689              	.LVL58:
 690              	.LBB216:
 691              	.LBB215:
 692              	.LBB214:
 693              	.LBB213:
 694              	.LBB212:
 695              		.loc 2 493 0
 696              		.syntax unified
 697              	@ 493 ".//os/common/ext/ARM/CMSIS/Core/Include/cmsis_gcc.h" 1
 698 0020 87F31188 		MSR basepri, r7
 699              	@ 0 "" 2
 700              	.LVL59:
 701              		.thumb
 702              		.syntax unified
 703              	.LBE212:
 704              	.LBE213:
 705              	.LBE214:
 706              	.LBE215:
 707              	.LBE216:
 708              	.LBE202:
 709              	.LBE201:
 710              		.loc 1 256 0
 711 0024 C369     		ldr	r3, [r0, #28]
 712 0026 9E42     		cmp	r6, r3
 713 0028 23D0     		beq	.L39
 714              	.LVL60:
 715              	.LBB217:
 716              	.LBB218:
 717              	.LBB219:
 718              	.LBB220:
 719              	.LBB221:
 720              	.LBB222:
 721              		.loc 2 493 0
 722              		.syntax unified
 723              	@ 493 ".//os/common/ext/ARM/CMSIS/Core/Include/cmsis_gcc.h" 1
 724 002a 85F31188 		MSR basepri, r5
 725              	@ 0 "" 2
 726              	.LVL61:
 727              		.thumb
 728              		.syntax unified
 729              	.LBE222:
 730              	.LBE221:
 731              	.LBE220:
 732              	.LBE219:
 733              		.loc 1 162 0
 734 002e 0469     		ldr	r4, [r0, #16]
 735              	.LVL62:
 736              		.loc 1 164 0
 737 0030 4445     		cmp	r4, r8
 738 0032 13D0     		beq	.L40
 739              	.LVL63:
 740              	.L37:
 741              		.loc 1 171 0
ARM GAS  C:\Users\14122\AppData\Local\Temp\ccbCkaAg.s 			page 14


 742 0034 94F82230 		ldrb	r3, [r4, #34]	@ zero_extendqisi2
 743 0038 0133     		adds	r3, r3, #1
 744 003a 84F82230 		strb	r3, [r4, #34]
 745              	.LVL64:
 746              	.LBB226:
 747              	.LBB227:
 748              	.LBB228:
 749              	.LBB229:
 750              	.LBB230:
 751              		.loc 2 493 0
 752              		.syntax unified
 753              	@ 493 ".//os/common/ext/ARM/CMSIS/Core/Include/cmsis_gcc.h" 1
 754 003e 87F31188 		MSR basepri, r7
 755              	@ 0 "" 2
 756              	.LVL65:
 757              		.thumb
 758              		.syntax unified
 759              	.LBE230:
 760              	.LBE229:
 761              	.LBE228:
 762              	.LBE227:
 763              	.LBE226:
 764              		.loc 1 176 0
 765 0042 FFF7FEFF 		bl	chThdRelease
 766              	.LVL66:
 767              	.LBE218:
 768              	.LBE217:
 769              		.loc 1 256 0
 770 0046 E369     		ldr	r3, [r4, #28]
 771 0048 9E42     		cmp	r6, r3
 772 004a 0FD0     		beq	.L34
 773              	.LBB238:
 774              	.LBB237:
 775              	.LBB235:
 776              	.LBB225:
 777              	.LBB224:
 778              	.LBB223:
 779              		.loc 2 493 0
 780              		.syntax unified
 781              	@ 493 ".//os/common/ext/ARM/CMSIS/Core/Include/cmsis_gcc.h" 1
 782 004c 85F31188 		MSR basepri, r5
 783              	@ 0 "" 2
 784              	.LVL67:
 785              		.thumb
 786              		.syntax unified
 787              	.LBE223:
 788              	.LBE224:
 789              	.LBE225:
 790              	.LBE235:
 791              		.loc 1 162 0
 792 0050 2369     		ldr	r3, [r4, #16]
 793              	.LVL68:
 794 0052 2046     		mov	r0, r4
 795              		.loc 1 164 0
 796 0054 4345     		cmp	r3, r8
 797 0056 02D0     		beq	.L36
 798 0058 1C46     		mov	r4, r3
ARM GAS  C:\Users\14122\AppData\Local\Temp\ccbCkaAg.s 			page 15


 799              	.LVL69:
 800 005a EBE7     		b	.L37
 801              	.LVL70:
 802              	.L40:
 803 005c 0446     		mov	r4, r0
 804              	.LVL71:
 805              	.L36:
 806              	.LBB236:
 807              	.LBB234:
 808              	.LBB233:
 809              	.LBB232:
 810              	.LBB231:
 811              		.loc 2 493 0
 812 005e 0025     		movs	r5, #0
 813              		.syntax unified
 814              	@ 493 ".//os/common/ext/ARM/CMSIS/Core/Include/cmsis_gcc.h" 1
 815 0060 85F31188 		MSR basepri, r5
 816              	@ 0 "" 2
 817              	.LVL72:
 818              		.thumb
 819              		.syntax unified
 820              	.LBE231:
 821              	.LBE232:
 822              	.LBE233:
 823              	.LBE234:
 824              	.LBE236:
 825              		.loc 1 176 0
 826 0064 2046     		mov	r0, r4
 827              	.LVL73:
 828 0066 FFF7FEFF 		bl	chThdRelease
 829              	.LVL74:
 830              	.LBE237:
 831              	.LBE238:
 832              		.loc 1 262 0
 833 006a 2C46     		mov	r4, r5
 834              	.LVL75:
 835              	.L34:
 836              		.loc 1 263 0
 837 006c 2046     		mov	r0, r4
 838 006e BDE8F081 		pop	{r4, r5, r6, r7, r8, pc}
 839              	.LVL76:
 840              	.L39:
 841              		.loc 1 256 0
 842 0072 0446     		mov	r4, r0
 843 0074 FAE7     		b	.L34
 844              	.L44:
 845 0076 00BF     		.align	2
 846              	.L43:
 847 0078 00000000 		.word	ch
 848              		.cfi_endproc
 849              	.LFE224:
 850              		.size	chRegFindThreadByWorkingArea, .-chRegFindThreadByWorkingArea
 851              		.global	ch_debug
 852              		.section	.rodata.ch_debug,"a",%progbits
 853              		.align	2
 854              		.type	ch_debug, %object
 855              		.size	ch_debug, 22
ARM GAS  C:\Users\14122\AppData\Local\Temp\ccbCkaAg.s 			page 16


 856              	ch_debug:
 857 0000 6D       		.byte	109
 858 0001 61       		.byte	97
 859 0002 69       		.byte	105
 860 0003 6E       		.byte	110
 861 0004 00       		.byte	0
 862 0005 16       		.byte	22
 863 0006 0030     		.short	12288
 864 0008 04       		.byte	4
 865 0009 02       		.byte	2
 866 000a 44       		.byte	68
 867 000b 08       		.byte	8
 868 000c 0C       		.byte	12
 869 000d 10       		.byte	16
 870 000e 14       		.byte	20
 871 000f 18       		.byte	24
 872 0010 1C       		.byte	28
 873 0011 20       		.byte	32
 874 0012 21       		.byte	33
 875 0013 22       		.byte	34
 876 0014 00       		.byte	0
 877 0015 00       		.byte	0
 878              		.text
 879              	.Letext0:
 880              		.file 3 "c:\\chibistudio\\tools\\gnu tools arm embedded\\7.0 2017q4\\lib\\gcc\\arm-none-eabi\\7.2.
 881              		.file 4 "c:\\chibistudio\\tools\\gnu tools arm embedded\\7.0 2017q4\\arm-none-eabi\\include\\machi
 882              		.file 5 "c:\\chibistudio\\tools\\gnu tools arm embedded\\7.0 2017q4\\arm-none-eabi\\include\\sys\\
 883              		.file 6 "c:\\chibistudio\\tools\\gnu tools arm embedded\\7.0 2017q4\\arm-none-eabi\\include\\sys\\
 884              		.file 7 "c:\\chibistudio\\tools\\gnu tools arm embedded\\7.0 2017q4\\arm-none-eabi\\include\\sys\\
 885              		.file 8 "c:\\chibistudio\\tools\\gnu tools arm embedded\\7.0 2017q4\\arm-none-eabi\\include\\sys\\
 886              		.file 9 ".//os/common/ports/ARMCMx/compilers/GCC/chtypes.h"
 887              		.file 10 ".//os/rt/include/chsystypes.h"
 888              		.file 11 ".//os/rt/include/chschd.h"
 889              		.file 12 ".//os/rt/include/chtime.h"
 890              		.file 13 ".//os/common/ext/ARM/CMSIS/Core/Include/core_cm3.h"
 891              		.file 14 ".//os/common/ext/ST/STM32F1xx/system_stm32f1xx.h"
 892              		.file 15 ".//os/common/ports/ARMCMx/chcore.h"
 893              		.file 16 ".//os/common/ports/ARMCMx/chcore_v7m.h"
 894              		.file 17 ".//os/rt/include/chsem.h"
 895              		.file 18 ".//os/rt/include/chmtx.h"
 896              		.file 19 ".//os/rt/include/chsys.h"
 897              		.file 20 ".//os/rt/include/chregistry.h"
 898              		.file 21 ".//os/lib/include/chmemcore.h"
 899              		.file 22 ".//os/lib/include/chmempools.h"
 900              		.file 23 ".//os/lib/include/chfactory.h"
 901              		.file 24 ".//os/rt/include/chthreads.h"
 902              		.file 25 "c:\\chibistudio\\tools\\gnu tools arm embedded\\7.0 2017q4\\arm-none-eabi\\include\\stri