ARM GAS  C:\Users\14122\AppData\Local\Temp\ccEX8O8P.s 			page 1


   1              		.cpu cortex-m3
   2              		.eabi_attribute 20, 1
   3              		.eabi_attribute 21, 1
   4              		.eabi_attribute 23, 3
   5              		.eabi_attribute 24, 1
   6              		.eabi_attribute 25, 1
   7              		.eabi_attribute 26, 1
   8              		.eabi_attribute 30, 2
   9              		.eabi_attribute 34, 1
  10              		.eabi_attribute 18, 4
  11              		.file	"chschd.c"
  12              		.text
  13              	.Ltext0:
  14              		.cfi_sections	.debug_frame
  15              		.section	.text.wakeup,"ax",%progbits
  16              		.align	1
  17              		.p2align 4,,15
  18              		.syntax unified
  19              		.thumb
  20              		.thumb_func
  21              		.fpu softvfp
  22              		.type	wakeup, %function
  23              	wakeup:
  24              	.LFB224:
  25              		.file 1 ".//os/rt/src/chschd.c"
  26              		.loc 1 319 0
  27              		.cfi_startproc
  28              		@ args = 0, pretend = 0, frame = 0
  29              		@ frame_needed = 0, uses_anonymous_args = 0
  30              		@ link register save eliminated.
  31              	.LVL0:
  32              	.LBB133:
  33              	.LBB134:
  34              	.LBB135:
  35              	.LBB136:
  36              	.LBB137:
  37              		.file 2 ".//os/common/ext/ARM/CMSIS/Core/Include/cmsis_gcc.h"
  38              		.loc 2 493 0
  39 0000 2023     		movs	r3, #32
  40              		.syntax unified
  41              	@ 493 ".//os/common/ext/ARM/CMSIS/Core/Include/cmsis_gcc.h" 1
  42 0002 83F31188 		MSR basepri, r3
  43              	@ 0 "" 2
  44              	.LVL1:
  45              		.thumb
  46              		.syntax unified
  47              	.LBE137:
  48              	.LBE136:
  49              	.LBE135:
  50              	.LBE134:
  51              	.LBE133:
  52              		.loc 1 323 0
  53 0006 90F82030 		ldrb	r3, [r0, #32]	@ zero_extendqisi2
  54 000a 072B     		cmp	r3, #7
  55 000c 0ED8     		bhi	.L2
  56 000e DFE803F0 		tbb	[pc, r3]
  57              	.L4:
ARM GAS  C:\Users\14122\AppData\Local\Temp\ccEX8O8P.s 			page 2


  58 0012 28       		.byte	(.L3-.L4)/2
  59 0013 0D       		.byte	(.L2-.L4)/2
  60 0014 0D       		.byte	(.L2-.L4)/2
  61 0015 24       		.byte	(.L5-.L4)/2
  62 0016 08       		.byte	(.L6-.L4)/2
  63 0017 04       		.byte	(.L7-.L4)/2
  64 0018 0D       		.byte	(.L2-.L4)/2
  65 0019 08       		.byte	(.L6-.L4)/2
  66              		.p2align 1
  67              	.L7:
  68              		.loc 1 334 0
  69 001a 426A     		ldr	r2, [r0, #36]
  70              	.LVL2:
  71              	.LBB138:
  72              	.LBB139:
  73              		.file 3 ".//os/rt/include/chsem.h"
  74              		.loc 3 138 0
  75 001c 9368     		ldr	r3, [r2, #8]
  76 001e 0133     		adds	r3, r3, #1
  77 0020 9360     		str	r3, [r2, #8]
  78              	.LVL3:
  79              	.L6:
  80              	.LBE139:
  81              	.LBE138:
  82              	.LBB140:
  83              	.LBB141:
  84              		.file 4 ".//os/rt/include/chschd.h"
  85              		.loc 4 626 0
  86 0022 D0E90023 		ldrd	r2, r3, [r0]
  87 0026 1A60     		str	r2, [r3]
  88              		.loc 4 627 0
  89 0028 0268     		ldr	r2, [r0]
  90 002a 5360     		str	r3, [r2, #4]
  91              	.LVL4:
  92              	.L2:
  93              	.LBE141:
  94              	.LBE140:
  95              		.loc 1 319 0
  96 002c 10B4     		push	{r4}
  97              		.cfi_def_cfa_offset 4
  98              		.cfi_offset 4, -4
  99              	.LBB142:
 100              	.LBB143:
 101              		.loc 1 227 0
 102 002e 0022     		movs	r2, #0
 103              	.LBE143:
 104              	.LBE142:
 105              		.loc 1 349 0
 106 0030 4FF0FF34 		mov	r4, #-1
 107              	.LBB145:
 108              	.LBB146:
 109              	.LBB147:
 110              	.LBB148:
 111              		.loc 1 231 0
 112 0034 8168     		ldr	r1, [r0, #8]
 113              		.loc 1 228 0
 114 0036 0D4B     		ldr	r3, .L15
ARM GAS  C:\Users\14122\AppData\Local\Temp\ccEX8O8P.s 			page 3


 115              	.LBE148:
 116              	.LBE147:
 117              	.LBE146:
 118              	.LBE145:
 119              		.loc 1 349 0
 120 0038 4462     		str	r4, [r0, #36]
 121              	.LVL5:
 122              	.LBB164:
 123              	.LBB144:
 124              		.loc 1 227 0
 125 003a 80F82020 		strb	r2, [r0, #32]
 126              	.LVL6:
 127              	.L9:
 128              	.LBE144:
 129              	.LBE164:
 130              	.LBB165:
 131              	.LBB163:
 132              	.LBB151:
 133              	.LBB149:
 134              		.loc 1 230 0
 135 003e 1B68     		ldr	r3, [r3]
 136              	.LVL7:
 137              		.loc 1 231 0
 138 0040 9A68     		ldr	r2, [r3, #8]
 139 0042 8A42     		cmp	r2, r1
 140 0044 FBD2     		bcs	.L9
 141              		.loc 1 234 0
 142 0046 5A68     		ldr	r2, [r3, #4]
 143              	.LBE149:
 144              	.LBE151:
 145              	.LBB152:
 146              	.LBB153:
 147              	.LBB154:
 148              	.LBB155:
 149              	.LBB156:
 150              		.loc 2 493 0
 151 0048 0021     		movs	r1, #0
 152              	.LBE156:
 153              	.LBE155:
 154              	.LBE154:
 155              	.LBE153:
 156              	.LBE152:
 157              	.LBB161:
 158              	.LBB150:
 159              		.loc 1 234 0
 160 004a C0E90032 		strd	r3, r2, [r0]
 161              		.loc 1 235 0
 162 004e 1060     		str	r0, [r2]
 163              		.loc 1 236 0
 164 0050 5860     		str	r0, [r3, #4]
 165              	.LVL8:
 166              	.LBE150:
 167              	.LBE161:
 168              	.LBB162:
 169              	.LBB160:
 170              	.LBB159:
 171              	.LBB158:
ARM GAS  C:\Users\14122\AppData\Local\Temp\ccEX8O8P.s 			page 4


 172              	.LBB157:
 173              		.loc 2 493 0
 174              		.syntax unified
 175              	@ 493 ".//os/common/ext/ARM/CMSIS/Core/Include/cmsis_gcc.h" 1
 176 0052 81F31188 		MSR basepri, r1
 177              	@ 0 "" 2
 178              	.LVL9:
 179              		.thumb
 180              		.syntax unified
 181              	.LBE157:
 182              	.LBE158:
 183              	.LBE159:
 184              	.LBE160:
 185              	.LBE162:
 186              	.LBE163:
 187              	.LBE165:
 188              		.loc 1 352 0
 189 0056 10BC     		pop	{r4}
 190              		.cfi_restore 4
 191              		.cfi_def_cfa_offset 0
 192 0058 7047     		bx	lr
 193              	.LVL10:
 194              	.L5:
 195              		.loc 1 330 0
 196 005a 0022     		movs	r2, #0
 197 005c 436A     		ldr	r3, [r0, #36]
 198 005e 1A60     		str	r2, [r3]
 199              		.loc 1 331 0
 200 0060 E4E7     		b	.L2
 201              	.L3:
 202              	.LVL11:
 203              	.LBB166:
 204              	.LBB167:
 205              	.LBB168:
 206              	.LBB169:
 207              	.LBB170:
 208              		.loc 2 493 0
 209 0062 0023     		movs	r3, #0
 210              		.syntax unified
 211              	@ 493 ".//os/common/ext/ARM/CMSIS/Core/Include/cmsis_gcc.h" 1
 212 0064 83F31188 		MSR basepri, r3
 213              	@ 0 "" 2
 214              	.LVL12:
 215              		.thumb
 216              		.syntax unified
 217 0068 7047     		bx	lr
 218              	.L16:
 219 006a 00BF     		.align	2
 220              	.L15:
 221 006c 00000000 		.word	.LANCHOR0
 222              	.LBE170:
 223              	.LBE169:
 224              	.LBE168:
 225              	.LBE167:
 226              	.LBE166:
 227              		.cfi_endproc
 228              	.LFE224:
ARM GAS  C:\Users\14122\AppData\Local\Temp\ccEX8O8P.s 			page 5


 229              		.size	wakeup, .-wakeup
 230              		.section	.text._scheduler_init,"ax",%progbits
 231              		.align	1
 232              		.p2align 4,,15
 233              		.global	_scheduler_init
 234              		.syntax unified
 235              		.thumb
 236              		.thumb_func
 237              		.fpu softvfp
 238              		.type	_scheduler_init, %function
 239              	_scheduler_init:
 240              	.LFB220:
 241              		.loc 1 65 0
 242              		.cfi_startproc
 243              		@ args = 0, pretend = 0, frame = 0
 244              		@ frame_needed = 0, uses_anonymous_args = 0
 245              		@ link register save eliminated.
 246              	.LVL13:
 247              		.loc 1 68 0
 248 0000 0022     		movs	r2, #0
 249              	.LBB171:
 250              	.LBB172:
 251              		.loc 4 539 0
 252 0002 034B     		ldr	r3, .L18
 253              	.LBE172:
 254              	.LBE171:
 255              		.loc 1 68 0
 256 0004 9A60     		str	r2, [r3, #8]
 257              	.LBB174:
 258              	.LBB173:
 259              		.loc 4 540 0
 260 0006 C3E90033 		strd	r3, r3, [r3]
 261              	.LVL14:
 262              	.LBE173:
 263              	.LBE174:
 264              		.loc 1 71 0
 265 000a C3E90433 		strd	r3, r3, [r3, #16]
 266              		.loc 1 73 0
 267 000e 7047     		bx	lr
 268              	.L19:
 269              		.align	2
 270              	.L18:
 271 0010 00000000 		.word	.LANCHOR0
 272              		.cfi_endproc
 273              	.LFE220:
 274              		.size	_scheduler_init, .-_scheduler_init
 275              		.section	.text.chSchReadyI,"ax",%progbits
 276              		.align	1
 277              		.p2align 4,,15
 278              		.global	chSchReadyI
 279              		.syntax unified
 280              		.thumb
 281              		.thumb_func
 282              		.fpu softvfp
 283              		.type	chSchReadyI, %function
 284              	chSchReadyI:
 285              	.LFB221:
ARM GAS  C:\Users\14122\AppData\Local\Temp\ccEX8O8P.s 			page 6


 286              		.loc 1 218 0
 287              		.cfi_startproc
 288              		@ args = 0, pretend = 0, frame = 0
 289              		@ frame_needed = 0, uses_anonymous_args = 0
 290              		@ link register save eliminated.
 291              	.LVL15:
 292              		.loc 1 218 0
 293 0000 0146     		mov	r1, r0
 294              		.loc 1 227 0
 295 0002 0022     		movs	r2, #0
 296              		.loc 1 228 0
 297 0004 074B     		ldr	r3, .L23
 298              		.loc 1 231 0
 299 0006 8068     		ldr	r0, [r0, #8]
 300              	.LVL16:
 301              		.loc 1 227 0
 302 0008 81F82020 		strb	r2, [r1, #32]
 303              	.LVL17:
 304              	.L21:
 305              		.loc 1 230 0 discriminator 1
 306 000c 1B68     		ldr	r3, [r3]
 307              	.LVL18:
 308              		.loc 1 231 0 discriminator 1
 309 000e 9A68     		ldr	r2, [r3, #8]
 310 0010 8242     		cmp	r2, r0
 311 0012 FBD2     		bcs	.L21
 312              		.loc 1 234 0
 313 0014 5A68     		ldr	r2, [r3, #4]
 314              		.loc 1 239 0
 315 0016 0846     		mov	r0, r1
 316              		.loc 1 234 0
 317 0018 C1E90032 		strd	r3, r2, [r1]
 318              		.loc 1 235 0
 319 001c 1160     		str	r1, [r2]
 320              		.loc 1 236 0
 321 001e 5960     		str	r1, [r3, #4]
 322              		.loc 1 239 0
 323 0020 7047     		bx	lr
 324              	.L24:
 325 0022 00BF     		.align	2
 326              	.L23:
 327 0024 00000000 		.word	.LANCHOR0
 328              		.cfi_endproc
 329              	.LFE221:
 330              		.size	chSchReadyI, .-chSchReadyI
 331              		.section	.text.chSchReadyAheadI,"ax",%progbits
 332              		.align	1
 333              		.p2align 4,,15
 334              		.global	chSchReadyAheadI
 335              		.syntax unified
 336              		.thumb
 337              		.thumb_func
 338              		.fpu softvfp
 339              		.type	chSchReadyAheadI, %function
 340              	chSchReadyAheadI:
 341              	.LFB222:
 342              		.loc 1 257 0
ARM GAS  C:\Users\14122\AppData\Local\Temp\ccEX8O8P.s 			page 7


 343              		.cfi_startproc
 344              		@ args = 0, pretend = 0, frame = 0
 345              		@ frame_needed = 0, uses_anonymous_args = 0
 346              		@ link register save eliminated.
 347              	.LVL19:
 348              		.loc 1 257 0
 349 0000 0146     		mov	r1, r0
 350              		.loc 1 266 0
 351 0002 0022     		movs	r2, #0
 352              		.loc 1 267 0
 353 0004 074B     		ldr	r3, .L28
 354              		.loc 1 270 0
 355 0006 8068     		ldr	r0, [r0, #8]
 356              	.LVL20:
 357              		.loc 1 266 0
 358 0008 81F82020 		strb	r2, [r1, #32]
 359              	.LVL21:
 360              	.L26:
 361              		.loc 1 269 0 discriminator 1
 362 000c 1B68     		ldr	r3, [r3]
 363              	.LVL22:
 364              		.loc 1 270 0 discriminator 1
 365 000e 9A68     		ldr	r2, [r3, #8]
 366 0010 8242     		cmp	r2, r0
 367 0012 FBD8     		bhi	.L26
 368              		.loc 1 273 0
 369 0014 5A68     		ldr	r2, [r3, #4]
 370              		.loc 1 278 0
 371 0016 0846     		mov	r0, r1
 372              		.loc 1 273 0
 373 0018 C1E90032 		strd	r3, r2, [r1]
 374              		.loc 1 274 0
 375 001c 1160     		str	r1, [r2]
 376              		.loc 1 275 0
 377 001e 5960     		str	r1, [r3, #4]
 378              		.loc 1 278 0
 379 0020 7047     		bx	lr
 380              	.L29:
 381 0022 00BF     		.align	2
 382              	.L28:
 383 0024 00000000 		.word	.LANCHOR0
 384              		.cfi_endproc
 385              	.LFE222:
 386              		.size	chSchReadyAheadI, .-chSchReadyAheadI
 387              		.section	.text.chSchGoSleepS,"ax",%progbits
 388              		.align	1
 389              		.p2align 4,,15
 390              		.global	chSchGoSleepS
 391              		.syntax unified
 392              		.thumb
 393              		.thumb_func
 394              		.fpu softvfp
 395              		.type	chSchGoSleepS, %function
 396              	chSchGoSleepS:
 397              	.LFB223:
 398              		.loc 1 289 0
 399              		.cfi_startproc
ARM GAS  C:\Users\14122\AppData\Local\Temp\ccEX8O8P.s 			page 8


 400              		@ args = 0, pretend = 0, frame = 0
 401              		@ frame_needed = 0, uses_anonymous_args = 0
 402              		@ link register save eliminated.
 403              	.LVL23:
 404 0000 30B4     		push	{r4, r5}
 405              		.cfi_def_cfa_offset 8
 406              		.cfi_offset 4, -8
 407              		.cfi_offset 5, -4
 408              		.loc 1 305 0
 409 0002 0125     		movs	r5, #1
 410              		.loc 1 290 0
 411 0004 074B     		ldr	r3, .L32
 412 0006 9969     		ldr	r1, [r3, #24]
 413              	.LVL24:
 414              	.LBB175:
 415              	.LBB176:
 416              		.loc 4 607 0
 417 0008 1A68     		ldr	r2, [r3]
 418              	.LBE176:
 419              	.LBE175:
 420              		.loc 1 295 0
 421 000a 81F82000 		strb	r0, [r1, #32]
 422              	.LVL25:
 423              	.LBB180:
 424              	.LBB177:
 425              		.loc 4 609 0
 426 000e 1468     		ldr	r4, [r2]
 427              	.LBE177:
 428              	.LBE180:
 429              		.loc 1 313 0
 430 0010 1046     		mov	r0, r2
 431              	.LVL26:
 432              	.LBB181:
 433              	.LBB178:
 434              		.loc 4 610 0
 435 0012 6360     		str	r3, [r4, #4]
 436              	.LVL27:
 437              	.LBE178:
 438              	.LBE181:
 439              		.loc 1 305 0
 440 0014 82F82050 		strb	r5, [r2, #32]
 441              	.LBB182:
 442              	.LBB179:
 443              		.loc 4 609 0
 444 0018 1C60     		str	r4, [r3]
 445              	.LBE179:
 446              	.LBE182:
 447              		.loc 1 314 0
 448 001a 30BC     		pop	{r4, r5}
 449              		.cfi_restore 5
 450              		.cfi_restore 4
 451              		.cfi_def_cfa_offset 0
 452              		.loc 1 304 0
 453 001c 9A61     		str	r2, [r3, #24]
 454              		.loc 1 313 0
 455 001e FFF7FEBF 		b	_port_switch
 456              	.LVL28:
ARM GAS  C:\Users\14122\AppData\Local\Temp\ccEX8O8P.s 			page 9


 457              	.L33:
 458 0022 00BF     		.align	2
 459              	.L32:
 460 0024 00000000 		.word	.LANCHOR0
 461              		.cfi_endproc
 462              	.LFE223:
 463              		.size	chSchGoSleepS, .-chSchGoSleepS
 464              		.section	.text.chSchGoSleepTimeoutS,"ax",%progbits
 465              		.align	1
 466              		.p2align 4,,15
 467              		.global	chSchGoSleepTimeoutS
 468              		.syntax unified
 469              		.thumb
 470              		.thumb_func
 471              		.fpu softvfp
 472              		.type	chSchGoSleepTimeoutS, %function
 473              	chSchGoSleepTimeoutS:
 474              	.LFB225:
 475              		.loc 1 375 0
 476              		.cfi_startproc
 477              		@ args = 0, pretend = 0, frame = 24
 478              		@ frame_needed = 0, uses_anonymous_args = 0
 479              	.LVL29:
 480 0000 30B5     		push	{r4, r5, lr}
 481              		.cfi_def_cfa_offset 12
 482              		.cfi_offset 4, -12
 483              		.cfi_offset 5, -8
 484              		.cfi_offset 14, -4
 485              		.loc 1 379 0
 486 0002 4B1C     		adds	r3, r1, #1
 487              		.loc 1 375 0
 488 0004 87B0     		sub	sp, sp, #28
 489              		.cfi_def_cfa_offset 40
 490              		.loc 1 379 0
 491 0006 12D0     		beq	.L35
 492 0008 0546     		mov	r5, r0
 493              	.LBB183:
 494              		.loc 1 382 0
 495 000a 0C4C     		ldr	r4, .L42
 496 000c 01A8     		add	r0, sp, #4
 497              	.LVL30:
 498 000e A369     		ldr	r3, [r4, #24]
 499 0010 0B4A     		ldr	r2, .L42+4
 500 0012 FFF7FEFF 		bl	chVTDoSetI
 501              	.LVL31:
 502              		.loc 1 383 0
 503 0016 2846     		mov	r0, r5
 504 0018 FFF7FEFF 		bl	chSchGoSleepS
 505              	.LVL32:
 506              		.loc 1 384 0
 507 001c 049B     		ldr	r3, [sp, #16]
 508 001e 13B1     		cbz	r3, .L37
 509              		.loc 1 385 0
 510 0020 01A8     		add	r0, sp, #4
 511              	.LVL33:
 512 0022 FFF7FEFF 		bl	chVTDoResetI
 513              	.LVL34:
ARM GAS  C:\Users\14122\AppData\Local\Temp\ccEX8O8P.s 			page 10


 514              	.L37:
 515              	.LBE183:
 516              		.loc 1 392 0
 517 0026 A369     		ldr	r3, [r4, #24]
 518              		.loc 1 393 0
 519 0028 586A     		ldr	r0, [r3, #36]
 520 002a 07B0     		add	sp, sp, #28
 521              		.cfi_remember_state
 522              		.cfi_def_cfa_offset 12
 523              		@ sp needed
 524 002c 30BD     		pop	{r4, r5, pc}
 525              	.LVL35:
 526              	.L35:
 527              		.cfi_restore_state
 528              		.loc 1 389 0
 529 002e FFF7FEFF 		bl	chSchGoSleepS
 530              	.LVL36:
 531 0032 024C     		ldr	r4, .L42
 532              		.loc 1 392 0
 533 0034 A369     		ldr	r3, [r4, #24]
 534              		.loc 1 393 0
 535 0036 586A     		ldr	r0, [r3, #36]
 536 0038 07B0     		add	sp, sp, #28
 537              		.cfi_def_cfa_offset 12
 538              		@ sp needed
 539 003a 30BD     		pop	{r4, r5, pc}
 540              	.L43:
 541              		.align	2
 542              	.L42:
 543 003c 00000000 		.word	.LANCHOR0
 544 0040 00000000 		.word	wakeup
 545              		.cfi_endproc
 546              	.LFE225:
 547              		.size	chSchGoSleepTimeoutS, .-chSchGoSleepTimeoutS
 548              		.section	.text.chSchWakeupS,"ax",%progbits
 549              		.align	1
 550              		.p2align 4,,15
 551              		.global	chSchWakeupS
 552              		.syntax unified
 553              		.thumb
 554              		.thumb_func
 555              		.fpu softvfp
 556              		.type	chSchWakeupS, %function
 557              	chSchWakeupS:
 558              	.LFB226:
 559              		.loc 1 412 0
 560              		.cfi_startproc
 561              		@ args = 0, pretend = 0, frame = 0
 562              		@ frame_needed = 0, uses_anonymous_args = 0
 563              		@ link register save eliminated.
 564              	.LVL37:
 565              		.loc 1 413 0
 566 0000 164B     		ldr	r3, .L53
 567              		.loc 1 412 0
 568 0002 70B4     		push	{r4, r5, r6}
 569              		.cfi_def_cfa_offset 12
 570              		.cfi_offset 4, -12
ARM GAS  C:\Users\14122\AppData\Local\Temp\ccEX8O8P.s 			page 11


 571              		.cfi_offset 5, -8
 572              		.cfi_offset 6, -4
 573              		.loc 1 413 0
 574 0004 9E69     		ldr	r6, [r3, #24]
 575              	.LVL38:
 576              		.loc 1 429 0
 577 0006 8568     		ldr	r5, [r0, #8]
 578              		.loc 1 412 0
 579 0008 0446     		mov	r4, r0
 580              		.loc 1 423 0
 581 000a 4162     		str	r1, [r0, #36]
 582              		.loc 1 429 0
 583 000c B068     		ldr	r0, [r6, #8]
 584              	.LVL39:
 585 000e 8542     		cmp	r5, r0
 586 0010 0DD8     		bhi	.L45
 587              	.LVL40:
 588              	.LBB184:
 589              	.LBB185:
 590              		.loc 1 227 0
 591 0012 0022     		movs	r2, #0
 592 0014 84F82020 		strb	r2, [r4, #32]
 593              	.LVL41:
 594              	.L46:
 595              		.loc 1 230 0
 596 0018 1B68     		ldr	r3, [r3]
 597              	.LVL42:
 598              		.loc 1 231 0
 599 001a 9A68     		ldr	r2, [r3, #8]
 600 001c 9542     		cmp	r5, r2
 601 001e FBD9     		bls	.L46
 602              		.loc 1 234 0
 603 0020 5A68     		ldr	r2, [r3, #4]
 604 0022 C4E90032 		strd	r3, r2, [r4]
 605              		.loc 1 235 0
 606 0026 1460     		str	r4, [r2]
 607              		.loc 1 236 0
 608 0028 5C60     		str	r4, [r3, #4]
 609              	.LBE185:
 610              	.LBE184:
 611              		.loc 1 447 0
 612 002a 70BC     		pop	{r4, r5, r6}
 613              		.cfi_remember_state
 614              		.cfi_restore 6
 615              		.cfi_restore 5
 616              		.cfi_restore 4
 617              		.cfi_def_cfa_offset 0
 618              	.LVL43:
 619 002c 7047     		bx	lr
 620              	.LVL44:
 621              	.L45:
 622              		.cfi_restore_state
 623              	.LBB186:
 624              	.LBB187:
 625              		.loc 1 227 0
 626 002e 0021     		movs	r1, #0
 627              	.LVL45:
ARM GAS  C:\Users\14122\AppData\Local\Temp\ccEX8O8P.s 			page 12


 628              		.loc 1 228 0
 629 0030 1A46     		mov	r2, r3
 630              		.loc 1 227 0
 631 0032 86F82010 		strb	r1, [r6, #32]
 632              	.LVL46:
 633              	.L48:
 634              		.loc 1 230 0
 635 0036 1268     		ldr	r2, [r2]
 636              	.LVL47:
 637              		.loc 1 231 0
 638 0038 9168     		ldr	r1, [r2, #8]
 639 003a 8842     		cmp	r0, r1
 640 003c FBD9     		bls	.L48
 641              	.LBE187:
 642              	.LBE186:
 643              		.loc 1 442 0
 644 003e 0120     		movs	r0, #1
 645              	.LBB189:
 646              	.LBB188:
 647              		.loc 1 234 0
 648 0040 5168     		ldr	r1, [r2, #4]
 649 0042 C6E90021 		strd	r2, r1, [r6]
 650              		.loc 1 235 0
 651 0046 0E60     		str	r6, [r1]
 652              		.loc 1 236 0
 653 0048 5660     		str	r6, [r2, #4]
 654              	.LVL48:
 655              	.LBE188:
 656              	.LBE189:
 657              		.loc 1 442 0
 658 004a 84F82000 		strb	r0, [r4, #32]
 659              		.loc 1 445 0
 660 004e 3146     		mov	r1, r6
 661 0050 2046     		mov	r0, r4
 662              		.loc 1 441 0
 663 0052 9C61     		str	r4, [r3, #24]
 664              		.loc 1 447 0
 665 0054 70BC     		pop	{r4, r5, r6}
 666              		.cfi_restore 6
 667              		.cfi_restore 5
 668              		.cfi_restore 4
 669              		.cfi_def_cfa_offset 0
 670              	.LVL49:
 671              		.loc 1 445 0
 672 0056 FFF7FEBF 		b	_port_switch
 673              	.LVL50:
 674              	.L54:
 675 005a 00BF     		.align	2
 676              	.L53:
 677 005c 00000000 		.word	.LANCHOR0
 678              		.cfi_endproc
 679              	.LFE226:
 680              		.size	chSchWakeupS, .-chSchWakeupS
 681              		.section	.text.chSchIsPreemptionRequired,"ax",%progbits
 682              		.align	1
 683              		.p2align 4,,15
 684              		.global	chSchIsPreemptionRequired
ARM GAS  C:\Users\14122\AppData\Local\Temp\ccEX8O8P.s 			page 13


 685              		.syntax unified
 686              		.thumb
 687              		.thumb_func
 688              		.fpu softvfp
 689              		.type	chSchIsPreemptionRequired, %function
 690              	chSchIsPreemptionRequired:
 691              	.LFB228:
 692              		.loc 1 479 0
 693              		.cfi_startproc
 694              		@ args = 0, pretend = 0, frame = 0
 695              		@ frame_needed = 0, uses_anonymous_args = 0
 696              		@ link register save eliminated.
 697              	.LVL51:
 698              		.loc 1 480 0
 699 0000 044B     		ldr	r3, .L56
 700 0002 1A68     		ldr	r2, [r3]
 701              		.loc 1 481 0
 702 0004 9B69     		ldr	r3, [r3, #24]
 703              		.loc 1 492 0
 704 0006 9068     		ldr	r0, [r2, #8]
 705 0008 9B68     		ldr	r3, [r3, #8]
 706              		.loc 1 494 0
 707 000a 9842     		cmp	r0, r3
 708 000c 94BF     		ite	ls
 709 000e 0020     		movls	r0, #0
 710 0010 0120     		movhi	r0, #1
 711 0012 7047     		bx	lr
 712              	.L57:
 713              		.align	2
 714              	.L56:
 715 0014 00000000 		.word	.LANCHOR0
 716              		.cfi_endproc
 717              	.LFE228:
 718              		.size	chSchIsPreemptionRequired, .-chSchIsPreemptionRequired
 719              		.section	.text.chSchDoRescheduleBehind,"ax",%progbits
 720              		.align	1
 721              		.p2align 4,,15
 722              		.global	chSchDoRescheduleBehind
 723              		.syntax unified
 724              		.thumb
 725              		.thumb_func
 726              		.fpu softvfp
 727              		.type	chSchDoRescheduleBehind, %function
 728              	chSchDoRescheduleBehind:
 729              	.LFB229:
 730              		.loc 1 507 0
 731              		.cfi_startproc
 732              		@ args = 0, pretend = 0, frame = 0
 733              		@ frame_needed = 0, uses_anonymous_args = 0
 734              		@ link register save eliminated.
 735 0000 70B4     		push	{r4, r5, r6}
 736              		.cfi_def_cfa_offset 12
 737              		.cfi_offset 4, -12
 738              		.cfi_offset 5, -8
 739              		.cfi_offset 6, -4
 740              		.loc 1 508 0
 741 0002 0E4A     		ldr	r2, .L62
ARM GAS  C:\Users\14122\AppData\Local\Temp\ccEX8O8P.s 			page 14


 742              		.loc 1 512 0
 743 0004 0126     		movs	r6, #1
 744              	.LBB190:
 745              	.LBB191:
 746              		.loc 1 227 0
 747 0006 0025     		movs	r5, #0
 748              		.loc 1 228 0
 749 0008 1346     		mov	r3, r2
 750              	.LBE191:
 751              	.LBE190:
 752              	.LBB195:
 753              	.LBB196:
 754              		.loc 4 607 0
 755 000a 1068     		ldr	r0, [r2]
 756              	.LBE196:
 757              	.LBE195:
 758              		.loc 1 508 0
 759 000c 9469     		ldr	r4, [r2, #24]
 760              	.LVL52:
 761              	.LBB199:
 762              	.LBB197:
 763              		.loc 4 609 0
 764 000e 0168     		ldr	r1, [r0]
 765              		.loc 4 610 0
 766 0010 4A60     		str	r2, [r1, #4]
 767              	.LVL53:
 768              	.LBE197:
 769              	.LBE199:
 770              		.loc 1 512 0
 771 0012 80F82060 		strb	r6, [r0, #32]
 772              	.LBB200:
 773              	.LBB198:
 774              		.loc 4 609 0
 775 0016 1160     		str	r1, [r2]
 776              	.LBE198:
 777              	.LBE200:
 778              	.LBB201:
 779              	.LBB192:
 780              		.loc 1 227 0
 781 0018 84F82050 		strb	r5, [r4, #32]
 782              	.LBE192:
 783              	.LBE201:
 784              		.loc 1 515 0
 785 001c A168     		ldr	r1, [r4, #8]
 786              	.LVL54:
 787              		.loc 1 511 0
 788 001e 9061     		str	r0, [r2, #24]
 789              	.LVL55:
 790              	.L59:
 791              	.LBB202:
 792              	.LBB193:
 793              		.loc 1 230 0
 794 0020 1B68     		ldr	r3, [r3]
 795              	.LVL56:
 796              		.loc 1 231 0
 797 0022 9A68     		ldr	r2, [r3, #8]
 798 0024 9142     		cmp	r1, r2
ARM GAS  C:\Users\14122\AppData\Local\Temp\ccEX8O8P.s 			page 15


 799 0026 FBD9     		bls	.L59
 800              		.loc 1 234 0
 801 0028 5A68     		ldr	r2, [r3, #4]
 802              	.LBE193:
 803              	.LBE202:
 804              		.loc 1 528 0
 805 002a 2146     		mov	r1, r4
 806              	.LBB203:
 807              	.LBB194:
 808              		.loc 1 234 0
 809 002c C4E90032 		strd	r3, r2, [r4]
 810              		.loc 1 235 0
 811 0030 1460     		str	r4, [r2]
 812              		.loc 1 236 0
 813 0032 5C60     		str	r4, [r3, #4]
 814              	.LVL57:
 815              	.LBE194:
 816              	.LBE203:
 817              		.loc 1 529 0
 818 0034 70BC     		pop	{r4, r5, r6}
 819              		.cfi_restore 6
 820              		.cfi_restore 5
 821              		.cfi_restore 4
 822              		.cfi_def_cfa_offset 0
 823              		.loc 1 528 0
 824 0036 FFF7FEBF 		b	_port_switch
 825              	.LVL58:
 826              	.L63:
 827 003a 00BF     		.align	2
 828              	.L62:
 829 003c 00000000 		.word	.LANCHOR0
 830              		.cfi_endproc
 831              	.LFE229:
 832              		.size	chSchDoRescheduleBehind, .-chSchDoRescheduleBehind
 833              		.section	.text.chSchDoRescheduleAhead,"ax",%progbits
 834              		.align	1
 835              		.p2align 4,,15
 836              		.global	chSchDoRescheduleAhead
 837              		.syntax unified
 838              		.thumb
 839              		.thumb_func
 840              		.fpu softvfp
 841              		.type	chSchDoRescheduleAhead, %function
 842              	chSchDoRescheduleAhead:
 843              	.LFB230:
 844              		.loc 1 540 0
 845              		.cfi_startproc
 846              		@ args = 0, pretend = 0, frame = 0
 847              		@ frame_needed = 0, uses_anonymous_args = 0
 848              		@ link register save eliminated.
 849 0000 70B4     		push	{r4, r5, r6}
 850              		.cfi_def_cfa_offset 12
 851              		.cfi_offset 4, -12
 852              		.cfi_offset 5, -8
 853              		.cfi_offset 6, -4
 854              		.loc 1 541 0
 855 0002 0E4A     		ldr	r2, .L68
ARM GAS  C:\Users\14122\AppData\Local\Temp\ccEX8O8P.s 			page 16


 856              		.loc 1 545 0
 857 0004 0126     		movs	r6, #1
 858              	.LBB204:
 859              	.LBB205:
 860              		.loc 1 266 0
 861 0006 0025     		movs	r5, #0
 862              		.loc 1 267 0
 863 0008 1346     		mov	r3, r2
 864              	.LBE205:
 865              	.LBE204:
 866              	.LBB209:
 867              	.LBB210:
 868              		.loc 4 607 0
 869 000a 1068     		ldr	r0, [r2]
 870              	.LBE210:
 871              	.LBE209:
 872              		.loc 1 541 0
 873 000c 9469     		ldr	r4, [r2, #24]
 874              	.LVL59:
 875              	.LBB213:
 876              	.LBB211:
 877              		.loc 4 609 0
 878 000e 0168     		ldr	r1, [r0]
 879              		.loc 4 610 0
 880 0010 4A60     		str	r2, [r1, #4]
 881              	.LVL60:
 882              	.LBE211:
 883              	.LBE213:
 884              		.loc 1 545 0
 885 0012 80F82060 		strb	r6, [r0, #32]
 886              	.LBB214:
 887              	.LBB212:
 888              		.loc 4 609 0
 889 0016 1160     		str	r1, [r2]
 890              	.LBE212:
 891              	.LBE214:
 892              	.LBB215:
 893              	.LBB206:
 894              		.loc 1 266 0
 895 0018 84F82050 		strb	r5, [r4, #32]
 896              	.LBE206:
 897              	.LBE215:
 898              		.loc 1 548 0
 899 001c A168     		ldr	r1, [r4, #8]
 900              	.LVL61:
 901              		.loc 1 544 0
 902 001e 9061     		str	r0, [r2, #24]
 903              	.LVL62:
 904              	.L65:
 905              	.LBB216:
 906              	.LBB207:
 907              		.loc 1 269 0
 908 0020 1B68     		ldr	r3, [r3]
 909              	.LVL63:
 910              		.loc 1 270 0
 911 0022 9A68     		ldr	r2, [r3, #8]
 912 0024 9142     		cmp	r1, r2
ARM GAS  C:\Users\14122\AppData\Local\Temp\ccEX8O8P.s 			page 17


 913 0026 FBD3     		bcc	.L65
 914              		.loc 1 273 0
 915 0028 5A68     		ldr	r2, [r3, #4]
 916              	.LBE207:
 917              	.LBE216:
 918              		.loc 1 556 0
 919 002a 2146     		mov	r1, r4
 920              	.LBB217:
 921              	.LBB208:
 922              		.loc 1 273 0
 923 002c C4E90032 		strd	r3, r2, [r4]
 924              		.loc 1 274 0
 925 0030 1460     		str	r4, [r2]
 926              		.loc 1 275 0
 927 0032 5C60     		str	r4, [r3, #4]
 928              	.LVL64:
 929              	.LBE208:
 930              	.LBE217:
 931              		.loc 1 557 0
 932 0034 70BC     		pop	{r4, r5, r6}
 933              		.cfi_restore 6
 934              		.cfi_restore 5
 935              		.cfi_restore 4
 936              		.cfi_def_cfa_offset 0
 937              		.loc 1 556 0
 938 0036 FFF7FEBF 		b	_port_switch
 939              	.LVL65:
 940              	.L69:
 941 003a 00BF     		.align	2
 942              	.L68:
 943 003c 00000000 		.word	.LANCHOR0
 944              		.cfi_endproc
 945              	.LFE230:
 946              		.size	chSchDoRescheduleAhead, .-chSchDoRescheduleAhead
 947              		.section	.text.chSchRescheduleS,"ax",%progbits
 948              		.align	1
 949              		.p2align 4,,15
 950              		.global	chSchRescheduleS
 951              		.syntax unified
 952              		.thumb
 953              		.thumb_func
 954              		.fpu softvfp
 955              		.type	chSchRescheduleS, %function
 956              	chSchRescheduleS:
 957              	.LFB227:
 958              		.loc 1 456 0
 959              		.cfi_startproc
 960              		@ args = 0, pretend = 0, frame = 0
 961              		@ frame_needed = 0, uses_anonymous_args = 0
 962              		@ link register save eliminated.
 963              	.LBB218:
 964              	.LBB219:
 965              		.loc 4 648 0
 966 0000 044B     		ldr	r3, .L73
 967 0002 1A68     		ldr	r2, [r3]
 968 0004 9B69     		ldr	r3, [r3, #24]
 969              	.LBE219:
ARM GAS  C:\Users\14122\AppData\Local\Temp\ccEX8O8P.s 			page 18


 970              	.LBE218:
 971              		.loc 1 460 0
 972 0006 9268     		ldr	r2, [r2, #8]
 973 0008 9B68     		ldr	r3, [r3, #8]
 974 000a 9A42     		cmp	r2, r3
 975 000c 00D8     		bhi	.L72
 976              		.loc 1 463 0
 977 000e 7047     		bx	lr
 978              	.L72:
 979              		.loc 1 461 0
 980 0010 FFF7FEBF 		b	chSchDoRescheduleAhead
 981              	.LVL66:
 982              	.L74:
 983              		.align	2
 984              	.L73:
 985 0014 00000000 		.word	.LANCHOR0
 986              		.cfi_endproc
 987              	.LFE227:
 988              		.size	chSchRescheduleS, .-chSchRescheduleS
 989              		.section	.text.chSchDoReschedule,"ax",%progbits
 990              		.align	1
 991              		.p2align 4,,15
 992              		.global	chSchDoReschedule
 993              		.syntax unified
 994              		.thumb
 995              		.thumb_func
 996              		.fpu softvfp
 997              		.type	chSchDoReschedule, %function
 998              	chSchDoReschedule:
 999              	.LFB236:
 1000              		.cfi_startproc
 1001              		@ args = 0, pretend = 0, frame = 0
 1002              		@ frame_needed = 0, uses_anonymous_args = 0
 1003              		@ link register save eliminated.
 1004 0000 FFF7FEBF 		b	chSchDoRescheduleAhead
 1005              		.cfi_endproc
 1006              	.LFE236:
 1007              		.size	chSchDoReschedule, .-chSchDoReschedule
 1008              		.global	ch
 1009              		.section	.bss.ch,"aw",%nobits
 1010              		.align	2
 1011              		.set	.LANCHOR0,. + 0
 1012              		.type	ch, %object
 1013              		.size	ch, 116
 1014              	ch:
 1015 0000 00000000 		.space	116
 1015      00000000 
 1015      00000000 
 1015      00000000 
 1015      00000000 
 1016              		.text
 1017              	.Letext0:
 1018              		.file 5 "c:\\chibistudio\\tools\\gnu tools arm embedded\\7.0 2017q4\\lib\\gcc\\arm-none-eabi\\7.2.
 1019              		.file 6 "c:\\chibistudio\\tools\\gnu tools arm embedded\\7.0 2017q4\\arm-none-eabi\\include\\machi
 1020              		.file 7 "c:\\chibistudio\\tools\\gnu tools arm embedded\\7.0 2017q4\\arm-none-eabi\\include\\sys\\
 1021              		.file 8 ".//os/common/ports/ARMCMx/compilers/GCC/chtypes.h"
 1022              		.file 9 ".//os/rt/include/chsystypes.h"
ARM GAS  C:\Users\14122\AppData\Local\Temp\ccEX8O8P.s 			page 19


 1023              		.file 10 ".//os/rt/include/chtime.h"
 1024              		.file 11 ".//os/common/ext/ARM/CMSIS/Core/Include/core_cm3.h"
 1025              		.file 12 ".//os/common/ext/ST/STM32F1xx/system_stm32f1xx.h"
 1026              		.file 13 ".//os/common/ports/ARMCMx/chcore.h"
 1027              		.file 14 ".//os/common/ports/ARMCMx/chcore_v7m.h"
 1028              		.file 15 ".//os/rt/include/chmtx.h"
 1029              		.file 16 ".//os/rt/include/chsys.h"
 1030              		.file 17 ".//os/rt/include/chregistry.h"
 1031              		.file 18 ".//os/lib/include/chmemcore.h"
 1032              		.file 19 ".//os/lib/include/chmempools.h"
 1033              		.file 20 ".//os/lib/include/chfactory.h"
 1034              		.file 21 ".//os/rt/include/chvt.h"