ARM GAS  C:\Users\14122\AppData\Local\Temp\ccEX8O8P.s 			page 1


   1              		.cpu cortex-m3
   2              		.eabi_attribute 20, 1
   3              		.eabi_attribute 21, 1
   4              		.eabi_attribute 23, 3
   5              		.eabi_attribute 24, 1
   6              		.eabi_attribute 25, 1
   7              		.eabi_attribute 26, 1
   8              		.eabi_attribute 30, 2
   9              		.eabi_attribute 34, 1
  10              		.eabi_attribute 18, 4
  11              		.file	"chschd.c"
  12              		.text
  13              	.Ltext0:
  14              		.cfi_sections	.debug_frame
  15              		.section	.text.wakeup,"ax",%progbits
  16              		.align	1
  17              		.p2align 4,,15
  18              		.syntax unified
  19              		.thumb
  20              		.thumb_func
  21              		.fpu softvfp
  22              		.type	wakeup, %function
  23              	wakeup:
  24              	.LFB224:
  25              		.file 1 ".//os/rt/src/chschd.c"
  26              		.loc 1 319 0
  27              		.cfi_startproc
  28              		@ args = 0, pretend = 0, frame = 0
  29              		@ frame_needed = 0, uses_anonymous_args = 0
  30              		@ link register save eliminated.
  31              	.LVL0:
  32              	.LBB133:
  33              	.LBB134:
  34              	.LBB135:
  35              	.LBB136:
  36              	.LBB137:
  37              		.file 2 ".//os/common/ext/ARM/CMSIS/Core/Include/cmsis_gcc.h"
  38              		.loc 2 493 0
  39 0000 2023     		movs	r3, #32
  40              		.syntax unified
  41              	@ 493 ".//os/common/ext/ARM/CMSIS/Core/Include/cmsis_gcc.h" 1
  42 0002 83F31188 		MSR basepri, r3
  43              	@ 0 "" 2
  44              	.LVL1:
  45              		.thumb
  46              		.syntax unified
  47              	.LBE137:
  48              	.LBE136:
  49              	.LBE135:
  50              	.LBE134:
  51              	.LBE133:
  52              		.loc 1 323 0
  53 0006 90F82030 		ldrb	r3, [r0, #32]	@ zero_extendqisi2
  54 000a 072B     		cmp	r3, #7
  55 000c 0ED8     		bhi	.L2
  56 000e DFE803F0 		tbb	[pc, r3]
  57              	.L4:
ARM GAS  C:\Users\14122\AppData\Local\Temp\ccEX8O8P.s 			page 2


  58 0012 28       		.byte	(.L3-.L4)/2
  59 0013 0D       		.byte	(.L2-.L4)/2
  60 0014 0D       		.byte	(.L2-.L4)/2
  61 0015 24       		.byte	(.L5-.L4)/2
  62 0016 08       		.byte	(.L6-.L4)/2
  63 0017 04       		.byte	(.L7-.L4)/2
  64 0018 0D       		.byte	(.L2-.L4)/2
  65 0019 08       		.byte	(.L6-.L4)/2
  66              		.p2align 1
  67              	.L7:
  68              		.loc 1 334 0
  69 001a 426A     		ldr	r2, [r0, #36]
  70              	.LVL2:
  71              	.LBB138:
  72              	.LBB139:
  73              		.file 3 ".//os/rt/include/chsem.h"
  74              		.loc 3 138 0
  75 001c 9368     		ldr	r3, [r2, #8]
  76 001e 0133     		adds	r3, r3, #1
  77 0020 9360     		str	r3, [r2, #8]
  78              	.LVL3:
  79              	.L6:
  80              	.LBE139:
  81              	.LBE138:
  82              	.LBB140:
  83              	.LBB141:
  84              		.file 4 ".//os/rt/include/chschd.h"
  85              		.loc 4 626 0
  86 0022 D0E90023 		ldrd	r2, r3, [r0]
  87 0026 1A60     		str	r2, [r3]
  88              		.loc 4 627 0
  89 0028 0268     		ldr	r2, [r0]
  90 002a 5360     		str	r3, [r2, #4]
  91              	.LVL4:
  92              	.L2:
  93              	.LBE141:
  94              	.LBE140:
  95              		.loc 1 319 0
  96 002c 10B4     		push	{r4}
  97              		.cfi_def_cfa_offset 4
  98              		.cfi_offset 4, -4
  99              	.LBB142:
 100              	.LBB143:
 101              		.loc 1 227 0
 102 002e 0022     		movs	r2, #0
 103              	.LBE143:
 104              	.LBE142:
 105              		.loc 1 349 0
 106 0030 4FF0FF34 		mov	r4, #-1
 107              	.LBB145:
 108              	.LBB146:
 109              	.LBB147:
 110              	.LBB148:
 111              		.loc 1 231 0
 112 0034 8168     		ldr	r1, [r0, #8]
 113              		.loc 1 228 0
 114 0036 0D4B     		ldr	r3, .L15
ARM GAS  C:\Users\14122\AppData\Local\Temp\ccEX8O8P.s 			page 3


 115              	.LBE148:
 116              	.LBE147:
 117              	.LBE146:
 118              	.LBE145:
 119              		.loc 1 349 0
 120 0038 4462     		str	r4, [r0, #36]
 121              	.LVL5:
 122              	.LBB164:
 123              	.LBB144:
 124              		.loc 1 227 0
 125 003a 80F82020 		strb	r2, [r0, #32]
 126              	.LVL6:
 127              	.L9:
 128              	.LBE144:
 129              	.LBE164:
 130              	.LBB165:
 131              	.LBB163:
 132              	.LBB151:
 133              	.LBB149:
 134              		.loc 1 230 0
 135 003e 1B68     		ldr	r3, [r3]
 136              	.LVL7:
 137              		.loc 1 231 0
 138 0040 9A68     		ldr	r2, [r3, #8]
 139 0042 8A42     		cmp	r2, r1
 140 0044 FBD2     		bcs	.L9
 141              		.loc 1 234 0
 142 0046 5A68     		ldr	r2, [r3, #4]
 143              	.LBE149:
 144              	.LBE151:
 145              	.LBB152:
 146              	.LBB153:
 147              	.LBB154:
 148              	.LBB155:
 149              	.LBB156:
 150              		.loc 2 493 0
 151 0048 0021     		movs	r1, #0
 152              	.LBE156:
 153              	.LBE155:
 154              	.LBE154:
 155              	.LBE153:
 156              	.LBE152:
 157              	.LBB161:
 158              	.LBB150:
 159              		.loc 1 234 0
 160 004a C0E90032 		strd	r3, r2, [r0]
 161              		.loc 1 235 0
 162 004e 1060     		str	r0, [r2]
 163              		.loc 1 236 0
 164 0050 5860     		str	r0, [r3, #4]
 165              	.LVL8:
 166              	.LBE150:
 167              	.LBE161:
 168              	.LBB162:
 169              	.LBB160:
 170              	.LBB159:
 171              	.LBB158:
ARM GAS  C:\Users\14122\AppData\Local\Temp\ccEX8O8P.s 			page 4


 172              	.LBB157:
 173              		.loc 2 493 0
 174              		.syntax unified
 175              	@ 493 ".//os/common/ext/ARM/CMSIS/Core/Include/cmsis_gcc.h" 1
 176 0052 81F31188 		MSR basepri, r1
 177              	@ 0 "" 2
 178              	.LVL9:
 179              		.thumb
 180              		.syntax unified
 181              	.LBE157:
 182              	.LBE158:
 183              	.LBE159:
 184              	.LBE160:
 185              	.LBE162:
 186              	.LBE163:
 187              	.LBE165:
 188              		.loc 1 352 0
 189 0056 10BC     		pop	{r4}
 190              		.cfi_restore 4
 191              		.cfi_def_cfa_offset 0
 192 0058 7047     		bx	lr
 193              	.LVL10:
 194              	.L5:
 195              		.loc 1 330 0
 196 005a 0022     		movs	r2, #0
 197 005c 436A     		ldr	r3, [r0, #36]
 198 005e 1A60     		str	r2, [r3]
 199              		.loc 1 331 0
 200 0060 E4E7     		b	.L2
 201              	.L3:
 202              	.LVL11:
 203              	.LBB166:
 204              	.LBB167:
 205              	.LBB168:
 206              	.LBB169:
 207              	.LBB170:
 208              		.loc 2 493 0
 209 0062 0023     		movs	r3, #0
 210              		.syntax unified
 211              	@ 493 ".//os/common/ext/ARM/CMSIS/Core/Include/cmsis_gcc.h" 1
 212 0064 83F31188 		MSR basepri, r3
 213              	@ 0 "" 2
 214              	.LVL12:
 215              		.thumb
 216              		.syntax unified
 217 0068 7047     		bx	lr
 218              	.L16:
 219 006a 00BF     		.align	2
 220              	.L15:
 221 006c 00000000 		.word	.LANCHOR0
 222              	.LBE170:
 223              	.LBE169:
 224              	.LBE168:
 225              	.LBE167:
 226              	.LBE166:
 227              		.cfi_endproc
 228              	.LFE224:
ARM GAS  C:\Users\14122\AppData\Local\Temp\ccEX8O8P.s 			page 5


 229              		.size	wakeup, .-wakeup
 230              		.section	.text._scheduler_init,"ax",%progbits
 231              		.align	1
 232              		.p2align 4,,15
 233              		.global	_scheduler_init
 234              		.syntax unified
 235              		.thumb
 236              		.thumb_func
 237              		.fpu softvfp
 238              		.type	_scheduler_init, %function
 239              	_scheduler_init:
 240              	.LFB220:
 241              		.loc 1 65 0
 242              		.cfi_startproc
 243              		@ args = 0, pretend = 0, frame = 0
 244              		@ frame_needed = 0, uses_anonymous_args = 0
 245              		@ link register save eliminated.
 246              	.LVL13:
 247              		.loc 1 68 0
 248 0000 0022     		movs	r2, #0
 249              	.LBB171:
 250              	.LBB172:
 251              		.loc 4 539 0
 252 0002 034B     		ldr	r3, .L18
 253              	.LBE172:
 254              	.LBE171:
 255              		.loc 1 68 0
 256 0004 9A60     		str	r2, [r3, #8]
 257              	.LBB174:
 258              	.LBB173:
 259              		.loc 4 540 0
 260 0006 C3E90033 		strd	r3, r3, [r3]
 261              	.LVL14:
 262              	.LBE173:
 263              	.LBE174:
 264              		.loc 1 71 0
 265 000a C3E90433 		strd	r3, r3, [r3, #16]
 266              		.loc 1 73 0
 267 000e 7047     		bx	lr
 268              	.L19:
 269              		.align	2
 270              	.L18:
 271 0010 00000000 		.word	.LANCHOR0
 272              		.cfi_endproc
 273              	.LFE220:
 274              		.size	_scheduler_init, .-_scheduler_init
 275              		.section	.text.chSchReadyI,"ax",%progbits
 276              		.align	1
 277              		.p2align 4,,15
 278              		.global	chSchReadyI
 279              		.syntax unified
 280              		.thumb
 281              		.thumb_func
 282              		.fpu softvfp
 283              		.type	chSchReadyI, %function
 284              	chSchReadyI:
 285              	.LFB221:
ARM GAS  C:\Users\14122\AppData\Local\Temp\ccEX8O8P.s 			page 6


 286              		.loc 1 218 0
 287              		.cfi_startproc
 288              		@ args = 0, pretend = 0, frame = 0
 289              		@ frame_needed = 0, uses_anonymous_args = 0
 290              		@ link register save eliminated.
 291              	.LVL15:
 292              		.loc 1 218 0
 293 0000 0146     		mov	r1, r0
 294              		.loc 1 227 0
 295 0002 0022     		movs	r2, #0
 296              		.loc 1 228 0
 297 0004 074B     		ldr	r3, .L23
 298              		.loc 1 231 0
 299 0006 8068     		ldr	r0, [r0, #8]
 300              	.LVL16:
 301              		.loc 1 227 0
 302 0008 81F82020 		strb	r2, [r1, #32]
 303              	.LVL17:
 304              	.L21:
 305              		.loc 1 230 0 discriminator 1
 306 000c 1B68     		ldr	r3, [r3]
 307              	.LVL18:
 308              		.loc 1 231 0 discriminator 1
 309 000e 9A68     		ldr	r2, [r3, #8]
 310 0010 8242     		cmp	r2, r0
 311 0012 FBD2     		bcs	.L21
 312              		.loc 1 234 0
 313 0014 5A68     		ldr	r2, [r3, #4]
 314              		.loc 1 239 0
 315 0016 0846     		mov	r0, r1
 316              		.loc 1 234 0
 317 0018 C1E90032 		strd	r3, r2, [r1]
 318              		.loc 1 235 0
 319 001c 1160     		str	r1, [r2]
 320              		.loc 1 236 0
 321 001e 5960     		str	r1, [r3, #4]
 322              		.loc 1 239 0
 323 0020 7047     		bx	lr
 324              	.L24:
 325 0022 00BF     		.align	2
 326              	.L23:
 327 0024 00000000 		.word	.LANCHOR0
 328              		.cfi_endproc
 329              	.LFE221:
 330              		.size	chSchReadyI, .-chSchReadyI
 331              		.section	.text.chSchReadyAheadI,"ax",%progbits
 332              		.align	1
 333              		.p2align 4,,15
 334              		.global	chSchReadyAheadI
 335              		.syntax unified
 336              		.thumb
 337              		.thumb_func
 338              		.fpu softvfp
 339              		.type	chSchReadyAheadI, %function
 340              	chSchReadyAheadI:
 341              	.LFB222:
 342              		.loc 1 257 0
ARM GAS  C:\Users\14122\AppData\Local\Temp\ccEX8O8P.s 			page 7


 343              		.cfi_startproc
 344              		@ args = 0, pretend = 0, frame = 0
 345              		@ frame_needed = 0, uses_anonymous_args = 0
 346              		@ link register save eliminated.
 347              	.LVL19:
 348              		.loc 1 257 0
 349 0000 0146     		mov	r1, r0
 350              		.loc 1 266 0
 351 0002 0022     		movs	r2, #0
 352              		.loc 1 267 0
 353 0004 074B     		ldr	r3, .L28
 354              		.loc 1 270 0
 355 0006 8068     		ldr	r0, [r0, #8]
 356              	.LVL20:
 357              		.loc 1 266 0
 358 0008 81F82020 		strb	r2, [r1, #32]
 359              	.LVL21:
 360              	.L26:
 361              		.loc 1 269 0 discriminator 1
 362 000c 1B68     		ldr	r3, [r3]
 363              	.LVL22:
 364              		.loc 1 270 0 discriminator 1
 365 000e 9A68     		ldr	r2, [r3, #8]
 366 0010 8242     		cmp	r2, r0
 367 0012 FBD8     		bhi	.L26
 368              		.loc 1 273 0
 369 0014 5A68     		ldr	r2, [r3, #4]
 370              		.loc 1 278 0
 371 0016 0846     		mov	r0, r1
 372              		.loc 1 273 0
 373 0018 C1E90032 		strd	r3, r2, [r1]
 374              		.loc 1 274 0
 375 001c 1160     		str	r1, [r2]
 376              		.loc 1 275 0
 377 001e 5960     		str	r1, [r3, #4]
 378              		.loc 1 278 0
 379 0020 7047     		bx	lr
 380              	.L29:
 381 0022 00BF     		.align	2
 382              	.L28:
 383 0024 00000000 		.word	.LANCHOR0
 384              		.cfi_endproc
 385              	.LFE222:
 386              		.size	chSchReadyAheadI, .-chSchReadyAheadI
 387              		.section	.text.chSchGoSleepS,"ax",%progbits
 388              		.align	1
 389              		.p2align 4,,15
 390              		.global	chSchGoSleepS
 391              		.syntax unified
 392              		.thumb
 393              		.thumb_func
 394              		.fpu softvfp
 395              		.type	chSchGoSleepS, %function
 396              	chSchGoSleepS:
 397              	.LFB223:
 398              		.loc 1 289 0
 399              		.cfi_startproc
ARM GAS  C:\Users\14122\AppData\Local\Temp\ccEX8O8P.s 			page 8


 400              		@ args = 0, pretend = 0, frame = 0
 401              		@ frame_needed = 0, uses_anonymous_args = 0
 402              		@ link register save eliminated.
 403              	.LVL23:
 404 0000 30B4     		push	{r4, r5}
 405              		.cfi_def_cfa_offset 8
 406              		.cfi_offset 4, -8
 407              		.cfi_offset 5, -4
 408              		.loc 1 305 0
 409 0002 0125     		movs	r5, #1
 410              		.loc 1 290 0
 411 0004 074B     		ldr	r3, .L32
 412 0006 9969     		ldr	r1, [r3, #24]
 413              	.LVL24:
 414              	.LBB175:
 415              	.LBB176:
 416              		.loc 4 607 0
 417 0008 1A68     		ldr	r2, [r3]
 418              	.LBE176:
 419              	.LBE175:
 420              		.loc 1 295 0
 421 000a 81F82000 		strb	r0, [r1, #32]
 422              	.LVL25:
 423              	.LBB180:
 424              	.LBB177:
 425              		.loc 4 609 0
 426 000e 1468     		ldr	r4, [r2]
 427              	.LBE177:
 428              	.LBE180:
 429              		.loc 1 313 0
 430 0010 1046     		mov	r0, r2
 431              	.LVL26:
 432              	.LBB181:
 433              	.LBB178:
 434              		.loc 4 610 0
 435 0012 6360     		str	r3, [r4, #4]
 436              	.LVL27:
 437              	.LBE178:
 438              	.LBE181:
 439              		.loc 1 305 0
 440 0014 82F82050 		strb	r5, [r2, #32]
 441              	.LBB182:
 442              	.LBB179:
 443              		.loc 4 609 0
 444 0018 1C60     		str	r4, [r3]
 445              	.LBE179:
 446              	.LBE182:
 447              		.loc 1 314 0
 448 001a 30BC     		pop	{r4, r5}
 449              		.cfi_restore 5
 450              		.cfi_restore 4
 451              		.cfi_def_cfa_offset 0
 452              		.loc 1 304 0
 453 001c 9A61     		str	r2, [r3, #24]
 454              		.loc 1 313 0
 455 001e FFF7FEBF 		b	_port_switch
 456              	.LVL28:
ARM GAS  C:\Users\14122\AppData\Local\Temp\ccEX8O8P.s 			page 9


 457              	.L33:
 458 0022 00BF     		.align	2
 459              	.L32:
 460 0024 00000000 		.word	.LANCHOR0
 461              		.cfi_endproc
 462              	.LFE223:
 463              		.size	chSchGoSleepS, .-chSchGoSleepS
 464              		.section	.text.chSchGoSleepTimeoutS,"ax",%progbits
 465              		.align	1
 466              		.p2align 4,,15
 467              		.global	chSchGoSleepTimeoutS
 468              		.syntax unified
 469              		.thumb
 470              		.thumb_func
 471              		.fpu softvfp
 472              		.type	chSchGoSleepTimeoutS, %function
 473              	chSchGoSleepTimeoutS:
 474              	.LFB225:
 475              		.loc 1 375 0
 476              		.cfi_startproc
 477              		@ args = 0, pretend = 0, frame = 24
 478              		@ frame_needed = 0, uses_anonymous_args = 0
 479              	.LVL29:
 480 0000 30B5     		push	{r4, r5, lr}
 481              		.cfi_def_cfa_offset 12
 482              		.cfi_offset 4, -12
 483              		.cfi_offset 5, -8
 484              		.cfi_offset 14, -4
 485              		.loc 1 379 0
 486 0002 4B1C     		adds	r3, r1, #1
 487              		.loc 1 375 0
 488 0004 87B0     		sub	sp, sp, #28
 489              		.cfi_def_cfa_offset 40
 490              		.loc 1 379 0
 491 0006 12D0     		beq	.L35
 492 0008 0546     		mov	r5, r0
 493              	.LBB183:
 494              		.loc 1 382 0
 495 000a 0C4C     		ldr	r4, .L42
 496 000c 01A8     		add	r0, sp, #4
 497              	.LVL30:
 498 000e A369     		ldr	r3, [r4, #24]
 499 0010 0B4A     		ldr	r2, .L42+4
 500 0012 FFF7FEFF 		bl	chVTDoSetI
 501              	.LVL31:
 502              		.loc 1 383 0
 503 0016 2846     		mov	r0, r5
 504 0018 FFF7FEFF 		bl	chSchGoSleepS
 505              	.LVL32:
 506              		.loc 1 384 0
 507 001c 049B     		ldr	r3, [sp, #16]
 508 001e 13B1     		cbz	r3, .L37
 509              		.loc 1 385 0
 510 0020 01A8     		add	r0, sp, #4
 511              	.LVL33:
 512 0022 FFF7FEFF 		bl	chVTDoResetI
 513              	.LVL34:
ARM GAS  C:\Users\14122\AppData\Local\Temp\ccEX8O8P.s 			page 10


 514              	.L37:
 515              	.LBE183:
 516              		.loc 1 392 0
 517 0026 A369     		ldr	r3, [r4, #24]
 518              		.loc 1 393 0
 519 0028 586A     		ldr	r0, [r3, #36]
 520 002a 07B0     		add	sp, sp, #28
 521              		.cfi_remember_state
 522              		.cfi_def_cfa_offset 12
 523              		@ sp needed
 524 002c 30BD     		pop	{r4, r5, pc}
 525              	.LVL35:
 526              	.L35:
 527              		.cfi_restore_state
 528              		.loc 1 389 0
 529 002e FFF7FEFF 		bl	chSchGoSleepS
 530              	.LVL36:
 531 0032 024C     		ldr	r4, .L42
 532              		.loc 1 392 0
 533 0034 A369     		ldr	r3, [r4, #24]
 534              		.loc 1 393 0
 535 0036 586A     		ldr	r0, [r3, #36]
 536 0038 07B0     		add	sp, sp, #28
 537              		.cfi_def_cfa_offset 12
 538              		@ sp needed
 539 003a 30BD     		pop	{r4, r5, pc}
 540              	.L43:
 541              		.align	2
 542              	.L42:
 543 003c 00000000 		.word	.LANCHOR0
 544 0040 00000000 		.word	wakeup
 545              		.cfi_endproc
 546              	.LFE225:
 547              		.size	chSchGoSleepTimeoutS, .-chSchGoSleepTimeoutS
 548              		.section	.text.chSchWakeupS,"ax",%progbits
 549              		.align	1
 550              		.p2align 4,,15
 551              		.global	chSchWakeupS
 552              		.syntax unified
 553              		.thumb
 554              		.thumb_func
 555              		.fpu softvfp
 556              		.type	chSchWakeupS, %function
 557              	chSchWakeupS:
 558              	.LFB226:
 559              		.loc 1 412 0
 560              		.cfi_startproc
 561              		@ args = 0, pretend = 0, frame = 0
 562              		@ frame_needed = 0, uses_anonymous_args = 0
 563              		@ link register save eliminated.
 564              	.LVL37:
 565              		.loc 1 413 0
 566 0000 164B     		ldr	r3, .L53
 567              		.loc 1 412 0
 568 0002 70B4     		push	{r4, r5, r6}
 569              		.cfi_def_cfa_offset 12
 570              		.cfi_offset 4, -12
ARM GAS  C:\Users\14122\AppData\Local\Temp\ccEX8O8P.s 			page 11


 571              		.cfi_offset 5, -8
 572              		.cfi_offset 6, -4
 573              		.loc 1 413 0
 574 0004 9E69     		ldr	r6, [r3, #24]
 575              	.LVL38:
 576              		.loc 1 429 0
 577 0006 8568     		ldr	r5, [r0, #8]
 578              		.loc 1 412 0
 579 0008 0446     		mov	r4, r0
 580              		.loc 1 423 0
 581 000a 4162     		str	r1, [r0, #36]
 582              		.loc 1 429 0
 583 000c B068     		ldr	r0, [r6, #8]
 584              	.LVL39:
 585 000e 8542     		cmp	r5, r0
 586 0010 0DD8     		bhi	.L45
 587              	.LVL40:
 588              	.LBB184:
 589              	.LBB185:
 590              		.loc 1 227 0
 591 0012 0022     		movs	r2, #0
 592 0014 84F82020 		strb	r2, [r4, #32]
 593              	.LVL41:
 594              	.L46:
 595              		.loc 1 230 0
 596 0018 1B68     		ldr	r3, [r3]
 597              	.LVL42:
 598              		.loc 1 231 0
 599 001a 9A68     		ldr	r2, [r3, #8]
 600 001c 9542     		cmp	r5, r2
 601 001e FBD9     		bls	.L46
 602              		.loc 1 234 0
 603 0020 5A68     		ldr	r2, [r3, #4]
 604 0022 C4E90032 		strd	r3, r2, [r4]
 605              		.loc 1 235 0
 606 0026 1460     		str	r4, [r2]
 607              		.loc 1 236 0
 608 0028 5C60     		str	r4, [r3, #4]
 609              	.LBE185:
 610              	.LBE184:
 611              		.loc 1 447 0
 612 002a 70BC     		pop	{r4, r5, r6}
 613              		.cfi_remember_state
 614              		.cfi_restore 6
 615              		.cfi_restore 5
 616              		.cfi_restore 4
 617              		.cfi_def_cfa_offset 0
 618              	.LVL43:
 619 002c 7047     		bx	lr
 620              	.LVL44:
 621              	.L45:
 622              		.cfi_restore_state
 623              	.LBB186:
 624              	.LBB187:
 625              		.loc 1 227 0
 626 002e 0021     		movs	r1, #0
 627              	.LVL45:
ARM GAS  C:\Users\14122\AppData\Local\Temp\ccEX8O8P.s 			page 12


 628              		.loc 1 228 0
 629 0030 1A46     		mov	r2, r3
 630              		.loc 1 227 0
 631 0032 86F82010 		strb	r1, [r6, #32]
 632              	.LVL46:
 633              	.L48:
 634              		.loc 1 230 0
 635 0036 1268     		ldr	r2, [r2]
 636              	.LVL47:
 637              		.loc 1 231 0
 638 0038 9168     		ldr	r1, [r2, #8]
 639 003a 8842     		cmp	r0, r1
 640 003c FBD9     		bls	.L48
 641              	.LBE187:
 642              	.LBE186:
 643              		.loc 1 442 0
 644 003e 0120     		movs	r0, #1
 645              	.LBB189:
 646              	.LBB188:
 647              		.loc 1 234 0
 648 0040 5168     		ldr	r1, [r2, #4]
 649 0042 C6E90021 		strd	r2, r1, [r6]
 650              		.loc 1 235 0
 651 0046 0E60     		str	r6, [r1]
 652              		.loc 1 236 0
 653 0048 5660     		str	r6, [r2, #4]
 654              	.LVL48:
 655              	.LBE188:
 656              	.LBE189:
 657              		.loc 1 442 0
 658 004a 84F82000 		strb	r0, [r4, #32]
 659              		.loc 1 445 0
 660 004e 3146     		mov	r1, r6
 661 0050 2046     		mov	r0, r4
 662              		.loc 1 441 0
 663 0052 9C61     		str	r4, [r3, #24]
 664              		.loc 1 447 0
 665 0054 70BC     		pop	{r4, r5, r6}
 666              		.cfi_restore 6
 667              		.cfi_restore 5
 668              		.cfi_restore 4
 669              		.cfi_def_cfa_offset 0
 670              	.LVL49:
 671              		.loc 1 445 0
 672 0056 FFF7FEBF 		b	_port_switch
 673              	.LVL50:
 674              	.L54:
 675 005a 00BF     		.align	2
 676              	.L53:
 677 005c 00000000 		.word	.LANCHOR0
 678              		.cfi_endproc
 679              	.LFE226:
 680              		.size	chSchWakeupS, .-chSchWakeupS
 681              		.section	.text.chSchIsPreemptionRequired,"ax",%progbits
 682              		.align	1
 683              		.p2align 4,,15
 684              		.global	chSchIsPreemptionRequired
ARM GAS  C:\Users\14122\AppData\Local\Temp\ccEX8O8P.s 			page 13


 685              		.syntax unified
 686              		.thumb
 687              		.thumb_func
 688              		.fpu softvfp
 689              		.type	chSchIsPreemptionRequired, %function
 690              	chSchIsPreemptionRequired:
 691              	.LFB228:
 692              		.loc 1 479 0
 693              		.cfi_startproc
 694              		@ args = 0, pretend = 0, frame = 0
 695              		@ frame_needed = 0, uses_anonymous_args = 0
 696              		@ link register save eliminated.
 697              	.LVL51:
 698              		.loc 1 480 0
 699 0000 044B     		ldr	r3, .L56
 700 0002 1A68     		ldr	r2, [r3]
 701              		.loc 1 481 0
 702 0004 9B69     		ldr	r3, [r3, #24]
 703              		.loc 1 492 0
 704 0006 9068     		ldr	r0, [r2, #8]
 705 0008 9B68     		ldr	r3, [r3, #8]
 706              		.loc 1 494 0
 707 000a 9842     		cmp	r0, r3
 708 000c 94BF     		ite	ls
 709 000e 0020     		movls	r0, #0
 710 0010 0120     		movhi	r0, #1
 711 0012 7047     		bx	lr
 712              	.L57:
 713              		.align	2
 714              	.L56:
 715 0014 00000000 		.word	.LANCHOR0
 716              		.cfi_endproc
 717              	.LFE228:
 718              		.size	chSchIsPreemptionRequired, .-chSchIsPreemptionRequired
 719              		.section	.text.chSchDoRescheduleBehind,"ax",%progbits
 720              		.align	1
 721              		.p2align 4,,15
 722              		.global	chSchDoRescheduleBehind
 723              		.syntax unified
 724              		.thumb
 725              		.thumb_func
 726              		.fpu softvfp
 727              		.type	chSchDoRescheduleBehind, %function
 728              	chSchDoRescheduleBehind:
 729              	.LFB229:
 730              		.loc 1 507 0
 731              		.cfi_startproc
 732              		@ args = 0, pretend = 0, frame = 0
 733              		@ frame_needed = 0, uses_anonymous_args = 0
 734              		@ link register save eliminated.
 735 0000 70B4     		push	{r4, r5, r6}
 736              		.cfi_def_cfa_offset 12
 737              		.cfi_offset 4, -12
 738              		.cfi_offset 5, -8
 739              		.cfi_offset 6, -4
 740              		.loc 1 508 0
 741 0002 0E4A     		ldr	r2, .L62
ARM GAS  C:\Users\14122\AppData\Local\Temp\ccEX8O8P.s 			page 14


 742              		.loc 1 512 0
 743 0004 0126     		movs	r6, #1
 744              	.LBB190:
 745              	.LBB191:
 746              		.loc 1 227 0
 747 0006 0025     		movs	r5, #0
 748              		.loc 1 228 0
 749 0008 1346     		mov	r3, r2
 750              	.LBE191:
 751              	.LBE190:
 752              	.LBB195:
 753              	.LBB196:
 754              		.loc 4 607 0
 755 000a 1068     		ldr	r0, [r2]
 756              	.LBE196:
 757              	.LBE195:
 758              		.loc 1 508 0
 759 000c 9469     		ldr	r4, [r2, #24]
 760              	.LVL52:
 761              	.LBB199:
 762              	.LBB197:
 763              		.loc 4 609 0
 764 000e 0168     		ldr	r1, [r0]
 765              		.loc 4 610 0
 766 0010 4A60     		str	r2, [r1, #4]
 767              	.LVL53:
 768              	.LBE197:
 769              	.LBE199:
 770              		.loc 1 512 0
 771 0012 80F82060 		strb	r6, [r0, #32]
 772              	.LBB200:
 773              	.LBB198:
 774              		.loc 4 609 0
 775 0016 1160     		str	r1, [r2]
 776              	.LBE198:
 777              	.LBE200:
 778              	.LBB201:
 779              	.LBB192:
 780              		.loc 1 227 0
 781 0018 84F82050 		strb	r5, [r4, #32]
 782              	.LBE192:
 783              	.LBE201:
 784              		.loc 1 515 0
 785 001c A168     		ldr	r1, [r4, #8]
 786              	.LVL54:
 787              		.loc 1 511 0
 788 001e 9061     		str	r0, [r2, #24]
 789              	.LVL55:
 790              	.L59:
 791              	.LBB202:
 792              	.LBB193:
 793              		.loc 1 230 0
 794 0020 1B68     		ldr	r3, [r3]
 795              	.LVL56:
 796              		.loc 1 231 0
 797 0022 9A68     		ldr	r2, [r3, #8]
 798 0024 9142     		cmp	r1, r2
ARM GAS  C:\Users\14122\AppData\Local\Temp\ccEX8O8P.s 			page 15


 799 0026 FBD9     		bls	.L59
 800              		.loc 1 234 0
 801 0028 5A68     		ldr	r2, [r3, #4]
 802              	.LBE193:
 803              	.LBE202:
 804              		.loc 1 528 0
 805 002a 2146     		mov	r1, r4
 806              	.LBB203:
 807              	.LBB194:
 808              		.loc 1 234 0
 809 002c C4E90032 		strd	r3, r2, [r4]
 810              		.loc 1 235 0
 811 0030 1460     		str	r4, [r2]
 812              		.loc 1 236 0
 813 0032 5C60     		str	r4, [r3, #4]
 814              	.LVL57:
 815              	.LBE194:
 816              	.LBE203:
 817              		.loc 1 529 0
 818 0034 70BC     		pop	{r4, r5, r6}
 819              		.cfi_restore 6
 820              		.cfi_restore 5
 821              		.cfi_restore 4
 822              		.cfi_def_cfa_offset 0
 823              		.loc 1 528 0
 824 0036 FFF7FEBF 		b	_port_switch
 825              	.LVL58:
 826              	.L63:
 827 003a 00BF     		.align	2
 828              	.L62:
 829 003c 00000000 		.word	.LANCHOR0
 830              		.cfi_endproc
 831              	.LFE229:
 832              		.size	chSchDoRescheduleBehind, .-chSchDoRescheduleBehind
 833              		.section	.text.chSchDoRescheduleAhead,"ax",%progbits
 834              		.align	1
 835              		.p2align 4,,15
 836              		.global	chSchDoRescheduleAhead
 837              		.syntax unified
 838              		.thumb
 839              		.thumb_func
 840              		.fpu softvfp
 841              		.type	chSchDoRescheduleAhead, %function
 842              	chSchDoRescheduleAhead:
 843              	.LFB230:
 844              		.loc 1 540 0
 845              		.cfi_startproc
 846              		@ args = 0, pretend = 0, frame = 0
 847              		@ frame_needed = 0, uses_anonymous_args = 0
 848              		@ link register save eliminated.
 849 0000 70B4     		push	{r4, r5, r6}
 850              		.cfi_def_cfa_offset 12
 851              		.cfi_offset 4, -12
 852              		.cfi_offset 5, -8
 853              		.cfi_offset 6, -4
 854              		.loc 1 541 0
 855 0002 0E4A     		ldr	r2, .L68
ARM GAS  C:\Users\14122\AppData\Local\Temp\ccEX8O8P.s 			page 16


 856              		.loc 1 545 0
 857 0004 0126     		movs	r6, #1
 858              	.LBB204:
 859              	.LBB205:
 860              		.loc 1 266 0
 861 0006 0025     		movs	r5, #0
 862              		.loc 1 267 0
 863 0008 1346     		mov	r3, r2
 864              	.LBE205:
 865              	.LBE204:
 866              	.LBB209:
 867              	.LBB210:
 868              		.loc 4 607 0
 869 000a 1068     		ldr	r0, [r2]
 870              	.LBE210:
 871              	.LBE209:
 872              		.loc 1 541 0
 873 000c 9469     		ldr	r4, [r2, #24]
 874              	.LVL59:
 875              	.LBB213:
 876              	.LBB211:
 877              		.loc 4 609 0
 878 000e 0168     		ldr	r1, [r0]
 879              		.loc 4 610 0
 880 0010 4A60     		str	r2, [r1, #4]
 881              	.LVL60:
 882              	.LBE211:
 883              	.LBE213:
 884              		.loc 1 545 0
 885 0012 80F82060 		strb	r6, [r0, #32]
 886              	.LBB214:
 887              	.LBB212:
 888              		.loc 4 609 0
 889 0016 1160     		str	r1, [r2]
 890              	.LBE212:
 891              	.LBE214:
 892              	.LBB215:
 893              	.LBB206:
 894              		.loc 1 266 0
 895 0018 84F82050 		strb	r5, [r4, #32]
 896              	.LBE206:
 897              	.LBE215:
 898              		.loc 1 548 0
 899 001c A168     		ldr	r1, [r4, #8]
 900              	.LVL61:
 901              		.loc 1 544 0
 902 001e 9061     		str	r0, [r2, #24]
 903              	.LVL62:
 904              	.L65:
 905              	.LBB216:
 906              	.LBB207:
 907              		.loc 1 269 0
 908 0020 1B68     		ldr	r3, [r3]
 909              	.LVL63:
 910              		.loc 1 270 0
 911 0022 9A68     		ldr	r2, [r3, #8]
 912 0024 9142     		cmp	r1, r2
ARM GAS  C:\Users\14122\AppData\Local\Temp\ccEX8O8P.s 			page 17


 913 0026 FBD3     		bcc	.L65
 914              		.loc 1 273 0
 915 0028 5A68     		ldr	r2, [r3, #4]
 916              	.LBE207:
 917              	.LBE216:
 918              		.loc 1 556 0
 919 002a 2146     		mov	r1, r4
 920              	.LBB217:
 921              	.LBB208:
 922              		.loc 1 273 0
 923 002c C4E90032 		strd	r3, r2, [r4]
 924              		.loc 1 274 0
 925 0030 1460     		str	r4, [r2]
 926              		.loc 1 275 0
 927 0032 5C60     		str	r4, [r3, #4]
 928              	.LVL64:
 929              	.LBE208:
 930              	.LBE217:
 931              		.loc 1 557 0
 932 0034 70BC     		pop	{r4, r5, r6}
 933              		.cfi_restore 6
 934              		.cfi_restore 5
 935              		.cfi_restore 4
 936              		.cfi_def_cfa_offset 0
 937              		.loc 1 556 0
 938 0036 FFF7FEBF 		b	_port_switch
 939              	.LVL65:
 940              	.L69:
 941 003a 00BF     		.align	2
 942              	.L68:
 943 003c 00000000 		.word	.LANCHOR0
 944              		.cfi_endproc
 945              	.LFE230:
 946              		.size	chSchDoRescheduleAhead, .-chSchDoRescheduleAhead
 947              		.section	.text.chSchRescheduleS,"ax",%progbits
 948              		.align	1
 949              		.p2align 4,,15
 950              		.global	chSchRescheduleS
 951              		.syntax unified
 952              		.thumb
 953              		.thumb_func
 954              		.fpu softvfp
 955              		.type	chSchRescheduleS, %function
 956              	chSchRescheduleS:
 957              	.LFB227:
 958              		.loc 1 456 0
 959              		.cfi_startproc
 960              		@ args = 0, pretend = 0, frame = 0
 961              		@ frame_needed = 0, uses_anonymous_args = 0
 962              		@ link register save eliminated.
 963              	.LBB218:
 964              	.LBB219:
 965              		.loc 4 648 0
 966 0000 044B     		ldr	r3, .L73
 967 0002 1A68     		ldr	r2, [r3]
 968 0004 9B69     		ldr	r3, [r3, #24]
 969              	.LBE219:
ARM GAS  C:\Users\14122\AppData\Local\Temp\ccEX8O8P.s 			page 18


 970              	.LBE218:
 971              		.loc 1 460 0
 972 0006 9268     		ldr	r2, [r2, #8]
 973 0008 9B68     		ldr	r3, [r3, #8]
 974 000a 9A42     		cmp	r2, r3
 975 000c 00D8     		bhi	.L72
 976              		.loc 1 463 0
 977 000e 7047     		bx	lr
 978              	.L72:
 979              		.loc 1 461 0
 980 0010 FFF7FEBF 		b	chSchDoRescheduleAhead
 981              	.LVL66:
 982              	.L74:
 983              		.align	2
 984              	.L73:
 985 0014 00000000 		.word	.LANCHOR0
 986              		.cfi_endproc
 987              	.LFE227:
 988              		.size	chSchRescheduleS, .-chSchRescheduleS
 989              		.section	.text.chSchDoReschedule,"ax",%progbits
 990              		.align	1
 991              		.p2align 4,,15
 992              		.global	chSchDoReschedule
 993              		.syntax unified
 994              		.thumb
 995              		.thumb_func
 996              		.fpu softvfp
 997              		.type	chSchDoReschedule, %function
 998              	chSchDoReschedule:
 999              	.LFB236:
 1000              		.cfi_startproc
 1001              		@ args = 0, pretend = 0, frame = 0
 1002              		@ frame_needed = 0, uses_anonymous_args = 0
 1003              		@ link register save eliminated.
 1004 0000 FFF7FEBF 		b	chSchDoRescheduleAhead
 1005              		.cfi_endproc
 1006              	.LFE236:
 1007              		.size	chSchDoReschedule, .-chSchDoReschedule
 1008              		.global	ch
 1009              		.section	.bss.ch,"aw",%nobits
 1010              		.align	2
 1011              		.set	.LANCHOR0,. + 0
 1012              		.type	ch, %object
 1013              		.size	ch, 116
 1014              	ch:
 1015 0000 00000000 		.space	116
 1015      00000000 
 1015      00000000 
 1015      00000000 
 1015      00000000 
 1016              		.text
 1017              	.Letext0:
 1018              		.file 5 "c:\\chibistudio\\tools\\gnu tools arm embedded\\7.0 2017q4\\lib\\gcc\\arm-none-eabi\\7.2.
 1019              		.file 6 "c:\\chibistudio\\tools\\gnu tools arm embedded\\7.0 2017q4\\arm-none-eabi\\include\\machi
 1020              		.file 7 "c:\\chibistudio\\tools\\gnu tools arm embedded\\7.0 2017q4\\arm-none-eabi\\include\\sys\\
 1021              		.file 8 ".//os/common/ports/ARMCMx/compilers/GCC/chtypes.h"
 1022              		.file 9 ".//os/rt/include/chsystypes.h"
ARM GAS  C:\Users\14122\AppData\Local\Temp\ccEX8O8P.s 			page 19


 1023              		.file 10 ".//os/rt/include/chtime.h"
 1024              		.file 11 ".//os/common/ext/ARM/CMSIS/Core/Include/core_cm3.h"
 1025              		.file 12 ".//os/common/ext/ST/STM32F1xx/system_stm32f1xx.h"
 1026              		.file 13 ".//os/common/ports/ARMCMx/chcore.h"
 1027              		.file 14 ".//os/common/ports/ARMCMx/chcore_v7m.h"
 1028              		.file 15 ".//os/rt/include/chmtx.h"
 1029              		.file 16 ".//os/rt/include/chsys.h"
 1030              		.file 17 ".//os/rt/include/chregistry.h"
 1031              		.file 18 ".//os/lib/include/chmemcore.h"
 1032              		.file 19 ".//os/lib/include/chmempools.h"
 1033              		.file 20 ".//os/lib/include/chfactory.h"
 1034              		.file 21 ".//os/rt/include/chvt.h"
 1035              		.section	.debug_info,"",%progbits
 1036              	.Ldebug_info0:
 1037 0000 24110000 		.4byte	0x1124
 1038 0004 0400     		.2byte	0x4
 1039 0006 00000000 		.4byte	.Ldebug_abbrev0
 1040 000a 04       		.byte	0x4
 1041 000b 01       		.uleb128 0x1
 1042 000c CF050000 		.4byte	.LASF172
 1043 0010 0C       		.byte	0xc
 1044 0011 BB040000 		.4byte	.LASF173
 1045 0015 0E010000 		.4byte	.LASF174
 1046 0019 50010000 		.4byte	.Ldebug_ranges0+0x150
 1047 001d 00000000 		.4byte	0
 1048 0021 00000000 		.4byte	.Ldebug_line0
 1049 0025 02       		.uleb128 0x2
 1050 0026 04       		.byte	0x4
 1051 0027 05       		.byte	0x5
 1052 0028 696E7400 		.ascii	"int\000"
 1053 002c 03       		.uleb128 0x3
 1054 002d 31030000 		.4byte	.LASF4
 1055 0031 05       		.byte	0x5
 1056 0032 D8       		.byte	0xd8
 1057 0033 37000000 		.4byte	0x37
 1058 0037 04       		.uleb128 0x4
 1059 0038 04       		.byte	0x4
 1060 0039 07       		.byte	0x7
 1061 003a 7E000000 		.4byte	.LASF0
 1062 003e 04       		.uleb128 0x4
 1063 003f 08       		.byte	0x8
 1064 0040 05       		.byte	0x5
 1065 0041 7C040000 		.4byte	.LASF1
 1066 0045 04       		.uleb128 0x4
 1067 0046 08       		.byte	0x8
 1068 0047 04       		.byte	0x4
 1069 0048 5B050000 		.4byte	.LASF2
 1070 004c 04       		.uleb128 0x4
 1071 004d 01       		.byte	0x1
 1072 004e 06       		.byte	0x6
 1073 004f 35080000 		.4byte	.LASF3
 1074 0053 03       		.uleb128 0x3
 1075 0054 B5060000 		.4byte	.LASF5
 1076 0058 06       		.byte	0x6
 1077 0059 2B       		.byte	0x2b
 1078 005a 5E000000 		.4byte	0x5e
 1079 005e 04       		.uleb128 0x4
ARM GAS  C:\Users\14122\AppData\Local\Temp\ccEX8O8P.s 			page 20


 1080 005f 01       		.byte	0x1
 1081 0060 08       		.byte	0x8
 1082 0061 97070000 		.4byte	.LASF6
 1083 0065 04       		.uleb128 0x4
 1084 0066 02       		.byte	0x2
 1085 0067 05       		.byte	0x5
 1086 0068 8E050000 		.4byte	.LASF7
 1087 006c 03       		.uleb128 0x3
 1088 006d 8D020000 		.4byte	.LASF8
 1089 0071 06       		.byte	0x6
 1090 0072 39       		.byte	0x39
 1091 0073 77000000 		.4byte	0x77
 1092 0077 04       		.uleb128 0x4
 1093 0078 02       		.byte	0x2
 1094 0079 07       		.byte	0x7
 1095 007a 47080000 		.4byte	.LASF9
 1096 007e 03       		.uleb128 0x3
 1097 007f B0000000 		.4byte	.LASF10
 1098 0083 06       		.byte	0x6
 1099 0084 4D       		.byte	0x4d
 1100 0085 89000000 		.4byte	0x89
 1101 0089 04       		.uleb128 0x4
 1102 008a 04       		.byte	0x4
 1103 008b 05       		.byte	0x5
 1104 008c 98050000 		.4byte	.LASF11
 1105 0090 03       		.uleb128 0x3
 1106 0091 A5070000 		.4byte	.LASF12
 1107 0095 06       		.byte	0x6
 1108 0096 4F       		.byte	0x4f
 1109 0097 9B000000 		.4byte	0x9b
 1110 009b 04       		.uleb128 0x4
 1111 009c 04       		.byte	0x4
 1112 009d 07       		.byte	0x7
 1113 009e 0C070000 		.4byte	.LASF13
 1114 00a2 03       		.uleb128 0x3
 1115 00a3 8B030000 		.4byte	.LASF14
 1116 00a7 06       		.byte	0x6
 1117 00a8 69       		.byte	0x69
 1118 00a9 AD000000 		.4byte	0xad
 1119 00ad 04       		.uleb128 0x4
 1120 00ae 08       		.byte	0x8
 1121 00af 07       		.byte	0x7
 1122 00b0 5C020000 		.4byte	.LASF15
 1123 00b4 03       		.uleb128 0x3
 1124 00b5 1D040000 		.4byte	.LASF16
 1125 00b9 07       		.byte	0x7
 1126 00ba 18       		.byte	0x18
 1127 00bb 53000000 		.4byte	0x53
 1128 00bf 05       		.uleb128 0x5
 1129 00c0 B4000000 		.4byte	0xb4
 1130 00c4 03       		.uleb128 0x3
 1131 00c5 67050000 		.4byte	.LASF17
 1132 00c9 07       		.byte	0x7
 1133 00ca 24       		.byte	0x24
 1134 00cb 6C000000 		.4byte	0x6c
 1135 00cf 03       		.uleb128 0x3
 1136 00d0 51070000 		.4byte	.LASF18
ARM GAS  C:\Users\14122\AppData\Local\Temp\ccEX8O8P.s 			page 21


 1137 00d4 07       		.byte	0x7
 1138 00d5 2C       		.byte	0x2c
 1139 00d6 7E000000 		.4byte	0x7e
 1140 00da 06       		.uleb128 0x6
 1141 00db CF000000 		.4byte	0xcf
 1142 00df 03       		.uleb128 0x3
 1143 00e0 04020000 		.4byte	.LASF19
 1144 00e4 07       		.byte	0x7
 1145 00e5 30       		.byte	0x30
 1146 00e6 90000000 		.4byte	0x90
 1147 00ea 03       		.uleb128 0x3
 1148 00eb A6060000 		.4byte	.LASF20
 1149 00ef 07       		.byte	0x7
 1150 00f0 3C       		.byte	0x3c
 1151 00f1 A2000000 		.4byte	0xa2
 1152 00f5 03       		.uleb128 0x3
 1153 00f6 1F050000 		.4byte	.LASF21
 1154 00fa 08       		.byte	0x8
 1155 00fb 2A       		.byte	0x2a
 1156 00fc B4000000 		.4byte	0xb4
 1157 0100 03       		.uleb128 0x3
 1158 0101 14040000 		.4byte	.LASF22
 1159 0105 08       		.byte	0x8
 1160 0106 2B       		.byte	0x2b
 1161 0107 B4000000 		.4byte	0xb4
 1162 010b 03       		.uleb128 0x3
 1163 010c 04070000 		.4byte	.LASF23
 1164 0110 08       		.byte	0x8
 1165 0111 2C       		.byte	0x2c
 1166 0112 B4000000 		.4byte	0xb4
 1167 0116 03       		.uleb128 0x3
 1168 0117 39020000 		.4byte	.LASF24
 1169 011b 08       		.byte	0x8
 1170 011c 2E       		.byte	0x2e
 1171 011d DF000000 		.4byte	0xdf
 1172 0121 03       		.uleb128 0x3
 1173 0122 8F040000 		.4byte	.LASF25
 1174 0126 08       		.byte	0x8
 1175 0127 2F       		.byte	0x2f
 1176 0128 CF000000 		.4byte	0xcf
 1177 012c 03       		.uleb128 0x3
 1178 012d 15020000 		.4byte	.LASF26
 1179 0131 08       		.byte	0x8
 1180 0132 31       		.byte	0x31
 1181 0133 DF000000 		.4byte	0xdf
 1182 0137 03       		.uleb128 0x3
 1183 0138 98020000 		.4byte	.LASF27
 1184 013c 08       		.byte	0x8
 1185 013d 33       		.byte	0x33
 1186 013e CF000000 		.4byte	0xcf
 1187 0142 03       		.uleb128 0x3
 1188 0143 27050000 		.4byte	.LASF28
 1189 0147 08       		.byte	0x8
 1190 0148 34       		.byte	0x34
 1191 0149 DF000000 		.4byte	0xdf
 1192 014d 03       		.uleb128 0x3
 1193 014e 01030000 		.4byte	.LASF29
ARM GAS  C:\Users\14122\AppData\Local\Temp\ccEX8O8P.s 			page 22


 1194 0152 09       		.byte	0x9
 1195 0153 34       		.byte	0x34
 1196 0154 58010000 		.4byte	0x158
 1197 0158 07       		.uleb128 0x7
 1198 0159 4E040000 		.4byte	.LASF47
 1199 015d 44       		.byte	0x44
 1200 015e 04       		.byte	0x4
 1201 015f 8E       		.byte	0x8e
 1202 0160 36020000 		.4byte	0x236
 1203 0164 08       		.uleb128 0x8
 1204 0165 4B070000 		.4byte	.LASF30
 1205 0169 04       		.byte	0x4
 1206 016a 8F       		.byte	0x8f
 1207 016b 6B020000 		.4byte	0x26b
 1208 016f 00       		.byte	0
 1209 0170 08       		.uleb128 0x8
 1210 0171 D5030000 		.4byte	.LASF31
 1211 0175 04       		.byte	0x4
 1212 0176 90       		.byte	0x90
 1213 0177 16010000 		.4byte	0x116
 1214 017b 08       		.byte	0x8
 1215 017c 09       		.uleb128 0x9
 1216 017d 63747800 		.ascii	"ctx\000"
 1217 0181 04       		.byte	0x4
 1218 0182 91       		.byte	0x91
 1219 0183 C2040000 		.4byte	0x4c2
 1220 0187 0C       		.byte	0xc
 1221 0188 08       		.uleb128 0x8
 1222 0189 71070000 		.4byte	.LASF32
 1223 018d 04       		.byte	0x4
 1224 018e 93       		.byte	0x93
 1225 018f 41020000 		.4byte	0x241
 1226 0193 10       		.byte	0x10
 1227 0194 08       		.uleb128 0x8
 1228 0195 A1080000 		.4byte	.LASF33
 1229 0199 04       		.byte	0x4
 1230 019a 94       		.byte	0x94
 1231 019b 41020000 		.4byte	0x241
 1232 019f 14       		.byte	0x14
 1233 01a0 08       		.uleb128 0x8
 1234 01a1 DA060000 		.4byte	.LASF34
 1235 01a5 04       		.byte	0x4
 1236 01a6 9B       		.byte	0x9b
 1237 01a7 26060000 		.4byte	0x626
 1238 01ab 18       		.byte	0x18
 1239 01ac 08       		.uleb128 0x8
 1240 01ad FB030000 		.4byte	.LASF35
 1241 01b1 04       		.byte	0x4
 1242 01b2 A4       		.byte	0xa4
 1243 01b3 3D060000 		.4byte	0x63d
 1244 01b7 1C       		.byte	0x1c
 1245 01b8 08       		.uleb128 0x8
 1246 01b9 FA070000 		.4byte	.LASF36
 1247 01bd 04       		.byte	0x4
 1248 01be A9       		.byte	0xa9
 1249 01bf 00010000 		.4byte	0x100
 1250 01c3 20       		.byte	0x20
ARM GAS  C:\Users\14122\AppData\Local\Temp\ccEX8O8P.s 			page 23


 1251 01c4 08       		.uleb128 0x8
 1252 01c5 5C000000 		.4byte	.LASF37
 1253 01c9 04       		.byte	0x4
 1254 01ca AD       		.byte	0xad
 1255 01cb F5000000 		.4byte	0xf5
 1256 01cf 21       		.byte	0x21
 1257 01d0 08       		.uleb128 0x8
 1258 01d1 BA000000 		.4byte	.LASF38
 1259 01d5 04       		.byte	0x4
 1260 01d6 B2       		.byte	0xb2
 1261 01d7 0B010000 		.4byte	0x10b
 1262 01db 22       		.byte	0x22
 1263 01dc 0A       		.uleb128 0xa
 1264 01dd 7500     		.ascii	"u\000"
 1265 01df 04       		.byte	0x4
 1266 01e0 0301     		.2byte	0x103
 1267 01e2 5C050000 		.4byte	0x55c
 1268 01e6 24       		.byte	0x24
 1269 01e7 0B       		.uleb128 0xb
 1270 01e8 B0070000 		.4byte	.LASF39
 1271 01ec 04       		.byte	0x4
 1272 01ed 0801     		.2byte	0x108
 1273 01ef 47020000 		.4byte	0x247
 1274 01f3 28       		.byte	0x28
 1275 01f4 0B       		.uleb128 0xb
 1276 01f5 34040000 		.4byte	.LASF40
 1277 01f9 04       		.byte	0x4
 1278 01fa 0E01     		.2byte	0x10e
 1279 01fc 6B020000 		.4byte	0x26b
 1280 0200 2C       		.byte	0x2c
 1281 0201 0B       		.uleb128 0xb
 1282 0202 75000000 		.4byte	.LASF41
 1283 0206 04       		.byte	0x4
 1284 0207 1401     		.2byte	0x114
 1285 0209 2C010000 		.4byte	0x12c
 1286 020d 34       		.byte	0x34
 1287 020e 0B       		.uleb128 0xb
 1288 020f DA020000 		.4byte	.LASF42
 1289 0213 04       		.byte	0x4
 1290 0214 1B01     		.2byte	0x11b
 1291 0216 20060000 		.4byte	0x620
 1292 021a 38       		.byte	0x38
 1293 021b 0B       		.uleb128 0xb
 1294 021c 6C000000 		.4byte	.LASF43
 1295 0220 04       		.byte	0x4
 1296 0221 1F01     		.2byte	0x11f
 1297 0223 16010000 		.4byte	0x116
 1298 0227 3C       		.byte	0x3c
 1299 0228 0B       		.uleb128 0xb
 1300 0229 C1080000 		.4byte	.LASF44
 1301 022d 04       		.byte	0x4
 1302 022e 2601     		.2byte	0x126
 1303 0230 1E030000 		.4byte	0x31e
 1304 0234 40       		.byte	0x40
 1305 0235 00       		.byte	0
 1306 0236 03       		.uleb128 0x3
 1307 0237 E8030000 		.4byte	.LASF45
ARM GAS  C:\Users\14122\AppData\Local\Temp\ccEX8O8P.s 			page 24


 1308 023b 09       		.byte	0x9
 1309 023c 39       		.byte	0x39
 1310 023d 41020000 		.4byte	0x241
 1311 0241 0C       		.uleb128 0xc
 1312 0242 04       		.byte	0x4
 1313 0243 4D010000 		.4byte	0x14d
 1314 0247 03       		.uleb128 0x3
 1315 0248 98000000 		.4byte	.LASF46
 1316 024c 09       		.byte	0x9
 1317 024d 3E       		.byte	0x3e
 1318 024e 52020000 		.4byte	0x252
 1319 0252 07       		.uleb128 0x7
 1320 0253 00000000 		.4byte	.LASF48
 1321 0257 04       		.byte	0x4
 1322 0258 04       		.byte	0x4
 1323 0259 7C       		.byte	0x7c
 1324 025a 6B020000 		.4byte	0x26b
 1325 025e 08       		.uleb128 0x8
 1326 025f 8B000000 		.4byte	.LASF49
 1327 0263 04       		.byte	0x4
 1328 0264 7D       		.byte	0x7d
 1329 0265 41020000 		.4byte	0x241
 1330 0269 00       		.byte	0
 1331 026a 00       		.byte	0
 1332 026b 03       		.uleb128 0x3
 1333 026c CA020000 		.4byte	.LASF50
 1334 0270 09       		.byte	0x9
 1335 0271 45       		.byte	0x45
 1336 0272 76020000 		.4byte	0x276
 1337 0276 07       		.uleb128 0x7
 1338 0277 7F010000 		.4byte	.LASF51
 1339 027b 08       		.byte	0x8
 1340 027c 04       		.byte	0x4
 1341 027d 83       		.byte	0x83
 1342 027e 9B020000 		.4byte	0x29b
 1343 0282 08       		.uleb128 0x8
 1344 0283 8B000000 		.4byte	.LASF49
 1345 0287 04       		.byte	0x4
 1346 0288 84       		.byte	0x84
 1347 0289 41020000 		.4byte	0x241
 1348 028d 00       		.byte	0
 1349 028e 08       		.uleb128 0x8
 1350 028f 68010000 		.4byte	.LASF52
 1351 0293 04       		.byte	0x4
 1352 0294 85       		.byte	0x85
 1353 0295 41020000 		.4byte	0x241
 1354 0299 04       		.byte	0x4
 1355 029a 00       		.byte	0
 1356 029b 03       		.uleb128 0x3
 1357 029c 29070000 		.4byte	.LASF53
 1358 02a0 09       		.byte	0x9
 1359 02a1 4C       		.byte	0x4c
 1360 02a2 A6020000 		.4byte	0x2a6
 1361 02a6 0D       		.uleb128 0xd
 1362 02a7 00010000 		.4byte	.LASF54
 1363 02ab 1C       		.byte	0x1c
 1364 02ac 04       		.byte	0x4
ARM GAS  C:\Users\14122\AppData\Local\Temp\ccEX8O8P.s 			page 25


 1365 02ad 5E01     		.2byte	0x15e
 1366 02af 02030000 		.4byte	0x302
 1367 02b3 0B       		.uleb128 0xb
 1368 02b4 4B070000 		.4byte	.LASF30
 1369 02b8 04       		.byte	0x4
 1370 02b9 5F01     		.2byte	0x15f
 1371 02bb 6B020000 		.4byte	0x26b
 1372 02bf 00       		.byte	0
 1373 02c0 0B       		.uleb128 0xb
 1374 02c1 D5030000 		.4byte	.LASF31
 1375 02c5 04       		.byte	0x4
 1376 02c6 6001     		.2byte	0x160
 1377 02c8 16010000 		.4byte	0x116
 1378 02cc 08       		.byte	0x8
 1379 02cd 0A       		.uleb128 0xa
 1380 02ce 63747800 		.ascii	"ctx\000"
 1381 02d2 04       		.byte	0x4
 1382 02d3 6201     		.2byte	0x162
 1383 02d5 C2040000 		.4byte	0x4c2
 1384 02d9 0C       		.byte	0xc
 1385 02da 0B       		.uleb128 0xb
 1386 02db 71070000 		.4byte	.LASF32
 1387 02df 04       		.byte	0x4
 1388 02e0 6501     		.2byte	0x165
 1389 02e2 41020000 		.4byte	0x241
 1390 02e6 10       		.byte	0x10
 1391 02e7 0B       		.uleb128 0xb
 1392 02e8 A1080000 		.4byte	.LASF33
 1393 02ec 04       		.byte	0x4
 1394 02ed 6601     		.2byte	0x166
 1395 02ef 41020000 		.4byte	0x241
 1396 02f3 14       		.byte	0x14
 1397 02f4 0B       		.uleb128 0xb
 1398 02f5 75080000 		.4byte	.LASF55
 1399 02f9 04       		.byte	0x4
 1400 02fa 6901     		.2byte	0x169
 1401 02fc 41020000 		.4byte	0x241
 1402 0300 18       		.byte	0x18
 1403 0301 00       		.byte	0
 1404 0302 03       		.uleb128 0x3
 1405 0303 CF010000 		.4byte	.LASF56
 1406 0307 09       		.byte	0x9
 1407 0308 51       		.byte	0x51
 1408 0309 0D030000 		.4byte	0x30d
 1409 030d 0C       		.uleb128 0xc
 1410 030e 04       		.byte	0x4
 1411 030f 13030000 		.4byte	0x313
 1412 0313 0E       		.uleb128 0xe
 1413 0314 1E030000 		.4byte	0x31e
 1414 0318 0F       		.uleb128 0xf
 1415 0319 1E030000 		.4byte	0x31e
 1416 031d 00       		.byte	0
 1417 031e 10       		.uleb128 0x10
 1418 031f 04       		.byte	0x4
 1419 0320 03       		.uleb128 0x3
 1420 0321 9E040000 		.4byte	.LASF57
 1421 0325 09       		.byte	0x9
ARM GAS  C:\Users\14122\AppData\Local\Temp\ccEX8O8P.s 			page 26


 1422 0326 56       		.byte	0x56
 1423 0327 30030000 		.4byte	0x330
 1424 032b 05       		.uleb128 0x5
 1425 032c 20030000 		.4byte	0x320
 1426 0330 0D       		.uleb128 0xd
 1427 0331 41020000 		.4byte	.LASF58
 1428 0335 14       		.byte	0x14
 1429 0336 04       		.byte	0x4
 1430 0337 3901     		.2byte	0x139
 1431 0339 7F030000 		.4byte	0x37f
 1432 033d 0B       		.uleb128 0xb
 1433 033e 8B000000 		.4byte	.LASF49
 1434 0342 04       		.byte	0x4
 1435 0343 3A01     		.2byte	0x13a
 1436 0345 43060000 		.4byte	0x643
 1437 0349 00       		.byte	0
 1438 034a 0B       		.uleb128 0xb
 1439 034b 68010000 		.4byte	.LASF52
 1440 034f 04       		.byte	0x4
 1441 0350 3B01     		.2byte	0x13b
 1442 0352 43060000 		.4byte	0x643
 1443 0356 04       		.byte	0x4
 1444 0357 0B       		.uleb128 0xb
 1445 0358 41080000 		.4byte	.LASF59
 1446 035c 04       		.byte	0x4
 1447 035d 3C01     		.2byte	0x13c
 1448 035f 4A040000 		.4byte	0x44a
 1449 0363 08       		.byte	0x8
 1450 0364 0B       		.uleb128 0xb
 1451 0365 5C010000 		.4byte	.LASF60
 1452 0369 04       		.byte	0x4
 1453 036a 3D01     		.2byte	0x13d
 1454 036c 02030000 		.4byte	0x302
 1455 0370 0C       		.byte	0xc
 1456 0371 0A       		.uleb128 0xa
 1457 0372 70617200 		.ascii	"par\000"
 1458 0376 04       		.byte	0x4
 1459 0377 3F01     		.2byte	0x13f
 1460 0379 1E030000 		.4byte	0x31e
 1461 037d 10       		.byte	0x10
 1462 037e 00       		.byte	0
 1463 037f 03       		.uleb128 0x3
 1464 0380 B8070000 		.4byte	.LASF61
 1465 0384 09       		.byte	0x9
 1466 0385 5B       		.byte	0x5b
 1467 0386 8A030000 		.4byte	0x38a
 1468 038a 0D       		.uleb128 0xd
 1469 038b E2020000 		.4byte	.LASF62
 1470 038f 10       		.byte	0x10
 1471 0390 04       		.byte	0x4
 1472 0391 4901     		.2byte	0x149
 1473 0393 CC030000 		.4byte	0x3cc
 1474 0397 0B       		.uleb128 0xb
 1475 0398 8B000000 		.4byte	.LASF49
 1476 039c 04       		.byte	0x4
 1477 039d 4A01     		.2byte	0x14a
 1478 039f 43060000 		.4byte	0x643
ARM GAS  C:\Users\14122\AppData\Local\Temp\ccEX8O8P.s 			page 27


 1479 03a3 00       		.byte	0
 1480 03a4 0B       		.uleb128 0xb
 1481 03a5 68010000 		.4byte	.LASF52
 1482 03a9 04       		.byte	0x4
 1483 03aa 4C01     		.2byte	0x14c
 1484 03ac 43060000 		.4byte	0x643
 1485 03b0 04       		.byte	0x4
 1486 03b1 0B       		.uleb128 0xb
 1487 03b2 41080000 		.4byte	.LASF59
 1488 03b6 04       		.byte	0x4
 1489 03b7 4E01     		.2byte	0x14e
 1490 03b9 4A040000 		.4byte	0x44a
 1491 03bd 08       		.byte	0x8
 1492 03be 0B       		.uleb128 0xb
 1493 03bf 9D060000 		.4byte	.LASF63
 1494 03c3 04       		.byte	0x4
 1495 03c4 5601     		.2byte	0x156
 1496 03c6 3F040000 		.4byte	0x43f
 1497 03ca 0C       		.byte	0xc
 1498 03cb 00       		.byte	0
 1499 03cc 03       		.uleb128 0x3
 1500 03cd 6D040000 		.4byte	.LASF64
 1501 03d1 09       		.byte	0x9
 1502 03d2 60       		.byte	0x60
 1503 03d3 D7030000 		.4byte	0x3d7
 1504 03d7 0D       		.uleb128 0xd
 1505 03d8 E4010000 		.4byte	.LASF65
 1506 03dc 04       		.byte	0x4
 1507 03dd 04       		.byte	0x4
 1508 03de 7001     		.2byte	0x170
 1509 03e0 F2030000 		.4byte	0x3f2
 1510 03e4 0B       		.uleb128 0xb
 1511 03e5 15050000 		.4byte	.LASF66
 1512 03e9 04       		.byte	0x4
 1513 03ea 7801     		.2byte	0x178
 1514 03ec 2C060000 		.4byte	0x62c
 1515 03f0 00       		.byte	0
 1516 03f1 00       		.byte	0
 1517 03f2 03       		.uleb128 0x3
 1518 03f3 23080000 		.4byte	.LASF67
 1519 03f7 09       		.byte	0x9
 1520 03f8 65       		.byte	0x65
 1521 03f9 FD030000 		.4byte	0x3fd
 1522 03fd 0D       		.uleb128 0xd
 1523 03fe C5050000 		.4byte	.LASF68
 1524 0402 74       		.byte	0x74
 1525 0403 04       		.byte	0x4
 1526 0404 9001     		.2byte	0x190
 1527 0406 3F040000 		.4byte	0x43f
 1528 040a 0B       		.uleb128 0xb
 1529 040b AF060000 		.4byte	.LASF69
 1530 040f 04       		.byte	0x4
 1531 0410 9401     		.2byte	0x194
 1532 0412 9B020000 		.4byte	0x29b
 1533 0416 00       		.byte	0
 1534 0417 0B       		.uleb128 0xb
 1535 0418 D9000000 		.4byte	.LASF70
ARM GAS  C:\Users\14122\AppData\Local\Temp\ccEX8O8P.s 			page 28


 1536 041c 04       		.byte	0x4
 1537 041d 9801     		.2byte	0x198
 1538 041f 7F030000 		.4byte	0x37f
 1539 0423 1C       		.byte	0x1c
 1540 0424 0A       		.uleb128 0xa
 1541 0425 64626700 		.ascii	"dbg\000"
 1542 0429 04       		.byte	0x4
 1543 042a 9C01     		.2byte	0x19c
 1544 042c CC030000 		.4byte	0x3cc
 1545 0430 2C       		.byte	0x2c
 1546 0431 0B       		.uleb128 0xb
 1547 0432 2E050000 		.4byte	.LASF71
 1548 0436 04       		.byte	0x4
 1549 0437 A001     		.2byte	0x1a0
 1550 0439 4D010000 		.4byte	0x14d
 1551 043d 30       		.byte	0x30
 1552 043e 00       		.byte	0
 1553 043f 03       		.uleb128 0x3
 1554 0440 62000000 		.4byte	.LASF72
 1555 0444 0A       		.byte	0xa
 1556 0445 6F       		.byte	0x6f
 1557 0446 C4000000 		.4byte	0xc4
 1558 044a 03       		.uleb128 0x3
 1559 044b FE040000 		.4byte	.LASF73
 1560 044f 0A       		.byte	0xa
 1561 0450 79       		.byte	0x79
 1562 0451 DF000000 		.4byte	0xdf
 1563 0455 11       		.uleb128 0x11
 1564 0456 AD050000 		.4byte	.LASF74
 1565 045a 0B       		.byte	0xb
 1566 045b 4007     		.2byte	0x740
 1567 045d DA000000 		.4byte	0xda
 1568 0461 12       		.uleb128 0x12
 1569 0462 19000000 		.4byte	.LASF75
 1570 0466 0C       		.byte	0xc
 1571 0467 45       		.byte	0x45
 1572 0468 DF000000 		.4byte	0xdf
 1573 046c 13       		.uleb128 0x13
 1574 046d BF000000 		.4byte	0xbf
 1575 0471 7C040000 		.4byte	0x47c
 1576 0475 14       		.uleb128 0x14
 1577 0476 37000000 		.4byte	0x37
 1578 047a 0F       		.byte	0xf
 1579 047b 00       		.byte	0
 1580 047c 05       		.uleb128 0x5
 1581 047d 6C040000 		.4byte	0x46c
 1582 0481 12       		.uleb128 0x12
 1583 0482 F0040000 		.4byte	.LASF76
 1584 0486 0C       		.byte	0xc
 1585 0487 46       		.byte	0x46
 1586 0488 7C040000 		.4byte	0x47c
 1587 048c 13       		.uleb128 0x13
 1588 048d BF000000 		.4byte	0xbf
 1589 0491 9C040000 		.4byte	0x49c
 1590 0495 14       		.uleb128 0x14
 1591 0496 37000000 		.4byte	0x37
 1592 049a 07       		.byte	0x7
ARM GAS  C:\Users\14122\AppData\Local\Temp\ccEX8O8P.s 			page 29


 1593 049b 00       		.byte	0
 1594 049c 05       		.uleb128 0x5
 1595 049d 8C040000 		.4byte	0x48c
 1596 04a1 12       		.uleb128 0x12
 1597 04a2 96030000 		.4byte	.LASF77
 1598 04a6 0C       		.byte	0xc
 1599 04a7 47       		.byte	0x47
 1600 04a8 9C040000 		.4byte	0x49c
 1601 04ac 03       		.uleb128 0x3
 1602 04ad 48000000 		.4byte	.LASF78
 1603 04b1 0D       		.byte	0xd
 1604 04b2 65       		.byte	0x65
 1605 04b3 1E030000 		.4byte	0x31e
 1606 04b7 03       		.uleb128 0x3
 1607 04b8 5A080000 		.4byte	.LASF79
 1608 04bc 0D       		.byte	0xd
 1609 04bd 6D       		.byte	0x6d
 1610 04be EA000000 		.4byte	0xea
 1611 04c2 07       		.uleb128 0x7
 1612 04c3 E0000000 		.4byte	.LASF80
 1613 04c7 04       		.byte	0x4
 1614 04c8 0D       		.byte	0xd
 1615 04c9 89       		.byte	0x89
 1616 04ca DA040000 		.4byte	0x4da
 1617 04ce 09       		.uleb128 0x9
 1618 04cf 737000   		.ascii	"sp\000"
 1619 04d2 0D       		.byte	0xd
 1620 04d3 8A       		.byte	0x8a
 1621 04d4 56050000 		.4byte	0x556
 1622 04d8 00       		.byte	0
 1623 04d9 00       		.byte	0
 1624 04da 0D       		.uleb128 0xd
 1625 04db A1050000 		.4byte	.LASF81
 1626 04df 24       		.byte	0x24
 1627 04e0 0E       		.byte	0xe
 1628 04e1 5901     		.2byte	0x159
 1629 04e3 56050000 		.4byte	0x556
 1630 04e7 0A       		.uleb128 0xa
 1631 04e8 723400   		.ascii	"r4\000"
 1632 04eb 0E       		.byte	0xe
 1633 04ec 6C01     		.2byte	0x16c
 1634 04ee AC040000 		.4byte	0x4ac
 1635 04f2 00       		.byte	0
 1636 04f3 0A       		.uleb128 0xa
 1637 04f4 723500   		.ascii	"r5\000"
 1638 04f7 0E       		.byte	0xe
 1639 04f8 6D01     		.2byte	0x16d
 1640 04fa AC040000 		.4byte	0x4ac
 1641 04fe 04       		.byte	0x4
 1642 04ff 0A       		.uleb128 0xa
 1643 0500 723600   		.ascii	"r6\000"
 1644 0503 0E       		.byte	0xe
 1645 0504 6E01     		.2byte	0x16e
 1646 0506 AC040000 		.4byte	0x4ac
 1647 050a 08       		.byte	0x8
 1648 050b 0A       		.uleb128 0xa
 1649 050c 723700   		.ascii	"r7\000"
ARM GAS  C:\Users\14122\AppData\Local\Temp\ccEX8O8P.s 			page 30


 1650 050f 0E       		.byte	0xe
 1651 0510 6F01     		.2byte	0x16f
 1652 0512 AC040000 		.4byte	0x4ac
 1653 0516 0C       		.byte	0xc
 1654 0517 0A       		.uleb128 0xa
 1655 0518 723800   		.ascii	"r8\000"
 1656 051b 0E       		.byte	0xe
 1657 051c 7001     		.2byte	0x170
 1658 051e AC040000 		.4byte	0x4ac
 1659 0522 10       		.byte	0x10
 1660 0523 0A       		.uleb128 0xa
 1661 0524 723900   		.ascii	"r9\000"
 1662 0527 0E       		.byte	0xe
 1663 0528 7101     		.2byte	0x171
 1664 052a AC040000 		.4byte	0x4ac
 1665 052e 14       		.byte	0x14
 1666 052f 0A       		.uleb128 0xa
 1667 0530 72313000 		.ascii	"r10\000"
 1668 0534 0E       		.byte	0xe
 1669 0535 7201     		.2byte	0x172
 1670 0537 AC040000 		.4byte	0x4ac
 1671 053b 18       		.byte	0x18
 1672 053c 0A       		.uleb128 0xa
 1673 053d 72313100 		.ascii	"r11\000"
 1674 0541 0E       		.byte	0xe
 1675 0542 7301     		.2byte	0x173
 1676 0544 AC040000 		.4byte	0x4ac
 1677 0548 1C       		.byte	0x1c
 1678 0549 0A       		.uleb128 0xa
 1679 054a 6C7200   		.ascii	"lr\000"
 1680 054d 0E       		.byte	0xe
 1681 054e 7401     		.2byte	0x174
 1682 0550 AC040000 		.4byte	0x4ac
 1683 0554 20       		.byte	0x20
 1684 0555 00       		.byte	0
 1685 0556 0C       		.uleb128 0xc
 1686 0557 04       		.byte	0x4
 1687 0558 DA040000 		.4byte	0x4da
 1688 055c 15       		.uleb128 0x15
 1689 055d 04       		.byte	0x4
 1690 055e 04       		.byte	0x4
 1691 055f C6       		.byte	0xc6
 1692 0560 BE050000 		.4byte	0x5be
 1693 0564 16       		.uleb128 0x16
 1694 0565 38030000 		.4byte	.LASF82
 1695 0569 04       		.byte	0x4
 1696 056a CD       		.byte	0xcd
 1697 056b 21010000 		.4byte	0x121
 1698 056f 16       		.uleb128 0x16
 1699 0570 AF080000 		.4byte	.LASF83
 1700 0574 04       		.byte	0x4
 1701 0575 D4       		.byte	0xd4
 1702 0576 21010000 		.4byte	0x121
 1703 057a 16       		.uleb128 0x16
 1704 057b C8000000 		.4byte	.LASF84
 1705 057f 04       		.byte	0x4
 1706 0580 DB       		.byte	0xdb
ARM GAS  C:\Users\14122\AppData\Local\Temp\ccEX8O8P.s 			page 31


 1707 0581 1E030000 		.4byte	0x31e
 1708 0585 16       		.uleb128 0x16
 1709 0586 2F080000 		.4byte	.LASF85
 1710 058a 04       		.byte	0x4
 1711 058b E2       		.byte	0xe2
 1712 058c BE050000 		.4byte	0x5be
 1713 0590 16       		.uleb128 0x16
 1714 0591 0D020000 		.4byte	.LASF86
 1715 0595 04       		.byte	0x4
 1716 0596 E7       		.byte	0xe7
 1717 0597 21010000 		.4byte	0x121
 1718 059b 16       		.uleb128 0x16
 1719 059c 62070000 		.4byte	.LASF87
 1720 05a0 04       		.byte	0x4
 1721 05a1 F0       		.byte	0xf0
 1722 05a2 E9050000 		.4byte	0x5e9
 1723 05a6 16       		.uleb128 0x16
 1724 05a7 29000000 		.4byte	.LASF88
 1725 05ab 04       		.byte	0x4
 1726 05ac F9       		.byte	0xf9
 1727 05ad 20060000 		.4byte	0x620
 1728 05b1 17       		.uleb128 0x17
 1729 05b2 61010000 		.4byte	.LASF89
 1730 05b6 04       		.byte	0x4
 1731 05b7 0101     		.2byte	0x101
 1732 05b9 2C010000 		.4byte	0x12c
 1733 05bd 00       		.byte	0
 1734 05be 0C       		.uleb128 0xc
 1735 05bf 04       		.byte	0x4
 1736 05c0 36020000 		.4byte	0x236
 1737 05c4 07       		.uleb128 0x7
 1738 05c5 2C020000 		.4byte	.LASF90
 1739 05c9 0C       		.byte	0xc
 1740 05ca 03       		.byte	0x3
 1741 05cb 34       		.byte	0x34
 1742 05cc E9050000 		.4byte	0x5e9
 1743 05d0 08       		.uleb128 0x8
 1744 05d1 4B070000 		.4byte	.LASF30
 1745 05d5 03       		.byte	0x3
 1746 05d6 35       		.byte	0x35
 1747 05d7 6B020000 		.4byte	0x26b
 1748 05db 00       		.byte	0
 1749 05dc 09       		.uleb128 0x9
 1750 05dd 636E7400 		.ascii	"cnt\000"
 1751 05e1 03       		.byte	0x3
 1752 05e2 37       		.byte	0x37
 1753 05e3 37010000 		.4byte	0x137
 1754 05e7 08       		.byte	0x8
 1755 05e8 00       		.byte	0
 1756 05e9 0C       		.uleb128 0xc
 1757 05ea 04       		.byte	0x4
 1758 05eb C4050000 		.4byte	0x5c4
 1759 05ef 07       		.uleb128 0x7
 1760 05f0 82030000 		.4byte	.LASF91
 1761 05f4 10       		.byte	0x10
 1762 05f5 0F       		.byte	0xf
 1763 05f6 39       		.byte	0x39
ARM GAS  C:\Users\14122\AppData\Local\Temp\ccEX8O8P.s 			page 32


 1764 05f7 20060000 		.4byte	0x620
 1765 05fb 08       		.uleb128 0x8
 1766 05fc 4B070000 		.4byte	.LASF30
 1767 0600 0F       		.byte	0xf
 1768 0601 3A       		.byte	0x3a
 1769 0602 6B020000 		.4byte	0x26b
 1770 0606 00       		.byte	0
 1771 0607 08       		.uleb128 0x8
 1772 0608 B8020000 		.4byte	.LASF92
 1773 060c 0F       		.byte	0xf
 1774 060d 3C       		.byte	0x3c
 1775 060e 41020000 		.4byte	0x241
 1776 0612 08       		.byte	0x8
 1777 0613 08       		.uleb128 0x8
 1778 0614 8B000000 		.4byte	.LASF49
 1779 0618 0F       		.byte	0xf
 1780 0619 3E       		.byte	0x3e
 1781 061a 8D070000 		.4byte	0x78d
 1782 061e 0C       		.byte	0xc
 1783 061f 00       		.byte	0
 1784 0620 0C       		.uleb128 0xc
 1785 0621 04       		.byte	0x4
 1786 0622 EF050000 		.4byte	0x5ef
 1787 0626 0C       		.uleb128 0xc
 1788 0627 04       		.byte	0x4
 1789 0628 38060000 		.4byte	0x638
 1790 062c 06       		.uleb128 0x6
 1791 062d 26060000 		.4byte	0x626
 1792 0631 04       		.uleb128 0x4
 1793 0632 01       		.byte	0x1
 1794 0633 08       		.byte	0x8
 1795 0634 E3030000 		.4byte	.LASF93
 1796 0638 05       		.uleb128 0x5
 1797 0639 31060000 		.4byte	0x631
 1798 063d 0C       		.uleb128 0xc
 1799 063e 04       		.byte	0x4
 1800 063f B7040000 		.4byte	0x4b7
 1801 0643 0C       		.uleb128 0xc
 1802 0644 04       		.byte	0x4
 1803 0645 20030000 		.4byte	0x320
 1804 0649 18       		.uleb128 0x18
 1805 064a 636800   		.ascii	"ch\000"
 1806 064d 04       		.byte	0x4
 1807 064e C701     		.2byte	0x1c7
 1808 0650 F2030000 		.4byte	0x3f2
 1809 0654 13       		.uleb128 0x13
 1810 0655 B7040000 		.4byte	0x4b7
 1811 0659 5F060000 		.4byte	0x65f
 1812 065d 19       		.uleb128 0x19
 1813 065e 00       		.byte	0
 1814 065f 11       		.uleb128 0x11
 1815 0660 02040000 		.4byte	.LASF94
 1816 0664 10       		.byte	0x10
 1817 0665 1701     		.2byte	0x117
 1818 0667 54060000 		.4byte	0x654
 1819 066b 1A       		.uleb128 0x1a
 1820 066c 16       		.byte	0x16
ARM GAS  C:\Users\14122\AppData\Local\Temp\ccEX8O8P.s 			page 33


 1821 066d 11       		.byte	0x11
 1822 066e 34       		.byte	0x34
 1823 066f 4C070000 		.4byte	0x74c
 1824 0673 08       		.uleb128 0x8
 1825 0674 ED060000 		.4byte	.LASF95
 1826 0678 11       		.byte	0x11
 1827 0679 35       		.byte	0x35
 1828 067a 4C070000 		.4byte	0x74c
 1829 067e 00       		.byte	0
 1830 067f 08       		.uleb128 0x8
 1831 0680 8A040000 		.4byte	.LASF96
 1832 0684 11       		.byte	0x11
 1833 0685 36       		.byte	0x36
 1834 0686 B4000000 		.4byte	0xb4
 1835 068a 04       		.byte	0x4
 1836 068b 08       		.uleb128 0x8
 1837 068c E3040000 		.4byte	.LASF97
 1838 0690 11       		.byte	0x11
 1839 0691 37       		.byte	0x37
 1840 0692 B4000000 		.4byte	0xb4
 1841 0696 05       		.byte	0x5
 1842 0697 08       		.uleb128 0x8
 1843 0698 90000000 		.4byte	.LASF98
 1844 069c 11       		.byte	0x11
 1845 069d 38       		.byte	0x38
 1846 069e C4000000 		.4byte	0xc4
 1847 06a2 06       		.byte	0x6
 1848 06a3 08       		.uleb128 0x8
 1849 06a4 E8040000 		.4byte	.LASF99
 1850 06a8 11       		.byte	0x11
 1851 06a9 39       		.byte	0x39
 1852 06aa B4000000 		.4byte	0xb4
 1853 06ae 08       		.byte	0x8
 1854 06af 08       		.uleb128 0x8
 1855 06b0 10000000 		.4byte	.LASF100
 1856 06b4 11       		.byte	0x11
 1857 06b5 3A       		.byte	0x3a
 1858 06b6 B4000000 		.4byte	0xb4
 1859 06ba 09       		.byte	0x9
 1860 06bb 08       		.uleb128 0x8
 1861 06bc 21020000 		.4byte	.LASF101
 1862 06c0 11       		.byte	0x11
 1863 06c1 3B       		.byte	0x3b
 1864 06c2 B4000000 		.4byte	0xb4
 1865 06c6 0A       		.byte	0xa
 1866 06c7 08       		.uleb128 0x8
 1867 06c8 7A050000 		.4byte	.LASF102
 1868 06cc 11       		.byte	0x11
 1869 06cd 3C       		.byte	0x3c
 1870 06ce B4000000 		.4byte	0xb4
 1871 06d2 0B       		.byte	0xb
 1872 06d3 08       		.uleb128 0x8
 1873 06d4 A4030000 		.4byte	.LASF103
 1874 06d8 11       		.byte	0x11
 1875 06d9 3D       		.byte	0x3d
 1876 06da B4000000 		.4byte	0xb4
 1877 06de 0C       		.byte	0xc
ARM GAS  C:\Users\14122\AppData\Local\Temp\ccEX8O8P.s 			page 34


 1878 06df 08       		.uleb128 0x8
 1879 06e0 C5010000 		.4byte	.LASF104
 1880 06e4 11       		.byte	0x11
 1881 06e5 3E       		.byte	0x3e
 1882 06e6 B4000000 		.4byte	0xb4
 1883 06ea 0D       		.byte	0xd
 1884 06eb 08       		.uleb128 0x8
 1885 06ec 1D030000 		.4byte	.LASF105
 1886 06f0 11       		.byte	0x11
 1887 06f1 3F       		.byte	0x3f
 1888 06f2 B4000000 		.4byte	0xb4
 1889 06f6 0E       		.byte	0xe
 1890 06f7 08       		.uleb128 0x8
 1891 06f8 64040000 		.4byte	.LASF106
 1892 06fc 11       		.byte	0x11
 1893 06fd 40       		.byte	0x40
 1894 06fe B4000000 		.4byte	0xb4
 1895 0702 0F       		.byte	0xf
 1896 0703 08       		.uleb128 0x8
 1897 0704 AB020000 		.4byte	.LASF107
 1898 0708 11       		.byte	0x11
 1899 0709 41       		.byte	0x41
 1900 070a B4000000 		.4byte	0xb4
 1901 070e 10       		.byte	0x10
 1902 070f 08       		.uleb128 0x8
 1903 0710 27030000 		.4byte	.LASF108
 1904 0714 11       		.byte	0x11
 1905 0715 42       		.byte	0x42
 1906 0716 B4000000 		.4byte	0xb4
 1907 071a 11       		.byte	0x11
 1908 071b 08       		.uleb128 0x8
 1909 071c CB030000 		.4byte	.LASF109
 1910 0720 11       		.byte	0x11
 1911 0721 43       		.byte	0x43
 1912 0722 B4000000 		.4byte	0xb4
 1913 0726 12       		.byte	0x12
 1914 0727 08       		.uleb128 0x8
 1915 0728 65080000 		.4byte	.LASF110
 1916 072c 11       		.byte	0x11
 1917 072d 44       		.byte	0x44
 1918 072e B4000000 		.4byte	0xb4
 1919 0732 13       		.byte	0x13
 1920 0733 08       		.uleb128 0x8
 1921 0734 F8060000 		.4byte	.LASF111
 1922 0738 11       		.byte	0x11
 1923 0739 45       		.byte	0x45
 1924 073a B4000000 		.4byte	0xb4
 1925 073e 14       		.byte	0x14
 1926 073f 08       		.uleb128 0x8
 1927 0740 BF000000 		.4byte	.LASF112
 1928 0744 11       		.byte	0x11
 1929 0745 46       		.byte	0x46
 1930 0746 B4000000 		.4byte	0xb4
 1931 074a 15       		.byte	0x15
 1932 074b 00       		.byte	0
 1933 074c 13       		.uleb128 0x13
 1934 074d 31060000 		.4byte	0x631
ARM GAS  C:\Users\14122\AppData\Local\Temp\ccEX8O8P.s 			page 35


 1935 0751 5C070000 		.4byte	0x75c
 1936 0755 14       		.uleb128 0x14
 1937 0756 37000000 		.4byte	0x37
 1938 075a 03       		.byte	0x3
 1939 075b 00       		.byte	0
 1940 075c 03       		.uleb128 0x3
 1941 075d 70050000 		.4byte	.LASF113
 1942 0761 11       		.byte	0x11
 1943 0762 47       		.byte	0x47
 1944 0763 6B060000 		.4byte	0x66b
 1945 0767 05       		.uleb128 0x5
 1946 0768 5C070000 		.4byte	0x75c
 1947 076c 12       		.uleb128 0x12
 1948 076d 86080000 		.4byte	.LASF114
 1949 0771 11       		.byte	0x11
 1950 0772 6C       		.byte	0x6c
 1951 0773 67070000 		.4byte	0x767
 1952 0777 03       		.uleb128 0x3
 1953 0778 BE020000 		.4byte	.LASF115
 1954 077c 03       		.byte	0x3
 1955 077d 38       		.byte	0x38
 1956 077e C4050000 		.4byte	0x5c4
 1957 0782 03       		.uleb128 0x3
 1958 0783 69070000 		.4byte	.LASF116
 1959 0787 0F       		.byte	0xf
 1960 0788 34       		.byte	0x34
 1961 0789 EF050000 		.4byte	0x5ef
 1962 078d 0C       		.uleb128 0xc
 1963 078e 04       		.byte	0x4
 1964 078f 82070000 		.4byte	0x782
 1965 0793 04       		.uleb128 0x4
 1966 0794 01       		.byte	0x1
 1967 0795 02       		.byte	0x2
 1968 0796 4B030000 		.4byte	.LASF117
 1969 079a 03       		.uleb128 0x3
 1970 079b CD060000 		.4byte	.LASF118
 1971 079f 12       		.byte	0x12
 1972 07a0 47       		.byte	0x47
 1973 07a1 A5070000 		.4byte	0x7a5
 1974 07a5 0C       		.uleb128 0xc
 1975 07a6 04       		.byte	0x4
 1976 07a7 AB070000 		.4byte	0x7ab
 1977 07ab 1B       		.uleb128 0x1b
 1978 07ac 1E030000 		.4byte	0x31e
 1979 07b0 BF070000 		.4byte	0x7bf
 1980 07b4 0F       		.uleb128 0xf
 1981 07b5 2C000000 		.4byte	0x2c
 1982 07b9 0F       		.uleb128 0xf
 1983 07ba 37000000 		.4byte	0x37
 1984 07be 00       		.byte	0
 1985 07bf 1A       		.uleb128 0x1a
 1986 07c0 08       		.byte	0x8
 1987 07c1 12       		.byte	0x12
 1988 07c2 51       		.byte	0x51
 1989 07c3 E0070000 		.4byte	0x7e0
 1990 07c7 08       		.uleb128 0x8
 1991 07c8 A7080000 		.4byte	.LASF119
ARM GAS  C:\Users\14122\AppData\Local\Temp\ccEX8O8P.s 			page 36


 1992 07cc 12       		.byte	0x12
 1993 07cd 55       		.byte	0x55
 1994 07ce E0070000 		.4byte	0x7e0
 1995 07d2 00       		.byte	0
 1996 07d3 08       		.uleb128 0x8
 1997 07d4 6E080000 		.4byte	.LASF120
 1998 07d8 12       		.byte	0x12
 1999 07d9 59       		.byte	0x59
 2000 07da E0070000 		.4byte	0x7e0
 2001 07de 04       		.byte	0x4
 2002 07df 00       		.byte	0
 2003 07e0 0C       		.uleb128 0xc
 2004 07e1 04       		.byte	0x4
 2005 07e2 B4000000 		.4byte	0xb4
 2006 07e6 03       		.uleb128 0x3
 2007 07e7 52020000 		.4byte	.LASF121
 2008 07eb 12       		.byte	0x12
 2009 07ec 5A       		.byte	0x5a
 2010 07ed BF070000 		.4byte	0x7bf
 2011 07f1 12       		.uleb128 0x12
 2012 07f2 83050000 		.4byte	.LASF122
 2013 07f6 12       		.byte	0x12
 2014 07f7 65       		.byte	0x65
 2015 07f8 E6070000 		.4byte	0x7e6
 2016 07fc 07       		.uleb128 0x7
 2017 07fd 00080000 		.4byte	.LASF123
 2018 0801 04       		.byte	0x4
 2019 0802 13       		.byte	0x13
 2020 0803 38       		.byte	0x38
 2021 0804 15080000 		.4byte	0x815
 2022 0808 08       		.uleb128 0x8
 2023 0809 8B000000 		.4byte	.LASF49
 2024 080d 13       		.byte	0x13
 2025 080e 39       		.byte	0x39
 2026 080f 15080000 		.4byte	0x815
 2027 0813 00       		.byte	0
 2028 0814 00       		.byte	0
 2029 0815 0C       		.uleb128 0xc
 2030 0816 04       		.byte	0x4
 2031 0817 FC070000 		.4byte	0x7fc
 2032 081b 1A       		.uleb128 0x1a
 2033 081c 10       		.byte	0x10
 2034 081d 13       		.byte	0x13
 2035 081e 40       		.byte	0x40
 2036 081f 54080000 		.4byte	0x854
 2037 0823 08       		.uleb128 0x8
 2038 0824 8B000000 		.4byte	.LASF49
 2039 0828 13       		.byte	0x13
 2040 0829 41       		.byte	0x41
 2041 082a 15080000 		.4byte	0x815
 2042 082e 00       		.byte	0
 2043 082f 08       		.uleb128 0x8
 2044 0830 3F030000 		.4byte	.LASF124
 2045 0834 13       		.byte	0x13
 2046 0835 42       		.byte	0x42
 2047 0836 2C000000 		.4byte	0x2c
 2048 083a 04       		.byte	0x4
ARM GAS  C:\Users\14122\AppData\Local\Temp\ccEX8O8P.s 			page 37


 2049 083b 08       		.uleb128 0x8
 2050 083c 9B080000 		.4byte	.LASF125
 2051 0840 13       		.byte	0x13
 2052 0841 44       		.byte	0x44
 2053 0842 37000000 		.4byte	0x37
 2054 0846 08       		.byte	0x8
 2055 0847 08       		.uleb128 0x8
 2056 0848 94060000 		.4byte	.LASF126
 2057 084c 13       		.byte	0x13
 2058 084d 45       		.byte	0x45
 2059 084e 9A070000 		.4byte	0x79a
 2060 0852 0C       		.byte	0xc
 2061 0853 00       		.byte	0
 2062 0854 03       		.uleb128 0x3
 2063 0855 30000000 		.4byte	.LASF127
 2064 0859 13       		.byte	0x13
 2065 085a 47       		.byte	0x47
 2066 085b 1B080000 		.4byte	0x81b
 2067 085f 07       		.uleb128 0x7
 2068 0860 25040000 		.4byte	.LASF128
 2069 0864 10       		.byte	0x10
 2070 0865 14       		.byte	0x14
 2071 0866 93       		.byte	0x93
 2072 0867 90080000 		.4byte	0x890
 2073 086b 08       		.uleb128 0x8
 2074 086c 8B000000 		.4byte	.LASF49
 2075 0870 14       		.byte	0x14
 2076 0871 97       		.byte	0x97
 2077 0872 90080000 		.4byte	0x890
 2078 0876 00       		.byte	0
 2079 0877 08       		.uleb128 0x8
 2080 0878 BA000000 		.4byte	.LASF38
 2081 087c 14       		.byte	0x14
 2082 087d 9B       		.byte	0x9b
 2083 087e 42010000 		.4byte	0x142
 2084 0882 04       		.byte	0x4
 2085 0883 08       		.uleb128 0x8
 2086 0884 DA060000 		.4byte	.LASF34
 2087 0888 14       		.byte	0x14
 2088 0889 9D       		.byte	0x9d
 2089 088a 96080000 		.4byte	0x896
 2090 088e 08       		.byte	0x8
 2091 088f 00       		.byte	0
 2092 0890 0C       		.uleb128 0xc
 2093 0891 04       		.byte	0x4
 2094 0892 5F080000 		.4byte	0x85f
 2095 0896 13       		.uleb128 0x13
 2096 0897 31060000 		.4byte	0x631
 2097 089b A6080000 		.4byte	0x8a6
 2098 089f 14       		.uleb128 0x14
 2099 08a0 37000000 		.4byte	0x37
 2100 08a4 07       		.byte	0x7
 2101 08a5 00       		.byte	0
 2102 08a6 03       		.uleb128 0x3
 2103 08a7 D6070000 		.4byte	.LASF129
 2104 08ab 14       		.byte	0x14
 2105 08ac A1       		.byte	0xa1
ARM GAS  C:\Users\14122\AppData\Local\Temp\ccEX8O8P.s 			page 38


 2106 08ad 5F080000 		.4byte	0x85f
 2107 08b1 07       		.uleb128 0x7
 2108 08b2 58040000 		.4byte	.LASF130
 2109 08b6 04       		.byte	0x4
 2110 08b7 14       		.byte	0x14
 2111 08b8 A6       		.byte	0xa6
 2112 08b9 CA080000 		.4byte	0x8ca
 2113 08bd 08       		.uleb128 0x8
 2114 08be 8B000000 		.4byte	.LASF49
 2115 08c2 14       		.byte	0x14
 2116 08c3 A7       		.byte	0xa7
 2117 08c4 CA080000 		.4byte	0x8ca
 2118 08c8 00       		.byte	0
 2119 08c9 00       		.byte	0
 2120 08ca 0C       		.uleb128 0xc
 2121 08cb 04       		.byte	0x4
 2122 08cc A6080000 		.4byte	0x8a6
 2123 08d0 03       		.uleb128 0x3
 2124 08d1 51000000 		.4byte	.LASF131
 2125 08d5 14       		.byte	0x14
 2126 08d6 A8       		.byte	0xa8
 2127 08d7 B1080000 		.4byte	0x8b1
 2128 08db 0D       		.uleb128 0xd
 2129 08dc A1010000 		.4byte	.LASF132
 2130 08e0 44       		.byte	0x44
 2131 08e1 14       		.byte	0x14
 2132 08e2 1101     		.2byte	0x111
 2133 08e4 51090000 		.4byte	0x951
 2134 08e8 0A       		.uleb128 0xa
 2135 08e9 6D747800 		.ascii	"mtx\000"
 2136 08ed 14       		.byte	0x14
 2137 08ee 1601     		.2byte	0x116
 2138 08f0 82070000 		.4byte	0x782
 2139 08f4 00       		.byte	0
 2140 08f5 0B       		.uleb128 0xb
 2141 08f6 A7000000 		.4byte	.LASF133
 2142 08fa 14       		.byte	0x14
 2143 08fb 1D01     		.2byte	0x11d
 2144 08fd D0080000 		.4byte	0x8d0
 2145 0901 10       		.byte	0x10
 2146 0902 0B       		.uleb128 0xb
 2147 0903 95040000 		.4byte	.LASF134
 2148 0907 14       		.byte	0x14
 2149 0908 2101     		.2byte	0x121
 2150 090a 54080000 		.4byte	0x854
 2151 090e 14       		.byte	0x14
 2152 090f 0B       		.uleb128 0xb
 2153 0910 0C050000 		.4byte	.LASF135
 2154 0914 14       		.byte	0x14
 2155 0915 2601     		.2byte	0x126
 2156 0917 D0080000 		.4byte	0x8d0
 2157 091b 24       		.byte	0x24
 2158 091c 0B       		.uleb128 0xb
 2159 091d B8080000 		.4byte	.LASF136
 2160 0921 14       		.byte	0x14
 2161 0922 2C01     		.2byte	0x12c
 2162 0924 D0080000 		.4byte	0x8d0
ARM GAS  C:\Users\14122\AppData\Local\Temp\ccEX8O8P.s 			page 39


 2163 0928 28       		.byte	0x28
 2164 0929 0B       		.uleb128 0xb
 2165 092a DA030000 		.4byte	.LASF137
 2166 092e 14       		.byte	0x14
 2167 092f 3001     		.2byte	0x130
 2168 0931 54080000 		.4byte	0x854
 2169 0935 2C       		.byte	0x2c
 2170 0936 0B       		.uleb128 0xb
 2171 0937 E4070000 		.4byte	.LASF138
 2172 093b 14       		.byte	0x14
 2173 093c 3601     		.2byte	0x136
 2174 093e D0080000 		.4byte	0x8d0
 2175 0942 3C       		.byte	0x3c
 2176 0943 0B       		.uleb128 0xb
 2177 0944 3E000000 		.4byte	.LASF139
 2178 0948 14       		.byte	0x14
 2179 0949 3C01     		.2byte	0x13c
 2180 094b D0080000 		.4byte	0x8d0
 2181 094f 40       		.byte	0x40
 2182 0950 00       		.byte	0
 2183 0951 1C       		.uleb128 0x1c
 2184 0952 58030000 		.4byte	.LASF140
 2185 0956 14       		.byte	0x14
 2186 0957 3E01     		.2byte	0x13e
 2187 0959 DB080000 		.4byte	0x8db
 2188 095d 11       		.uleb128 0x11
 2189 095e BA050000 		.4byte	.LASF141
 2190 0962 14       		.byte	0x14
 2191 0963 4901     		.2byte	0x149
 2192 0965 51090000 		.4byte	0x951
 2193 0969 1D       		.uleb128 0x1d
 2194 096a 49060000 		.4byte	0x649
 2195 096e 01       		.byte	0x1
 2196 096f 2A       		.byte	0x2a
 2197 0970 05       		.uleb128 0x5
 2198 0971 03       		.byte	0x3
 2199 0972 00000000 		.4byte	ch
 2200 0976 1E       		.uleb128 0x1e
 2201 0977 6D010000 		.4byte	.LASF175
 2202 097b 01       		.byte	0x1
 2203 097c 3A02     		.2byte	0x23a
 2204 097e 8F090000 		.4byte	0x98f
 2205 0982 1F       		.uleb128 0x1f
 2206 0983 6F747000 		.ascii	"otp\000"
 2207 0987 01       		.byte	0x1
 2208 0988 3B02     		.2byte	0x23b
 2209 098a 41020000 		.4byte	0x241
 2210 098e 00       		.byte	0
 2211 098f 20       		.uleb128 0x20
 2212 0990 0C080000 		.4byte	.LASF142
 2213 0994 01       		.byte	0x1
 2214 0995 1C02     		.2byte	0x21c
 2215 0997 00000000 		.4byte	.LFB230
 2216 099b 40000000 		.4byte	.LFE230-.LFB230
 2217 099f 01       		.uleb128 0x1
 2218 09a0 9C       		.byte	0x9c
 2219 09a1 1A0A0000 		.4byte	0xa1a
ARM GAS  C:\Users\14122\AppData\Local\Temp\ccEX8O8P.s 			page 40


 2220 09a5 21       		.uleb128 0x21
 2221 09a6 6F747000 		.ascii	"otp\000"
 2222 09aa 01       		.byte	0x1
 2223 09ab 1D02     		.2byte	0x21d
 2224 09ad 41020000 		.4byte	0x241
 2225 09b1 00000000 		.4byte	.LLST27
 2226 09b5 22       		.uleb128 0x22
 2227 09b6 260D0000 		.4byte	0xd26
 2228 09ba 06000000 		.4byte	.LBB204
 2229 09be 08010000 		.4byte	.Ldebug_ranges0+0x108
 2230 09c2 01       		.byte	0x1
 2231 09c3 2902     		.2byte	0x229
 2232 09c5 E3090000 		.4byte	0x9e3
 2233 09c9 23       		.uleb128 0x23
 2234 09ca 370D0000 		.4byte	0xd37
 2235 09ce 13000000 		.4byte	.LLST28
 2236 09d2 24       		.uleb128 0x24
 2237 09d3 08010000 		.4byte	.Ldebug_ranges0+0x108
 2238 09d7 25       		.uleb128 0x25
 2239 09d8 F8100000 		.4byte	0x10f8
 2240 09dc 25       		.uleb128 0x25
 2241 09dd FF100000 		.4byte	0x10ff
 2242 09e1 00       		.byte	0
 2243 09e2 00       		.byte	0
 2244 09e3 22       		.uleb128 0x22
 2245 09e4 610E0000 		.4byte	0xe61
 2246 09e8 0A000000 		.4byte	.LBB209
 2247 09ec 30010000 		.4byte	.Ldebug_ranges0+0x130
 2248 09f0 01       		.byte	0x1
 2249 09f1 2002     		.2byte	0x220
 2250 09f3 100A0000 		.4byte	0xa10
 2251 09f7 23       		.uleb128 0x23
 2252 09f8 720E0000 		.4byte	0xe72
 2253 09fc 26000000 		.4byte	.LLST29
 2254 0a00 24       		.uleb128 0x24
 2255 0a01 30010000 		.4byte	.Ldebug_ranges0+0x130
 2256 0a05 26       		.uleb128 0x26
 2257 0a06 7E0E0000 		.4byte	0xe7e
 2258 0a0a 3E000000 		.4byte	.LLST30
 2259 0a0e 00       		.byte	0
 2260 0a0f 00       		.byte	0
 2261 0a10 27       		.uleb128 0x27
 2262 0a11 3A000000 		.4byte	.LVL65
 2263 0a15 05110000 		.4byte	0x1105
 2264 0a19 00       		.byte	0
 2265 0a1a 20       		.uleb128 0x20
 2266 0a1b 6A030000 		.4byte	.LASF143
 2267 0a1f 01       		.byte	0x1
 2268 0a20 FB01     		.2byte	0x1fb
 2269 0a22 00000000 		.4byte	.LFB229
 2270 0a26 40000000 		.4byte	.LFE229-.LFB229
 2271 0a2a 01       		.uleb128 0x1
 2272 0a2b 9C       		.byte	0x9c
 2273 0a2c A50A0000 		.4byte	0xaa5
 2274 0a30 21       		.uleb128 0x21
 2275 0a31 6F747000 		.ascii	"otp\000"
 2276 0a35 01       		.byte	0x1
ARM GAS  C:\Users\14122\AppData\Local\Temp\ccEX8O8P.s 			page 41


 2277 0a36 FC01     		.2byte	0x1fc
 2278 0a38 41020000 		.4byte	0x241
 2279 0a3c 51000000 		.4byte	.LLST23
 2280 0a40 22       		.uleb128 0x22
 2281 0a41 700D0000 		.4byte	0xd70
 2282 0a45 06000000 		.4byte	.LBB190
 2283 0a49 C0000000 		.4byte	.Ldebug_ranges0+0xc0
 2284 0a4d 01       		.byte	0x1
 2285 0a4e 0D02     		.2byte	0x20d
 2286 0a50 6E0A0000 		.4byte	0xa6e
 2287 0a54 23       		.uleb128 0x23
 2288 0a55 800D0000 		.4byte	0xd80
 2289 0a59 64000000 		.4byte	.LLST24
 2290 0a5d 24       		.uleb128 0x24
 2291 0a5e C0000000 		.4byte	.Ldebug_ranges0+0xc0
 2292 0a62 25       		.uleb128 0x25
 2293 0a63 CF100000 		.4byte	0x10cf
 2294 0a67 25       		.uleb128 0x25
 2295 0a68 D6100000 		.4byte	0x10d6
 2296 0a6c 00       		.byte	0
 2297 0a6d 00       		.byte	0
 2298 0a6e 22       		.uleb128 0x22
 2299 0a6f 610E0000 		.4byte	0xe61
 2300 0a73 0A000000 		.4byte	.LBB195
 2301 0a77 E8000000 		.4byte	.Ldebug_ranges0+0xe8
 2302 0a7b 01       		.byte	0x1
 2303 0a7c FF01     		.2byte	0x1ff
 2304 0a7e 9B0A0000 		.4byte	0xa9b
 2305 0a82 23       		.uleb128 0x23
 2306 0a83 720E0000 		.4byte	0xe72
 2307 0a87 77000000 		.4byte	.LLST25
 2308 0a8b 24       		.uleb128 0x24
 2309 0a8c E8000000 		.4byte	.Ldebug_ranges0+0xe8
 2310 0a90 26       		.uleb128 0x26
 2311 0a91 7E0E0000 		.4byte	0xe7e
 2312 0a95 8F000000 		.4byte	.LLST26
 2313 0a99 00       		.byte	0
 2314 0a9a 00       		.byte	0
 2315 0a9b 27       		.uleb128 0x27
 2316 0a9c 3A000000 		.4byte	.LVL58
 2317 0aa0 05110000 		.4byte	0x1105
 2318 0aa4 00       		.byte	0
 2319 0aa5 28       		.uleb128 0x28
 2320 0aa6 73020000 		.4byte	.LASF146
 2321 0aaa 01       		.byte	0x1
 2322 0aab DF01     		.2byte	0x1df
 2323 0aad 93070000 		.4byte	0x793
 2324 0ab1 00000000 		.4byte	.LFB228
 2325 0ab5 18000000 		.4byte	.LFE228-.LFB228
 2326 0ab9 01       		.uleb128 0x1
 2327 0aba 9C       		.byte	0x9c
 2328 0abb E80A0000 		.4byte	0xae8
 2329 0abf 29       		.uleb128 0x29
 2330 0ac0 703100   		.ascii	"p1\000"
 2331 0ac3 01       		.byte	0x1
 2332 0ac4 E001     		.2byte	0x1e0
 2333 0ac6 16010000 		.4byte	0x116
ARM GAS  C:\Users\14122\AppData\Local\Temp\ccEX8O8P.s 			page 42


 2334 0aca 08       		.uleb128 0x8
 2335 0acb 03       		.byte	0x3
 2336 0acc 00000000 		.4byte	ch
 2337 0ad0 06       		.byte	0x6
 2338 0ad1 23       		.byte	0x23
 2339 0ad2 08       		.uleb128 0x8
 2340 0ad3 29       		.uleb128 0x29
 2341 0ad4 703200   		.ascii	"p2\000"
 2342 0ad7 01       		.byte	0x1
 2343 0ad8 E101     		.2byte	0x1e1
 2344 0ada 16010000 		.4byte	0x116
 2345 0ade 08       		.uleb128 0x8
 2346 0adf 03       		.byte	0x3
 2347 0ae0 18000000 		.4byte	ch+24
 2348 0ae4 06       		.byte	0x6
 2349 0ae5 23       		.byte	0x23
 2350 0ae6 08       		.uleb128 0x8
 2351 0ae7 00       		.byte	0
 2352 0ae8 20       		.uleb128 0x20
 2353 0ae9 AC030000 		.4byte	.LASF144
 2354 0aed 01       		.byte	0x1
 2355 0aee C801     		.2byte	0x1c8
 2356 0af0 00000000 		.4byte	.LFB227
 2357 0af4 18000000 		.4byte	.LFE227-.LFB227
 2358 0af8 01       		.uleb128 0x1
 2359 0af9 9C       		.byte	0x9c
 2360 0afa 180B0000 		.4byte	0xb18
 2361 0afe 2A       		.uleb128 0x2a
 2362 0aff 370E0000 		.4byte	0xe37
 2363 0b03 00000000 		.4byte	.LBB218
 2364 0b07 06000000 		.4byte	.LBE218-.LBB218
 2365 0b0b 01       		.byte	0x1
 2366 0b0c CC01     		.2byte	0x1cc
 2367 0b0e 27       		.uleb128 0x27
 2368 0b0f 14000000 		.4byte	.LVL66
 2369 0b13 8F090000 		.4byte	0x98f
 2370 0b17 00       		.byte	0
 2371 0b18 20       		.uleb128 0x20
 2372 0b19 ED070000 		.4byte	.LASF145
 2373 0b1d 01       		.byte	0x1
 2374 0b1e 9C01     		.2byte	0x19c
 2375 0b20 00000000 		.4byte	.LFB226
 2376 0b24 60000000 		.4byte	.LFE226-.LFB226
 2377 0b28 01       		.uleb128 0x1
 2378 0b29 9C       		.byte	0x9c
 2379 0b2a D90B0000 		.4byte	0xbd9
 2380 0b2e 2B       		.uleb128 0x2b
 2381 0b2f 6E747000 		.ascii	"ntp\000"
 2382 0b33 01       		.byte	0x1
 2383 0b34 9C01     		.2byte	0x19c
 2384 0b36 41020000 		.4byte	0x241
 2385 0b3a A2000000 		.4byte	.LLST18
 2386 0b3e 2B       		.uleb128 0x2b
 2387 0b3f 6D736700 		.ascii	"msg\000"
 2388 0b43 01       		.byte	0x1
 2389 0b44 9C01     		.2byte	0x19c
 2390 0b46 21010000 		.4byte	0x121
ARM GAS  C:\Users\14122\AppData\Local\Temp\ccEX8O8P.s 			page 43


 2391 0b4a F0000000 		.4byte	.LLST19
 2392 0b4e 21       		.uleb128 0x21
 2393 0b4f 6F747000 		.ascii	"otp\000"
 2394 0b53 01       		.byte	0x1
 2395 0b54 9D01     		.2byte	0x19d
 2396 0b56 41020000 		.4byte	0x241
 2397 0b5a 1D010000 		.4byte	.LLST20
 2398 0b5e 2C       		.uleb128 0x2c
 2399 0b5f 7D080000 		.4byte	.LASF151
 2400 0b63 E90B0000 		.4byte	0xbe9
 2401 0b67 2D       		.uleb128 0x2d
 2402 0b68 700D0000 		.4byte	0xd70
 2403 0b6c 12000000 		.4byte	.LBB184
 2404 0b70 18000000 		.4byte	.LBE184-.LBB184
 2405 0b74 01       		.byte	0x1
 2406 0b75 AE01     		.2byte	0x1ae
 2407 0b77 990B0000 		.4byte	0xb99
 2408 0b7b 23       		.uleb128 0x23
 2409 0b7c 800D0000 		.4byte	0xd80
 2410 0b80 3B010000 		.4byte	.LLST21
 2411 0b84 2E       		.uleb128 0x2e
 2412 0b85 12000000 		.4byte	.LBB185
 2413 0b89 18000000 		.4byte	.LBE185-.LBB185
 2414 0b8d 25       		.uleb128 0x25
 2415 0b8e CF100000 		.4byte	0x10cf
 2416 0b92 25       		.uleb128 0x25
 2417 0b93 D6100000 		.4byte	0x10d6
 2418 0b97 00       		.byte	0
 2419 0b98 00       		.byte	0
 2420 0b99 22       		.uleb128 0x22
 2421 0b9a 700D0000 		.4byte	0xd70
 2422 0b9e 2E000000 		.4byte	.LBB186
 2423 0ba2 A8000000 		.4byte	.Ldebug_ranges0+0xa8
 2424 0ba6 01       		.byte	0x1
 2425 0ba7 B101     		.2byte	0x1b1
 2426 0ba9 C70B0000 		.4byte	0xbc7
 2427 0bad 23       		.uleb128 0x23
 2428 0bae 800D0000 		.4byte	0xd80
 2429 0bb2 5A010000 		.4byte	.LLST22
 2430 0bb6 24       		.uleb128 0x24
 2431 0bb7 A8000000 		.4byte	.Ldebug_ranges0+0xa8
 2432 0bbb 25       		.uleb128 0x25
 2433 0bbc CF100000 		.4byte	0x10cf
 2434 0bc0 25       		.uleb128 0x25
 2435 0bc1 D6100000 		.4byte	0x10d6
 2436 0bc5 00       		.byte	0
 2437 0bc6 00       		.byte	0
 2438 0bc7 2F       		.uleb128 0x2f
 2439 0bc8 5A000000 		.4byte	.LVL50
 2440 0bcc 05110000 		.4byte	0x1105
 2441 0bd0 30       		.uleb128 0x30
 2442 0bd1 01       		.uleb128 0x1
 2443 0bd2 50       		.byte	0x50
 2444 0bd3 03       		.uleb128 0x3
 2445 0bd4 F3       		.byte	0xf3
 2446 0bd5 01       		.uleb128 0x1
 2447 0bd6 50       		.byte	0x50
ARM GAS  C:\Users\14122\AppData\Local\Temp\ccEX8O8P.s 			page 44


 2448 0bd7 00       		.byte	0
 2449 0bd8 00       		.byte	0
 2450 0bd9 13       		.uleb128 0x13
 2451 0bda 38060000 		.4byte	0x638
 2452 0bde E90B0000 		.4byte	0xbe9
 2453 0be2 14       		.uleb128 0x14
 2454 0be3 37000000 		.4byte	0x37
 2455 0be7 0C       		.byte	0xc
 2456 0be8 00       		.byte	0
 2457 0be9 05       		.uleb128 0x5
 2458 0bea D90B0000 		.4byte	0xbd9
 2459 0bee 28       		.uleb128 0x28
 2460 0bef 36070000 		.4byte	.LASF147
 2461 0bf3 01       		.byte	0x1
 2462 0bf4 7701     		.2byte	0x177
 2463 0bf6 21010000 		.4byte	0x121
 2464 0bfa 00000000 		.4byte	.LFB225
 2465 0bfe 44000000 		.4byte	.LFE225-.LFB225
 2466 0c02 01       		.uleb128 0x1
 2467 0c03 9C       		.byte	0x9c
 2468 0c04 960C0000 		.4byte	0xc96
 2469 0c08 31       		.uleb128 0x31
 2470 0c09 59070000 		.4byte	.LASF148
 2471 0c0d 01       		.byte	0x1
 2472 0c0e 7701     		.2byte	0x177
 2473 0c10 00010000 		.4byte	0x100
 2474 0c14 6D010000 		.4byte	.LLST16
 2475 0c18 31       		.uleb128 0x31
 2476 0c19 CE070000 		.4byte	.LASF149
 2477 0c1d 01       		.byte	0x1
 2478 0c1e 7701     		.2byte	0x177
 2479 0c20 4A040000 		.4byte	0x44a
 2480 0c24 A7010000 		.4byte	.LLST17
 2481 0c28 32       		.uleb128 0x32
 2482 0c29 0A000000 		.4byte	.LBB183
 2483 0c2d 1C000000 		.4byte	.LBE183-.LBB183
 2484 0c31 8C0C0000 		.4byte	0xc8c
 2485 0c35 29       		.uleb128 0x29
 2486 0c36 767400   		.ascii	"vt\000"
 2487 0c39 01       		.byte	0x1
 2488 0c3a 7C01     		.2byte	0x17c
 2489 0c3c 20030000 		.4byte	0x320
 2490 0c40 02       		.uleb128 0x2
 2491 0c41 91       		.byte	0x91
 2492 0c42 5C       		.sleb128 -36
 2493 0c43 33       		.uleb128 0x33
 2494 0c44 16000000 		.4byte	.LVL31
 2495 0c48 11110000 		.4byte	0x1111
 2496 0c4c 670C0000 		.4byte	0xc67
 2497 0c50 30       		.uleb128 0x30
 2498 0c51 01       		.uleb128 0x1
 2499 0c52 50       		.byte	0x50
 2500 0c53 02       		.uleb128 0x2
 2501 0c54 91       		.byte	0x91
 2502 0c55 5C       		.sleb128 -36
 2503 0c56 30       		.uleb128 0x30
 2504 0c57 01       		.uleb128 0x1
ARM GAS  C:\Users\14122\AppData\Local\Temp\ccEX8O8P.s 			page 45


 2505 0c58 51       		.byte	0x51
 2506 0c59 03       		.uleb128 0x3
 2507 0c5a F3       		.byte	0xf3
 2508 0c5b 01       		.uleb128 0x1
 2509 0c5c 51       		.byte	0x51
 2510 0c5d 30       		.uleb128 0x30
 2511 0c5e 01       		.uleb128 0x1
 2512 0c5f 52       		.byte	0x52
 2513 0c60 05       		.uleb128 0x5
 2514 0c61 03       		.byte	0x3
 2515 0c62 00000000 		.4byte	wakeup
 2516 0c66 00       		.byte	0
 2517 0c67 33       		.uleb128 0x33
 2518 0c68 1C000000 		.4byte	.LVL32
 2519 0c6c B90C0000 		.4byte	0xcb9
 2520 0c70 7B0C0000 		.4byte	0xc7b
 2521 0c74 30       		.uleb128 0x30
 2522 0c75 01       		.uleb128 0x1
 2523 0c76 50       		.byte	0x50
 2524 0c77 02       		.uleb128 0x2
 2525 0c78 75       		.byte	0x75
 2526 0c79 00       		.sleb128 0
 2527 0c7a 00       		.byte	0
 2528 0c7b 34       		.uleb128 0x34
 2529 0c7c 26000000 		.4byte	.LVL34
 2530 0c80 1C110000 		.4byte	0x111c
 2531 0c84 30       		.uleb128 0x30
 2532 0c85 01       		.uleb128 0x1
 2533 0c86 50       		.byte	0x50
 2534 0c87 02       		.uleb128 0x2
 2535 0c88 91       		.byte	0x91
 2536 0c89 5C       		.sleb128 -36
 2537 0c8a 00       		.byte	0
 2538 0c8b 00       		.byte	0
 2539 0c8c 35       		.uleb128 0x35
 2540 0c8d 32000000 		.4byte	.LVL36
 2541 0c91 B90C0000 		.4byte	0xcb9
 2542 0c95 00       		.byte	0
 2543 0c96 36       		.uleb128 0x36
 2544 0c97 51030000 		.4byte	.LASF155
 2545 0c9b 01       		.byte	0x1
 2546 0c9c 3F01     		.2byte	0x13f
 2547 0c9e 01       		.byte	0x1
 2548 0c9f B90C0000 		.4byte	0xcb9
 2549 0ca3 37       		.uleb128 0x37
 2550 0ca4 7000     		.ascii	"p\000"
 2551 0ca6 01       		.byte	0x1
 2552 0ca7 3F01     		.2byte	0x13f
 2553 0ca9 1E030000 		.4byte	0x31e
 2554 0cad 1F       		.uleb128 0x1f
 2555 0cae 747000   		.ascii	"tp\000"
 2556 0cb1 01       		.byte	0x1
 2557 0cb2 4001     		.2byte	0x140
 2558 0cb4 41020000 		.4byte	0x241
 2559 0cb8 00       		.byte	0
 2560 0cb9 20       		.uleb128 0x20
 2561 0cba DF060000 		.4byte	.LASF150
ARM GAS  C:\Users\14122\AppData\Local\Temp\ccEX8O8P.s 			page 46


 2562 0cbe 01       		.byte	0x1
 2563 0cbf 2101     		.2byte	0x121
 2564 0cc1 00000000 		.4byte	.LFB223
 2565 0cc5 28000000 		.4byte	.LFE223-.LFB223
 2566 0cc9 01       		.uleb128 0x1
 2567 0cca 9C       		.byte	0x9c
 2568 0ccb 260D0000 		.4byte	0xd26
 2569 0ccf 31       		.uleb128 0x31
 2570 0cd0 59070000 		.4byte	.LASF148
 2571 0cd4 01       		.byte	0x1
 2572 0cd5 2101     		.2byte	0x121
 2573 0cd7 00010000 		.4byte	0x100
 2574 0cdb E1010000 		.4byte	.LLST12
 2575 0cdf 21       		.uleb128 0x21
 2576 0ce0 6F747000 		.ascii	"otp\000"
 2577 0ce4 01       		.byte	0x1
 2578 0ce5 2201     		.2byte	0x122
 2579 0ce7 41020000 		.4byte	0x241
 2580 0ceb 0E020000 		.4byte	.LLST13
 2581 0cef 22       		.uleb128 0x22
 2582 0cf0 610E0000 		.4byte	0xe61
 2583 0cf4 08000000 		.4byte	.LBB175
 2584 0cf8 80000000 		.4byte	.Ldebug_ranges0+0x80
 2585 0cfc 01       		.byte	0x1
 2586 0cfd 3001     		.2byte	0x130
 2587 0cff 1C0D0000 		.4byte	0xd1c
 2588 0d03 23       		.uleb128 0x23
 2589 0d04 720E0000 		.4byte	0xe72
 2590 0d08 21020000 		.4byte	.LLST14
 2591 0d0c 24       		.uleb128 0x24
 2592 0d0d 80000000 		.4byte	.Ldebug_ranges0+0x80
 2593 0d11 26       		.uleb128 0x26
 2594 0d12 7E0E0000 		.4byte	0xe7e
 2595 0d16 39020000 		.4byte	.LLST15
 2596 0d1a 00       		.byte	0
 2597 0d1b 00       		.byte	0
 2598 0d1c 27       		.uleb128 0x27
 2599 0d1d 22000000 		.4byte	.LVL28
 2600 0d21 05110000 		.4byte	0x1105
 2601 0d25 00       		.byte	0
 2602 0d26 38       		.uleb128 0x38
 2603 0d27 3D040000 		.4byte	.LASF152
 2604 0d2b 01       		.byte	0x1
 2605 0d2c 0101     		.2byte	0x101
 2606 0d2e 41020000 		.4byte	0x241
 2607 0d32 01       		.byte	0x1
 2608 0d33 5B0D0000 		.4byte	0xd5b
 2609 0d37 37       		.uleb128 0x37
 2610 0d38 747000   		.ascii	"tp\000"
 2611 0d3b 01       		.byte	0x1
 2612 0d3c 0101     		.2byte	0x101
 2613 0d3e 41020000 		.4byte	0x241
 2614 0d42 1F       		.uleb128 0x1f
 2615 0d43 637000   		.ascii	"cp\000"
 2616 0d46 01       		.byte	0x1
 2617 0d47 0201     		.2byte	0x102
 2618 0d49 41020000 		.4byte	0x241
ARM GAS  C:\Users\14122\AppData\Local\Temp\ccEX8O8P.s 			page 47


 2619 0d4d 39       		.uleb128 0x39
 2620 0d4e 7D080000 		.4byte	.LASF151
 2621 0d52 6B0D0000 		.4byte	0xd6b
 2622 0d56 3D040000 		.4byte	.LASF152
 2623 0d5a 00       		.byte	0
 2624 0d5b 13       		.uleb128 0x13
 2625 0d5c 38060000 		.4byte	0x638
 2626 0d60 6B0D0000 		.4byte	0xd6b
 2627 0d64 14       		.uleb128 0x14
 2628 0d65 37000000 		.4byte	0x37
 2629 0d69 10       		.byte	0x10
 2630 0d6a 00       		.byte	0
 2631 0d6b 05       		.uleb128 0x5
 2632 0d6c 5B0D0000 		.4byte	0xd5b
 2633 0d70 3A       		.uleb128 0x3a
 2634 0d71 D8010000 		.4byte	.LASF153
 2635 0d75 01       		.byte	0x1
 2636 0d76 DA       		.byte	0xda
 2637 0d77 41020000 		.4byte	0x241
 2638 0d7b 01       		.byte	0x1
 2639 0d7c A20D0000 		.4byte	0xda2
 2640 0d80 3B       		.uleb128 0x3b
 2641 0d81 747000   		.ascii	"tp\000"
 2642 0d84 01       		.byte	0x1
 2643 0d85 DA       		.byte	0xda
 2644 0d86 41020000 		.4byte	0x241
 2645 0d8a 3C       		.uleb128 0x3c
 2646 0d8b 637000   		.ascii	"cp\000"
 2647 0d8e 01       		.byte	0x1
 2648 0d8f DB       		.byte	0xdb
 2649 0d90 41020000 		.4byte	0x241
 2650 0d94 39       		.uleb128 0x39
 2651 0d95 7D080000 		.4byte	.LASF151
 2652 0d99 B20D0000 		.4byte	0xdb2
 2653 0d9d D8010000 		.4byte	.LASF153
 2654 0da1 00       		.byte	0
 2655 0da2 13       		.uleb128 0x13
 2656 0da3 38060000 		.4byte	0x638
 2657 0da7 B20D0000 		.4byte	0xdb2
 2658 0dab 14       		.uleb128 0x14
 2659 0dac 37000000 		.4byte	0x37
 2660 0db0 0B       		.byte	0xb
 2661 0db1 00       		.byte	0
 2662 0db2 05       		.uleb128 0x5
 2663 0db3 A20D0000 		.4byte	0xda2
 2664 0db7 3D       		.uleb128 0x3d
 2665 0db8 F4010000 		.4byte	.LASF154
 2666 0dbc 01       		.byte	0x1
 2667 0dbd 41       		.byte	0x41
 2668 0dbe 00000000 		.4byte	.LFB220
 2669 0dc2 14000000 		.4byte	.LFE220-.LFB220
 2670 0dc6 01       		.uleb128 0x1
 2671 0dc7 9C       		.byte	0x9c
 2672 0dc8 E60D0000 		.4byte	0xde6
 2673 0dcc 3E       		.uleb128 0x3e
 2674 0dcd 900E0000 		.4byte	0xe90
 2675 0dd1 02000000 		.4byte	.LBB171
ARM GAS  C:\Users\14122\AppData\Local\Temp\ccEX8O8P.s 			page 48


 2676 0dd5 68000000 		.4byte	.Ldebug_ranges0+0x68
 2677 0dd9 01       		.byte	0x1
 2678 0dda 43       		.byte	0x43
 2679 0ddb 23       		.uleb128 0x23
 2680 0ddc 9D0E0000 		.4byte	0xe9d
 2681 0de0 4C020000 		.4byte	.LLST9
 2682 0de4 00       		.byte	0
 2683 0de5 00       		.byte	0
 2684 0de6 3F       		.uleb128 0x3f
 2685 0de7 B4010000 		.4byte	.LASF156
 2686 0deb 03       		.byte	0x3
 2687 0dec 86       		.byte	0x86
 2688 0ded 03       		.byte	0x3
 2689 0dee FD0D0000 		.4byte	0xdfd
 2690 0df2 3B       		.uleb128 0x3b
 2691 0df3 737000   		.ascii	"sp\000"
 2692 0df6 03       		.byte	0x3
 2693 0df7 86       		.byte	0x86
 2694 0df8 FD0D0000 		.4byte	0xdfd
 2695 0dfc 00       		.byte	0
 2696 0dfd 0C       		.uleb128 0xc
 2697 0dfe 04       		.byte	0x4
 2698 0dff 77070000 		.4byte	0x777
 2699 0e03 40       		.uleb128 0x40
 2700 0e04 9E020000 		.4byte	.LASF159
 2701 0e08 15       		.byte	0x15
 2702 0e09 F1       		.byte	0xf1
 2703 0e0a 93070000 		.4byte	0x793
 2704 0e0e 03       		.byte	0x3
 2705 0e0f 1F0E0000 		.4byte	0xe1f
 2706 0e13 3B       		.uleb128 0x3b
 2707 0e14 76747000 		.ascii	"vtp\000"
 2708 0e18 15       		.byte	0x15
 2709 0e19 F1       		.byte	0xf1
 2710 0e1a 1F0E0000 		.4byte	0xe1f
 2711 0e1e 00       		.byte	0
 2712 0e1f 0C       		.uleb128 0xc
 2713 0e20 04       		.byte	0x4
 2714 0e21 2B030000 		.4byte	0x32b
 2715 0e25 41       		.uleb128 0x41
 2716 0e26 0A030000 		.4byte	.LASF157
 2717 0e2a 10       		.byte	0x10
 2718 0e2b 9D01     		.2byte	0x19d
 2719 0e2d 03       		.byte	0x3
 2720 0e2e 41       		.uleb128 0x41
 2721 0e2f 90010000 		.4byte	.LASF158
 2722 0e33 10       		.byte	0x10
 2723 0e34 8901     		.2byte	0x189
 2724 0e36 03       		.byte	0x3
 2725 0e37 42       		.uleb128 0x42
 2726 0e38 46050000 		.4byte	.LASF176
 2727 0e3c 04       		.byte	0x4
 2728 0e3d 8402     		.2byte	0x284
 2729 0e3f 93070000 		.4byte	0x793
 2730 0e43 03       		.byte	0x3
 2731 0e44 43       		.uleb128 0x43
 2732 0e45 BF060000 		.4byte	.LASF160
ARM GAS  C:\Users\14122\AppData\Local\Temp\ccEX8O8P.s 			page 49


 2733 0e49 04       		.byte	0x4
 2734 0e4a 7002     		.2byte	0x270
 2735 0e4c 41020000 		.4byte	0x241
 2736 0e50 03       		.byte	0x3
 2737 0e51 610E0000 		.4byte	0xe61
 2738 0e55 37       		.uleb128 0x37
 2739 0e56 747000   		.ascii	"tp\000"
 2740 0e59 04       		.byte	0x4
 2741 0e5a 7002     		.2byte	0x270
 2742 0e5c 41020000 		.4byte	0x241
 2743 0e60 00       		.byte	0
 2744 0e61 43       		.uleb128 0x43
 2745 0e62 D1040000 		.4byte	.LASF161
 2746 0e66 04       		.byte	0x4
 2747 0e67 5E02     		.2byte	0x25e
 2748 0e69 41020000 		.4byte	0x241
 2749 0e6d 03       		.byte	0x3
 2750 0e6e 8A0E0000 		.4byte	0xe8a
 2751 0e72 37       		.uleb128 0x37
 2752 0e73 74717000 		.ascii	"tqp\000"
 2753 0e77 04       		.byte	0x4
 2754 0e78 5E02     		.2byte	0x25e
 2755 0e7a 8A0E0000 		.4byte	0xe8a
 2756 0e7e 1F       		.uleb128 0x1f
 2757 0e7f 747000   		.ascii	"tp\000"
 2758 0e82 04       		.byte	0x4
 2759 0e83 5F02     		.2byte	0x25f
 2760 0e85 41020000 		.4byte	0x241
 2761 0e89 00       		.byte	0
 2762 0e8a 0C       		.uleb128 0xc
 2763 0e8b 04       		.byte	0x4
 2764 0e8c 6B020000 		.4byte	0x26b
 2765 0e90 36       		.uleb128 0x36
 2766 0e91 77070000 		.4byte	.LASF162
 2767 0e95 04       		.byte	0x4
 2768 0e96 1902     		.2byte	0x219
 2769 0e98 03       		.byte	0x3
 2770 0e99 AA0E0000 		.4byte	0xeaa
 2771 0e9d 37       		.uleb128 0x37
 2772 0e9e 74717000 		.ascii	"tqp\000"
 2773 0ea2 04       		.byte	0x4
 2774 0ea3 1902     		.2byte	0x219
 2775 0ea5 8A0E0000 		.4byte	0xe8a
 2776 0ea9 00       		.byte	0
 2777 0eaa 41       		.uleb128 0x41
 2778 0eab 82070000 		.4byte	.LASF163
 2779 0eaf 0E       		.byte	0xe
 2780 0eb0 8402     		.2byte	0x284
 2781 0eb2 03       		.byte	0x3
 2782 0eb3 41       		.uleb128 0x41
 2783 0eb4 ED000000 		.4byte	.LASF164
 2784 0eb8 0E       		.byte	0xe
 2785 0eb9 7902     		.2byte	0x279
 2786 0ebb 03       		.byte	0x3
 2787 0ebc 41       		.uleb128 0x41
 2788 0ebd 8F080000 		.4byte	.LASF165
 2789 0ec1 0E       		.byte	0xe
ARM GAS  C:\Users\14122\AppData\Local\Temp\ccEX8O8P.s 			page 50


 2790 0ec2 6A02     		.2byte	0x26a
 2791 0ec4 03       		.byte	0x3
 2792 0ec5 41       		.uleb128 0x41
 2793 0ec6 CF000000 		.4byte	.LASF166
 2794 0eca 0E       		.byte	0xe
 2795 0ecb 5202     		.2byte	0x252
 2796 0ecd 03       		.byte	0x3
 2797 0ece 36       		.uleb128 0x36
 2798 0ecf BD030000 		.4byte	.LASF167
 2799 0ed3 02       		.byte	0x2
 2800 0ed4 EB01     		.2byte	0x1eb
 2801 0ed6 03       		.byte	0x3
 2802 0ed7 E80E0000 		.4byte	0xee8
 2803 0edb 44       		.uleb128 0x44
 2804 0edc F9020000 		.4byte	.LASF168
 2805 0ee0 02       		.byte	0x2
 2806 0ee1 EB01     		.2byte	0x1eb
 2807 0ee3 DF000000 		.4byte	0xdf
 2808 0ee7 00       		.byte	0
 2809 0ee8 45       		.uleb128 0x45
 2810 0ee9 960C0000 		.4byte	0xc96
 2811 0eed 00000000 		.4byte	.LFB224
 2812 0ef1 70000000 		.4byte	.LFE224-.LFB224
 2813 0ef5 01       		.uleb128 0x1
 2814 0ef6 9C       		.byte	0x9c
 2815 0ef7 B3100000 		.4byte	0x10b3
 2816 0efb 46       		.uleb128 0x46
 2817 0efc A30C0000 		.4byte	0xca3
 2818 0f00 01       		.uleb128 0x1
 2819 0f01 50       		.byte	0x50
 2820 0f02 47       		.uleb128 0x47
 2821 0f03 AD0C0000 		.4byte	0xcad
 2822 0f07 01       		.uleb128 0x1
 2823 0f08 50       		.byte	0x50
 2824 0f09 2D       		.uleb128 0x2d
 2825 0f0a 2E0E0000 		.4byte	0xe2e
 2826 0f0e 00000000 		.4byte	.LBB133
 2827 0f12 06000000 		.4byte	.LBE133-.LBB133
 2828 0f16 01       		.byte	0x1
 2829 0f17 4201     		.2byte	0x142
 2830 0f19 5A0F0000 		.4byte	0xf5a
 2831 0f1d 48       		.uleb128 0x48
 2832 0f1e B30E0000 		.4byte	0xeb3
 2833 0f22 00000000 		.4byte	.LBB134
 2834 0f26 06000000 		.4byte	.LBE134-.LBB134
 2835 0f2a 10       		.byte	0x10
 2836 0f2b 8B01     		.2byte	0x18b
 2837 0f2d 48       		.uleb128 0x48
 2838 0f2e C50E0000 		.4byte	0xec5
 2839 0f32 00000000 		.4byte	.LBB135
 2840 0f36 06000000 		.4byte	.LBE135-.LBB135
 2841 0f3a 0E       		.byte	0xe
 2842 0f3b 7B02     		.2byte	0x27b
 2843 0f3d 48       		.uleb128 0x48
 2844 0f3e CE0E0000 		.4byte	0xece
 2845 0f42 00000000 		.4byte	.LBB136
 2846 0f46 06000000 		.4byte	.LBE136-.LBB136
ARM GAS  C:\Users\14122\AppData\Local\Temp\ccEX8O8P.s 			page 51


 2847 0f4a 0E       		.byte	0xe
 2848 0f4b 5A02     		.2byte	0x25a
 2849 0f4d 23       		.uleb128 0x23
 2850 0f4e DB0E0000 		.4byte	0xedb
 2851 0f52 64020000 		.4byte	.LLST0
 2852 0f56 00       		.byte	0
 2853 0f57 00       		.byte	0
 2854 0f58 00       		.byte	0
 2855 0f59 00       		.byte	0
 2856 0f5a 2D       		.uleb128 0x2d
 2857 0f5b E60D0000 		.4byte	0xde6
 2858 0f5f 1C000000 		.4byte	.LBB138
 2859 0f63 06000000 		.4byte	.LBE138-.LBB138
 2860 0f67 01       		.byte	0x1
 2861 0f68 4E01     		.2byte	0x14e
 2862 0f6a 780F0000 		.4byte	0xf78
 2863 0f6e 23       		.uleb128 0x23
 2864 0f6f F20D0000 		.4byte	0xdf2
 2865 0f73 79020000 		.4byte	.LLST1
 2866 0f77 00       		.byte	0
 2867 0f78 2D       		.uleb128 0x2d
 2868 0f79 440E0000 		.4byte	0xe44
 2869 0f7d 22000000 		.4byte	.LBB140
 2870 0f81 0A000000 		.4byte	.LBE140-.LBB140
 2871 0f85 01       		.byte	0x1
 2872 0f86 5701     		.2byte	0x157
 2873 0f88 960F0000 		.4byte	0xf96
 2874 0f8c 23       		.uleb128 0x23
 2875 0f8d 550E0000 		.4byte	0xe55
 2876 0f91 8C020000 		.4byte	.LLST2
 2877 0f95 00       		.byte	0
 2878 0f96 22       		.uleb128 0x22
 2879 0f97 700D0000 		.4byte	0xd70
 2880 0f9b 2E000000 		.4byte	.LBB142
 2881 0f9f 00000000 		.4byte	.Ldebug_ranges0+0
 2882 0fa3 01       		.byte	0x1
 2883 0fa4 5E01     		.2byte	0x15e
 2884 0fa6 C80F0000 		.4byte	0xfc8
 2885 0faa 23       		.uleb128 0x23
 2886 0fab 800D0000 		.4byte	0xd80
 2887 0faf 9F020000 		.4byte	.LLST3
 2888 0fb3 24       		.uleb128 0x24
 2889 0fb4 00000000 		.4byte	.Ldebug_ranges0+0
 2890 0fb8 26       		.uleb128 0x26
 2891 0fb9 8A0D0000 		.4byte	0xd8a
 2892 0fbd B2020000 		.4byte	.LLST4
 2893 0fc1 25       		.uleb128 0x25
 2894 0fc2 940D0000 		.4byte	0xd94
 2895 0fc6 00       		.byte	0
 2896 0fc7 00       		.byte	0
 2897 0fc8 49       		.uleb128 0x49
 2898 0fc9 960C0000 		.4byte	0xc96
 2899 0fcd 18000000 		.4byte	.Ldebug_ranges0+0x18
 2900 0fd1 65100000 		.4byte	0x1065
 2901 0fd5 23       		.uleb128 0x23
 2902 0fd6 A30C0000 		.4byte	0xca3
 2903 0fda CA020000 		.4byte	.LLST5
ARM GAS  C:\Users\14122\AppData\Local\Temp\ccEX8O8P.s 			page 52


 2904 0fde 24       		.uleb128 0x24
 2905 0fdf 18000000 		.4byte	.Ldebug_ranges0+0x18
 2906 0fe3 25       		.uleb128 0x25
 2907 0fe4 020F0000 		.4byte	0xf02
 2908 0fe8 22       		.uleb128 0x22
 2909 0fe9 700D0000 		.4byte	0xd70
 2910 0fed 34000000 		.4byte	.LBB147
 2911 0ff1 30000000 		.4byte	.Ldebug_ranges0+0x30
 2912 0ff5 01       		.byte	0x1
 2913 0ff6 5E01     		.2byte	0x15e
 2914 0ff8 16100000 		.4byte	0x1016
 2915 0ffc 4A       		.uleb128 0x4a
 2916 0ffd 800D0000 		.4byte	0xd80
 2917 1001 24       		.uleb128 0x24
 2918 1002 30000000 		.4byte	.Ldebug_ranges0+0x30
 2919 1006 26       		.uleb128 0x26
 2920 1007 8A0D0000 		.4byte	0xd8a
 2921 100b DD020000 		.4byte	.LLST6
 2922 100f 25       		.uleb128 0x25
 2923 1010 940D0000 		.4byte	0xd94
 2924 1014 00       		.byte	0
 2925 1015 00       		.byte	0
 2926 1016 4B       		.uleb128 0x4b
 2927 1017 250E0000 		.4byte	0xe25
 2928 101b 48000000 		.4byte	.LBB152
 2929 101f 50000000 		.4byte	.Ldebug_ranges0+0x50
 2930 1023 01       		.byte	0x1
 2931 1024 5F01     		.2byte	0x15f
 2932 1026 4B       		.uleb128 0x4b
 2933 1027 AA0E0000 		.4byte	0xeaa
 2934 102b 48000000 		.4byte	.LBB153
 2935 102f 50000000 		.4byte	.Ldebug_ranges0+0x50
 2936 1033 10       		.byte	0x10
 2937 1034 A101     		.2byte	0x1a1
 2938 1036 4B       		.uleb128 0x4b
 2939 1037 BC0E0000 		.4byte	0xebc
 2940 103b 48000000 		.4byte	.LBB154
 2941 103f 50000000 		.4byte	.Ldebug_ranges0+0x50
 2942 1043 0E       		.byte	0xe
 2943 1044 8602     		.2byte	0x286
 2944 1046 4B       		.uleb128 0x4b
 2945 1047 CE0E0000 		.4byte	0xece
 2946 104b 48000000 		.4byte	.LBB155
 2947 104f 50000000 		.4byte	.Ldebug_ranges0+0x50
 2948 1053 0E       		.byte	0xe
 2949 1054 6D02     		.2byte	0x26d
 2950 1056 23       		.uleb128 0x23
 2951 1057 DB0E0000 		.4byte	0xedb
 2952 105b F0020000 		.4byte	.LLST7
 2953 105f 00       		.byte	0
 2954 1060 00       		.byte	0
 2955 1061 00       		.byte	0
 2956 1062 00       		.byte	0
 2957 1063 00       		.byte	0
 2958 1064 00       		.byte	0
 2959 1065 48       		.uleb128 0x48
 2960 1066 250E0000 		.4byte	0xe25
ARM GAS  C:\Users\14122\AppData\Local\Temp\ccEX8O8P.s 			page 53


 2961 106a 62000000 		.4byte	.LBB166
 2962 106e 0E000000 		.4byte	.LBE166-.LBB166
 2963 1072 01       		.byte	0x1
 2964 1073 4701     		.2byte	0x147
 2965 1075 48       		.uleb128 0x48
 2966 1076 AA0E0000 		.4byte	0xeaa
 2967 107a 62000000 		.4byte	.LBB167
 2968 107e 0E000000 		.4byte	.LBE167-.LBB167
 2969 1082 10       		.byte	0x10
 2970 1083 A101     		.2byte	0x1a1
 2971 1085 48       		.uleb128 0x48
 2972 1086 BC0E0000 		.4byte	0xebc
 2973 108a 62000000 		.4byte	.LBB168
 2974 108e 0E000000 		.4byte	.LBE168-.LBB168
 2975 1092 0E       		.byte	0xe
 2976 1093 8602     		.2byte	0x286
 2977 1095 48       		.uleb128 0x48
 2978 1096 CE0E0000 		.4byte	0xece
 2979 109a 62000000 		.4byte	.LBB169
 2980 109e 0E000000 		.4byte	.LBE169-.LBB169
 2981 10a2 0E       		.byte	0xe
 2982 10a3 6D02     		.2byte	0x26d
 2983 10a5 23       		.uleb128 0x23
 2984 10a6 DB0E0000 		.4byte	0xedb
 2985 10aa 04030000 		.4byte	.LLST8
 2986 10ae 00       		.byte	0
 2987 10af 00       		.byte	0
 2988 10b0 00       		.byte	0
 2989 10b1 00       		.byte	0
 2990 10b2 00       		.byte	0
 2991 10b3 45       		.uleb128 0x45
 2992 10b4 700D0000 		.4byte	0xd70
 2993 10b8 00000000 		.4byte	.LFB221
 2994 10bc 28000000 		.4byte	.LFE221-.LFB221
 2995 10c0 01       		.uleb128 0x1
 2996 10c1 9C       		.byte	0x9c
 2997 10c2 DC100000 		.4byte	0x10dc
 2998 10c6 23       		.uleb128 0x23
 2999 10c7 800D0000 		.4byte	0xd80
 3000 10cb 18030000 		.4byte	.LLST10
 3001 10cf 47       		.uleb128 0x47
 3002 10d0 8A0D0000 		.4byte	0xd8a
 3003 10d4 01       		.uleb128 0x1
 3004 10d5 53       		.byte	0x53
 3005 10d6 25       		.uleb128 0x25
 3006 10d7 940D0000 		.4byte	0xd94
 3007 10db 00       		.byte	0
 3008 10dc 45       		.uleb128 0x45
 3009 10dd 260D0000 		.4byte	0xd26
 3010 10e1 00000000 		.4byte	.LFB222
 3011 10e5 28000000 		.4byte	.LFE222-.LFB222
 3012 10e9 01       		.uleb128 0x1
 3013 10ea 9C       		.byte	0x9c
 3014 10eb 05110000 		.4byte	0x1105
 3015 10ef 23       		.uleb128 0x23
 3016 10f0 370D0000 		.4byte	0xd37
 3017 10f4 36030000 		.4byte	.LLST11
ARM GAS  C:\Users\14122\AppData\Local\Temp\ccEX8O8P.s 			page 54


 3018 10f8 47       		.uleb128 0x47
 3019 10f9 420D0000 		.4byte	0xd42
 3020 10fd 01       		.uleb128 0x1
 3021 10fe 53       		.byte	0x53
 3022 10ff 25       		.uleb128 0x25
 3023 1100 4D0D0000 		.4byte	0xd4d
 3024 1104 00       		.byte	0
 3025 1105 4C       		.uleb128 0x4c
 3026 1106 AE040000 		.4byte	.LASF169
 3027 110a AE040000 		.4byte	.LASF169
 3028 110e 0E       		.byte	0xe
 3029 110f EB01     		.2byte	0x1eb
 3030 1111 4D       		.uleb128 0x4d
 3031 1112 1E070000 		.4byte	.LASF170
 3032 1116 1E070000 		.4byte	.LASF170
 3033 111a 15       		.byte	0x15
 3034 111b 4B       		.byte	0x4b
 3035 111c 4D       		.uleb128 0x4d
 3036 111d 39050000 		.4byte	.LASF171
 3037 1121 39050000 		.4byte	.LASF171
 3038 1125 15       		.byte	0x15
 3039 1126 4D       		.byte	0x4d
 3040 1127 00       		.byte	0
 3041              		.section	.debug_abbrev,"",%progbits
 3042              	.Ldebug_abbrev0:
 3043 0000 01       		.uleb128 0x1
 3044 0001 11       		.uleb128 0x11
 3045 0002 01       		.byte	0x1
 3046 0003 25       		.uleb128 0x25
 3047 0004 0E       		.uleb128 0xe
 3048 0005 13       		.uleb128 0x13
 3049 0006 0B       		.uleb128 0xb
 3050 0007 03       		.uleb128 0x3
 3051 0008 0E       		.uleb128 0xe
 3052 0009 1B       		.uleb128 0x1b
 3053 000a 0E       		.uleb128 0xe
 3054 000b 55       		.uleb128 0x55
 3055 000c 17       		.uleb128 0x17
 3056 000d 11       		.uleb128 0x11
 3057 000e 01       		.uleb128 0x1
 3058 000f 10       		.uleb128 0x10
 3059 0010 17       		.uleb128 0x17
 3060 0011 00       		.byte	0
 3061 0012 00       		.byte	0
 3062 0013 02       		.uleb128 0x2
 3063 0014 24       		.uleb128 0x24
 3064 0015 00       		.byte	0
 3065 0016 0B       		.uleb128 0xb
 3066 0017 0B       		.uleb128 0xb
 3067 0018 3E       		.uleb128 0x3e
 3068 0019 0B       		.uleb128 0xb
 3069 001a 03       		.uleb128 0x3
 3070 001b 08       		.uleb128 0x8
 3071 001c 00       		.byte	0
 3072 001d 00       		.byte	0
 3073 001e 03       		.uleb128 0x3
 3074 001f 16       		.uleb128 0x16
ARM GAS  C:\Users\14122\AppData\Local\Temp\ccEX8O8P.s 			page 55


 3075 0020 00       		.byte	0
 3076 0021 03       		.uleb128 0x3
 3077 0022 0E       		.uleb128 0xe
 3078 0023 3A       		.uleb128 0x3a
 3079 0024 0B       		.uleb128 0xb
 3080 0025 3B       		.uleb128 0x3b
 3081 0026 0B       		.uleb128 0xb
 3082 0027 49       		.uleb128 0x49
 3083 0028 13       		.uleb128 0x13
 3084 0029 00       		.byte	0
 3085 002a 00       		.byte	0
 3086 002b 04       		.uleb128 0x4
 3087 002c 24       		.uleb128 0x24
 3088 002d 00       		.byte	0
 3089 002e 0B       		.uleb128 0xb
 3090 002f 0B       		.uleb128 0xb
 3091 0030 3E       		.uleb128 0x3e
 3092 0031 0B       		.uleb128 0xb
 3093 0032 03       		.uleb128 0x3
 3094 0033 0E       		.uleb128 0xe
 3095 0034 00       		.byte	0
 3096 0035 00       		.byte	0
 3097 0036 05       		.uleb128 0x5
 3098 0037 26       		.uleb128 0x26
 3099 0038 00       		.byte	0
 3100 0039 49       		.uleb128 0x49
 3101 003a 13       		.uleb128 0x13
 3102 003b 00       		.byte	0
 3103 003c 00       		.byte	0
 3104 003d 06       		.uleb128 0x6
 3105 003e 35       		.uleb128 0x35
 3106 003f 00       		.byte	0
 3107 0040 49       		.uleb128 0x49
 3108 0041 13       		.uleb128 0x13
 3109 0042 00       		.byte	0
 3110 0043 00       		.byte	0
 3111 0044 07       		.uleb128 0x7
 3112 0045 13       		.uleb128 0x13
 3113 0046 01       		.byte	0x1
 3114 0047 03       		.uleb128 0x3
 3115 0048 0E       		.uleb128 0xe
 3116 0049 0B       		.uleb128 0xb
 3117 004a 0B       		.uleb128 0xb
 3118 004b 3A       		.uleb128 0x3a
 3119 004c 0B       		.uleb128 0xb
 3120 004d 3B       		.uleb128 0x3b
 3121 004e 0B       		.uleb128 0xb
 3122 004f 01       		.uleb128 0x1
 3123 0050 13       		.uleb128 0x13
 3124 0051 00       		.byte	0
 3125 0052 00       		.byte	0
 3126 0053 08       		.uleb128 0x8
 3127 0054 0D       		.uleb128 0xd
 3128 0055 00       		.byte	0
 3129 0056 03       		.uleb128 0x3
 3130 0057 0E       		.uleb128 0xe
 3131 0058 3A       		.uleb128 0x3a
ARM GAS  C:\Users\14122\AppData\Local\Temp\ccEX8O8P.s 			page 56


 3132 0059 0B       		.uleb128 0xb
 3133 005a 3B       		.uleb128 0x3b
 3134 005b 0B       		.uleb128 0xb
 3135 005c 49       		.uleb128 0x49
 3136 005d 13       		.uleb128 0x13
 3137 005e 38       		.uleb128 0x38
 3138 005f 0B       		.uleb128 0xb
 3139 0060 00       		.byte	0
 3140 0061 00       		.byte	0
 3141 0062 09       		.uleb128 0x9
 3142 0063 0D       		.uleb128 0xd
 3143 0064 00       		.byte	0
 3144 0065 03       		.uleb128 0x3
 3145 0066 08       		.uleb128 0x8
 3146 0067 3A       		.uleb128 0x3a
 3147 0068 0B       		.uleb128 0xb
 3148 0069 3B       		.uleb128 0x3b
 3149 006a 0B       		.uleb128 0xb
 3150 006b 49       		.uleb128 0x49
 3151 006c 13       		.uleb128 0x13
 3152 006d 38       		.uleb128 0x38
 3153 006e 0B       		.uleb128 0xb
 3154 006f 00       		.byte	0
 3155 0070 00       		.byte	0
 3156 0071 0A       		.uleb128 0xa
 3157 0072 0D       		.uleb128 0xd
 3158 0073 00       		.byte	0
 3159 0074 03       		.uleb128 0x3
 3160 0075 08       		.uleb128 0x8
 3161 0076 3A       		.uleb128 0x3a
 3162 0077 0B       		.uleb128 0xb
 3163 0078 3B       		.uleb128 0x3b
 3164 0079 05       		.uleb128 0x5
 3165 007a 49       		.uleb128 0x49
 3166 007b 13       		.uleb128 0x13
 3167 007c 38       		.uleb128 0x38
 3168 007d 0B       		.uleb128 0xb
 3169 007e 00       		.byte	0
 3170 007f 00       		.byte	0
 3171 0080 0B       		.uleb128 0xb
 3172 0081 0D       		.uleb128 0xd
 3173 0082 00       		.byte	0
 3174 0083 03       		.uleb128 0x3
 3175 0084 0E       		.uleb128 0xe
 3176 0085 3A       		.uleb128 0x3a
 3177 0086 0B       		.uleb128 0xb
 3178 0087 3B       		.uleb128 0x3b
 3179 0088 05       		.uleb128 0x5
 3180 0089 49       		.uleb128 0x49
 3181 008a 13       		.uleb128 0x13
 3182 008b 38       		.uleb128 0x38
 3183 008c 0B       		.uleb128 0xb
 3184 008d 00       		.byte	0
 3185 008e 00       		.byte	0
 3186 008f 0C       		.uleb128 0xc
 3187 0090 0F       		.uleb128 0xf
 3188 0091 00       		.byte	0
ARM GAS  C:\Users\14122\AppData\Local\Temp\ccEX8O8P.s 			page 57


 3189 0092 0B       		.uleb128 0xb
 3190 0093 0B       		.uleb128 0xb
 3191 0094 49       		.uleb128 0x49
 3192 0095 13       		.uleb128 0x13
 3193 0096 00       		.byte	0
 3194 0097 00       		.byte	0
 3195 0098 0D       		.uleb128 0xd
 3196 0099 13       		.uleb128 0x13
 3197 009a 01       		.byte	0x1
 3198 009b 03       		.uleb128 0x3
 3199 009c 0E       		.uleb128 0xe
 3200 009d 0B       		.uleb128 0xb
 3201 009e 0B       		.uleb128 0xb
 3202 009f 3A       		.uleb128 0x3a
 3203 00a0 0B       		.uleb128 0xb
 3204 00a1 3B       		.uleb128 0x3b
 3205 00a2 05       		.uleb128 0x5
 3206 00a3 01       		.uleb128 0x1
 3207 00a4 13       		.uleb128 0x13
 3208 00a5 00       		.byte	0
 3209 00a6 00       		.byte	0
 3210 00a7 0E       		.uleb128 0xe
 3211 00a8 15       		.uleb128 0x15
 3212 00a9 01       		.byte	0x1
 3213 00aa 27       		.uleb128 0x27
 3214 00ab 19       		.uleb128 0x19
 3215 00ac 01       		.uleb128 0x1
 3216 00ad 13       		.uleb128 0x13
 3217 00ae 00       		.byte	0
 3218 00af 00       		.byte	0
 3219 00b0 0F       		.uleb128 0xf
 3220 00b1 05       		.uleb128 0x5
 3221 00b2 00       		.byte	0
 3222 00b3 49       		.uleb128 0x49
 3223 00b4 13       		.uleb128 0x13
 3224 00b5 00       		.byte	0
 3225 00b6 00       		.byte	0
 3226 00b7 10       		.uleb128 0x10
 3227 00b8 0F       		.uleb128 0xf
 3228 00b9 00       		.byte	0
 3229 00ba 0B       		.uleb128 0xb
 3230 00bb 0B       		.uleb128 0xb
 3231 00bc 00       		.byte	0
 3232 00bd 00       		.byte	0
 3233 00be 11       		.uleb128 0x11
 3234 00bf 34       		.uleb128 0x34
 3235 00c0 00       		.byte	0
 3236 00c1 03       		.uleb128 0x3
 3237 00c2 0E       		.uleb128 0xe
 3238 00c3 3A       		.uleb128 0x3a
 3239 00c4 0B       		.uleb128 0xb
 3240 00c5 3B       		.uleb128 0x3b
 3241 00c6 05       		.uleb128 0x5
 3242 00c7 49       		.uleb128 0x49
 3243 00c8 13       		.uleb128 0x13
 3244 00c9 3F       		.uleb128 0x3f
 3245 00ca 19       		.uleb128 0x19
ARM GAS  C:\Users\14122\AppData\Local\Temp\ccEX8O8P.s 			page 58


 3246 00cb 3C       		.uleb128 0x3c
 3247 00cc 19       		.uleb128 0x19
 3248 00cd 00       		.byte	0
 3249 00ce 00       		.byte	0
 3250 00cf 12       		.uleb128 0x12
 3251 00d0 34       		.uleb128 0x34
 3252 00d1 00       		.byte	0
 3253 00d2 03       		.uleb128 0x3
 3254 00d3 0E       		.uleb128 0xe
 3255 00d4 3A       		.uleb128 0x3a
 3256 00d5 0B       		.uleb128 0xb
 3257 00d6 3B       		.uleb128 0x3b
 3258 00d7 0B       		.uleb128 0xb
 3259 00d8 49       		.uleb128 0x49
 3260 00d9 13       		.uleb128 0x13
 3261 00da 3F       		.uleb128 0x3f
 3262 00db 19       		.uleb128 0x19
 3263 00dc 3C       		.uleb128 0x3c
 3264 00dd 19       		.uleb128 0x19
 3265 00de 00       		.byte	0
 3266 00df 00       		.byte	0
 3267 00e0 13       		.uleb128 0x13
 3268 00e1 01       		.uleb128 0x1
 3269 00e2 01       		.byte	0x1
 3270 00e3 49       		.uleb128 0x49
 3271 00e4 13       		.uleb128 0x13
 3272 00e5 01       		.uleb128 0x1
 3273 00e6 13       		.uleb128 0x13
 3274 00e7 00       		.byte	0
 3275 00e8 00       		.byte	0
 3276 00e9 14       		.uleb128 0x14
 3277 00ea 21       		.uleb128 0x21
 3278 00eb 00       		.byte	0
 3279 00ec 49       		.uleb128 0x49
 3280 00ed 13       		.uleb128 0x13
 3281 00ee 2F       		.uleb128 0x2f
 3282 00ef 0B       		.uleb128 0xb
 3283 00f0 00       		.byte	0
 3284 00f1 00       		.byte	0
 3285 00f2 15       		.uleb128 0x15
 3286 00f3 17       		.uleb128 0x17
 3287 00f4 01       		.byte	0x1
 3288 00f5 0B       		.uleb128 0xb
 3289 00f6 0B       		.uleb128 0xb
 3290 00f7 3A       		.uleb128 0x3a
 3291 00f8 0B       		.uleb128 0xb
 3292 00f9 3B       		.uleb128 0x3b
 3293 00fa 0B       		.uleb128 0xb
 3294 00fb 01       		.uleb128 0x1
 3295 00fc 13       		.uleb128 0x13
 3296 00fd 00       		.byte	0
 3297 00fe 00       		.byte	0
 3298 00ff 16       		.uleb128 0x16
 3299 0100 0D       		.uleb128 0xd
 3300 0101 00       		.byte	0
 3301 0102 03       		.uleb128 0x3
 3302 0103 0E       		.uleb128 0xe
ARM GAS  C:\Users\14122\AppData\Local\Temp\ccEX8O8P.s 			page 59


 3303 0104 3A       		.uleb128 0x3a
 3304 0105 0B       		.uleb128 0xb
 3305 0106 3B       		.uleb128 0x3b
 3306 0107 0B       		.uleb128 0xb
 3307 0108 49       		.uleb128 0x49
 3308 0109 13       		.uleb128 0x13
 3309 010a 00       		.byte	0
 3310 010b 00       		.byte	0
 3311 010c 17       		.uleb128 0x17
 3312 010d 0D       		.uleb128 0xd
 3313 010e 00       		.byte	0
 3314 010f 03       		.uleb128 0x3
 3315 0110 0E       		.uleb128 0xe
 3316 0111 3A       		.uleb128 0x3a
 3317 0112 0B       		.uleb128 0xb
 3318 0113 3B       		.uleb128 0x3b
 3319 0114 05       		.uleb128 0x5
 3320 0115 49       		.uleb128 0x49
 3321 0116 13       		.uleb128 0x13
 3322 0117 00       		.byte	0
 3323 0118 00       		.byte	0
 3324 0119 18       		.uleb128 0x18
 3325 011a 34       		.uleb128 0x34
 3326 011b 00       		.byte	0
 3327 011c 03       		.uleb128 0x3
 3328 011d 08       		.uleb128 0x8
 3329 011e 3A       		.uleb128 0x3a
 3330 011f 0B       		.uleb128 0xb
 3331 0120 3B       		.uleb128 0x3b
 3332 0121 05       		.uleb128 0x5
 3333 0122 49       		.uleb128 0x49
 3334 0123 13       		.uleb128 0x13
 3335 0124 3F       		.uleb128 0x3f
 3336 0125 19       		.uleb128 0x19
 3337 0126 3C       		.uleb128 0x3c
 3338 0127 19       		.uleb128 0x19
 3339 0128 00       		.byte	0
 3340 0129 00       		.byte	0
 3341 012a 19       		.uleb128 0x19
 3342 012b 21       		.uleb128 0x21
 3343 012c 00       		.byte	0
 3344 012d 00       		.byte	0
 3345 012e 00       		.byte	0
 3346 012f 1A       		.uleb128 0x1a
 3347 0130 13       		.uleb128 0x13
 3348 0131 01       		.byte	0x1
 3349 0132 0B       		.uleb128 0xb
 3350 0133 0B       		.uleb128 0xb
 3351 0134 3A       		.uleb128 0x3a
 3352 0135 0B       		.uleb128 0xb
 3353 0136 3B       		.uleb128 0x3b
 3354 0137 0B       		.uleb128 0xb
 3355 0138 01       		.uleb128 0x1
 3356 0139 13       		.uleb128 0x13
 3357 013a 00       		.byte	0
 3358 013b 00       		.byte	0
 3359 013c 1B       		.uleb128 0x1b
ARM GAS  C:\Users\14122\AppData\Local\Temp\ccEX8O8P.s 			page 60


 3360 013d 15       		.uleb128 0x15
 3361 013e 01       		.byte	0x1
 3362 013f 27       		.uleb128 0x27
 3363 0140 19       		.uleb128 0x19
 3364 0141 49       		.uleb128 0x49
 3365 0142 13       		.uleb128 0x13
 3366 0143 01       		.uleb128 0x1
 3367 0144 13       		.uleb128 0x13
 3368 0145 00       		.byte	0
 3369 0146 00       		.byte	0
 3370 0147 1C       		.uleb128 0x1c
 3371 0148 16       		.uleb128 0x16
 3372 0149 00       		.byte	0
 3373 014a 03       		.uleb128 0x3
 3374 014b 0E       		.uleb128 0xe
 3375 014c 3A       		.uleb128 0x3a
 3376 014d 0B       		.uleb128 0xb
 3377 014e 3B       		.uleb128 0x3b
 3378 014f 05       		.uleb128 0x5
 3379 0150 49       		.uleb128 0x49
 3380 0151 13       		.uleb128 0x13
 3381 0152 00       		.byte	0
 3382 0153 00       		.byte	0
 3383 0154 1D       		.uleb128 0x1d
 3384 0155 34       		.uleb128 0x34
 3385 0156 00       		.byte	0
 3386 0157 47       		.uleb128 0x47
 3387 0158 13       		.uleb128 0x13
 3388 0159 3A       		.uleb128 0x3a
 3389 015a 0B       		.uleb128 0xb
 3390 015b 3B       		.uleb128 0x3b
 3391 015c 0B       		.uleb128 0xb
 3392 015d 02       		.uleb128 0x2
 3393 015e 18       		.uleb128 0x18
 3394 015f 00       		.byte	0
 3395 0160 00       		.byte	0
 3396 0161 1E       		.uleb128 0x1e
 3397 0162 2E       		.uleb128 0x2e
 3398 0163 01       		.byte	0x1
 3399 0164 3F       		.uleb128 0x3f
 3400 0165 19       		.uleb128 0x19
 3401 0166 03       		.uleb128 0x3
 3402 0167 0E       		.uleb128 0xe
 3403 0168 3A       		.uleb128 0x3a
 3404 0169 0B       		.uleb128 0xb
 3405 016a 3B       		.uleb128 0x3b
 3406 016b 05       		.uleb128 0x5
 3407 016c 27       		.uleb128 0x27
 3408 016d 19       		.uleb128 0x19
 3409 016e 01       		.uleb128 0x1
 3410 016f 13       		.uleb128 0x13
 3411 0170 00       		.byte	0
 3412 0171 00       		.byte	0
 3413 0172 1F       		.uleb128 0x1f
 3414 0173 34       		.uleb128 0x34
 3415 0174 00       		.byte	0
 3416 0175 03       		.uleb128 0x3
ARM GAS  C:\Users\14122\AppData\Local\Temp\ccEX8O8P.s 			page 61


 3417 0176 08       		.uleb128 0x8
 3418 0177 3A       		.uleb128 0x3a
 3419 0178 0B       		.uleb128 0xb
 3420 0179 3B       		.uleb128 0x3b
 3421 017a 05       		.uleb128 0x5
 3422 017b 49       		.uleb128 0x49
 3423 017c 13       		.uleb128 0x13
 3424 017d 00       		.byte	0
 3425 017e 00       		.byte	0
 3426 017f 20       		.uleb128 0x20
 3427 0180 2E       		.uleb128 0x2e
 3428 0181 01       		.byte	0x1
 3429 0182 3F       		.uleb128 0x3f
 3430 0183 19       		.uleb128 0x19
 3431 0184 03       		.uleb128 0x3
 3432 0185 0E       		.uleb128 0xe
 3433 0186 3A       		.uleb128 0x3a
 3434 0187 0B       		.uleb128 0xb
 3435 0188 3B       		.uleb128 0x3b
 3436 0189 05       		.uleb128 0x5
 3437 018a 27       		.uleb128 0x27
 3438 018b 19       		.uleb128 0x19
 3439 018c 11       		.uleb128 0x11
 3440 018d 01       		.uleb128 0x1
 3441 018e 12       		.uleb128 0x12
 3442 018f 06       		.uleb128 0x6
 3443 0190 40       		.uleb128 0x40
 3444 0191 18       		.uleb128 0x18
 3445 0192 9742     		.uleb128 0x2117
 3446 0194 19       		.uleb128 0x19
 3447 0195 01       		.uleb128 0x1
 3448 0196 13       		.uleb128 0x13
 3449 0197 00       		.byte	0
 3450 0198 00       		.byte	0
 3451 0199 21       		.uleb128 0x21
 3452 019a 34       		.uleb128 0x34
 3453 019b 00       		.byte	0
 3454 019c 03       		.uleb128 0x3
 3455 019d 08       		.uleb128 0x8
 3456 019e 3A       		.uleb128 0x3a
 3457 019f 0B       		.uleb128 0xb
 3458 01a0 3B       		.uleb128 0x3b
 3459 01a1 05       		.uleb128 0x5
 3460 01a2 49       		.uleb128 0x49
 3461 01a3 13       		.uleb128 0x13
 3462 01a4 02       		.uleb128 0x2
 3463 01a5 17       		.uleb128 0x17
 3464 01a6 00       		.byte	0
 3465 01a7 00       		.byte	0
 3466 01a8 22       		.uleb128 0x22
 3467 01a9 1D       		.uleb128 0x1d
 3468 01aa 01       		.byte	0x1
 3469 01ab 31       		.uleb128 0x31
 3470 01ac 13       		.uleb128 0x13
 3471 01ad 52       		.uleb128 0x52
 3472 01ae 01       		.uleb128 0x1
 3473 01af 55       		.uleb128 0x55
ARM GAS  C:\Users\14122\AppData\Local\Temp\ccEX8O8P.s 			page 62


 3474 01b0 17       		.uleb128 0x17
 3475 01b1 58       		.uleb128 0x58
 3476 01b2 0B       		.uleb128 0xb
 3477 01b3 59       		.uleb128 0x59
 3478 01b4 05       		.uleb128 0x5
 3479 01b5 01       		.uleb128 0x1
 3480 01b6 13       		.uleb128 0x13
 3481 01b7 00       		.byte	0
 3482 01b8 00       		.byte	0
 3483 01b9 23       		.uleb128 0x23
 3484 01ba 05       		.uleb128 0x5
 3485 01bb 00       		.byte	0
 3486 01bc 31       		.uleb128 0x31
 3487 01bd 13       		.uleb128 0x13
 3488 01be 02       		.uleb128 0x2
 3489 01bf 17       		.uleb128 0x17
 3490 01c0 00       		.byte	0
 3491 01c1 00       		.byte	0
 3492 01c2 24       		.uleb128 0x24
 3493 01c3 0B       		.uleb128 0xb
 3494 01c4 01       		.byte	0x1
 3495 01c5 55       		.uleb128 0x55
 3496 01c6 17       		.uleb128 0x17
 3497 01c7 00       		.byte	0
 3498 01c8 00       		.byte	0
 3499 01c9 25       		.uleb128 0x25
 3500 01ca 34       		.uleb128 0x34
 3501 01cb 00       		.byte	0
 3502 01cc 31       		.uleb128 0x31
 3503 01cd 13       		.uleb128 0x13
 3504 01ce 00       		.byte	0
 3505 01cf 00       		.byte	0
 3506 01d0 26       		.uleb128 0x26
 3507 01d1 34       		.uleb128 0x34
 3508 01d2 00       		.byte	0
 3509 01d3 31       		.uleb128 0x31
 3510 01d4 13       		.uleb128 0x13
 3511 01d5 02       		.uleb128 0x2
 3512 01d6 17       		.uleb128 0x17
 3513 01d7 00       		.byte	0
 3514 01d8 00       		.byte	0
 3515 01d9 27       		.uleb128 0x27
 3516 01da 898201   		.uleb128 0x4109
 3517 01dd 00       		.byte	0
 3518 01de 11       		.uleb128 0x11
 3519 01df 01       		.uleb128 0x1
 3520 01e0 9542     		.uleb128 0x2115
 3521 01e2 19       		.uleb128 0x19
 3522 01e3 31       		.uleb128 0x31
 3523 01e4 13       		.uleb128 0x13
 3524 01e5 00       		.byte	0
 3525 01e6 00       		.byte	0
 3526 01e7 28       		.uleb128 0x28
 3527 01e8 2E       		.uleb128 0x2e
 3528 01e9 01       		.byte	0x1
 3529 01ea 3F       		.uleb128 0x3f
 3530 01eb 19       		.uleb128 0x19
ARM GAS  C:\Users\14122\AppData\Local\Temp\ccEX8O8P.s 			page 63


 3531 01ec 03       		.uleb128 0x3
 3532 01ed 0E       		.uleb128 0xe
 3533 01ee 3A       		.uleb128 0x3a
 3534 01ef 0B       		.uleb128 0xb
 3535 01f0 3B       		.uleb128 0x3b
 3536 01f1 05       		.uleb128 0x5
 3537 01f2 27       		.uleb128 0x27
 3538 01f3 19       		.uleb128 0x19
 3539 01f4 49       		.uleb128 0x49
 3540 01f5 13       		.uleb128 0x13
 3541 01f6 11       		.uleb128 0x11
 3542 01f7 01       		.uleb128 0x1
 3543 01f8 12       		.uleb128 0x12
 3544 01f9 06       		.uleb128 0x6
 3545 01fa 40       		.uleb128 0x40
 3546 01fb 18       		.uleb128 0x18
 3547 01fc 9742     		.uleb128 0x2117
 3548 01fe 19       		.uleb128 0x19
 3549 01ff 01       		.uleb128 0x1
 3550 0200 13       		.uleb128 0x13
 3551 0201 00       		.byte	0
 3552 0202 00       		.byte	0
 3553 0203 29       		.uleb128 0x29
 3554 0204 34       		.uleb128 0x34
 3555 0205 00       		.byte	0
 3556 0206 03       		.uleb128 0x3
 3557 0207 08       		.uleb128 0x8
 3558 0208 3A       		.uleb128 0x3a
 3559 0209 0B       		.uleb128 0xb
 3560 020a 3B       		.uleb128 0x3b
 3561 020b 05       		.uleb128 0x5
 3562 020c 49       		.uleb128 0x49
 3563 020d 13       		.uleb128 0x13
 3564 020e 02       		.uleb128 0x2
 3565 020f 18       		.uleb128 0x18
 3566 0210 00       		.byte	0
 3567 0211 00       		.byte	0
 3568 0212 2A       		.uleb128 0x2a
 3569 0213 1D       		.uleb128 0x1d
 3570 0214 00       		.byte	0
 3571 0215 31       		.uleb128 0x31
 3572 0216 13       		.uleb128 0x13
 3573 0217 11       		.uleb128 0x11
 3574 0218 01       		.uleb128 0x1
 3575 0219 12       		.uleb128 0x12
 3576 021a 06       		.uleb128 0x6
 3577 021b 58       		.uleb128 0x58
 3578 021c 0B       		.uleb128 0xb
 3579 021d 59       		.uleb128 0x59
 3580 021e 05       		.uleb128 0x5
 3581 021f 00       		.byte	0
 3582 0220 00       		.byte	0
 3583 0221 2B       		.uleb128 0x2b
 3584 0222 05       		.uleb128 0x5
 3585 0223 00       		.byte	0
 3586 0224 03       		.uleb128 0x3
 3587 0225 08       		.uleb128 0x8
ARM GAS  C:\Users\14122\AppData\Local\Temp\ccEX8O8P.s 			page 64


 3588 0226 3A       		.uleb128 0x3a
 3589 0227 0B       		.uleb128 0xb
 3590 0228 3B       		.uleb128 0x3b
 3591 0229 05       		.uleb128 0x5
 3592 022a 49       		.uleb128 0x49
 3593 022b 13       		.uleb128 0x13
 3594 022c 02       		.uleb128 0x2
 3595 022d 17       		.uleb128 0x17
 3596 022e 00       		.byte	0
 3597 022f 00       		.byte	0
 3598 0230 2C       		.uleb128 0x2c
 3599 0231 34       		.uleb128 0x34
 3600 0232 00       		.byte	0
 3601 0233 03       		.uleb128 0x3
 3602 0234 0E       		.uleb128 0xe
 3603 0235 49       		.uleb128 0x49
 3604 0236 13       		.uleb128 0x13
 3605 0237 34       		.uleb128 0x34
 3606 0238 19       		.uleb128 0x19
 3607 0239 00       		.byte	0
 3608 023a 00       		.byte	0
 3609 023b 2D       		.uleb128 0x2d
 3610 023c 1D       		.uleb128 0x1d
 3611 023d 01       		.byte	0x1
 3612 023e 31       		.uleb128 0x31
 3613 023f 13       		.uleb128 0x13
 3614 0240 11       		.uleb128 0x11
 3615 0241 01       		.uleb128 0x1
 3616 0242 12       		.uleb128 0x12
 3617 0243 06       		.uleb128 0x6
 3618 0244 58       		.uleb128 0x58
 3619 0245 0B       		.uleb128 0xb
 3620 0246 59       		.uleb128 0x59
 3621 0247 05       		.uleb128 0x5
 3622 0248 01       		.uleb128 0x1
 3623 0249 13       		.uleb128 0x13
 3624 024a 00       		.byte	0
 3625 024b 00       		.byte	0
 3626 024c 2E       		.uleb128 0x2e
 3627 024d 0B       		.uleb128 0xb
 3628 024e 01       		.byte	0x1
 3629 024f 11       		.uleb128 0x11
 3630 0250 01       		.uleb128 0x1
 3631 0251 12       		.uleb128 0x12
 3632 0252 06       		.uleb128 0x6
 3633 0253 00       		.byte	0
 3634 0254 00       		.byte	0
 3635 0255 2F       		.uleb128 0x2f
 3636 0256 898201   		.uleb128 0x4109
 3637 0259 01       		.byte	0x1
 3638 025a 11       		.uleb128 0x11
 3639 025b 01       		.uleb128 0x1
 3640 025c 9542     		.uleb128 0x2115
 3641 025e 19       		.uleb128 0x19
 3642 025f 31       		.uleb128 0x31
 3643 0260 13       		.uleb128 0x13
 3644 0261 00       		.byte	0
ARM GAS  C:\Users\14122\AppData\Local\Temp\ccEX8O8P.s 			page 65


 3645 0262 00       		.byte	0
 3646 0263 30       		.uleb128 0x30
 3647 0264 8A8201   		.uleb128 0x410a
 3648 0267 00       		.byte	0
 3649 0268 02       		.uleb128 0x2
 3650 0269 18       		.uleb128 0x18
 3651 026a 9142     		.uleb128 0x2111
 3652 026c 18       		.uleb128 0x18
 3653 026d 00       		.byte	0
 3654 026e 00       		.byte	0
 3655 026f 31       		.uleb128 0x31
 3656 0270 05       		.uleb128 0x5
 3657 0271 00       		.byte	0
 3658 0272 03       		.uleb128 0x3
 3659 0273 0E       		.uleb128 0xe
 3660 0274 3A       		.uleb128 0x3a
 3661 0275 0B       		.uleb128 0xb
 3662 0276 3B       		.uleb128 0x3b
 3663 0277 05       		.uleb128 0x5
 3664 0278 49       		.uleb128 0x49
 3665 0279 13       		.uleb128 0x13
 3666 027a 02       		.uleb128 0x2
 3667 027b 17       		.uleb128 0x17
 3668 027c 00       		.byte	0
 3669 027d 00       		.byte	0
 3670 027e 32       		.uleb128 0x32
 3671 027f 0B       		.uleb128 0xb
 3672 0280 01       		.byte	0x1
 3673 0281 11       		.uleb128 0x11
 3674 0282 01       		.uleb128 0x1
 3675 0283 12       		.uleb128 0x12
 3676 0284 06       		.uleb128 0x6
 3677 0285 01       		.uleb128 0x1
 3678 0286 13       		.uleb128 0x13
 3679 0287 00       		.byte	0
 3680 0288 00       		.byte	0
 3681 0289 33       		.uleb128 0x33
 3682 028a 898201   		.uleb128 0x4109
 3683 028d 01       		.byte	0x1
 3684 028e 11       		.uleb128 0x11
 3685 028f 01       		.uleb128 0x1
 3686 0290 31       		.uleb128 0x31
 3687 0291 13       		.uleb128 0x13
 3688 0292 01       		.uleb128 0x1
 3689 0293 13       		.uleb128 0x13
 3690 0294 00       		.byte	0
 3691 0295 00       		.byte	0
 3692 0296 34       		.uleb128 0x34
 3693 0297 898201   		.uleb128 0x4109
 3694 029a 01       		.byte	0x1
 3695 029b 11       		.uleb128 0x11
 3696 029c 01       		.uleb128 0x1
 3697 029d 31       		.uleb128 0x31
 3698 029e 13       		.uleb128 0x13
 3699 029f 00       		.byte	0
 3700 02a0 00       		.byte	0
 3701 02a1 35       		.uleb128 0x35
ARM GAS  C:\Users\14122\AppData\Local\Temp\ccEX8O8P.s 			page 66


 3702 02a2 898201   		.uleb128 0x4109
 3703 02a5 00       		.byte	0
 3704 02a6 11       		.uleb128 0x11
 3705 02a7 01       		.uleb128 0x1
 3706 02a8 31       		.uleb128 0x31
 3707 02a9 13       		.uleb128 0x13
 3708 02aa 00       		.byte	0
 3709 02ab 00       		.byte	0
 3710 02ac 36       		.uleb128 0x36
 3711 02ad 2E       		.uleb128 0x2e
 3712 02ae 01       		.byte	0x1
 3713 02af 03       		.uleb128 0x3
 3714 02b0 0E       		.uleb128 0xe
 3715 02b1 3A       		.uleb128 0x3a
 3716 02b2 0B       		.uleb128 0xb
 3717 02b3 3B       		.uleb128 0x3b
 3718 02b4 05       		.uleb128 0x5
 3719 02b5 27       		.uleb128 0x27
 3720 02b6 19       		.uleb128 0x19
 3721 02b7 20       		.uleb128 0x20
 3722 02b8 0B       		.uleb128 0xb
 3723 02b9 01       		.uleb128 0x1
 3724 02ba 13       		.uleb128 0x13
 3725 02bb 00       		.byte	0
 3726 02bc 00       		.byte	0
 3727 02bd 37       		.uleb128 0x37
 3728 02be 05       		.uleb128 0x5
 3729 02bf 00       		.byte	0
 3730 02c0 03       		.uleb128 0x3
 3731 02c1 08       		.uleb128 0x8
 3732 02c2 3A       		.uleb128 0x3a
 3733 02c3 0B       		.uleb128 0xb
 3734 02c4 3B       		.uleb128 0x3b
 3735 02c5 05       		.uleb128 0x5
 3736 02c6 49       		.uleb128 0x49
 3737 02c7 13       		.uleb128 0x13
 3738 02c8 00       		.byte	0
 3739 02c9 00       		.byte	0
 3740 02ca 38       		.uleb128 0x38
 3741 02cb 2E       		.uleb128 0x2e
 3742 02cc 01       		.byte	0x1
 3743 02cd 3F       		.uleb128 0x3f
 3744 02ce 19       		.uleb128 0x19
 3745 02cf 03       		.uleb128 0x3
 3746 02d0 0E       		.uleb128 0xe
 3747 02d1 3A       		.uleb128 0x3a
 3748 02d2 0B       		.uleb128 0xb
 3749 02d3 3B       		.uleb128 0x3b
 3750 02d4 05       		.uleb128 0x5
 3751 02d5 27       		.uleb128 0x27
 3752 02d6 19       		.uleb128 0x19
 3753 02d7 49       		.uleb128 0x49
 3754 02d8 13       		.uleb128 0x13
 3755 02d9 20       		.uleb128 0x20
 3756 02da 0B       		.uleb128 0xb
 3757 02db 01       		.uleb128 0x1
 3758 02dc 13       		.uleb128 0x13
ARM GAS  C:\Users\14122\AppData\Local\Temp\ccEX8O8P.s 			page 67


 3759 02dd 00       		.byte	0
 3760 02de 00       		.byte	0
 3761 02df 39       		.uleb128 0x39
 3762 02e0 34       		.uleb128 0x34
 3763 02e1 00       		.byte	0
 3764 02e2 03       		.uleb128 0x3
 3765 02e3 0E       		.uleb128 0xe
 3766 02e4 49       		.uleb128 0x49
 3767 02e5 13       		.uleb128 0x13
 3768 02e6 34       		.uleb128 0x34
 3769 02e7 19       		.uleb128 0x19
 3770 02e8 1C       		.uleb128 0x1c
 3771 02e9 0E       		.uleb128 0xe
 3772 02ea 00       		.byte	0
 3773 02eb 00       		.byte	0
 3774 02ec 3A       		.uleb128 0x3a
 3775 02ed 2E       		.uleb128 0x2e
 3776 02ee 01       		.byte	0x1
 3777 02ef 3F       		.uleb128 0x3f
 3778 02f0 19       		.uleb128 0x19
 3779 02f1 03       		.uleb128 0x3
 3780 02f2 0E       		.uleb128 0xe
 3781 02f3 3A       		.uleb128 0x3a
 3782 02f4 0B       		.uleb128 0xb
 3783 02f5 3B       		.uleb128 0x3b
 3784 02f6 0B       		.uleb128 0xb
 3785 02f7 27       		.uleb128 0x27
 3786 02f8 19       		.uleb128 0x19
 3787 02f9 49       		.uleb128 0x49
 3788 02fa 13       		.uleb128 0x13
 3789 02fb 20       		.uleb128 0x20
 3790 02fc 0B       		.uleb128 0xb
 3791 02fd 01       		.uleb128 0x1
 3792 02fe 13       		.uleb128 0x13
 3793 02ff 00       		.byte	0
 3794 0300 00       		.byte	0
 3795 0301 3B       		.uleb128 0x3b
 3796 0302 05       		.uleb128 0x5
 3797 0303 00       		.byte	0
 3798 0304 03       		.uleb128 0x3
 3799 0305 08       		.uleb128 0x8
 3800 0306 3A       		.uleb128 0x3a
 3801 0307 0B       		.uleb128 0xb
 3802 0308 3B       		.uleb128 0x3b
 3803 0309 0B       		.uleb128 0xb
 3804 030a 49       		.uleb128 0x49
 3805 030b 13       		.uleb128 0x13
 3806 030c 00       		.byte	0
 3807 030d 00       		.byte	0
 3808 030e 3C       		.uleb128 0x3c
 3809 030f 34       		.uleb128 0x34
 3810 0310 00       		.byte	0
 3811 0311 03       		.uleb128 0x3
 3812 0312 08       		.uleb128 0x8
 3813 0313 3A       		.uleb128 0x3a
 3814 0314 0B       		.uleb128 0xb
 3815 0315 3B       		.uleb128 0x3b
ARM GAS  C:\Users\14122\AppData\Local\Temp\ccEX8O8P.s 			page 68


 3816 0316 0B       		.uleb128 0xb
 3817 0317 49       		.uleb128 0x49
 3818 0318 13       		.uleb128 0x13
 3819 0319 00       		.byte	0
 3820 031a 00       		.byte	0
 3821 031b 3D       		.uleb128 0x3d
 3822 031c 2E       		.uleb128 0x2e
 3823 031d 01       		.byte	0x1
 3824 031e 3F       		.uleb128 0x3f
 3825 031f 19       		.uleb128 0x19
 3826 0320 03       		.uleb128 0x3
 3827 0321 0E       		.uleb128 0xe
 3828 0322 3A       		.uleb128 0x3a
 3829 0323 0B       		.uleb128 0xb
 3830 0324 3B       		.uleb128 0x3b
 3831 0325 0B       		.uleb128 0xb
 3832 0326 27       		.uleb128 0x27
 3833 0327 19       		.uleb128 0x19
 3834 0328 11       		.uleb128 0x11
 3835 0329 01       		.uleb128 0x1
 3836 032a 12       		.uleb128 0x12
 3837 032b 06       		.uleb128 0x6
 3838 032c 40       		.uleb128 0x40
 3839 032d 18       		.uleb128 0x18
 3840 032e 9742     		.uleb128 0x2117
 3841 0330 19       		.uleb128 0x19
 3842 0331 01       		.uleb128 0x1
 3843 0332 13       		.uleb128 0x13
 3844 0333 00       		.byte	0
 3845 0334 00       		.byte	0
 3846 0335 3E       		.uleb128 0x3e
 3847 0336 1D       		.uleb128 0x1d
 3848 0337 01       		.byte	0x1
 3849 0338 31       		.uleb128 0x31
 3850 0339 13       		.uleb128 0x13
 3851 033a 52       		.uleb128 0x52
 3852 033b 01       		.uleb128 0x1
 3853 033c 55       		.uleb128 0x55
 3854 033d 17       		.uleb128 0x17
 3855 033e 58       		.uleb128 0x58
 3856 033f 0B       		.uleb128 0xb
 3857 0340 59       		.uleb128 0x59
 3858 0341 0B       		.uleb128 0xb
 3859 0342 00       		.byte	0
 3860 0343 00       		.byte	0
 3861 0344 3F       		.uleb128 0x3f
 3862 0345 2E       		.uleb128 0x2e
 3863 0346 01       		.byte	0x1
 3864 0347 03       		.uleb128 0x3
 3865 0348 0E       		.uleb128 0xe
 3866 0349 3A       		.uleb128 0x3a
 3867 034a 0B       		.uleb128 0xb
 3868 034b 3B       		.uleb128 0x3b
 3869 034c 0B       		.uleb128 0xb
 3870 034d 27       		.uleb128 0x27
 3871 034e 19       		.uleb128 0x19
 3872 034f 20       		.uleb128 0x20
ARM GAS  C:\Users\14122\AppData\Local\Temp\ccEX8O8P.s 			page 69


 3873 0350 0B       		.uleb128 0xb
 3874 0351 01       		.uleb128 0x1
 3875 0352 13       		.uleb128 0x13
 3876 0353 00       		.byte	0
 3877 0354 00       		.byte	0
 3878 0355 40       		.uleb128 0x40
 3879 0356 2E       		.uleb128 0x2e
 3880 0357 01       		.byte	0x1
 3881 0358 03       		.uleb128 0x3
 3882 0359 0E       		.uleb128 0xe
 3883 035a 3A       		.uleb128 0x3a
 3884 035b 0B       		.uleb128 0xb
 3885 035c 3B       		.uleb128 0x3b
 3886 035d 0B       		.uleb128 0xb
 3887 035e 27       		.uleb128 0x27
 3888 035f 19       		.uleb128 0x19
 3889 0360 49       		.uleb128 0x49
 3890 0361 13       		.uleb128 0x13
 3891 0362 20       		.uleb128 0x20
 3892 0363 0B       		.uleb128 0xb
 3893 0364 01       		.uleb128 0x1
 3894 0365 13       		.uleb128 0x13
 3895 0366 00       		.byte	0
 3896 0367 00       		.byte	0
 3897 0368 41       		.uleb128 0x41
 3898 0369 2E       		.uleb128 0x2e
 3899 036a 00       		.byte	0
 3900 036b 03       		.uleb128 0x3
 3901 036c 0E       		.uleb128 0xe
 3902 036d 3A       		.uleb128 0x3a
 3903 036e 0B       		.uleb128 0xb
 3904 036f 3B       		.uleb128 0x3b
 3905 0370 05       		.uleb128 0x5
 3906 0371 27       		.uleb128 0x27
 3907 0372 19       		.uleb128 0x19
 3908 0373 20       		.uleb128 0x20
 3909 0374 0B       		.uleb128 0xb
 3910 0375 00       		.byte	0
 3911 0376 00       		.byte	0
 3912 0377 42       		.uleb128 0x42
 3913 0378 2E       		.uleb128 0x2e
 3914 0379 00       		.byte	0
 3915 037a 03       		.uleb128 0x3
 3916 037b 0E       		.uleb128 0xe
 3917 037c 3A       		.uleb128 0x3a
 3918 037d 0B       		.uleb128 0xb
 3919 037e 3B       		.uleb128 0x3b
 3920 037f 05       		.uleb128 0x5
 3921 0380 27       		.uleb128 0x27
 3922 0381 19       		.uleb128 0x19
 3923 0382 49       		.uleb128 0x49
 3924 0383 13       		.uleb128 0x13
 3925 0384 20       		.uleb128 0x20
 3926 0385 0B       		.uleb128 0xb
 3927 0386 00       		.byte	0
 3928 0387 00       		.byte	0
 3929 0388 43       		.uleb128 0x43
ARM GAS  C:\Users\14122\AppData\Local\Temp\ccEX8O8P.s 			page 70


 3930 0389 2E       		.uleb128 0x2e
 3931 038a 01       		.byte	0x1
 3932 038b 03       		.uleb128 0x3
 3933 038c 0E       		.uleb128 0xe
 3934 038d 3A       		.uleb128 0x3a
 3935 038e 0B       		.uleb128 0xb
 3936 038f 3B       		.uleb128 0x3b
 3937 0390 05       		.uleb128 0x5
 3938 0391 27       		.uleb128 0x27
 3939 0392 19       		.uleb128 0x19
 3940 0393 49       		.uleb128 0x49
 3941 0394 13       		.uleb128 0x13
 3942 0395 20       		.uleb128 0x20
 3943 0396 0B       		.uleb128 0xb
 3944 0397 01       		.uleb128 0x1
 3945 0398 13       		.uleb128 0x13
 3946 0399 00       		.byte	0
 3947 039a 00       		.byte	0
 3948 039b 44       		.uleb128 0x44
 3949 039c 05       		.uleb128 0x5
 3950 039d 00       		.byte	0
 3951 039e 03       		.uleb128 0x3
 3952 039f 0E       		.uleb128 0xe
 3953 03a0 3A       		.uleb128 0x3a
 3954 03a1 0B       		.uleb128 0xb
 3955 03a2 3B       		.uleb128 0x3b
 3956 03a3 05       		.uleb128 0x5
 3957 03a4 49       		.uleb128 0x49
 3958 03a5 13       		.uleb128 0x13
 3959 03a6 00       		.byte	0
 3960 03a7 00       		.byte	0
 3961 03a8 45       		.uleb128 0x45
 3962 03a9 2E       		.uleb128 0x2e
 3963 03aa 01       		.byte	0x1
 3964 03ab 31       		.uleb128 0x31
 3965 03ac 13       		.uleb128 0x13
 3966 03ad 11       		.uleb128 0x11
 3967 03ae 01       		.uleb128 0x1
 3968 03af 12       		.uleb128 0x12
 3969 03b0 06       		.uleb128 0x6
 3970 03b1 40       		.uleb128 0x40
 3971 03b2 18       		.uleb128 0x18
 3972 03b3 9742     		.uleb128 0x2117
 3973 03b5 19       		.uleb128 0x19
 3974 03b6 01       		.uleb128 0x1
 3975 03b7 13       		.uleb128 0x13
 3976 03b8 00       		.byte	0
 3977 03b9 00       		.byte	0
 3978 03ba 46       		.uleb128 0x46
 3979 03bb 05       		.uleb128 0x5
 3980 03bc 00       		.byte	0
 3981 03bd 31       		.uleb128 0x31
 3982 03be 13       		.uleb128 0x13
 3983 03bf 02       		.uleb128 0x2
 3984 03c0 18       		.uleb128 0x18
 3985 03c1 00       		.byte	0
 3986 03c2 00       		.byte	0
ARM GAS  C:\Users\14122\AppData\Local\Temp\ccEX8O8P.s 			page 71


 3987 03c3 47       		.uleb128 0x47
 3988 03c4 34       		.uleb128 0x34
 3989 03c5 00       		.byte	0
 3990 03c6 31       		.uleb128 0x31
 3991 03c7 13       		.uleb128 0x13
 3992 03c8 02       		.uleb128 0x2
 3993 03c9 18       		.uleb128 0x18
 3994 03ca 00       		.byte	0
 3995 03cb 00       		.byte	0
 3996 03cc 48       		.uleb128 0x48
 3997 03cd 1D       		.uleb128 0x1d
 3998 03ce 01       		.byte	0x1
 3999 03cf 31       		.uleb128 0x31
 4000 03d0 13       		.uleb128 0x13
 4001 03d1 11       		.uleb128 0x11
 4002 03d2 01       		.uleb128 0x1
 4003 03d3 12       		.uleb128 0x12
 4004 03d4 06       		.uleb128 0x6
 4005 03d5 58       		.uleb128 0x58
 4006 03d6 0B       		.uleb128 0xb
 4007 03d7 59       		.uleb128 0x59
 4008 03d8 05       		.uleb128 0x5
 4009 03d9 00       		.byte	0
 4010 03da 00       		.byte	0
 4011 03db 49       		.uleb128 0x49
 4012 03dc 0B       		.uleb128 0xb
 4013 03dd 01       		.byte	0x1
 4014 03de 31       		.uleb128 0x31
 4015 03df 13       		.uleb128 0x13
 4016 03e0 55       		.uleb128 0x55
 4017 03e1 17       		.uleb128 0x17
 4018 03e2 01       		.uleb128 0x1
 4019 03e3 13       		.uleb128 0x13
 4020 03e4 00       		.byte	0
 4021 03e5 00       		.byte	0
 4022 03e6 4A       		.uleb128 0x4a
 4023 03e7 05       		.uleb128 0x5
 4024 03e8 00       		.byte	0
 4025 03e9 31       		.uleb128 0x31
 4026 03ea 13       		.uleb128 0x13
 4027 03eb 00       		.byte	0
 4028 03ec 00       		.byte	0
 4029 03ed 4B       		.uleb128 0x4b
 4030 03ee 1D       		.uleb128 0x1d
 4031 03ef 01       		.byte	0x1
 4032 03f0 31       		.uleb128 0x31
 4033 03f1 13       		.uleb128 0x13
 4034 03f2 52       		.uleb128 0x52
 4035 03f3 01       		.uleb128 0x1
 4036 03f4 55       		.uleb128 0x55
 4037 03f5 17       		.uleb128 0x17
 4038 03f6 58       		.uleb128 0x58
 4039 03f7 0B       		.uleb128 0xb
 4040 03f8 59       		.uleb128 0x59
 4041 03f9 05       		.uleb128 0x5
 4042 03fa 00       		.byte	0
 4043 03fb 00       		.byte	0
ARM GAS  C:\Users\14122\AppData\Local\Temp\ccEX8O8P.s 			page 72


 4044 03fc 4C       		.uleb128 0x4c
 4045 03fd 2E       		.uleb128 0x2e
 4046 03fe 00       		.byte	0
 4047 03ff 3F       		.uleb128 0x3f
 4048 0400 19       		.uleb128 0x19
 4049 0401 3C       		.uleb128 0x3c
 4050 0402 19       		.uleb128 0x19
 4051 0403 6E       		.uleb128 0x6e
 4052 0404 0E       		.uleb128 0xe
 4053 0405 03       		.uleb128 0x3
 4054 0406 0E       		.uleb128 0xe
 4055 0407 3A       		.uleb128 0x3a
 4056 0408 0B       		.uleb128 0xb
 4057 0409 3B       		.uleb128 0x3b
 4058 040a 05       		.uleb128 0x5
 4059 040b 00       		.byte	0
 4060 040c 00       		.byte	0
 4061 040d 4D       		.uleb128 0x4d
 4062 040e 2E       		.uleb128 0x2e
 4063 040f 00       		.byte	0
 4064 0410 3F       		.uleb128 0x3f
 4065 0411 19       		.uleb128 0x19
 4066 0412 3C       		.uleb128 0x3c
 4067 0413 19       		.uleb128 0x19
 4068 0414 6E       		.uleb128 0x6e
 4069 0415 0E       		.uleb128 0xe
 4070 0416 03       		.uleb128 0x3
 4071 0417 0E       		.uleb128 0xe
 4072 0418 3A       		.uleb128 0x3a
 4073 0419 0B       		.uleb128 0xb
 4074 041a 3B       		.uleb128 0x3b
 4075 041b 0B       		.uleb128 0xb
 4076 041c 00       		.byte	0
 4077 041d 00       		.byte	0
 4078 041e 00       		.byte	0
 4079              		.section	.debug_loc,"",%progbits
 4080              	.Ldebug_loc0:
 4081              	.LLST27:
 4082 0000 0E000000 		.4byte	.LVL59
 4083 0004 34000000 		.4byte	.LVL64
 4084 0008 0100     		.2byte	0x1
 4085 000a 54       		.byte	0x54
 4086 000b 00000000 		.4byte	0
 4087 000f 00000000 		.4byte	0
 4088              	.LLST28:
 4089 0013 1E000000 		.4byte	.LVL61
 4090 0017 34000000 		.4byte	.LVL64
 4091 001b 0100     		.2byte	0x1
 4092 001d 54       		.byte	0x54
 4093 001e 00000000 		.4byte	0
 4094 0022 00000000 		.4byte	0
 4095              	.LLST29:
 4096 0026 0E000000 		.4byte	.LVL59
 4097 002a 12000000 		.4byte	.LVL60
 4098 002e 0600     		.2byte	0x6
 4099 0030 03       		.byte	0x3
 4100 0031 00000000 		.4byte	ch
ARM GAS  C:\Users\14122\AppData\Local\Temp\ccEX8O8P.s 			page 73


 4101 0035 9F       		.byte	0x9f
 4102 0036 00000000 		.4byte	0
 4103 003a 00000000 		.4byte	0
 4104              	.LLST30:
 4105 003e 0E000000 		.4byte	.LVL59
 4106 0042 12000000 		.4byte	.LVL60
 4107 0046 0100     		.2byte	0x1
 4108 0048 50       		.byte	0x50
 4109 0049 00000000 		.4byte	0
 4110 004d 00000000 		.4byte	0
 4111              	.LLST23:
 4112 0051 0E000000 		.4byte	.LVL52
 4113 0055 34000000 		.4byte	.LVL57
 4114 0059 0100     		.2byte	0x1
 4115 005b 54       		.byte	0x54
 4116 005c 00000000 		.4byte	0
 4117 0060 00000000 		.4byte	0
 4118              	.LLST24:
 4119 0064 1E000000 		.4byte	.LVL54
 4120 0068 34000000 		.4byte	.LVL57
 4121 006c 0100     		.2byte	0x1
 4122 006e 54       		.byte	0x54
 4123 006f 00000000 		.4byte	0
 4124 0073 00000000 		.4byte	0
 4125              	.LLST25:
 4126 0077 0E000000 		.4byte	.LVL52
 4127 007b 12000000 		.4byte	.LVL53
 4128 007f 0600     		.2byte	0x6
 4129 0081 03       		.byte	0x3
 4130 0082 00000000 		.4byte	ch
 4131 0086 9F       		.byte	0x9f
 4132 0087 00000000 		.4byte	0
 4133 008b 00000000 		.4byte	0
 4134              	.LLST26:
 4135 008f 0E000000 		.4byte	.LVL52
 4136 0093 12000000 		.4byte	.LVL53
 4137 0097 0100     		.2byte	0x1
 4138 0099 50       		.byte	0x50
 4139 009a 00000000 		.4byte	0
 4140 009e 00000000 		.4byte	0
 4141              	.LLST18:
 4142 00a2 00000000 		.4byte	.LVL37
 4143 00a6 0E000000 		.4byte	.LVL39
 4144 00aa 0100     		.2byte	0x1
 4145 00ac 50       		.byte	0x50
 4146 00ad 0E000000 		.4byte	.LVL39
 4147 00b1 2C000000 		.4byte	.LVL43
 4148 00b5 0100     		.2byte	0x1
 4149 00b7 54       		.byte	0x54
 4150 00b8 2C000000 		.4byte	.LVL43
 4151 00bc 2E000000 		.4byte	.LVL44
 4152 00c0 0200     		.2byte	0x2
 4153 00c2 73       		.byte	0x73
 4154 00c3 04       		.sleb128 4
 4155 00c4 2E000000 		.4byte	.LVL44
 4156 00c8 56000000 		.4byte	.LVL49
 4157 00cc 0100     		.2byte	0x1
ARM GAS  C:\Users\14122\AppData\Local\Temp\ccEX8O8P.s 			page 74


 4158 00ce 54       		.byte	0x54
 4159 00cf 56000000 		.4byte	.LVL49
 4160 00d3 59000000 		.4byte	.LVL50-1
 4161 00d7 0100     		.2byte	0x1
 4162 00d9 50       		.byte	0x50
 4163 00da 59000000 		.4byte	.LVL50-1
 4164 00de 60000000 		.4byte	.LFE226
 4165 00e2 0400     		.2byte	0x4
 4166 00e4 F3       		.byte	0xf3
 4167 00e5 01       		.uleb128 0x1
 4168 00e6 50       		.byte	0x50
 4169 00e7 9F       		.byte	0x9f
 4170 00e8 00000000 		.4byte	0
 4171 00ec 00000000 		.4byte	0
 4172              	.LLST19:
 4173 00f0 00000000 		.4byte	.LVL37
 4174 00f4 30000000 		.4byte	.LVL45
 4175 00f8 0100     		.2byte	0x1
 4176 00fa 51       		.byte	0x51
 4177 00fb 30000000 		.4byte	.LVL45
 4178 00ff 36000000 		.4byte	.LVL46
 4179 0103 0200     		.2byte	0x2
 4180 0105 74       		.byte	0x74
 4181 0106 24       		.sleb128 36
 4182 0107 36000000 		.4byte	.LVL46
 4183 010b 60000000 		.4byte	.LFE226
 4184 010f 0400     		.2byte	0x4
 4185 0111 F3       		.byte	0xf3
 4186 0112 01       		.uleb128 0x1
 4187 0113 51       		.byte	0x51
 4188 0114 9F       		.byte	0x9f
 4189 0115 00000000 		.4byte	0
 4190 0119 00000000 		.4byte	0
 4191              	.LLST20:
 4192 011d 06000000 		.4byte	.LVL38
 4193 0121 2C000000 		.4byte	.LVL43
 4194 0125 0100     		.2byte	0x1
 4195 0127 56       		.byte	0x56
 4196 0128 2E000000 		.4byte	.LVL44
 4197 012c 4A000000 		.4byte	.LVL48
 4198 0130 0100     		.2byte	0x1
 4199 0132 56       		.byte	0x56
 4200 0133 00000000 		.4byte	0
 4201 0137 00000000 		.4byte	0
 4202              	.LLST21:
 4203 013b 12000000 		.4byte	.LVL40
 4204 013f 2C000000 		.4byte	.LVL43
 4205 0143 0100     		.2byte	0x1
 4206 0145 54       		.byte	0x54
 4207 0146 2C000000 		.4byte	.LVL43
 4208 014a 2E000000 		.4byte	.LVL44
 4209 014e 0200     		.2byte	0x2
 4210 0150 73       		.byte	0x73
 4211 0151 04       		.sleb128 4
 4212 0152 00000000 		.4byte	0
 4213 0156 00000000 		.4byte	0
 4214              	.LLST22:
ARM GAS  C:\Users\14122\AppData\Local\Temp\ccEX8O8P.s 			page 75


 4215 015a 2E000000 		.4byte	.LVL44
 4216 015e 4A000000 		.4byte	.LVL48
 4217 0162 0100     		.2byte	0x1
 4218 0164 56       		.byte	0x56
 4219 0165 00000000 		.4byte	0
 4220 0169 00000000 		.4byte	0
 4221              	.LLST16:
 4222 016d 00000000 		.4byte	.LVL29
 4223 0171 0E000000 		.4byte	.LVL30
 4224 0175 0100     		.2byte	0x1
 4225 0177 50       		.byte	0x50
 4226 0178 0E000000 		.4byte	.LVL30
 4227 017c 2E000000 		.4byte	.LVL35
 4228 0180 0400     		.2byte	0x4
 4229 0182 F3       		.byte	0xf3
 4230 0183 01       		.uleb128 0x1
 4231 0184 50       		.byte	0x50
 4232 0185 9F       		.byte	0x9f
 4233 0186 2E000000 		.4byte	.LVL35
 4234 018a 31000000 		.4byte	.LVL36-1
 4235 018e 0100     		.2byte	0x1
 4236 0190 50       		.byte	0x50
 4237 0191 31000000 		.4byte	.LVL36-1
 4238 0195 44000000 		.4byte	.LFE225
 4239 0199 0400     		.2byte	0x4
 4240 019b F3       		.byte	0xf3
 4241 019c 01       		.uleb128 0x1
 4242 019d 50       		.byte	0x50
 4243 019e 9F       		.byte	0x9f
 4244 019f 00000000 		.4byte	0
 4245 01a3 00000000 		.4byte	0
 4246              	.LLST17:
 4247 01a7 00000000 		.4byte	.LVL29
 4248 01ab 15000000 		.4byte	.LVL31-1
 4249 01af 0100     		.2byte	0x1
 4250 01b1 51       		.byte	0x51
 4251 01b2 15000000 		.4byte	.LVL31-1
 4252 01b6 2E000000 		.4byte	.LVL35
 4253 01ba 0400     		.2byte	0x4
 4254 01bc F3       		.byte	0xf3
 4255 01bd 01       		.uleb128 0x1
 4256 01be 51       		.byte	0x51
 4257 01bf 9F       		.byte	0x9f
 4258 01c0 2E000000 		.4byte	.LVL35
 4259 01c4 31000000 		.4byte	.LVL36-1
 4260 01c8 0100     		.2byte	0x1
 4261 01ca 51       		.byte	0x51
 4262 01cb 31000000 		.4byte	.LVL36-1
 4263 01cf 44000000 		.4byte	.LFE225
 4264 01d3 0400     		.2byte	0x4
 4265 01d5 F3       		.byte	0xf3
 4266 01d6 01       		.uleb128 0x1
 4267 01d7 51       		.byte	0x51
 4268 01d8 9F       		.byte	0x9f
 4269 01d9 00000000 		.4byte	0
 4270 01dd 00000000 		.4byte	0
 4271              	.LLST12:
ARM GAS  C:\Users\14122\AppData\Local\Temp\ccEX8O8P.s 			page 76


 4272 01e1 00000000 		.4byte	.LVL23
 4273 01e5 12000000 		.4byte	.LVL26
 4274 01e9 0100     		.2byte	0x1
 4275 01eb 50       		.byte	0x50
 4276 01ec 12000000 		.4byte	.LVL26
 4277 01f0 14000000 		.4byte	.LVL27
 4278 01f4 0200     		.2byte	0x2
 4279 01f6 71       		.byte	0x71
 4280 01f7 20       		.sleb128 32
 4281 01f8 14000000 		.4byte	.LVL27
 4282 01fc 28000000 		.4byte	.LFE223
 4283 0200 0400     		.2byte	0x4
 4284 0202 F3       		.byte	0xf3
 4285 0203 01       		.uleb128 0x1
 4286 0204 50       		.byte	0x50
 4287 0205 9F       		.byte	0x9f
 4288 0206 00000000 		.4byte	0
 4289 020a 00000000 		.4byte	0
 4290              	.LLST13:
 4291 020e 08000000 		.4byte	.LVL24
 4292 0212 21000000 		.4byte	.LVL28-1
 4293 0216 0100     		.2byte	0x1
 4294 0218 51       		.byte	0x51
 4295 0219 00000000 		.4byte	0
 4296 021d 00000000 		.4byte	0
 4297              	.LLST14:
 4298 0221 0E000000 		.4byte	.LVL25
 4299 0225 14000000 		.4byte	.LVL27
 4300 0229 0600     		.2byte	0x6
 4301 022b 03       		.byte	0x3
 4302 022c 00000000 		.4byte	ch
 4303 0230 9F       		.byte	0x9f
 4304 0231 00000000 		.4byte	0
 4305 0235 00000000 		.4byte	0
 4306              	.LLST15:
 4307 0239 0E000000 		.4byte	.LVL25
 4308 023d 14000000 		.4byte	.LVL27
 4309 0241 0100     		.2byte	0x1
 4310 0243 52       		.byte	0x52
 4311 0244 00000000 		.4byte	0
 4312 0248 00000000 		.4byte	0
 4313              	.LLST9:
 4314 024c 00000000 		.4byte	.LVL13
 4315 0250 0A000000 		.4byte	.LVL14
 4316 0254 0600     		.2byte	0x6
 4317 0256 03       		.byte	0x3
 4318 0257 00000000 		.4byte	ch
 4319 025b 9F       		.byte	0x9f
 4320 025c 00000000 		.4byte	0
 4321 0260 00000000 		.4byte	0
 4322              	.LLST0:
 4323 0264 00000000 		.4byte	.LVL0
 4324 0268 06000000 		.4byte	.LVL1
 4325 026c 0300     		.2byte	0x3
 4326 026e 08       		.byte	0x8
 4327 026f 20       		.byte	0x20
 4328 0270 9F       		.byte	0x9f
ARM GAS  C:\Users\14122\AppData\Local\Temp\ccEX8O8P.s 			page 77


 4329 0271 00000000 		.4byte	0
 4330 0275 00000000 		.4byte	0
 4331              	.LLST1:
 4332 0279 1C000000 		.4byte	.LVL2
 4333 027d 22000000 		.4byte	.LVL3
 4334 0281 0100     		.2byte	0x1
 4335 0283 52       		.byte	0x52
 4336 0284 00000000 		.4byte	0
 4337 0288 00000000 		.4byte	0
 4338              	.LLST2:
 4339 028c 22000000 		.4byte	.LVL3
 4340 0290 2C000000 		.4byte	.LVL4
 4341 0294 0100     		.2byte	0x1
 4342 0296 50       		.byte	0x50
 4343 0297 00000000 		.4byte	0
 4344 029b 00000000 		.4byte	0
 4345              	.LLST3:
 4346 029f 3A000000 		.4byte	.LVL5
 4347 02a3 5A000000 		.4byte	.LVL10
 4348 02a7 0100     		.2byte	0x1
 4349 02a9 50       		.byte	0x50
 4350 02aa 00000000 		.4byte	0
 4351 02ae 00000000 		.4byte	0
 4352              	.LLST4:
 4353 02b2 3E000000 		.4byte	.LVL6
 4354 02b6 5A000000 		.4byte	.LVL10
 4355 02ba 0600     		.2byte	0x6
 4356 02bc 03       		.byte	0x3
 4357 02bd 00000000 		.4byte	ch
 4358 02c1 9F       		.byte	0x9f
 4359 02c2 00000000 		.4byte	0
 4360 02c6 00000000 		.4byte	0
 4361              	.LLST5:
 4362 02ca 3E000000 		.4byte	.LVL6
 4363 02ce 5A000000 		.4byte	.LVL10
 4364 02d2 0100     		.2byte	0x1
 4365 02d4 50       		.byte	0x50
 4366 02d5 00000000 		.4byte	0
 4367 02d9 00000000 		.4byte	0
 4368              	.LLST6:
 4369 02dd 3E000000 		.4byte	.LVL6
 4370 02e1 52000000 		.4byte	.LVL8
 4371 02e5 0100     		.2byte	0x1
 4372 02e7 53       		.byte	0x53
 4373 02e8 00000000 		.4byte	0
 4374 02ec 00000000 		.4byte	0
 4375              	.LLST7:
 4376 02f0 52000000 		.4byte	.LVL8
 4377 02f4 56000000 		.4byte	.LVL9
 4378 02f8 0200     		.2byte	0x2
 4379 02fa 30       		.byte	0x30
 4380 02fb 9F       		.byte	0x9f
 4381 02fc 00000000 		.4byte	0
 4382 0300 00000000 		.4byte	0
 4383              	.LLST8:
 4384 0304 62000000 		.4byte	.LVL11
 4385 0308 68000000 		.4byte	.LVL12
ARM GAS  C:\Users\14122\AppData\Local\Temp\ccEX8O8P.s 			page 78


 4386 030c 0200     		.2byte	0x2
 4387 030e 30       		.byte	0x30
 4388 030f 9F       		.byte	0x9f
 4389 0310 00000000 		.4byte	0
 4390 0314 00000000 		.4byte	0
 4391              	.LLST10:
 4392 0318 00000000 		.4byte	.LVL15
 4393 031c 08000000 		.4byte	.LVL16
 4394 0320 0100     		.2byte	0x1
 4395 0322 50       		.byte	0x50
 4396 0323 08000000 		.4byte	.LVL16
 4397 0327 28000000 		.4byte	.LFE221
 4398 032b 0100     		.2byte	0x1
 4399 032d 51       		.byte	0x51
 4400 032e 00000000 		.4byte	0
 4401 0332 00000000 		.4byte	0
 4402              	.LLST11:
 4403 0336 00000000 		.4byte	.LVL19
 4404 033a 08000000 		.4byte	.LVL20
 4405 033e 0100     		.2byte	0x1
 4406 0340 50       		.byte	0x50
 4407 0341 08000000 		.4byte	.LVL20
 4408 0345 28000000 		.4byte	.LFE222
 4409 0349 0100     		.2byte	0x1
 4410 034b 51       		.byte	0x51
 4411 034c 00000000 		.4byte	0
 4412 0350 00000000 		.4byte	0
 4413              		.section	.debug_aranges,"",%progbits
 4414 0000 6C000000 		.4byte	0x6c
 4415 0004 0200     		.2byte	0x2
 4416 0006 00000000 		.4byte	.Ldebug_info0
 4417 000a 04       		.byte	0x4
 4418 000b 00       		.byte	0
 4419 000c 0000     		.2byte	0
 4420 000e 0000     		.2byte	0
 4421 0010 00000000 		.4byte	.LFB224
 4422 0014 70000000 		.4byte	.LFE224-.LFB224
 4423 0018 00000000 		.4byte	.LFB220
 4424 001c 14000000 		.4byte	.LFE220-.LFB220
 4425 0020 00000000 		.4byte	.LFB221
 4426 0024 28000000 		.4byte	.LFE221-.LFB221
 4427 0028 00000000 		.4byte	.LFB222
 4428 002c 28000000 		.4byte	.LFE222-.LFB222
 4429 0030 00000000 		.4byte	.LFB223
 4430 0034 28000000 		.4byte	.LFE223-.LFB223
 4431 0038 00000000 		.4byte	.LFB225
 4432 003c 44000000 		.4byte	.LFE225-.LFB225
 4433 0040 00000000 		.4byte	.LFB226
 4434 0044 60000000 		.4byte	.LFE226-.LFB226
 4435 0048 00000000 		.4byte	.LFB228
 4436 004c 18000000 		.4byte	.LFE228-.LFB228
 4437 0050 00000000 		.4byte	.LFB229
 4438 0054 40000000 		.4byte	.LFE229-.LFB229
 4439 0058 00000000 		.4byte	.LFB230
 4440 005c 40000000 		.4byte	.LFE230-.LFB230
 4441 0060 00000000 		.4byte	.LFB227
 4442 0064 18000000 		.4byte	.LFE227-.LFB227
ARM GAS  C:\Users\14122\AppData\Local\Temp\ccEX8O8P.s 			page 79


 4443 0068 00000000 		.4byte	0
 4444 006c 00000000 		.4byte	0
 4445              		.section	.debug_ranges,"",%progbits
 4446              	.Ldebug_ranges0:
 4447 0000 2E000000 		.4byte	.LBB142
 4448 0004 30000000 		.4byte	.LBE142
 4449 0008 3A000000 		.4byte	.LBB164
 4450 000c 3E000000 		.4byte	.LBE164
 4451 0010 00000000 		.4byte	0
 4452 0014 00000000 		.4byte	0
 4453 0018 34000000 		.4byte	.LBB145
 4454 001c 38000000 		.4byte	.LBE145
 4455 0020 3E000000 		.4byte	.LBB165
 4456 0024 56000000 		.4byte	.LBE165
 4457 0028 00000000 		.4byte	0
 4458 002c 00000000 		.4byte	0
 4459 0030 34000000 		.4byte	.LBB147
 4460 0034 38000000 		.4byte	.LBE147
 4461 0038 3E000000 		.4byte	.LBB151
 4462 003c 48000000 		.4byte	.LBE151
 4463 0040 4A000000 		.4byte	.LBB161
 4464 0044 52000000 		.4byte	.LBE161
 4465 0048 00000000 		.4byte	0
 4466 004c 00000000 		.4byte	0
 4467 0050 48000000 		.4byte	.LBB152
 4468 0054 4A000000 		.4byte	.LBE152
 4469 0058 52000000 		.4byte	.LBB162
 4470 005c 56000000 		.4byte	.LBE162
 4471 0060 00000000 		.4byte	0
 4472 0064 00000000 		.4byte	0
 4473 0068 02000000 		.4byte	.LBB171
 4474 006c 04000000 		.4byte	.LBE171
 4475 0070 06000000 		.4byte	.LBB174
 4476 0074 0A000000 		.4byte	.LBE174
 4477 0078 00000000 		.4byte	0
 4478 007c 00000000 		.4byte	0
 4479 0080 08000000 		.4byte	.LBB175
 4480 0084 0A000000 		.4byte	.LBE175
 4481 0088 0E000000 		.4byte	.LBB180
 4482 008c 10000000 		.4byte	.LBE180
 4483 0090 12000000 		.4byte	.LBB181
 4484 0094 14000000 		.4byte	.LBE181
 4485 0098 18000000 		.4byte	.LBB182
 4486 009c 1A000000 		.4byte	.LBE182
 4487 00a0 00000000 		.4byte	0
 4488 00a4 00000000 		.4byte	0
 4489 00a8 2E000000 		.4byte	.LBB186
 4490 00ac 3E000000 		.4byte	.LBE186
 4491 00b0 40000000 		.4byte	.LBB189
 4492 00b4 4A000000 		.4byte	.LBE189
 4493 00b8 00000000 		.4byte	0
 4494 00bc 00000000 		.4byte	0
 4495 00c0 06000000 		.4byte	.LBB190
 4496 00c4 0A000000 		.4byte	.LBE190
 4497 00c8 18000000 		.4byte	.LBB201
 4498 00cc 1C000000 		.4byte	.LBE201
 4499 00d0 20000000 		.4byte	.LBB202
ARM GAS  C:\Users\14122\AppData\Local\Temp\ccEX8O8P.s 			page 80


 4500 00d4 2A000000 		.4byte	.LBE202
 4501 00d8 2C000000 		.4byte	.LBB203
 4502 00dc 34000000 		.4byte	.LBE203
 4503 00e0 00000000 		.4byte	0
 4504 00e4 00000000 		.4byte	0
 4505 00e8 0A000000 		.4byte	.LBB195
 4506 00ec 0C000000 		.4byte	.LBE195
 4507 00f0 0E000000 		.4byte	.LBB199
 4508 00f4 12000000 		.4byte	.LBE199
 4509 00f8 16000000 		.4byte	.LBB200
 4510 00fc 18000000 		.4byte	.LBE200
 4511 0100 00000000 		.4byte	0
 4512 0104 00000000 		.4byte	0
 4513 0108 06000000 		.4byte	.LBB204
 4514 010c 0A000000 		.4byte	.LBE204
 4515 0110 18000000 		.4byte	.LBB215
 4516 0114 1C000000 		.4byte	.LBE215
 4517 0118 20000000 		.4byte	.LBB216
 4518 011c 2A000000 		.4byte	.LBE216
 4519 0120 2C000000 		.4byte	.LBB217
 4520 0124 34000000 		.4byte	.LBE217
 4521 0128 00000000 		.4byte	0
 4522 012c 00000000 		.4byte	0
 4523 0130 0A000000 		.4byte	.LBB209
 4524 0134 0C000000 		.4byte	.LBE209
 4525 0138 0E000000 		.4byte	.LBB213
 4526 013c 12000000 		.4byte	.LBE213
 4527 0140 16000000 		.4byte	.LBB214
 4528 0144 18000000 		.4byte	.LBE214
 4529 0148 00000000 		.4byte	0
 4530 014c 00000000 		.4byte	0
 4531 0150 00000000 		.4byte	.LFB224
 4532 0154 70000000 		.4byte	.LFE224
 4533 0158 00000000 		.4byte	.LFB220
 4534 015c 14000000 		.4byte	.LFE220
 4535 0160 00000000 		.4byte	.LFB221
 4536 0164 28000000 		.4byte	.LFE221
 4537 0168 00000000 		.4byte	.LFB222
 4538 016c 28000000 		.4byte	.LFE222
 4539 0170 00000000 		.4byte	.LFB223
 4540 0174 28000000 		.4byte	.LFE223
 4541 0178 00000000 		.4byte	.LFB225
 4542 017c 44000000 		.4byte	.LFE225
 4543 0180 00000000 		.4byte	.LFB226
 4544 0184 60000000 		.4byte	.LFE226
 4545 0188 00000000 		.4byte	.LFB228
 4546 018c 18000000 		.4byte	.LFE228
 4547 0190 00000000 		.4byte	.LFB229
 4548 0194 40000000 		.4byte	.LFE229
 4549 0198 00000000 		.4byte	.LFB230
 4550 019c 40000000 		.4byte	.LFE230
 4551 01a0 00000000 		.4byte	.LFB227
 4552 01a4 18000000 		.4byte	.LFE227
 4553 01a8 00000000 		.4byte	0
 4554 01ac 00000000 		.4byte	0
 4555              		.section	.debug_line,"",%progbits
 4556              	.Ldebug_line0:
ARM GAS  C:\Users\14122\AppData\Local\Temp\ccEX8O8P.s 			page 81


 4557 0000 6A050000 		.section	.debug_str,"MS",%progbits,1
 4557      0200F202 
 4557      00000201 
 4557      FB0E0D00 
 4557      01010101 
 4558              	.LASF48:
 4559 0000 63685F74 		.ascii	"ch_threads_list\000"
 4559      68726561 
 4559      64735F6C 
 4559      69737400 
 4560              	.LASF100:
 4561 0010 74696D65 		.ascii	"timesize\000"
 4561      73697A65 
 4561      00
 4562              	.LASF75:
 4563 0019 53797374 		.ascii	"SystemCoreClock\000"
 4563      656D436F 
 4563      7265436C 
 4563      6F636B00 
 4564              	.LASF88:
 4565 0029 77746D74 		.ascii	"wtmtxp\000"
 4565      787000
 4566              	.LASF127:
 4567 0030 6D656D6F 		.ascii	"memory_pool_t\000"
 4567      72795F70 
 4567      6F6F6C5F 
 4567      7400
 4568              	.LASF139:
 4569 003e 6669666F 		.ascii	"fifo_list\000"
 4569      5F6C6973 
 4569      7400
 4570              	.LASF78:
 4571 0048 72656761 		.ascii	"regarm_t\000"
 4571      726D5F74 
 4571      00
 4572              	.LASF131:
 4573 0051 64796E5F 		.ascii	"dyn_list_t\000"
 4573      6C697374 
 4573      5F7400
 4574              	.LASF37:
 4575 005c 666C6167 		.ascii	"flags\000"
 4575      7300
 4576              	.LASF72:
 4577 0062 73797374 		.ascii	"systime_t\000"
 4577      696D655F 
 4577      7400
 4578              	.LASF43:
 4579 006c 7265616C 		.ascii	"realprio\000"
 4579      7072696F 
 4579      00
 4580              	.LASF41:
 4581 0075 6570656E 		.ascii	"epending\000"
 4581      64696E67 
 4581      00
 4582              	.LASF0:
 4583 007e 756E7369 		.ascii	"unsigned int\000"
 4583      676E6564 
ARM GAS  C:\Users\14122\AppData\Local\Temp\ccEX8O8P.s 			page 82


 4583      20696E74 
 4583      00
 4584              	.LASF49:
 4585 008b 6E657874 		.ascii	"next\000"
 4585      00
 4586              	.LASF98:
 4587 0090 76657273 		.ascii	"version\000"
 4587      696F6E00 
 4588              	.LASF46:
 4589 0098 74687265 		.ascii	"threads_list_t\000"
 4589      6164735F 
 4589      6C697374 
 4589      5F7400
 4590              	.LASF133:
 4591 00a7 6F626A5F 		.ascii	"obj_list\000"
 4591      6C697374 
 4591      00
 4592              	.LASF10:
 4593 00b0 5F5F696E 		.ascii	"__int32_t\000"
 4593      7433325F 
 4593      7400
 4594              	.LASF38:
 4595 00ba 72656673 		.ascii	"refs\000"
 4595      00
 4596              	.LASF112:
 4597 00bf 6F66665F 		.ascii	"off_time\000"
 4597      74696D65 
 4597      00
 4598              	.LASF84:
 4599 00c8 77746F62 		.ascii	"wtobjp\000"
 4599      6A7000
 4600              	.LASF166:
 4601 00cf 706F7274 		.ascii	"port_lock\000"
 4601      5F6C6F63 
 4601      6B00
 4602              	.LASF70:
 4603 00d9 76746C69 		.ascii	"vtlist\000"
 4603      737400
 4604              	.LASF80:
 4605 00e0 706F7274 		.ascii	"port_context\000"
 4605      5F636F6E 
 4605      74657874 
 4605      00
 4606              	.LASF164:
 4607 00ed 706F7274 		.ascii	"port_lock_from_isr\000"
 4607      5F6C6F63 
 4607      6B5F6672 
 4607      6F6D5F69 
 4607      737200
 4608              	.LASF54:
 4609 0100 63685F72 		.ascii	"ch_ready_list\000"
 4609      65616479 
 4609      5F6C6973 
 4609      7400
 4610              	.LASF174:
 4611 010e 443A5C68 		.ascii	"D:\\hkust\\robomaster\\eclipse___files\\cundang\\as"
 4611      6B757374 
ARM GAS  C:\Users\14122\AppData\Local\Temp\ccEX8O8P.s 			page 83


 4611      5C726F62 
 4611      6F6D6173 
 4611      7465725C 
 4612 013c 7369676E 		.ascii	"signment2-master_10.20_turret_2\000"
 4612      6D656E74 
 4612      322D6D61 
 4612      73746572 
 4612      5F31302E 
 4613              	.LASF60:
 4614 015c 66756E63 		.ascii	"func\000"
 4614      00
 4615              	.LASF89:
 4616 0161 65776D61 		.ascii	"ewmask\000"
 4616      736B00
 4617              	.LASF52:
 4618 0168 70726576 		.ascii	"prev\000"
 4618      00
 4619              	.LASF175:
 4620 016d 63685363 		.ascii	"chSchDoReschedule\000"
 4620      68446F52 
 4620      65736368 
 4620      6564756C 
 4620      6500
 4621              	.LASF51:
 4622 017f 63685F74 		.ascii	"ch_threads_queue\000"
 4622      68726561 
 4622      64735F71 
 4622      75657565 
 4622      00
 4623              	.LASF158:
 4624 0190 63685379 		.ascii	"chSysLockFromISR\000"
 4624      734C6F63 
 4624      6B46726F 
 4624      6D495352 
 4624      00
 4625              	.LASF132:
 4626 01a1 63685F6F 		.ascii	"ch_objects_factory\000"
 4626      626A6563 
 4626      74735F66 
 4626      6163746F 
 4626      727900
 4627              	.LASF156:
 4628 01b4 63685365 		.ascii	"chSemFastSignalI\000"
 4628      6D466173 
 4628      74536967 
 4628      6E616C49 
 4628      00
 4629              	.LASF104:
 4630 01c5 6F66665F 		.ascii	"off_newer\000"
 4630      6E657765 
 4630      7200
 4631              	.LASF56:
 4632 01cf 76746675 		.ascii	"vtfunc_t\000"
 4632      6E635F74 
 4632      00
 4633              	.LASF153:
 4634 01d8 63685363 		.ascii	"chSchReadyI\000"
ARM GAS  C:\Users\14122\AppData\Local\Temp\ccEX8O8P.s 			page 84


 4634      68526561 
 4634      64794900 
 4635              	.LASF65:
 4636 01e4 63685F73 		.ascii	"ch_system_debug\000"
 4636      79737465 
 4636      6D5F6465 
 4636      62756700 
 4637              	.LASF154:
 4638 01f4 5F736368 		.ascii	"_scheduler_init\000"
 4638      6564756C 
 4638      65725F69 
 4638      6E697400 
 4639              	.LASF19:
 4640 0204 75696E74 		.ascii	"uint32_t\000"
 4640      33325F74 
 4640      00
 4641              	.LASF86:
 4642 020d 73656E74 		.ascii	"sentmsg\000"
 4642      6D736700 
 4643              	.LASF26:
 4644 0215 6576656E 		.ascii	"eventmask_t\000"
 4644      746D6173 
 4644      6B5F7400 
 4645              	.LASF101:
 4646 0221 74687265 		.ascii	"threadsize\000"
 4646      61647369 
 4646      7A6500
 4647              	.LASF90:
 4648 022c 63685F73 		.ascii	"ch_semaphore\000"
 4648      656D6170 
 4648      686F7265 
 4648      00
 4649              	.LASF24:
 4650 0239 74707269 		.ascii	"tprio_t\000"
 4650      6F5F7400 
 4651              	.LASF58:
 4652 0241 63685F76 		.ascii	"ch_virtual_timer\000"
 4652      69727475 
 4652      616C5F74 
 4652      696D6572 
 4652      00
 4653              	.LASF121:
 4654 0252 6D656D63 		.ascii	"memcore_t\000"
 4654      6F72655F 
 4654      7400
 4655              	.LASF15:
 4656 025c 6C6F6E67 		.ascii	"long long unsigned int\000"
 4656      206C6F6E 
 4656      6720756E 
 4656      7369676E 
 4656      65642069 
 4657              	.LASF146:
 4658 0273 63685363 		.ascii	"chSchIsPreemptionRequired\000"
 4658      68497350 
 4658      7265656D 
 4658      7074696F 
 4658      6E526571 
ARM GAS  C:\Users\14122\AppData\Local\Temp\ccEX8O8P.s 			page 85


 4659              	.LASF8:
 4660 028d 5F5F7569 		.ascii	"__uint16_t\000"
 4660      6E743136 
 4660      5F7400
 4661              	.LASF27:
 4662 0298 636E745F 		.ascii	"cnt_t\000"
 4662      7400
 4663              	.LASF159:
 4664 029e 63685654 		.ascii	"chVTIsArmedI\000"
 4664      49734172 
 4664      6D656449 
 4664      00
 4665              	.LASF107:
 4666 02ab 6F66665F 		.ascii	"off_stklimit\000"
 4666      73746B6C 
 4666      696D6974 
 4666      00
 4667              	.LASF92:
 4668 02b8 6F776E65 		.ascii	"owner\000"
 4668      7200
 4669              	.LASF115:
 4670 02be 73656D61 		.ascii	"semaphore_t\000"
 4670      70686F72 
 4670      655F7400 
 4671              	.LASF50:
 4672 02ca 74687265 		.ascii	"threads_queue_t\000"
 4672      6164735F 
 4672      71756575 
 4672      655F7400 
 4673              	.LASF42:
 4674 02da 6D74786C 		.ascii	"mtxlist\000"
 4674      69737400 
 4675              	.LASF62:
 4676 02e2 63685F76 		.ascii	"ch_virtual_timers_list\000"
 4676      69727475 
 4676      616C5F74 
 4676      696D6572 
 4676      735F6C69 
 4677              	.LASF168:
 4678 02f9 62617365 		.ascii	"basePri\000"
 4678      50726900 
 4679              	.LASF29:
 4680 0301 74687265 		.ascii	"thread_t\000"
 4680      61645F74 
 4680      00
 4681              	.LASF157:
 4682 030a 63685379 		.ascii	"chSysUnlockFromISR\000"
 4682      73556E6C 
 4682      6F636B46 
 4682      726F6D49 
 4682      535200
 4683              	.LASF105:
 4684 031d 6F66665F 		.ascii	"off_older\000"
 4684      6F6C6465 
 4684      7200
 4685              	.LASF108:
 4686 0327 6F66665F 		.ascii	"off_state\000"
ARM GAS  C:\Users\14122\AppData\Local\Temp\ccEX8O8P.s 			page 86


 4686      73746174 
 4686      6500
 4687              	.LASF4:
 4688 0331 73697A65 		.ascii	"size_t\000"
 4688      5F7400
 4689              	.LASF82:
 4690 0338 7264796D 		.ascii	"rdymsg\000"
 4690      736700
 4691              	.LASF124:
 4692 033f 6F626A65 		.ascii	"object_size\000"
 4692      63745F73 
 4692      697A6500 
 4693              	.LASF117:
 4694 034b 5F426F6F 		.ascii	"_Bool\000"
 4694      6C00
 4695              	.LASF155:
 4696 0351 77616B65 		.ascii	"wakeup\000"
 4696      757000
 4697              	.LASF140:
 4698 0358 6F626A65 		.ascii	"objects_factory_t\000"
 4698      6374735F 
 4698      66616374 
 4698      6F72795F 
 4698      7400
 4699              	.LASF143:
 4700 036a 63685363 		.ascii	"chSchDoRescheduleBehind\000"
 4700      68446F52 
 4700      65736368 
 4700      6564756C 
 4700      65426568 
 4701              	.LASF91:
 4702 0382 63685F6D 		.ascii	"ch_mutex\000"
 4702      75746578 
 4702      00
 4703              	.LASF14:
 4704 038b 5F5F7569 		.ascii	"__uint64_t\000"
 4704      6E743634 
 4704      5F7400
 4705              	.LASF77:
 4706 0396 41504250 		.ascii	"APBPrescTable\000"
 4706      72657363 
 4706      5461626C 
 4706      6500
 4707              	.LASF103:
 4708 03a4 6F66665F 		.ascii	"off_ctx\000"
 4708      63747800 
 4709              	.LASF144:
 4710 03ac 63685363 		.ascii	"chSchRescheduleS\000"
 4710      68526573 
 4710      63686564 
 4710      756C6553 
 4710      00
 4711              	.LASF167:
 4712 03bd 5F5F7365 		.ascii	"__set_BASEPRI\000"
 4712      745F4241 
 4712      53455052 
 4712      4900
ARM GAS  C:\Users\14122\AppData\Local\Temp\ccEX8O8P.s 			page 87


 4713              	.LASF109:
 4714 03cb 6F66665F 		.ascii	"off_flags\000"
 4714      666C6167 
 4714      7300
 4715              	.LASF31:
 4716 03d5 7072696F 		.ascii	"prio\000"
 4716      00
 4717              	.LASF137:
 4718 03da 73656D5F 		.ascii	"sem_pool\000"
 4718      706F6F6C 
 4718      00
 4719              	.LASF93:
 4720 03e3 63686172 		.ascii	"char\000"
 4720      00
 4721              	.LASF45:
 4722 03e8 74687265 		.ascii	"thread_reference_t\000"
 4722      61645F72 
 4722      65666572 
 4722      656E6365 
 4722      5F7400
 4723              	.LASF35:
 4724 03fb 77616261 		.ascii	"wabase\000"
 4724      736500
 4725              	.LASF94:
 4726 0402 63685F69 		.ascii	"ch_idle_thread_wa\000"
 4726      646C655F 
 4726      74687265 
 4726      61645F77 
 4726      6100
 4727              	.LASF22:
 4728 0414 74737461 		.ascii	"tstate_t\000"
 4728      74655F74 
 4728      00
 4729              	.LASF16:
 4730 041d 75696E74 		.ascii	"uint8_t\000"
 4730      385F7400 
 4731              	.LASF128:
 4732 0425 63685F64 		.ascii	"ch_dyn_element\000"
 4732      796E5F65 
 4732      6C656D65 
 4732      6E7400
 4733              	.LASF40:
 4734 0434 6D736771 		.ascii	"msgqueue\000"
 4734      75657565 
 4734      00
 4735              	.LASF152:
 4736 043d 63685363 		.ascii	"chSchReadyAheadI\000"
 4736      68526561 
 4736      64794168 
 4736      65616449 
 4736      00
 4737              	.LASF47:
 4738 044e 63685F74 		.ascii	"ch_thread\000"
 4738      68726561 
 4738      6400
 4739              	.LASF130:
 4740 0458 63685F64 		.ascii	"ch_dyn_list\000"
ARM GAS  C:\Users\14122\AppData\Local\Temp\ccEX8O8P.s 			page 88


 4740      796E5F6C 
 4740      69737400 
 4741              	.LASF106:
 4742 0464 6F66665F 		.ascii	"off_name\000"
 4742      6E616D65 
 4742      00
 4743              	.LASF64:
 4744 046d 73797374 		.ascii	"system_debug_t\000"
 4744      656D5F64 
 4744      65627567 
 4744      5F7400
 4745              	.LASF1:
 4746 047c 6C6F6E67 		.ascii	"long long int\000"
 4746      206C6F6E 
 4746      6720696E 
 4746      7400
 4747              	.LASF96:
 4748 048a 7A65726F 		.ascii	"zero\000"
 4748      00
 4749              	.LASF25:
 4750 048f 6D73675F 		.ascii	"msg_t\000"
 4750      7400
 4751              	.LASF134:
 4752 0495 6F626A5F 		.ascii	"obj_pool\000"
 4752      706F6F6C 
 4752      00
 4753              	.LASF57:
 4754 049e 76697274 		.ascii	"virtual_timer_t\000"
 4754      75616C5F 
 4754      74696D65 
 4754      725F7400 
 4755              	.LASF169:
 4756 04ae 5F706F72 		.ascii	"_port_switch\000"
 4756      745F7377 
 4756      69746368 
 4756      00
 4757              	.LASF173:
 4758 04bb 2E2F2F6F 		.ascii	".//os/rt/src/chschd.c\000"
 4758      732F7274 
 4758      2F737263 
 4758      2F636873 
 4758      6368642E 
 4759              	.LASF161:
 4760 04d1 71756575 		.ascii	"queue_fifo_remove\000"
 4760      655F6669 
 4760      666F5F72 
 4760      656D6F76 
 4760      6500
 4761              	.LASF97:
 4762 04e3 73697A65 		.ascii	"size\000"
 4762      00
 4763              	.LASF99:
 4764 04e8 70747273 		.ascii	"ptrsize\000"
 4764      697A6500 
 4765              	.LASF76:
 4766 04f0 41484250 		.ascii	"AHBPrescTable\000"
 4766      72657363 
ARM GAS  C:\Users\14122\AppData\Local\Temp\ccEX8O8P.s 			page 89


 4766      5461626C 
 4766      6500
 4767              	.LASF73:
 4768 04fe 73797369 		.ascii	"sysinterval_t\000"
 4768      6E746572 
 4768      76616C5F 
 4768      7400
 4769              	.LASF135:
 4770 050c 6275665F 		.ascii	"buf_list\000"
 4770      6C697374 
 4770      00
 4771              	.LASF66:
 4772 0515 70616E69 		.ascii	"panic_msg\000"
 4772      635F6D73 
 4772      6700
 4773              	.LASF21:
 4774 051f 746D6F64 		.ascii	"tmode_t\000"
 4774      655F7400 
 4775              	.LASF28:
 4776 0527 75636E74 		.ascii	"ucnt_t\000"
 4776      5F7400
 4777              	.LASF71:
 4778 052e 6D61696E 		.ascii	"mainthread\000"
 4778      74687265 
 4778      616400
 4779              	.LASF171:
 4780 0539 63685654 		.ascii	"chVTDoResetI\000"
 4780      446F5265 
 4780      73657449 
 4780      00
 4781              	.LASF176:
 4782 0546 63685363 		.ascii	"chSchIsRescRequiredI\000"
 4782      68497352 
 4782      65736352 
 4782      65717569 
 4782      72656449 
 4783              	.LASF2:
 4784 055b 6C6F6E67 		.ascii	"long double\000"
 4784      20646F75 
 4784      626C6500 
 4785              	.LASF17:
 4786 0567 75696E74 		.ascii	"uint16_t\000"
 4786      31365F74 
 4786      00
 4787              	.LASF113:
 4788 0570 63686465 		.ascii	"chdebug_t\000"
 4788      6275675F 
 4788      7400
 4789              	.LASF102:
 4790 057a 6F66665F 		.ascii	"off_prio\000"
 4790      7072696F 
 4790      00
 4791              	.LASF122:
 4792 0583 63685F6D 		.ascii	"ch_memcore\000"
 4792      656D636F 
 4792      726500
 4793              	.LASF7:
ARM GAS  C:\Users\14122\AppData\Local\Temp\ccEX8O8P.s 			page 90


 4794 058e 73686F72 		.ascii	"short int\000"
 4794      7420696E 
 4794      7400
 4795              	.LASF11:
 4796 0598 6C6F6E67 		.ascii	"long int\000"
 4796      20696E74 
 4796      00
 4797              	.LASF81:
 4798 05a1 706F7274 		.ascii	"port_intctx\000"
 4798      5F696E74 
 4798      63747800 
 4799              	.LASF74:
 4800 05ad 49544D5F 		.ascii	"ITM_RxBuffer\000"
 4800      52784275 
 4800      66666572 
 4800      00
 4801              	.LASF141:
 4802 05ba 63685F66 		.ascii	"ch_factory\000"
 4802      6163746F 
 4802      727900
 4803              	.LASF68:
 4804 05c5 63685F73 		.ascii	"ch_system\000"
 4804      79737465 
 4804      6D00
 4805              	.LASF172:
 4806 05cf 474E5520 		.ascii	"GNU C11 7.2.1 20170904 (release) [ARM/embedded-7-br"
 4806      43313120 
 4806      372E322E 
 4806      31203230 
 4806      31373039 
 4807 0602 616E6368 		.ascii	"anch revision 255204] -mcpu=cortex-m3 -mthumb -ggdb"
 4807      20726576 
 4807      6973696F 
 4807      6E203235 
 4807      35323034 
 4808 0635 202D4F32 		.ascii	" -O2 -fomit-frame-pointer -falign-functions=16 -ffu"
 4808      202D666F 
 4808      6D69742D 
 4808      6672616D 
 4808      652D706F 
 4809 0668 6E637469 		.ascii	"nction-sections -fdata-sections -fno-common\000"
 4809      6F6E2D73 
 4809      65637469 
 4809      6F6E7320 
 4809      2D666461 
 4810              	.LASF126:
 4811 0694 70726F76 		.ascii	"provider\000"
 4811      69646572 
 4811      00
 4812              	.LASF63:
 4813 069d 6C617374 		.ascii	"lasttime\000"
 4813      74696D65 
 4813      00
 4814              	.LASF20:
 4815 06a6 75696E74 		.ascii	"uint64_t\000"
 4815      36345F74 
 4815      00
ARM GAS  C:\Users\14122\AppData\Local\Temp\ccEX8O8P.s 			page 91


 4816              	.LASF69:
 4817 06af 726C6973 		.ascii	"rlist\000"
 4817      7400
 4818              	.LASF5:
 4819 06b5 5F5F7569 		.ascii	"__uint8_t\000"
 4819      6E74385F 
 4819      7400
 4820              	.LASF160:
 4821 06bf 71756575 		.ascii	"queue_dequeue\000"
 4821      655F6465 
 4821      71756575 
 4821      6500
 4822              	.LASF118:
 4823 06cd 6D656D67 		.ascii	"memgetfunc_t\000"
 4823      65746675 
 4823      6E635F74 
 4823      00
 4824              	.LASF34:
 4825 06da 6E616D65 		.ascii	"name\000"
 4825      00
 4826              	.LASF150:
 4827 06df 63685363 		.ascii	"chSchGoSleepS\000"
 4827      68476F53 
 4827      6C656570 
 4827      5300
 4828              	.LASF95:
 4829 06ed 6964656E 		.ascii	"identifier\000"
 4829      74696669 
 4829      657200
 4830              	.LASF111:
 4831 06f8 6F66665F 		.ascii	"off_preempt\000"
 4831      70726565 
 4831      6D707400 
 4832              	.LASF23:
 4833 0704 74726566 		.ascii	"trefs_t\000"
 4833      735F7400 
 4834              	.LASF13:
 4835 070c 6C6F6E67 		.ascii	"long unsigned int\000"
 4835      20756E73 
 4835      69676E65 
 4835      6420696E 
 4835      7400
 4836              	.LASF170:
 4837 071e 63685654 		.ascii	"chVTDoSetI\000"
 4837      446F5365 
 4837      744900
 4838              	.LASF53:
 4839 0729 72656164 		.ascii	"ready_list_t\000"
 4839      795F6C69 
 4839      73745F74 
 4839      00
 4840              	.LASF147:
 4841 0736 63685363 		.ascii	"chSchGoSleepTimeoutS\000"
 4841      68476F53 
 4841      6C656570 
 4841      54696D65 
 4841      6F757453 
ARM GAS  C:\Users\14122\AppData\Local\Temp\ccEX8O8P.s 			page 92


 4842              	.LASF30:
 4843 074b 71756575 		.ascii	"queue\000"
 4843      6500
 4844              	.LASF18:
 4845 0751 696E7433 		.ascii	"int32_t\000"
 4845      325F7400 
 4846              	.LASF148:
 4847 0759 6E657773 		.ascii	"newstate\000"
 4847      74617465 
 4847      00
 4848              	.LASF87:
 4849 0762 77747365 		.ascii	"wtsemp\000"
 4849      6D7000
 4850              	.LASF116:
 4851 0769 6D757465 		.ascii	"mutex_t\000"
 4851      785F7400 
 4852              	.LASF32:
 4853 0771 6E657765 		.ascii	"newer\000"
 4853      7200
 4854              	.LASF162:
 4855 0777 71756575 		.ascii	"queue_init\000"
 4855      655F696E 
 4855      697400
 4856              	.LASF163:
 4857 0782 706F7274 		.ascii	"port_unlock_from_isr\000"
 4857      5F756E6C 
 4857      6F636B5F 
 4857      66726F6D 
 4857      5F697372 
 4858              	.LASF6:
 4859 0797 756E7369 		.ascii	"unsigned char\000"
 4859      676E6564 
 4859      20636861 
 4859      7200
 4860              	.LASF12:
 4861 07a5 5F5F7569 		.ascii	"__uint32_t\000"
 4861      6E743332 
 4861      5F7400
 4862              	.LASF39:
 4863 07b0 77616974 		.ascii	"waiting\000"
 4863      696E6700 
 4864              	.LASF61:
 4865 07b8 76697274 		.ascii	"virtual_timers_list_t\000"
 4865      75616C5F 
 4865      74696D65 
 4865      72735F6C 
 4865      6973745F 
 4866              	.LASF149:
 4867 07ce 74696D65 		.ascii	"timeout\000"
 4867      6F757400 
 4868              	.LASF129:
 4869 07d6 64796E5F 		.ascii	"dyn_element_t\000"
 4869      656C656D 
 4869      656E745F 
 4869      7400
 4870              	.LASF138:
 4871 07e4 6D62785F 		.ascii	"mbx_list\000"
ARM GAS  C:\Users\14122\AppData\Local\Temp\ccEX8O8P.s 			page 93


 4871      6C697374 
 4871      00
 4872              	.LASF145:
 4873 07ed 63685363 		.ascii	"chSchWakeupS\000"
 4873      6857616B 
 4873      65757053 
 4873      00
 4874              	.LASF36:
 4875 07fa 73746174 		.ascii	"state\000"
 4875      6500
 4876              	.LASF123:
 4877 0800 706F6F6C 		.ascii	"pool_header\000"
 4877      5F686561 
 4877      64657200 
 4878              	.LASF142:
 4879 080c 63685363 		.ascii	"chSchDoRescheduleAhead\000"
 4879      68446F52 
 4879      65736368 
 4879      6564756C 
 4879      65416865 
 4880              	.LASF67:
 4881 0823 63685F73 		.ascii	"ch_system_t\000"
 4881      79737465 
 4881      6D5F7400 
 4882              	.LASF85:
 4883 082f 77747472 		.ascii	"wttrp\000"
 4883      7000
 4884              	.LASF3:
 4885 0835 7369676E 		.ascii	"signed char\000"
 4885      65642063 
 4885      68617200 
 4886              	.LASF59:
 4887 0841 64656C74 		.ascii	"delta\000"
 4887      6100
 4888              	.LASF9:
 4889 0847 73686F72 		.ascii	"short unsigned int\000"
 4889      7420756E 
 4889      7369676E 
 4889      65642069 
 4889      6E7400
 4890              	.LASF79:
 4891 085a 73746B61 		.ascii	"stkalign_t\000"
 4891      6C69676E 
 4891      5F7400
 4892              	.LASF110:
 4893 0865 6F66665F 		.ascii	"off_refs\000"
 4893      72656673 
 4893      00
 4894              	.LASF120:
 4895 086e 656E646D 		.ascii	"endmem\000"
 4895      656D00
 4896              	.LASF55:
 4897 0875 63757272 		.ascii	"current\000"
 4897      656E7400 
 4898              	.LASF151:
 4899 087d 5F5F6675 		.ascii	"__func__\000"
 4899      6E635F5F 
ARM GAS  C:\Users\14122\AppData\Local\Temp\ccEX8O8P.s 			page 94


 4899      00
 4900              	.LASF114:
 4901 0886 63685F64 		.ascii	"ch_debug\000"
 4901      65627567 
 4901      00
 4902              	.LASF165:
 4903 088f 706F7274 		.ascii	"port_unlock\000"
 4903      5F756E6C 
 4903      6F636B00 
 4904              	.LASF125:
 4905 089b 616C6967 		.ascii	"align\000"
 4905      6E00
 4906              	.LASF33:
 4907 08a1 6F6C6465 		.ascii	"older\000"
 4907      7200
 4908              	.LASF119:
 4909 08a7 6E657874 		.ascii	"nextmem\000"
 4909      6D656D00 
 4910              	.LASF83:
 4911 08af 65786974 		.ascii	"exitcode\000"
 4911      636F6465 
 4911      00
 4912              	.LASF136:
 4913 08b8 73656D5F 		.ascii	"sem_list\000"
 4913      6C697374 
 4913      00
 4914              	.LASF44:
 4915 08c1 6D706F6F 		.ascii	"mpool\000"
 4915      6C00
 4916              		.ident	"GCC: (GNU Tools for Arm Embedded Processors 7-2017-q4-major) 7.2.1 20170904 (release) [ARM
ARM GAS  C:\Users\14122\AppData\Local\Temp\ccEX8O8P.s 			page 95


DEFINED SYMBOLS
                            *ABS*:00000000 chschd.c
C:\Users\14122\AppData\Local\Temp\ccEX8O8P.s:16     .text.wakeup:00000000 $t
C:\Users\14122\AppData\Local\Temp\ccEX8O8P.s:23     .text.wakeup:00000000 wakeup
C:\Users\14122\AppData\Local\Temp\ccEX8O8P.s:58     .text.wakeup:00000012 $d
C:\Users\14122\AppData\Local\Temp\ccEX8O8P.s:66     .text.wakeup:0000001a $t
C:\Users\14122\AppData\Local\Temp\ccEX8O8P.s:221    .text.wakeup:0000006c $d
C:\Users\14122\AppData\Local\Temp\ccEX8O8P.s:231    .text._scheduler_init:00000000 $t
C:\Users\14122\AppData\Local\Temp\ccEX8O8P.s:239    .text._scheduler_init:00000000 _scheduler_init
C:\Users\14122\AppData\Local\Temp\ccEX8O8P.s:271    .text._scheduler_init:00000010 $d
C:\Users\14122\AppData\Local\Temp\ccEX8O8P.s:276    .text.chSchReadyI:00000000 $t
C:\Users\14122\AppData\Local\Temp\ccEX8O8P.s:284    .text.chSchReadyI:00000000 chSchReadyI
C:\Users\14122\AppData\Local\Temp\ccEX8O8P.s:327    .text.chSchReadyI:00000024 $d
C:\Users\14122\AppData\Local\Temp\ccEX8O8P.s:332    .text.chSchReadyAheadI:00000000 $t
C:\Users\14122\AppData\Local\Temp\ccEX8O8P.s:340    .text.chSchReadyAheadI:00000000 chSchReadyAheadI
C:\Users\14122\AppData\Local\Temp\ccEX8O8P.s:383    .text.chSchReadyAheadI:00000024 $d
C:\Users\14122\AppData\Local\Temp\ccEX8O8P.s:388    .text.chSchGoSleepS:00000000 $t
C:\Users\14122\AppData\Local\Temp\ccEX8O8P.s:396    .text.chSchGoSleepS:00000000 chSchGoSleepS
C:\Users\14122\AppData\Local\Temp\ccEX8O8P.s:460    .text.chSchGoSleepS:00000024 $d
C:\Users\14122\AppData\Local\Temp\ccEX8O8P.s:465    .text.chSchGoSleepTimeoutS:00000000 $t
C:\Users\14122\AppData\Local\Temp\ccEX8O8P.s:473    .text.chSchGoSleepTimeoutS:00000000 chSchGoSleepTimeoutS
C:\Users\14122\AppData\Local\Temp\ccEX8O8P.s:543    .text.chSchGoSleepTimeoutS:0000003c $d
C:\Users\14122\AppData\Local\Temp\ccEX8O8P.s:549    .text.chSchWakeupS:00000000 $t
C:\Users\14122\AppData\Local\Temp\ccEX8O8P.s:557    .text.chSchWakeupS:00000000 chSchWakeupS
C:\Users\14122\AppData\Local\Temp\ccEX8O8P.s:677    .text.chSchWakeupS:0000005c $d
C:\Users\14122\AppData\Local\Temp\ccEX8O8P.s:682    .text.chSchIsPreemptionRequired:00000000 $t
C:\Users\14122\AppData\Local\Temp\ccEX8O8P.s:690    .text.chSchIsPreemptionRequired:00000000 chSchIsPreemptionRequired
C:\Users\14122\AppData\Local\Temp\ccEX8O8P.s:715    .text.chSchIsPreemptionRequired:00000014 $d
C:\Users\14122\AppData\Local\Temp\ccEX8O8P.s:720    .text.chSchDoRescheduleBehind:00000000 $t
C:\Users\14122\AppData\Local\Temp\ccEX8O8P.s:728    .text.chSchDoRescheduleBehind:00000000 chSchDoRescheduleBehind
C:\Users\14122\AppData\Local\Temp\ccEX8O8P.s:829    .text.chSchDoRescheduleBehind:0000003c $d
C:\Users\14122\AppData\Local\Temp\ccEX8O8P.s:834    .text.chSchDoRescheduleAhead:00000000 $t
C:\Users\14122\AppData\Local\Temp\ccEX8O8P.s:842    .text.chSchDoRescheduleAhead:00000000 chSchDoRescheduleAhead
C:\Users\14122\AppData\Local\Temp\ccEX8O8P.s:943    .text.chSchDoRescheduleAhead:0000003c $d
C:\Users\14122\AppData\Local\Temp\ccEX8O8P.s:948    .text.chSchRescheduleS:00000000 $t
C:\Users\14122\AppData\Local\Temp\ccEX8O8P.s:956    .text.chSchRescheduleS:00000000 chSchRescheduleS
C:\Users\14122\AppData\Local\Temp\ccEX8O8P.s:985    .text.chSchRescheduleS:00000014 $d
C:\Users\14122\AppData\Local\Temp\ccEX8O8P.s:990    .text.chSchDoReschedule:00000000 $t
C:\Users\14122\AppData\Local\Temp\ccEX8O8P.s:998    .text.chSchDoReschedule:00000000 chSchDoReschedule
C:\Users\14122\AppData\Local\Temp\ccEX8O8P.s:1014   .bss.ch:00000000 ch
C:\Users\14122\AppData\Local\Temp\ccEX8O8P.s:1010   .bss.ch:00000000 $d

UNDEFINED SYMBOLS
_port_switch
chVTDoSetI
chVTDoResetI
