ARM GAS  C:\Users\14122\AppData\Local\Temp\ccLdpeDI.s 			page 1


   1              		.cpu cortex-m3
   2              		.eabi_attribute 20, 1
   3              		.eabi_attribute 21, 1
   4              		.eabi_attribute 23, 3
   5              		.eabi_attribute 24, 1
   6              		.eabi_attribute 25, 1
   7              		.eabi_attribute 26, 1
   8              		.eabi_attribute 30, 2
   9              		.eabi_attribute 34, 1
  10              		.eabi_attribute 18, 4
  11              		.file	"chsys.c"
  12              		.text
  13              	.Ltext0:
  14              		.cfi_sections	.debug_frame
  15              		.section	.text._idle_thread,"ax",%progbits
  16              		.align	1
  17              		.p2align 4,,15
  18              		.syntax unified
  19              		.thumb
  20              		.thumb_func
  21              		.fpu softvfp
  22              		.type	_idle_thread, %function
  23              	_idle_thread:
  24              	.LFB220:
  25              		.file 1 ".//os/rt/src/chsys.c"
  26              		.loc 1 72 0
  27              		.cfi_startproc
  28              		@ Volatile: function does not return.
  29              		@ args = 0, pretend = 0, frame = 0
  30              		@ frame_needed = 0, uses_anonymous_args = 0
  31              		@ link register save eliminated.
  32              	.LVL0:
  33              	.L2:
  34 0000 FEE7     		b	.L2
  35              		.cfi_endproc
  36              	.LFE220:
  37              		.size	_idle_thread, .-_idle_thread
  38 0002 00BF     		.section	.text.chSysInit,"ax",%progbits
  39              		.align	1
  40              		.p2align 4,,15
  41              		.global	chSysInit
  42              		.syntax unified
  43              		.thumb
  44              		.thumb_func
  45              		.fpu softvfp
  46              		.type	chSysInit, %function
  47              	chSysInit:
  48              	.LFB221:
  49              		.loc 1 100 0
  50              		.cfi_startproc
  51              		@ args = 0, pretend = 0, frame = 0
  52              		@ frame_needed = 0, uses_anonymous_args = 0
  53              		.loc 1 100 0
  54 0000 F8B5     		push	{r3, r4, r5, r6, r7, lr}
  55              		.cfi_def_cfa_offset 24
  56              		.cfi_offset 3, -24
  57              		.cfi_offset 4, -20
ARM GAS  C:\Users\14122\AppData\Local\Temp\ccLdpeDI.s 			page 2


  58              		.cfi_offset 5, -16
  59              		.cfi_offset 6, -12
  60              		.cfi_offset 7, -8
  61              		.cfi_offset 14, -4
  62              		.loc 1 129 0
  63 0002 1E4D     		ldr	r5, .L6
  64              		.loc 1 102 0
  65 0004 FFF7FEFF 		bl	_scheduler_init
  66              	.LVL1:
  67              		.loc 1 103 0
  68 0008 FFF7FEFF 		bl	_vt_init
  69              	.LVL2:
  70              		.loc 1 114 0
  71 000c FFF7FEFF 		bl	_core_init
  72              	.LVL3:
  73              		.loc 1 117 0
  74 0010 FFF7FEFF 		bl	_heap_init
  75              	.LVL4:
  76              		.loc 1 120 0
  77 0014 FFF7FEFF 		bl	_factory_init
  78              	.LVL5:
  79              		.loc 1 129 0
  80 0018 2846     		mov	r0, r5
  81 001a 8022     		movs	r2, #128
  82 001c 1849     		ldr	r1, .L6+4
  83 001e FFF7FEFF 		bl	_thread_init
  84              	.LVL6:
  85              		.loc 1 150 0
  86 0022 0123     		movs	r3, #1
  87              	.LBB156:
  88              	.LBB157:
  89              	.LBB158:
  90              	.LBB159:
  91              		.file 2 ".//os/common/ext/ARM/CMSIS/Core/Include/core_cm3.h"
  92              		.loc 2 1478 0
  93 0024 4FF6FF0C 		movw	ip, #63743
  94              	.LBE159:
  95              	.LBE158:
  96              	.LBE157:
  97              	.LBE156:
  98              		.loc 1 146 0
  99 0028 0024     		movs	r4, #0
 100              	.LBB178:
 101              	.LBB174:
 102              	.LBB163:
 103              	.LBB164:
 104              		.loc 2 1639 0
 105 002a 1027     		movs	r7, #16
 106              	.LBE164:
 107              	.LBE163:
 108              	.LBB166:
 109              	.LBB167:
 110 002c 2026     		movs	r6, #32
 111              	.LBE167:
 112              	.LBE166:
 113              	.LBE174:
 114              	.LBE178:
ARM GAS  C:\Users\14122\AppData\Local\Temp\ccLdpeDI.s 			page 3


 115              		.loc 1 150 0
 116 002e 80F82030 		strb	r3, [r0, #32]
 117              	.LVL7:
 118              	.LBB179:
 119              	.LBB175:
 120              	.LBB169:
 121              	.LBB160:
 122              		.loc 2 1477 0
 123 0032 144B     		ldr	r3, .L6+8
 124              		.loc 2 1479 0
 125 0034 144A     		ldr	r2, .L6+12
 126              		.loc 2 1477 0
 127 0036 D968     		ldr	r1, [r3, #12]
 128              	.LVL8:
 129              	.LBE160:
 130              	.LBE169:
 131              	.LBE175:
 132              	.LBE179:
 133              		.loc 1 146 0
 134 0038 C461     		str	r4, [r0, #28]
 135              	.LBB180:
 136              	.LBB176:
 137              	.LBB170:
 138              	.LBB161:
 139              		.loc 2 1478 0
 140 003a 01EA0C01 		and	r1, r1, ip
 141              	.LVL9:
 142              		.loc 2 1479 0
 143 003e 0A43     		orrs	r2, r2, r1
 144              	.LVL10:
 145              	.LBE161:
 146              	.LBE170:
 147              		.file 3 ".//os/common/ports/ARMCMx/chcore_v7m.h"
 148              		.loc 3 512 0
 149 0040 0CF1604C 		add	ip, ip, #-536870912
 150              	.LBB171:
 151              	.LBB162:
 152              		.loc 2 1482 0
 153 0044 DA60     		str	r2, [r3, #12]
 154              	.LVL11:
 155              	.LBE162:
 156              	.LBE171:
 157              		.loc 3 512 0
 158 0046 ACF60F3C 		subw	ip, ip, #2831
 159 004a DCF80C20 		ldr	r2, [ip, #12]
 160              		.loc 3 516 0
 161 004e 0F49     		ldr	r1, .L6+16
 162              		.loc 3 512 0
 163 0050 42F08072 		orr	r2, r2, #16777216
 164              	.LBE176:
 165              	.LBE180:
 166              		.loc 1 129 0
 167 0054 45F8180C 		str	r0, [r5, #-24]
 168              	.LBB181:
 169              	.LBB177:
 170              		.loc 3 512 0
 171 0058 CCF80C20 		str	r2, [ip, #12]
ARM GAS  C:\Users\14122\AppData\Local\Temp\ccLdpeDI.s 			page 4


 172              		.loc 3 516 0
 173 005c 0A68     		ldr	r2, [r1]
 174 005e 42F00102 		orr	r2, r2, #1
 175 0062 0A60     		str	r2, [r1]
 176              	.LVL12:
 177              	.LBB172:
 178              	.LBB165:
 179              		.loc 2 1639 0
 180 0064 DF77     		strb	r7, [r3, #31]
 181              	.LVL13:
 182              	.LBE165:
 183              	.LBE172:
 184              	.LBB173:
 185              	.LBB168:
 186 0066 83F82260 		strb	r6, [r3, #34]
 187              	.LVL14:
 188              	.LBE168:
 189              	.LBE173:
 190              	.LBE177:
 191              	.LBE181:
 192              	.LBB182:
 193              	.LBB183:
 194              	.LBB184:
 195              	.LBB185:
 196              		.file 4 ".//os/common/ext/ARM/CMSIS/Core/Include/cmsis_gcc.h"
 197              		.loc 4 493 0
 198              		.syntax unified
 199              	@ 493 ".//os/common/ext/ARM/CMSIS/Core/Include/cmsis_gcc.h" 1
 200 006a 84F31188 		MSR basepri, r4
 201              	@ 0 "" 2
 202              	.LVL15:
 203              		.thumb
 204              		.syntax unified
 205              	.LBE185:
 206              	.LBE184:
 207              	.LBB186:
 208              	.LBB187:
 209              		.loc 4 131 0
 210              		.syntax unified
 211              	@ 131 ".//os/common/ext/ARM/CMSIS/Core/Include/cmsis_gcc.h" 1
 212 006e 62B6     		cpsie i
 213              	@ 0 "" 2
 214              		.thumb
 215              		.syntax unified
 216              	.LBE187:
 217              	.LBE186:
 218              	.LBE183:
 219              	.LBE182:
 220              	.LBB188:
 221              		.loc 1 181 0
 222 0070 0748     		ldr	r0, .L6+20
 223              	.LBE188:
 224              		.loc 1 184 0
 225 0072 BDE8F840 		pop	{r3, r4, r5, r6, r7, lr}
 226              		.cfi_restore 14
 227              		.cfi_restore 7
 228              		.cfi_restore 6
ARM GAS  C:\Users\14122\AppData\Local\Temp\ccLdpeDI.s 			page 5


 229              		.cfi_restore 5
 230              		.cfi_restore 4
 231              		.cfi_restore 3
 232              		.cfi_def_cfa_offset 0
 233              	.LBB189:
 234              		.loc 1 181 0
 235 0076 FFF7FEBF 		b	chThdCreate
 236              	.LVL16:
 237              	.L7:
 238 007a 00BF     		.align	2
 239              	.L6:
 240 007c 30000000 		.word	ch+48
 241 0080 00000000 		.word	ch_debug
 242 0084 00ED00E0 		.word	-536810240
 243 0088 0003FA05 		.word	100270848
 244 008c 001000E0 		.word	-536866816
 245 0090 00000000 		.word	.LANCHOR0
 246              	.LBE189:
 247              		.cfi_endproc
 248              	.LFE221:
 249              		.size	chSysInit, .-chSysInit
 250              		.section	.text.chSysHalt,"ax",%progbits
 251              		.align	1
 252              		.p2align 4,,15
 253              		.global	chSysHalt
 254              		.syntax unified
 255              		.thumb
 256              		.thumb_func
 257              		.fpu softvfp
 258              		.type	chSysHalt, %function
 259              	chSysHalt:
 260              	.LFB222:
 261              		.loc 1 198 0
 262              		.cfi_startproc
 263              		@ Volatile: function does not return.
 264              		@ args = 0, pretend = 0, frame = 0
 265              		@ frame_needed = 0, uses_anonymous_args = 0
 266              		@ link register save eliminated.
 267              	.LVL17:
 268              	.LBB190:
 269              	.LBB191:
 270              	.LBB192:
 271              		.loc 4 142 0
 272              		.syntax unified
 273              	@ 142 ".//os/common/ext/ARM/CMSIS/Core/Include/cmsis_gcc.h" 1
 274 0000 72B6     		cpsid i
 275              	@ 0 "" 2
 276              		.thumb
 277              		.syntax unified
 278              	.LBE192:
 279              	.LBE191:
 280              	.LBE190:
 281              		.loc 1 206 0
 282 0002 014B     		ldr	r3, .L10
 283 0004 D862     		str	r0, [r3, #44]
 284              	.L9:
 285 0006 FEE7     		b	.L9
ARM GAS  C:\Users\14122\AppData\Local\Temp\ccLdpeDI.s 			page 6


 286              	.L11:
 287              		.align	2
 288              	.L10:
 289 0008 00000000 		.word	ch
 290              		.cfi_endproc
 291              	.LFE222:
 292              		.size	chSysHalt, .-chSysHalt
 293              		.section	.text.chSysIntegrityCheckI,"ax",%progbits
 294              		.align	1
 295              		.p2align 4,,15
 296              		.global	chSysIntegrityCheckI
 297              		.syntax unified
 298              		.thumb
 299              		.thumb_func
 300              		.fpu softvfp
 301              		.type	chSysIntegrityCheckI, %function
 302              	chSysIntegrityCheckI:
 303              	.LFB223:
 304              		.loc 1 240 0
 305              		.cfi_startproc
 306              		@ args = 0, pretend = 0, frame = 0
 307              		@ frame_needed = 0, uses_anonymous_args = 0
 308              		@ link register save eliminated.
 309              	.LVL18:
 310              		.loc 1 246 0
 311 0000 C207     		lsls	r2, r0, #31
 312              		.loc 1 240 0
 313 0002 10B4     		push	{r4}
 314              		.cfi_def_cfa_offset 4
 315              		.cfi_offset 4, -4
 316              		.loc 1 246 0
 317 0004 10D5     		bpl	.L13
 318              	.LVL19:
 319              	.LBB193:
 320              		.loc 1 251 0
 321 0006 264B     		ldr	r3, .L56
 322 0008 D3E90014 		ldrd	r1, r4, [r3]
 323              		.loc 1 252 0
 324 000c 9942     		cmp	r1, r3
 325 000e 3BD0     		beq	.L14
 326              		.loc 1 250 0
 327 0010 0022     		movs	r2, #0
 328              	.LVL20:
 329              	.L15:
 330              		.loc 1 254 0
 331 0012 0968     		ldr	r1, [r1]
 332              	.LVL21:
 333              		.loc 1 253 0
 334 0014 0132     		adds	r2, r2, #1
 335              	.LVL22:
 336              		.loc 1 252 0
 337 0016 9942     		cmp	r1, r3
 338 0018 FBD1     		bne	.L15
 339              	.LVL23:
 340              		.loc 1 259 0
 341 001a 8C42     		cmp	r4, r1
 342 001c 31D0     		beq	.L39
ARM GAS  C:\Users\14122\AppData\Local\Temp\ccLdpeDI.s 			page 7


 343              	.LVL24:
 344              	.L19:
 345              		.loc 1 261 0
 346 001e 6468     		ldr	r4, [r4, #4]
 347              	.LVL25:
 348              		.loc 1 260 0
 349 0020 013A     		subs	r2, r2, #1
 350              	.LVL26:
 351              		.loc 1 259 0
 352 0022 9C42     		cmp	r4, r3
 353 0024 FBD1     		bne	.L19
 354              		.loc 1 265 0
 355 0026 62BB     		cbnz	r2, .L39
 356              	.LVL27:
 357              	.L13:
 358              	.LBE193:
 359              		.loc 1 271 0
 360 0028 8307     		lsls	r3, r0, #30
 361 002a 12D5     		bpl	.L20
 362              	.LVL28:
 363              	.LBB194:
 364              		.loc 1 276 0
 365 002c 1C4B     		ldr	r3, .L56
 366 002e DA69     		ldr	r2, [r3, #28]
 367              	.LVL29:
 368              		.loc 1 277 0
 369 0030 03F11C04 		add	r4, r3, #28
 370 0034 A242     		cmp	r2, r4
 371 0036 196A     		ldr	r1, [r3, #32]
 372 0038 2AD0     		beq	.L21
 373              		.loc 1 275 0
 374 003a 0023     		movs	r3, #0
 375              	.LVL30:
 376              	.L22:
 377              		.loc 1 279 0
 378 003c 1268     		ldr	r2, [r2]
 379              	.LVL31:
 380              		.loc 1 278 0
 381 003e 0133     		adds	r3, r3, #1
 382              	.LVL32:
 383              		.loc 1 277 0
 384 0040 A242     		cmp	r2, r4
 385 0042 FBD1     		bne	.L22
 386              	.LVL33:
 387              		.loc 1 284 0
 388 0044 9142     		cmp	r1, r2
 389 0046 1CD0     		beq	.L39
 390              	.LVL34:
 391              	.L25:
 392              		.loc 1 286 0
 393 0048 4968     		ldr	r1, [r1, #4]
 394              	.LVL35:
 395              		.loc 1 285 0
 396 004a 013B     		subs	r3, r3, #1
 397              	.LVL36:
 398              		.loc 1 284 0
 399 004c A142     		cmp	r1, r4
ARM GAS  C:\Users\14122\AppData\Local\Temp\ccLdpeDI.s 			page 8


 400 004e FBD1     		bne	.L25
 401              		.loc 1 290 0
 402 0050 BBB9     		cbnz	r3, .L39
 403              	.LVL37:
 404              	.L20:
 405              	.LBE194:
 406              		.loc 1 296 0
 407 0052 10F00400 		ands	r0, r0, #4
 408              	.LVL38:
 409 0056 12D0     		beq	.L18
 410              	.LVL39:
 411              	.LBB195:
 412              		.loc 1 301 0
 413 0058 114B     		ldr	r3, .L56
 414              		.loc 1 300 0
 415 005a 0020     		movs	r0, #0
 416 005c D3E90421 		ldrd	r2, r1, [r3, #16]
 417              		.loc 1 302 0
 418 0060 9A42     		cmp	r2, r3
 419 0062 19D0     		beq	.L26
 420              	.LVL40:
 421              	.L27:
 422              		.loc 1 304 0
 423 0064 1269     		ldr	r2, [r2, #16]
 424              	.LVL41:
 425              		.loc 1 303 0
 426 0066 0130     		adds	r0, r0, #1
 427              	.LVL42:
 428              		.loc 1 302 0
 429 0068 9A42     		cmp	r2, r3
 430 006a FBD1     		bne	.L27
 431              	.LVL43:
 432              		.loc 1 309 0
 433 006c 9142     		cmp	r1, r2
 434 006e 08D0     		beq	.L39
 435              	.LVL44:
 436              	.L30:
 437              		.loc 1 311 0
 438 0070 4969     		ldr	r1, [r1, #20]
 439              	.LVL45:
 440              		.loc 1 310 0
 441 0072 0138     		subs	r0, r0, #1
 442              	.LVL46:
 443              		.loc 1 309 0
 444 0074 9942     		cmp	r1, r3
 445 0076 FBD1     		bne	.L30
 446              		.loc 1 315 0
 447 0078 0030     		adds	r0, r0, #0
 448 007a 18BF     		it	ne
 449 007c 0120     		movne	r0, #1
 450              	.LVL47:
 451              	.L18:
 452              	.LBE195:
 453              		.loc 1 328 0
 454 007e 10BC     		pop	{r4}
 455              		.cfi_remember_state
 456              		.cfi_restore 4
ARM GAS  C:\Users\14122\AppData\Local\Temp\ccLdpeDI.s 			page 9


 457              		.cfi_def_cfa_offset 0
 458 0080 7047     		bx	lr
 459              	.L39:
 460              		.cfi_restore_state
 461              	.LBB196:
 462              		.loc 1 266 0
 463 0082 0120     		movs	r0, #1
 464              	.LBE196:
 465              		.loc 1 328 0
 466 0084 10BC     		pop	{r4}
 467              		.cfi_remember_state
 468              		.cfi_restore 4
 469              		.cfi_def_cfa_offset 0
 470 0086 7047     		bx	lr
 471              	.LVL48:
 472              	.L14:
 473              		.cfi_restore_state
 474              	.LBB197:
 475              		.loc 1 259 0
 476 0088 9C42     		cmp	r4, r3
 477 008a CDD0     		beq	.L13
 478              		.loc 1 250 0
 479 008c 0022     		movs	r2, #0
 480 008e C6E7     		b	.L19
 481              	.LVL49:
 482              	.L21:
 483              	.LBE197:
 484              	.LBB198:
 485              		.loc 1 284 0
 486 0090 A142     		cmp	r1, r4
 487 0092 DED0     		beq	.L20
 488              		.loc 1 275 0
 489 0094 0023     		movs	r3, #0
 490 0096 D7E7     		b	.L25
 491              	.LVL50:
 492              	.L26:
 493              	.LBE198:
 494              	.LBB199:
 495              		.loc 1 309 0
 496 0098 9142     		cmp	r1, r2
 497 009a E9D1     		bne	.L30
 498 009c EFE7     		b	.L18
 499              	.L57:
 500 009e 00BF     		.align	2
 501              	.L56:
 502 00a0 00000000 		.word	ch
 503              	.LBE199:
 504              		.cfi_endproc
 505              	.LFE223:
 506              		.size	chSysIntegrityCheckI, .-chSysIntegrityCheckI
 507              		.section	.text.chSysTimerHandlerI,"ax",%progbits
 508              		.align	1
 509              		.p2align 4,,15
 510              		.global	chSysTimerHandlerI
 511              		.syntax unified
 512              		.thumb
 513              		.thumb_func
ARM GAS  C:\Users\14122\AppData\Local\Temp\ccLdpeDI.s 			page 10


 514              		.fpu softvfp
 515              		.type	chSysTimerHandlerI, %function
 516              	chSysTimerHandlerI:
 517              	.LFB224:
 518              		.loc 1 341 0
 519              		.cfi_startproc
 520              		@ args = 0, pretend = 0, frame = 0
 521              		@ frame_needed = 0, uses_anonymous_args = 0
 522 0000 2DE9F84F 		push	{r3, r4, r5, r6, r7, r8, r9, r10, fp, lr}
 523              		.cfi_def_cfa_offset 40
 524              		.cfi_offset 3, -40
 525              		.cfi_offset 4, -36
 526              		.cfi_offset 5, -32
 527              		.cfi_offset 6, -28
 528              		.cfi_offset 7, -24
 529              		.cfi_offset 8, -20
 530              		.cfi_offset 9, -16
 531              		.cfi_offset 10, -12
 532              		.cfi_offset 11, -8
 533              		.cfi_offset 14, -4
 534              	.LBB229:
 535              	.LBB230:
 536              		.file 5 ".//os/rt/include/chvt.h"
 537              		.loc 5 399 0
 538 0004 DFF89090 		ldr	r9, .L66
 539              	.LBB231:
 540              	.LBB232:
 541              	.LBB233:
 542              	.LBB234:
 543              		.file 6 ".//os/hal/ports/STM32/LLD/TIMv1/hal_st_lld.h"
 544              		.loc 6 141 0
 545 0008 4FF08048 		mov	r8, #1073741824
 546              	.LBE234:
 547              	.LBE233:
 548              	.LBE232:
 549              	.LBE231:
 550              		.loc 5 399 0
 551 000c 4D46     		mov	r5, r9
 552              	.LBB241:
 553              		.loc 5 424 0
 554 000e 0026     		movs	r6, #0
 555              	.LBE241:
 556              		.loc 5 399 0
 557 0010 55F81C4F 		ldr	r4, [r5, #28]!
 558              	.LVL51:
 559 0014 A368     		ldr	r3, [r4, #8]
 560              	.L61:
 561              	.LBB259:
 562              	.LBB239:
 563              	.LBB237:
 564              	.LBB235:
 565              		.loc 6 141 0
 566 0016 D8F82400 		ldr	r0, [r8, #36]
 567              	.LBE235:
 568              	.LBE237:
 569              	.LBE239:
 570              	.LBE259:
ARM GAS  C:\Users\14122\AppData\Local\Temp\ccLdpeDI.s 			page 11


 571              		.loc 5 404 0
 572 001a B9F82820 		ldrh	r2, [r9, #40]
 573              	.LBB260:
 574              	.LBB240:
 575              	.LBB238:
 576              	.LBB236:
 577              		.loc 6 141 0
 578 001e 80B2     		uxth	r0, r0
 579              	.LVL52:
 580              	.LBE236:
 581              	.LBE238:
 582              	.LBE240:
 583              	.LBE260:
 584              	.LBB261:
 585              	.LBB262:
 586              		.file 7 ".//os/rt/include/chtime.h"
 587              		.loc 7 464 0
 588 0020 A0EB020A 		sub	r10, r0, r2
 589 0024 1FFA8AFA 		uxth	r10, r10
 590              	.LVL53:
 591              	.LBE262:
 592              	.LBE261:
 593              		.loc 5 409 0
 594 0028 9A45     		cmp	r10, r3
 595 002a 1FD3     		bcc	.L59
 596              	.LBB263:
 597              	.LBB242:
 598              	.LBB243:
 599              	.LBB244:
 600              	.LBB245:
 601              	.LBB246:
 602              		.loc 4 493 0
 603 002c 2027     		movs	r7, #32
 604 002e 0CE0     		b	.L62
 605              	.LVL54:
 606              	.L60:
 607              	.LBE246:
 608              	.LBE245:
 609              	.LBE244:
 610              	.LBE243:
 611              	.LBE242:
 612              	.LBB251:
 613              	.LBB252:
 614              	.LBB253:
 615              	.LBB254:
 616              	.LBB255:
 617              		.syntax unified
 618              	@ 493 ".//os/common/ext/ARM/CMSIS/Core/Include/cmsis_gcc.h" 1
 619 0030 86F31188 		MSR basepri, r6
 620              	@ 0 "" 2
 621              	.LVL55:
 622              		.thumb
 623              		.syntax unified
 624              	.LBE255:
 625              	.LBE254:
 626              	.LBE253:
 627              	.LBE252:
ARM GAS  C:\Users\14122\AppData\Local\Temp\ccLdpeDI.s 			page 12


 628              	.LBE251:
 629              		.loc 5 433 0
 630 0034 2069     		ldr	r0, [r4, #16]
 631 0036 D847     		blx	fp
 632              	.LVL56:
 633              	.LBB256:
 634              	.LBB250:
 635              	.LBB249:
 636              	.LBB248:
 637              	.LBB247:
 638              		.loc 4 493 0
 639              		.syntax unified
 640              	@ 493 ".//os/common/ext/ARM/CMSIS/Core/Include/cmsis_gcc.h" 1
 641 0038 87F31188 		MSR basepri, r7
 642              	@ 0 "" 2
 643              	.LVL57:
 644              		.thumb
 645              		.syntax unified
 646              	.LBE247:
 647              	.LBE248:
 648              	.LBE249:
 649              	.LBE250:
 650              	.LBE256:
 651              		.loc 5 437 0
 652 003c D9F81C40 		ldr	r4, [r9, #28]
 653              	.LVL58:
 654              	.LBE263:
 655              		.loc 5 439 0
 656 0040 A368     		ldr	r3, [r4, #8]
 657 0042 9A45     		cmp	r10, r3
 658 0044 E7D3     		bcc	.L61
 659 0046 B9F82820 		ldrh	r2, [r9, #40]
 660              	.LVL59:
 661              	.L62:
 662              	.LBB264:
 663              		.loc 5 421 0
 664 004a 2168     		ldr	r1, [r4]
 665              		.loc 5 418 0
 666 004c 1A44     		add	r2, r2, r3
 667              		.loc 5 427 0
 668 004e A942     		cmp	r1, r5
 669              		.loc 5 418 0
 670 0050 A9F82820 		strh	r2, [r9, #40]	@ movhi
 671              		.loc 5 423 0
 672 0054 D4F80CB0 		ldr	fp, [r4, #12]
 673              		.loc 5 421 0
 674 0058 4D60     		str	r5, [r1, #4]
 675              		.loc 5 419 0
 676 005a AAEB030A 		sub	r10, r10, r3
 677              	.LVL60:
 678              		.loc 5 422 0
 679 005e C9F81C10 		str	r1, [r9, #28]
 680              		.loc 5 424 0
 681 0062 E660     		str	r6, [r4, #12]
 682              		.loc 5 427 0
 683 0064 E4D1     		bne	.L60
 684              	.LBB257:
ARM GAS  C:\Users\14122\AppData\Local\Temp\ccLdpeDI.s 			page 13


 685              	.LBB258:
 686              		.file 8 ".//os/common/ports/ARMCMx/chcore_timer.h"
 687              		.loc 8 83 0
 688 0066 FFF7FEFF 		bl	stStopAlarm
 689              	.LVL61:
 690 006a E1E7     		b	.L60
 691              	.LVL62:
 692              	.L59:
 693              	.LBE258:
 694              	.LBE257:
 695              	.LBE264:
 696              		.loc 5 443 0
 697 006c D9F81C30 		ldr	r3, [r9, #28]
 698 0070 AB42     		cmp	r3, r5
 699 0072 0FD0     		beq	.L58
 700              		.loc 5 450 0
 701 0074 9A68     		ldr	r2, [r3, #8]
 702              		.loc 5 449 0
 703 0076 A9F82800 		strh	r0, [r9, #40]	@ movhi
 704              		.loc 5 450 0
 705 007a A2EB0A02 		sub	r2, r2, r10
 706 007e 9A60     		str	r2, [r3, #8]
 707              	.LVL63:
 708              	.LBB265:
 709              	.LBB266:
 710              		.loc 7 448 0
 711 0080 2389     		ldrh	r3, [r4, #8]
 712 0082 022B     		cmp	r3, #2
 713 0084 2CBF     		ite	cs
 714 0086 C018     		addcs	r0, r0, r3
 715 0088 0230     		addcc	r0, r0, #2
 716              	.LBE266:
 717              	.LBE265:
 718              	.LBE230:
 719              	.LBE229:
 720              		.loc 1 357 0
 721 008a BDE8F84F 		pop	{r3, r4, r5, r6, r7, r8, r9, r10, fp, lr}
 722              		.cfi_remember_state
 723              		.cfi_restore 14
 724              		.cfi_restore 11
 725              		.cfi_restore 10
 726              		.cfi_restore 9
 727              		.cfi_restore 8
 728              		.cfi_restore 7
 729              		.cfi_restore 6
 730              		.cfi_restore 5
 731              		.cfi_restore 4
 732              		.cfi_restore 3
 733              		.cfi_def_cfa_offset 0
 734              	.LVL64:
 735              	.LBB270:
 736              	.LBB269:
 737              	.LBB267:
 738              	.LBB268:
 739              		.loc 8 95 0
 740 008e 80B2     		uxth	r0, r0
 741 0090 FFF7FEBF 		b	stSetAlarm
ARM GAS  C:\Users\14122\AppData\Local\Temp\ccLdpeDI.s 			page 14


 742              	.LVL65:
 743              	.L58:
 744              		.cfi_restore_state
 745              	.LBE268:
 746              	.LBE267:
 747              	.LBE269:
 748              	.LBE270:
 749              		.loc 1 357 0
 750 0094 BDE8F88F 		pop	{r3, r4, r5, r6, r7, r8, r9, r10, fp, pc}
 751              	.LVL66:
 752              	.L67:
 753              		.align	2
 754              	.L66:
 755 0098 00000000 		.word	ch
 756              		.cfi_endproc
 757              	.LFE224:
 758              		.size	chSysTimerHandlerI, .-chSysTimerHandlerI
 759              		.section	.text.chSysGetStatusAndLockX,"ax",%progbits
 760              		.align	1
 761              		.p2align 4,,15
 762              		.global	chSysGetStatusAndLockX
 763              		.syntax unified
 764              		.thumb
 765              		.thumb_func
 766              		.fpu softvfp
 767              		.type	chSysGetStatusAndLockX, %function
 768              	chSysGetStatusAndLockX:
 769              	.LFB225:
 770              		.loc 1 372 0
 771              		.cfi_startproc
 772              		@ args = 0, pretend = 0, frame = 0
 773              		@ frame_needed = 0, uses_anonymous_args = 0
 774              		@ link register save eliminated.
 775              	.LBB271:
 776              	.LBB272:
 777              	.LBB273:
 778              	.LBB274:
 779              		.loc 4 465 0
 780              		.syntax unified
 781              	@ 465 ".//os/common/ext/ARM/CMSIS/Core/Include/cmsis_gcc.h" 1
 782 0000 EFF31180 		MRS r0, basepri
 783              	@ 0 "" 2
 784              		.thumb
 785              		.syntax unified
 786              	.LBE274:
 787              	.LBE273:
 788              	.LBE272:
 789              	.LBE271:
 790              		.loc 1 375 0
 791 0004 20B9     		cbnz	r0, .L68
 792              	.LBB275:
 793              	.LBB276:
 794              	.LBB277:
 795              	.LBB278:
 796              		.loc 4 209 0
 797              		.syntax unified
 798              	@ 209 ".//os/common/ext/ARM/CMSIS/Core/Include/cmsis_gcc.h" 1
ARM GAS  C:\Users\14122\AppData\Local\Temp\ccLdpeDI.s 			page 15


 799 0006 EFF30583 		MRS r3, ipsr
 800              	@ 0 "" 2
 801              	.LVL67:
 802              		.thumb
 803              		.syntax unified
 804              	.LBE278:
 805              	.LBE277:
 806              	.LBE276:
 807              	.LBE275:
 808              	.LBB279:
 809              	.LBB280:
 810              	.LBB281:
 811              	.LBB282:
 812              		.loc 4 493 0
 813 000a 2023     		movs	r3, #32
 814              		.syntax unified
 815              	@ 493 ".//os/common/ext/ARM/CMSIS/Core/Include/cmsis_gcc.h" 1
 816 000c 83F31188 		MSR basepri, r3
 817              	@ 0 "" 2
 818              	.LVL68:
 819              		.thumb
 820              		.syntax unified
 821              	.L68:
 822              	.LBE282:
 823              	.LBE281:
 824              	.LBE280:
 825              	.LBE279:
 826              		.loc 1 384 0
 827 0010 7047     		bx	lr
 828              		.cfi_endproc
 829              	.LFE225:
 830              		.size	chSysGetStatusAndLockX, .-chSysGetStatusAndLockX
 831 0012 00BF     		.section	.text.chSysRestoreStatusX,"ax",%progbits
 832              		.align	1
 833              		.p2align 4,,15
 834              		.global	chSysRestoreStatusX
 835              		.syntax unified
 836              		.thumb
 837              		.thumb_func
 838              		.fpu softvfp
 839              		.type	chSysRestoreStatusX, %function
 840              	chSysRestoreStatusX:
 841              	.LFB226:
 842              		.loc 1 395 0
 843              		.cfi_startproc
 844              		@ args = 0, pretend = 0, frame = 0
 845              		@ frame_needed = 0, uses_anonymous_args = 0
 846              	.LVL69:
 847              		.loc 1 397 0
 848 0000 40B9     		cbnz	r0, .L75
 849              		.loc 1 395 0
 850 0002 10B5     		push	{r4, lr}
 851              		.cfi_def_cfa_offset 8
 852              		.cfi_offset 4, -8
 853              		.cfi_offset 14, -4
 854              	.LBB283:
 855              	.LBB284:
ARM GAS  C:\Users\14122\AppData\Local\Temp\ccLdpeDI.s 			page 16


 856              	.LBB285:
 857              	.LBB286:
 858              		.loc 4 209 0
 859              		.syntax unified
 860              	@ 209 ".//os/common/ext/ARM/CMSIS/Core/Include/cmsis_gcc.h" 1
 861 0004 EFF30584 		MRS r4, ipsr
 862              	@ 0 "" 2
 863              		.thumb
 864              		.syntax unified
 865              	.LBE286:
 866              	.LBE285:
 867              		.loc 3 586 0
 868 0008 C4F30804 		ubfx	r4, r4, #0, #9
 869              	.LBE284:
 870              	.LBE283:
 871              		.loc 1 398 0
 872 000c 1CB1     		cbz	r4, .L73
 873              	.LVL70:
 874              	.LBB287:
 875              	.LBB288:
 876              	.LBB289:
 877              	.LBB290:
 878              	.LBB291:
 879              		.loc 4 493 0
 880              		.syntax unified
 881              	@ 493 ".//os/common/ext/ARM/CMSIS/Core/Include/cmsis_gcc.h" 1
 882 000e 80F31188 		MSR basepri, r0
 883              	@ 0 "" 2
 884              	.LVL71:
 885              		.thumb
 886              		.syntax unified
 887              	.LBE291:
 888              	.LBE290:
 889              	.LBE289:
 890              	.LBE288:
 891              	.LBE287:
 892              		.loc 1 406 0
 893 0012 10BD     		pop	{r4, pc}
 894              	.L75:
 895              		.cfi_def_cfa_offset 0
 896              		.cfi_restore 4
 897              		.cfi_restore 14
 898 0014 7047     		bx	lr
 899              	.L73:
 900              		.cfi_def_cfa_offset 8
 901              		.cfi_offset 4, -8
 902              		.cfi_offset 14, -4
 903              		.loc 1 402 0
 904 0016 FFF7FEFF 		bl	chSchRescheduleS
 905              	.LVL72:
 906              	.LBB292:
 907              	.LBB293:
 908              	.LBB294:
 909              	.LBB295:
 910              	.LBB296:
 911              		.loc 4 493 0
 912              		.syntax unified
ARM GAS  C:\Users\14122\AppData\Local\Temp\ccLdpeDI.s 			page 17


 913              	@ 493 ".//os/common/ext/ARM/CMSIS/Core/Include/cmsis_gcc.h" 1
 914 001a 84F31188 		MSR basepri, r4
 915              	@ 0 "" 2
 916              	.LVL73:
 917              		.thumb
 918              		.syntax unified
 919              	.LBE296:
 920              	.LBE295:
 921              	.LBE294:
 922              	.LBE293:
 923              	.LBE292:
 924              		.loc 1 406 0
 925 001e 10BD     		pop	{r4, pc}
 926              		.cfi_endproc
 927              	.LFE226:
 928              		.size	chSysRestoreStatusX, .-chSysRestoreStatusX
 929              		.section	.text.chSysIsCounterWithinX,"ax",%progbits
 930              		.align	1
 931              		.p2align 4,,15
 932              		.global	chSysIsCounterWithinX
 933              		.syntax unified
 934              		.thumb
 935              		.thumb_func
 936              		.fpu softvfp
 937              		.type	chSysIsCounterWithinX, %function
 938              	chSysIsCounterWithinX:
 939              	.LFB227:
 940              		.loc 1 427 0
 941              		.cfi_startproc
 942              		@ args = 0, pretend = 0, frame = 0
 943              		@ frame_needed = 0, uses_anonymous_args = 0
 944              		@ link register save eliminated.
 945              	.LVL74:
 946              		.loc 1 429 0
 947 0000 401A     		subs	r0, r0, r1
 948              	.LVL75:
 949 0002 521A     		subs	r2, r2, r1
 950              	.LVL76:
 951              		.loc 1 430 0
 952 0004 9042     		cmp	r0, r2
 953 0006 2CBF     		ite	cs
 954 0008 0020     		movcs	r0, #0
 955 000a 0120     		movcc	r0, #1
 956 000c 7047     		bx	lr
 957              		.cfi_endproc
 958              	.LFE227:
 959              		.size	chSysIsCounterWithinX, .-chSysIsCounterWithinX
 960 000e 00BF     		.section	.text.chSysPolledDelayX,"ax",%progbits
 961              		.align	1
 962              		.p2align 4,,15
 963              		.global	chSysPolledDelayX
 964              		.syntax unified
 965              		.thumb
 966              		.thumb_func
 967              		.fpu softvfp
 968              		.type	chSysPolledDelayX, %function
 969              	chSysPolledDelayX:
ARM GAS  C:\Users\14122\AppData\Local\Temp\ccLdpeDI.s 			page 18


 970              	.LFB228:
 971              		.loc 1 443 0
 972              		.cfi_startproc
 973              		@ args = 0, pretend = 0, frame = 0
 974              		@ frame_needed = 0, uses_anonymous_args = 0
 975              		@ link register save eliminated.
 976              	.LVL77:
 977              	.LBB297:
 978              	.LBB298:
 979              		.loc 3 708 0
 980 0000 034B     		ldr	r3, .L82
 981              	.LBE298:
 982              	.LBE297:
 983              	.LBB300:
 984              	.LBB301:
 985 0002 1946     		mov	r1, r3
 986              	.LBE301:
 987              	.LBE300:
 988              	.LBB303:
 989              	.LBB299:
 990 0004 5A68     		ldr	r2, [r3, #4]
 991              	.LVL78:
 992              	.L80:
 993              	.LBE299:
 994              	.LBE303:
 995              	.LBB304:
 996              	.LBB302:
 997              		.loc 3 708 0 is_stmt 0 discriminator 1
 998 0006 4B68     		ldr	r3, [r1, #4]
 999              	.LBE302:
 1000              	.LBE304:
 1001              	.LBB305:
 1002              	.LBB306:
 1003              		.loc 1 429 0 is_stmt 1 discriminator 1
 1004 0008 9B1A     		subs	r3, r3, r2
 1005              	.LBE306:
 1006              	.LBE305:
 1007              		.loc 1 447 0 discriminator 1
 1008 000a 9842     		cmp	r0, r3
 1009 000c FBD8     		bhi	.L80
 1010              		.loc 1 449 0
 1011 000e 7047     		bx	lr
 1012              	.L83:
 1013              		.align	2
 1014              	.L82:
 1015 0010 001000E0 		.word	-536866816
 1016              		.cfi_endproc
 1017              	.LFE228:
 1018              		.size	chSysPolledDelayX, .-chSysPolledDelayX
 1019              		.global	ch_idle_thread_wa
 1020              		.section	.bss.ch_idle_thread_wa,"aw",%nobits
 1021              		.align	3
 1022              		.type	ch_idle_thread_wa, %object
 1023              		.size	ch_idle_thread_wa, 216
 1024              	ch_idle_thread_wa:
 1025 0000 00000000 		.space	216
 1025      00000000 
ARM GAS  C:\Users\14122\AppData\Local\Temp\ccLdpeDI.s 			page 19


 1025      00000000 
 1025      00000000 
 1025      00000000 
 1026              		.section	.rodata.idle_descriptor.6282,"a",%progbits
 1027              		.align	2
 1028              		.set	.LANCHOR0,. + 0
 1029              		.type	idle_descriptor.6282, %object
 1030              		.size	idle_descriptor.6282, 24
 1031              	idle_descriptor.6282:
 1032 0000 00000000 		.word	.LC0
 1033 0004 00000000 		.word	ch_idle_thread_wa
 1034 0008 D8000000 		.word	ch_idle_thread_wa+216
 1035 000c 01000000 		.word	1
 1036 0010 00000000 		.word	_idle_thread
 1037 0014 00000000 		.word	0
 1038              		.section	.rodata.str1.4,"aMS",%progbits,1
 1039              		.align	2
 1040              	.LC0:
 1041 0000 69646C65 		.ascii	"idle\000"
 1041      00
 1042              		.text
 1043              	.Letext0:
 1044              		.file 9 "c:\\chibistudio\\tools\\gnu tools arm embedded\\7.0 2017q4\\lib\\gcc\\arm-none-eabi\\7.2.
 1045              		.file 10 "c:\\chibistudio\\tools\\gnu tools arm embedded\\7.0 2017q4\\arm-none-eabi\\include\\mach
 1046              		.file 11 "c:\\chibistudio\\tools\\gnu tools arm embedded\\7.0 2017q4\\arm-none-eabi\\include\\sys\
 1047              		.file 12 ".//os/common/ports/ARMCMx/compilers/GCC/chtypes.h"
 1048              		.file 13 ".//os/rt/include/chsystypes.h"
 1049              		.file 14 ".//os/rt/include/chschd.h"
 1050              		.file 15 ".//os/common/ext/ST/STM32F1xx/stm32f103xb.h"
 1051              		.file 16 ".//os/common/ext/ST/STM32F1xx/system_stm32f1xx.h"
 1052              		.file 17 ".//os/common/ports/ARMCMx/chcore.h"
 1053              		.file 18 ".//os/hal/ports/STM32/LLD/TIMv1/stm32_tim.h"
 1054              		.file 19 ".//os/rt/include/chsem.h"
 1055              		.file 20 ".//os/rt/include/chmtx.h"
 1056              		.file 21 ".//os/rt/include/chsys.h"
 1057              		.file 22 ".//os/rt/include/chthreads.h"
 1058              		.file 23 ".//os/rt/include/chregistry.h"
 1059              		.file 24 ".//os/lib/include/chmemcore.h"
 1060              		.file 25 ".//os/lib/include/chmempools.h"
 1061              		.file 26 ".//os/lib/include/chfactory.h"
 1062              		.file 27 ".//os/hal/include/hal_st.h"
 1063              		.file 28 ".//os/lib/include/chmemheaps.h"