ARM GAS  C:\Users\14122\AppData\Local\Temp\cc5eq1Xn.s 			page 1


   1              		.cpu cortex-m3
   2              		.eabi_attribute 20, 1
   3              		.eabi_attribute 21, 1
   4              		.eabi_attribute 23, 3
   5              		.eabi_attribute 24, 1
   6              		.eabi_attribute 25, 1
   7              		.eabi_attribute 26, 1
   8              		.eabi_attribute 30, 2
   9              		.eabi_attribute 34, 1
  10              		.eabi_attribute 18, 4
  11              		.file	"chthreads.c"
  12              		.text
  13              	.Ltext0:
  14              		.cfi_sections	.debug_frame
  15              		.section	.text._thread_init,"ax",%progbits
  16              		.align	1
  17              		.p2align 4,,15
  18              		.global	_thread_init
  19              		.syntax unified
  20              		.thumb
  21              		.thumb_func
  22              		.fpu softvfp
  23              		.type	_thread_init, %function
  24              	_thread_init:
  25              	.LFB220:
  26              		.file 1 ".//os/rt/src/chthreads.c"
  27              		.loc 1 88 0
  28              		.cfi_startproc
  29              		@ args = 0, pretend = 0, frame = 0
  30              		@ frame_needed = 0, uses_anonymous_args = 0
  31              		@ link register save eliminated.
  32              	.LVL0:
  33 0000 F0B4     		push	{r4, r5, r6, r7}
  34              		.cfi_def_cfa_offset 16
  35              		.cfi_offset 4, -16
  36              		.cfi_offset 5, -12
  37              		.cfi_offset 6, -8
  38              		.cfi_offset 7, -4
  39              		.loc 1 92 0
  40 0002 0127     		movs	r7, #1
  41              		.loc 1 98 0
  42 0004 0026     		movs	r6, #0
  43              		.loc 1 91 0
  44 0006 4FF0020C 		mov	ip, #2
  45              		.loc 1 109 0
  46 000a 0C4C     		ldr	r4, .L4
  47              		.loc 1 90 0
  48 000c 8260     		str	r2, [r0, #8]
  49              		.loc 1 109 0
  50 000e 6569     		ldr	r5, [r4, #20]
  51              		.loc 1 97 0
  52 0010 C263     		str	r2, [r0, #60]
  53              		.loc 1 108 0
  54 0012 C0E90551 		strd	r5, r1, [r0, #20]
  55              		.loc 1 117 0
  56 0016 00F12C02 		add	r2, r0, #44
  57              	.LVL1:
ARM GAS  C:\Users\14122\AppData\Local\Temp\cc5eq1Xn.s 			page 2


  58              		.loc 1 114 0
  59 001a 00F12801 		add	r1, r0, #40
  60              	.LVL2:
  61              		.loc 1 109 0
  62 001e 0461     		str	r4, [r0, #16]
  63              		.loc 1 92 0
  64 0020 80F82270 		strb	r7, [r0, #34]
  65              		.loc 1 101 0
  66 0024 C0E90D66 		strd	r6, r6, [r0, #52]
  67              		.loc 1 91 0
  68 0028 A0F820C0 		strh	ip, [r0, #32]	@ movhi
  69              		.loc 1 109 0
  70 002c 2861     		str	r0, [r5, #16]
  71 002e 6061     		str	r0, [r4, #20]
  72              	.LVL3:
  73              	.LBB267:
  74              	.LBB268:
  75              		.file 2 ".//os/rt/include/chschd.h"
  76              		.loc 2 539 0
  77 0030 C0E90A12 		strd	r1, r2, [r0, #40]
  78              	.LBE268:
  79              	.LBE267:
  80              		.loc 1 124 0
  81 0034 F0BC     		pop	{r4, r5, r6, r7}
  82              		.cfi_restore 7
  83              		.cfi_restore 6
  84              		.cfi_restore 5
  85              		.cfi_restore 4
  86              		.cfi_def_cfa_offset 0
  87              	.LBB270:
  88              	.LBB269:
  89              		.loc 2 540 0
  90 0036 0263     		str	r2, [r0, #48]
  91              	.LBE269:
  92              	.LBE270:
  93              		.loc 1 124 0
  94 0038 7047     		bx	lr
  95              	.L5:
  96 003a 00BF     		.align	2
  97              	.L4:
  98 003c 00000000 		.word	ch
  99              		.cfi_endproc
 100              	.LFE220:
 101              		.size	_thread_init, .-_thread_init
 102              		.section	.text.chThdCreateSuspendedI,"ax",%progbits
 103              		.align	1
 104              		.p2align 4,,15
 105              		.global	chThdCreateSuspendedI
 106              		.syntax unified
 107              		.thumb
 108              		.thumb_func
 109              		.fpu softvfp
 110              		.type	chThdCreateSuspendedI, %function
 111              	chThdCreateSuspendedI:
 112              	.LFB221:
 113              		.loc 1 167 0
 114              		.cfi_startproc
ARM GAS  C:\Users\14122\AppData\Local\Temp\cc5eq1Xn.s 			page 3


 115              		@ args = 0, pretend = 0, frame = 0
 116              		@ frame_needed = 0, uses_anonymous_args = 0
 117              		@ link register save eliminated.
 118              	.LVL4:
 119 0000 F0B4     		push	{r4, r5, r6, r7}
 120              		.cfi_def_cfa_offset 16
 121              		.cfi_offset 4, -16
 122              		.cfi_offset 5, -12
 123              		.cfi_offset 6, -8
 124              		.cfi_offset 7, -4
 125              		.loc 1 186 0
 126 0002 D0E90163 		ldrd	r6, r3, [r0, #4]
 127              	.LBB271:
 128              	.LBB272:
 129              		.loc 1 92 0
 130 0006 0021     		movs	r1, #0
 131              		.loc 1 91 0
 132 0008 0225     		movs	r5, #2
 133              		.loc 1 107 0
 134 000a 0124     		movs	r4, #1
 135              		.loc 1 109 0
 136 000c 174A     		ldr	r2, .L8
 137              	.LBE272:
 138              	.LBE271:
 139              		.loc 1 186 0
 140 000e 43F82C6C 		str	r6, [r3, #-44]
 141              		.loc 1 190 0
 142 0012 D0E90476 		ldrd	r7, r6, [r0, #16]
 143 0016 43E91B76 		strd	r7, r6, [r3, #-108]
 144              		.loc 1 193 0
 145 001a 0668     		ldr	r6, [r0]
 146 001c C068     		ldr	r0, [r0, #12]
 147              	.LVL5:
 148              	.LBB281:
 149              	.LBB277:
 150              		.loc 1 91 0
 151 001e 03F8285C 		strb	r5, [r3, #-40]
 152              		.loc 1 92 0
 153 0022 03F8271C 		strb	r1, [r3, #-39]
 154              		.loc 1 107 0
 155 0026 03F8264C 		strb	r4, [r3, #-38]
 156              	.LBE277:
 157              	.LBE281:
 158              		.loc 1 190 0
 159 002a 114D     		ldr	r5, .L8+4
 160              	.LBB282:
 161              	.LBB278:
 162              		.loc 1 109 0
 163 002c 5469     		ldr	r4, [r2, #20]
 164              		.loc 1 90 0
 165 002e 43F8400C 		str	r0, [r3, #-64]
 166              		.loc 1 97 0
 167 0032 43F80C0C 		str	r0, [r3, #-12]
 168              	.LBE278:
 169              	.LBE282:
 170              		.loc 1 190 0
 171 0036 A3F16C00 		sub	r0, r3, #108
ARM GAS  C:\Users\14122\AppData\Local\Temp\cc5eq1Xn.s 			page 4


 172 003a 43F83C0C 		str	r0, [r3, #-60]
 173 003e 43F84C5C 		str	r5, [r3, #-76]
 174              		.loc 1 181 0
 175 0042 A3F14800 		sub	r0, r3, #72
 176              	.LVL6:
 177              	.LBB283:
 178              	.LBB279:
 179              		.loc 1 101 0
 180 0046 43E90511 		strd	r1, r1, [r3, #-20]
 181              		.loc 1 114 0
 182 004a A3F12005 		sub	r5, r3, #32
 183              		.loc 1 117 0
 184 004e A3F11C01 		sub	r1, r3, #28
 185              		.loc 1 108 0
 186 0052 43F8306C 		str	r6, [r3, #-48]
 187              		.loc 1 109 0
 188 0056 43E90E24 		strd	r2, r4, [r3, #-56]
 189 005a 2061     		str	r0, [r4, #16]
 190 005c 5061     		str	r0, [r2, #20]
 191              	.LVL7:
 192              	.LBB273:
 193              	.LBB274:
 194              		.loc 2 539 0
 195 005e 43E90851 		strd	r5, r1, [r3, #-32]
 196              	.LBE274:
 197              	.LBE273:
 198              	.LBE279:
 199              	.LBE283:
 200              		.loc 1 194 0
 201 0062 F0BC     		pop	{r4, r5, r6, r7}
 202              		.cfi_restore 7
 203              		.cfi_restore 6
 204              		.cfi_restore 5
 205              		.cfi_restore 4
 206              		.cfi_def_cfa_offset 0
 207              	.LVL8:
 208              	.LBB284:
 209              	.LBB280:
 210              	.LBB276:
 211              	.LBB275:
 212              		.loc 2 540 0
 213 0064 43F8181C 		str	r1, [r3, #-24]
 214              	.LVL9:
 215              	.LBE275:
 216              	.LBE276:
 217              	.LBE280:
 218              	.LBE284:
 219              		.loc 1 194 0
 220 0068 7047     		bx	lr
 221              	.L9:
 222 006a 00BF     		.align	2
 223              	.L8:
 224 006c 00000000 		.word	ch
 225 0070 00000000 		.word	_port_thread_start
 226              		.cfi_endproc
 227              	.LFE221:
 228              		.size	chThdCreateSuspendedI, .-chThdCreateSuspendedI
ARM GAS  C:\Users\14122\AppData\Local\Temp\cc5eq1Xn.s 			page 5


 229              		.section	.text.chThdCreateSuspended,"ax",%progbits
 230              		.align	1
 231              		.p2align 4,,15
 232              		.global	chThdCreateSuspended
 233              		.syntax unified
 234              		.thumb
 235              		.thumb_func
 236              		.fpu softvfp
 237              		.type	chThdCreateSuspended, %function
 238              	chThdCreateSuspended:
 239              	.LFB222:
 240              		.loc 1 216 0
 241              		.cfi_startproc
 242              		@ args = 0, pretend = 0, frame = 0
 243              		@ frame_needed = 0, uses_anonymous_args = 0
 244              	.LVL10:
 245 0000 08B5     		push	{r3, lr}
 246              		.cfi_def_cfa_offset 8
 247              		.cfi_offset 3, -8
 248              		.cfi_offset 14, -4
 249              	.LBB285:
 250              	.LBB286:
 251              	.LBB287:
 252              	.LBB288:
 253              		.file 3 ".//os/common/ext/ARM/CMSIS/Core/Include/cmsis_gcc.h"
 254              		.loc 3 493 0
 255 0002 2023     		movs	r3, #32
 256              		.syntax unified
 257              	@ 493 ".//os/common/ext/ARM/CMSIS/Core/Include/cmsis_gcc.h" 1
 258 0004 83F31188 		MSR basepri, r3
 259              	@ 0 "" 2
 260              	.LVL11:
 261              		.thumb
 262              		.syntax unified
 263              	.LBE288:
 264              	.LBE287:
 265              	.LBE286:
 266              	.LBE285:
 267              		.loc 1 231 0
 268 0008 FFF7FEFF 		bl	chThdCreateSuspendedI
 269              	.LVL12:
 270              	.LBB289:
 271              	.LBB290:
 272              	.LBB291:
 273              	.LBB292:
 274              	.LBB293:
 275              		.loc 3 493 0
 276 000c 0023     		movs	r3, #0
 277              		.syntax unified
 278              	@ 493 ".//os/common/ext/ARM/CMSIS/Core/Include/cmsis_gcc.h" 1
 279 000e 83F31188 		MSR basepri, r3
 280              	@ 0 "" 2
 281              	.LVL13:
 282              		.thumb
 283              		.syntax unified
 284              	.LBE293:
 285              	.LBE292:
ARM GAS  C:\Users\14122\AppData\Local\Temp\cc5eq1Xn.s 			page 6


 286              	.LBE291:
 287              	.LBE290:
 288              	.LBE289:
 289              		.loc 1 235 0
 290 0012 08BD     		pop	{r3, pc}
 291              		.cfi_endproc
 292              	.LFE222:
 293              		.size	chThdCreateSuspended, .-chThdCreateSuspended
 294              		.section	.text.chThdCreateI,"ax",%progbits
 295              		.align	1
 296              		.p2align 4,,15
 297              		.global	chThdCreateI
 298              		.syntax unified
 299              		.thumb
 300              		.thumb_func
 301              		.fpu softvfp
 302              		.type	chThdCreateI, %function
 303              	chThdCreateI:
 304              	.LFB223:
 305              		.loc 1 259 0
 306              		.cfi_startproc
 307              		@ args = 0, pretend = 0, frame = 0
 308              		@ frame_needed = 0, uses_anonymous_args = 0
 309              	.LVL14:
 310 0000 08B5     		push	{r3, lr}
 311              		.cfi_def_cfa_offset 8
 312              		.cfi_offset 3, -8
 313              		.cfi_offset 14, -4
 314              		.loc 1 261 0
 315 0002 FFF7FEFF 		bl	chThdCreateSuspendedI
 316              	.LVL15:
 317              		.loc 1 262 0
 318 0006 BDE80840 		pop	{r3, lr}
 319              		.cfi_restore 14
 320              		.cfi_restore 3
 321              		.cfi_def_cfa_offset 0
 322              		.loc 1 261 0
 323 000a FFF7FEBF 		b	chSchReadyI
 324              	.LVL16:
 325              		.cfi_endproc
 326              	.LFE223:
 327              		.size	chThdCreateI, .-chThdCreateI
 328 000e 00BF     		.section	.text.chThdCreate,"ax",%progbits
 329              		.align	1
 330              		.p2align 4,,15
 331              		.global	chThdCreate
 332              		.syntax unified
 333              		.thumb
 334              		.thumb_func
 335              		.fpu softvfp
 336              		.type	chThdCreate, %function
 337              	chThdCreate:
 338              	.LFB224:
 339              		.loc 1 280 0
 340              		.cfi_startproc
 341              		@ args = 0, pretend = 0, frame = 0
 342              		@ frame_needed = 0, uses_anonymous_args = 0
ARM GAS  C:\Users\14122\AppData\Local\Temp\cc5eq1Xn.s 			page 7


 343              	.LVL17:
 344 0000 10B5     		push	{r4, lr}
 345              		.cfi_def_cfa_offset 8
 346              		.cfi_offset 4, -8
 347              		.cfi_offset 14, -4
 348              	.LBB294:
 349              	.LBB295:
 350              	.LBB296:
 351              	.LBB297:
 352              		.loc 3 493 0
 353 0002 2023     		movs	r3, #32
 354              		.syntax unified
 355              	@ 493 ".//os/common/ext/ARM/CMSIS/Core/Include/cmsis_gcc.h" 1
 356 0004 83F31188 		MSR basepri, r3
 357              	@ 0 "" 2
 358              	.LVL18:
 359              		.thumb
 360              		.syntax unified
 361              	.LBE297:
 362              	.LBE296:
 363              	.LBE295:
 364              	.LBE294:
 365              		.loc 1 296 0
 366 0008 FFF7FEFF 		bl	chThdCreateSuspendedI
 367              	.LVL19:
 368              		.loc 1 297 0
 369 000c 0021     		movs	r1, #0
 370              		.loc 1 296 0
 371 000e 0446     		mov	r4, r0
 372              	.LVL20:
 373              		.loc 1 297 0
 374 0010 FFF7FEFF 		bl	chSchWakeupS
 375              	.LVL21:
 376              	.LBB298:
 377              	.LBB299:
 378              	.LBB300:
 379              	.LBB301:
 380              	.LBB302:
 381              		.loc 3 493 0
 382 0014 0023     		movs	r3, #0
 383              		.syntax unified
 384              	@ 493 ".//os/common/ext/ARM/CMSIS/Core/Include/cmsis_gcc.h" 1
 385 0016 83F31188 		MSR basepri, r3
 386              	@ 0 "" 2
 387              	.LVL22:
 388              		.thumb
 389              		.syntax unified
 390              	.LBE302:
 391              	.LBE301:
 392              	.LBE300:
 393              	.LBE299:
 394              	.LBE298:
 395              		.loc 1 301 0
 396 001a 2046     		mov	r0, r4
 397 001c 10BD     		pop	{r4, pc}
 398              		.cfi_endproc
 399              	.LFE224:
ARM GAS  C:\Users\14122\AppData\Local\Temp\cc5eq1Xn.s 			page 8


 400              		.size	chThdCreate, .-chThdCreate
 401 001e 00BF     		.section	.text.chThdCreateStatic,"ax",%progbits
 402              		.align	1
 403              		.p2align 4,,15
 404              		.global	chThdCreateStatic
 405              		.syntax unified
 406              		.thumb
 407              		.thumb_func
 408              		.fpu softvfp
 409              		.type	chThdCreateStatic, %function
 410              	chThdCreateStatic:
 411              	.LFB225:
 412              		.loc 1 324 0
 413              		.cfi_startproc
 414              		@ args = 4, pretend = 0, frame = 0
 415              		@ frame_needed = 0, uses_anonymous_args = 0
 416              	.LVL23:
 417 0000 F8B5     		push	{r3, r4, r5, r6, r7, lr}
 418              		.cfi_def_cfa_offset 24
 419              		.cfi_offset 3, -24
 420              		.cfi_offset 4, -20
 421              		.cfi_offset 5, -16
 422              		.cfi_offset 6, -12
 423              		.cfi_offset 7, -8
 424              		.cfi_offset 14, -4
 425              		.loc 1 324 0
 426 0002 069F     		ldr	r7, [sp, #24]
 427              	.LBB303:
 428              	.LBB304:
 429              	.LBB305:
 430              	.LBB306:
 431              		.loc 3 493 0
 432 0004 2024     		movs	r4, #32
 433              		.syntax unified
 434              	@ 493 ".//os/common/ext/ARM/CMSIS/Core/Include/cmsis_gcc.h" 1
 435 0006 84F31188 		MSR basepri, r4
 436              	@ 0 "" 2
 437              	.LVL24:
 438              		.thumb
 439              		.syntax unified
 440              	.LBE306:
 441              	.LBE305:
 442              	.LBE304:
 443              	.LBE303:
 444              	.LBB307:
 445              	.LBB308:
 446              		.loc 1 91 0
 447 000a 4FF0020E 		mov	lr, #2
 448              		.loc 1 92 0
 449 000e 4FF0010C 		mov	ip, #1
 450              		.loc 1 98 0
 451 0012 0026     		movs	r6, #0
 452              	.LBE308:
 453              	.LBE307:
 454              		.loc 1 350 0
 455 0014 4839     		subs	r1, r1, #72
 456              	.LVL25:
ARM GAS  C:\Users\14122\AppData\Local\Temp\cc5eq1Xn.s 			page 9


 457 0016 4418     		adds	r4, r0, r1
 458              	.LVL26:
 459              	.LBB317:
 460              	.LBB311:
 461              		.loc 1 109 0
 462 0018 134D     		ldr	r5, .L18
 463              	.LBE311:
 464              	.LBE317:
 465              		.loc 1 359 0
 466 001a 44E90937 		strd	r3, r7, [r4, #-36]
 467              	.LBB318:
 468              	.LBB312:
 469              		.loc 1 90 0
 470 001e A260     		str	r2, [r4, #8]
 471              		.loc 1 97 0
 472 0020 E263     		str	r2, [r4, #60]
 473              	.LBE312:
 474              	.LBE318:
 475              		.loc 1 359 0
 476 0022 124B     		ldr	r3, .L18+4
 477              	.LVL27:
 478 0024 A4F12402 		sub	r2, r4, #36
 479              	.LVL28:
 480 0028 E260     		str	r2, [r4, #12]
 481              		.loc 1 355 0
 482 002a E061     		str	r0, [r4, #28]
 483              	.LBB319:
 484              	.LBB313:
 485              		.loc 1 109 0
 486 002c 6A69     		ldr	r2, [r5, #20]
 487              	.LVL29:
 488              		.loc 1 108 0
 489 002e 1048     		ldr	r0, .L18+8
 490              	.LVL30:
 491              	.LBE313:
 492              	.LBE319:
 493              		.loc 1 359 0
 494 0030 44F8043C 		str	r3, [r4, #-4]
 495              	.LVL31:
 496              	.LBB320:
 497              	.LBB314:
 498              		.loc 1 114 0
 499 0034 04F12801 		add	r1, r4, #40
 500              	.LVL32:
 501              		.loc 1 117 0
 502 0038 04F12C03 		add	r3, r4, #44
 503              		.loc 1 108 0
 504 003c A061     		str	r0, [r4, #24]
 505              		.loc 1 109 0
 506 003e C4E90452 		strd	r5, r2, [r4, #16]
 507              		.loc 1 91 0
 508 0042 A4F820E0 		strh	lr, [r4, #32]	@ movhi
 509              		.loc 1 92 0
 510 0046 84F822C0 		strb	ip, [r4, #34]
 511              		.loc 1 101 0
 512 004a C4E90D66 		strd	r6, r6, [r4, #52]
 513              	.LBE314:
ARM GAS  C:\Users\14122\AppData\Local\Temp\cc5eq1Xn.s 			page 10


 514              	.LBE320:
 515              		.loc 1 364 0
 516 004e 2046     		mov	r0, r4
 517              	.LBB321:
 518              	.LBB315:
 519              		.loc 1 109 0
 520 0050 1461     		str	r4, [r2, #16]
 521              	.LBB309:
 522              	.LBB310:
 523              		.loc 2 539 0
 524 0052 C4E90A13 		strd	r1, r3, [r4, #40]
 525              		.loc 2 540 0
 526 0056 2363     		str	r3, [r4, #48]
 527              	.LBE310:
 528              	.LBE309:
 529              	.LBE315:
 530              	.LBE321:
 531              		.loc 1 364 0
 532 0058 3146     		mov	r1, r6
 533              	.LBB322:
 534              	.LBB316:
 535              		.loc 1 109 0
 536 005a 6C61     		str	r4, [r5, #20]
 537              	.LVL33:
 538              	.LBE316:
 539              	.LBE322:
 540              		.loc 1 364 0
 541 005c FFF7FEFF 		bl	chSchWakeupS
 542              	.LVL34:
 543              	.LBB323:
 544              	.LBB324:
 545              	.LBB325:
 546              	.LBB326:
 547              	.LBB327:
 548              		.loc 3 493 0
 549              		.syntax unified
 550              	@ 493 ".//os/common/ext/ARM/CMSIS/Core/Include/cmsis_gcc.h" 1
 551 0060 86F31188 		MSR basepri, r6
 552              	@ 0 "" 2
 553              	.LVL35:
 554              		.thumb
 555              		.syntax unified
 556              	.LBE327:
 557              	.LBE326:
 558              	.LBE325:
 559              	.LBE324:
 560              	.LBE323:
 561              		.loc 1 368 0
 562 0064 2046     		mov	r0, r4
 563 0066 F8BD     		pop	{r3, r4, r5, r6, r7, pc}
 564              	.LVL36:
 565              	.L19:
 566              		.align	2
 567              	.L18:
 568 0068 00000000 		.word	ch
 569 006c 00000000 		.word	_port_thread_start
 570 0070 00000000 		.word	.LC0
ARM GAS  C:\Users\14122\AppData\Local\Temp\cc5eq1Xn.s 			page 11


 571              		.cfi_endproc
 572              	.LFE225:
 573              		.size	chThdCreateStatic, .-chThdCreateStatic
 574              		.section	.text.chThdStart,"ax",%progbits
 575              		.align	1
 576              		.p2align 4,,15
 577              		.global	chThdStart
 578              		.syntax unified
 579              		.thumb
 580              		.thumb_func
 581              		.fpu softvfp
 582              		.type	chThdStart, %function
 583              	chThdStart:
 584              	.LFB226:
 585              		.loc 1 379 0
 586              		.cfi_startproc
 587              		@ args = 0, pretend = 0, frame = 0
 588              		@ frame_needed = 0, uses_anonymous_args = 0
 589              	.LVL37:
 590 0000 10B5     		push	{r4, lr}
 591              		.cfi_def_cfa_offset 8
 592              		.cfi_offset 4, -8
 593              		.cfi_offset 14, -4
 594              	.LBB328:
 595              	.LBB329:
 596              	.LBB330:
 597              	.LBB331:
 598              		.loc 3 493 0
 599 0002 2023     		movs	r3, #32
 600              	.LBE331:
 601              	.LBE330:
 602              	.LBE329:
 603              	.LBE328:
 604              		.loc 1 379 0
 605 0004 0446     		mov	r4, r0
 606              	.LBB335:
 607              	.LBB334:
 608              	.LBB333:
 609              	.LBB332:
 610              		.loc 3 493 0
 611              		.syntax unified
 612              	@ 493 ".//os/common/ext/ARM/CMSIS/Core/Include/cmsis_gcc.h" 1
 613 0006 83F31188 		MSR basepri, r3
 614              	@ 0 "" 2
 615              	.LVL38:
 616              		.thumb
 617              		.syntax unified
 618              	.LBE332:
 619              	.LBE333:
 620              	.LBE334:
 621              	.LBE335:
 622              		.loc 1 383 0
 623 000a 0021     		movs	r1, #0
 624 000c FFF7FEFF 		bl	chSchWakeupS
 625              	.LVL39:
 626              	.LBB336:
 627              	.LBB337:
ARM GAS  C:\Users\14122\AppData\Local\Temp\cc5eq1Xn.s 			page 12


 628              	.LBB338:
 629              	.LBB339:
 630              	.LBB340:
 631              		.loc 3 493 0
 632 0010 0023     		movs	r3, #0
 633              		.syntax unified
 634              	@ 493 ".//os/common/ext/ARM/CMSIS/Core/Include/cmsis_gcc.h" 1
 635 0012 83F31188 		MSR basepri, r3
 636              	@ 0 "" 2
 637              	.LVL40:
 638              		.thumb
 639              		.syntax unified
 640              	.LBE340:
 641              	.LBE339:
 642              	.LBE338:
 643              	.LBE337:
 644              	.LBE336:
 645              		.loc 1 387 0
 646 0016 2046     		mov	r0, r4
 647 0018 10BD     		pop	{r4, pc}
 648              		.cfi_endproc
 649              	.LFE226:
 650              		.size	chThdStart, .-chThdStart
 651 001a 00BF     		.section	.text.chThdAddRef,"ax",%progbits
 652              		.align	1
 653              		.p2align 4,,15
 654              		.global	chThdAddRef
 655              		.syntax unified
 656              		.thumb
 657              		.thumb_func
 658              		.fpu softvfp
 659              		.type	chThdAddRef, %function
 660              	chThdAddRef:
 661              	.LFB227:
 662              		.loc 1 401 0
 663              		.cfi_startproc
 664              		@ args = 0, pretend = 0, frame = 0
 665              		@ frame_needed = 0, uses_anonymous_args = 0
 666              		@ link register save eliminated.
 667              	.LVL41:
 668              	.LBB341:
 669              	.LBB342:
 670              	.LBB343:
 671              	.LBB344:
 672              		.loc 3 493 0
 673 0000 2023     		movs	r3, #32
 674              		.syntax unified
 675              	@ 493 ".//os/common/ext/ARM/CMSIS/Core/Include/cmsis_gcc.h" 1
 676 0002 83F31188 		MSR basepri, r3
 677              	@ 0 "" 2
 678              	.LVL42:
 679              		.thumb
 680              		.syntax unified
 681              	.LBE344:
 682              	.LBE343:
 683              	.LBE342:
 684              	.LBE341:
ARM GAS  C:\Users\14122\AppData\Local\Temp\cc5eq1Xn.s 			page 13


 685              		.loc 1 405 0
 686 0006 90F82230 		ldrb	r3, [r0, #34]	@ zero_extendqisi2
 687              	.LBB345:
 688              	.LBB346:
 689              	.LBB347:
 690              	.LBB348:
 691              	.LBB349:
 692              		.loc 3 493 0
 693 000a 0021     		movs	r1, #0
 694              	.LBE349:
 695              	.LBE348:
 696              	.LBE347:
 697              	.LBE346:
 698              	.LBE345:
 699              		.loc 1 405 0
 700 000c 0133     		adds	r3, r3, #1
 701 000e 80F82230 		strb	r3, [r0, #34]
 702              	.LVL43:
 703              	.LBB354:
 704              	.LBB353:
 705              	.LBB352:
 706              	.LBB351:
 707              	.LBB350:
 708              		.loc 3 493 0
 709              		.syntax unified
 710              	@ 493 ".//os/common/ext/ARM/CMSIS/Core/Include/cmsis_gcc.h" 1
 711 0012 81F31188 		MSR basepri, r1
 712              	@ 0 "" 2
 713              	.LVL44:
 714              		.thumb
 715              		.syntax unified
 716              	.LBE350:
 717              	.LBE351:
 718              	.LBE352:
 719              	.LBE353:
 720              	.LBE354:
 721              		.loc 1 409 0
 722 0016 7047     		bx	lr
 723              		.cfi_endproc
 724              	.LFE227:
 725              		.size	chThdAddRef, .-chThdAddRef
 726              		.section	.text.chThdRelease,"ax",%progbits
 727              		.align	1
 728              		.p2align 4,,15
 729              		.global	chThdRelease
 730              		.syntax unified
 731              		.thumb
 732              		.thumb_func
 733              		.fpu softvfp
 734              		.type	chThdRelease, %function
 735              	chThdRelease:
 736              	.LFB228:
 737              		.loc 1 427 0
 738              		.cfi_startproc
 739              		@ args = 0, pretend = 0, frame = 0
 740              		@ frame_needed = 0, uses_anonymous_args = 0
 741              		@ link register save eliminated.
ARM GAS  C:\Users\14122\AppData\Local\Temp\cc5eq1Xn.s 			page 14


 742              	.LVL45:
 743              	.LBB389:
 744              	.LBB390:
 745              	.LBB391:
 746              	.LBB392:
 747              		.loc 3 493 0
 748 0000 2023     		movs	r3, #32
 749              		.syntax unified
 750              	@ 493 ".//os/common/ext/ARM/CMSIS/Core/Include/cmsis_gcc.h" 1
 751 0002 83F31188 		MSR basepri, r3
 752              	@ 0 "" 2
 753              	.LVL46:
 754              		.thumb
 755              		.syntax unified
 756              	.LBE392:
 757              	.LBE391:
 758              	.LBE390:
 759              	.LBE389:
 760              		.loc 1 431 0
 761 0006 90F82230 		ldrb	r3, [r0, #34]	@ zero_extendqisi2
 762 000a 013B     		subs	r3, r3, #1
 763 000c 80F82230 		strb	r3, [r0, #34]
 764              		.loc 1 436 0
 765 0010 036A     		ldr	r3, [r0, #32]
 766 0012 03F0FF13 		and	r3, r3, #16711935
 767 0016 0F2B     		cmp	r3, #15
 768 0018 03D0     		beq	.L28
 769              	.LVL47:
 770              	.LBB393:
 771              	.LBB394:
 772              	.LBB395:
 773              	.LBB396:
 774              	.LBB397:
 775              		.loc 3 493 0
 776 001a 0023     		movs	r3, #0
 777              		.syntax unified
 778              	@ 493 ".//os/common/ext/ARM/CMSIS/Core/Include/cmsis_gcc.h" 1
 779 001c 83F31188 		MSR basepri, r3
 780              	@ 0 "" 2
 781              	.LVL48:
 782              		.thumb
 783              		.syntax unified
 784              	.LBE397:
 785              	.LBE396:
 786              	.LBE395:
 787              	.LBE394:
 788              	.LBE393:
 789              		.loc 1 460 0
 790 0020 7047     		bx	lr
 791              	.L28:
 792              		.loc 1 437 0
 793 0022 D0E90413 		ldrd	r1, r3, [r0, #16]
 794 0026 1961     		str	r1, [r3, #16]
 795 0028 0169     		ldr	r1, [r0, #16]
 796              	.LBB398:
 797              	.LBB399:
 798              	.LBB400:
ARM GAS  C:\Users\14122\AppData\Local\Temp\cc5eq1Xn.s 			page 15


 799              	.LBB401:
 800              	.LBB402:
 801              		.loc 3 493 0
 802 002a 0022     		movs	r2, #0
 803              	.LBE402:
 804              	.LBE401:
 805              	.LBE400:
 806              	.LBE399:
 807              	.LBE398:
 808              		.loc 1 437 0
 809 002c 4B61     		str	r3, [r1, #20]
 810              	.LVL49:
 811              	.LBB407:
 812              	.LBB406:
 813              	.LBB405:
 814              	.LBB404:
 815              	.LBB403:
 816              		.loc 3 493 0
 817              		.syntax unified
 818              	@ 493 ".//os/common/ext/ARM/CMSIS/Core/Include/cmsis_gcc.h" 1
 819 002e 82F31188 		MSR basepri, r2
 820              	@ 0 "" 2
 821              	.LVL50:
 822              		.thumb
 823              		.syntax unified
 824              	.LBE403:
 825              	.LBE404:
 826              	.LBE405:
 827              	.LBE406:
 828              	.LBE407:
 829              		.loc 1 441 0
 830 0032 90F82130 		ldrb	r3, [r0, #33]	@ zero_extendqisi2
 831 0036 03F00303 		and	r3, r3, #3
 832 003a 012B     		cmp	r3, #1
 833 003c 06D0     		beq	.L26
 834 003e 022B     		cmp	r3, #2
 835 0040 03D1     		bne	.L29
 836              	.LVL51:
 837              	.LBB408:
 838              	.LBB409:
 839              		.loc 1 449 0
 840 0042 C169     		ldr	r1, [r0, #28]
 841 0044 006C     		ldr	r0, [r0, #64]
 842              	.LVL52:
 843 0046 FFF7FEBF 		b	chPoolFree
 844              	.LVL53:
 845              	.L29:
 846 004a 7047     		bx	lr
 847              	.L26:
 848              	.LVL54:
 849              	.LBE409:
 850              	.LBE408:
 851              		.loc 1 444 0
 852 004c C069     		ldr	r0, [r0, #28]
 853              	.LVL55:
 854 004e FFF7FEBF 		b	chHeapFree
 855              	.LVL56:
ARM GAS  C:\Users\14122\AppData\Local\Temp\cc5eq1Xn.s 			page 16


 856              		.cfi_endproc
 857              	.LFE228:
 858              		.size	chThdRelease, .-chThdRelease
 859 0052 00BF     		.section	.text.chThdExitS,"ax",%progbits
 860              		.align	1
 861              		.p2align 4,,15
 862              		.global	chThdExitS
 863              		.syntax unified
 864              		.thumb
 865              		.thumb_func
 866              		.fpu softvfp
 867              		.type	chThdExitS, %function
 868              	chThdExitS:
 869              	.LFB230:
 870              		.loc 1 501 0
 871              		.cfi_startproc
 872              		@ args = 0, pretend = 0, frame = 0
 873              		@ frame_needed = 0, uses_anonymous_args = 0
 874              	.LVL57:
 875 0000 38B5     		push	{r3, r4, r5, lr}
 876              		.cfi_def_cfa_offset 16
 877              		.cfi_offset 3, -16
 878              		.cfi_offset 4, -12
 879              		.cfi_offset 5, -8
 880              		.cfi_offset 14, -4
 881              		.loc 1 502 0
 882 0002 104B     		ldr	r3, .L36
 883 0004 9C69     		ldr	r4, [r3, #24]
 884              	.LVL58:
 885              	.LBB410:
 886              	.LBB411:
 887              		.loc 2 527 0
 888 0006 A36A     		ldr	r3, [r4, #40]
 889              	.LBE411:
 890              	.LBE410:
 891              		.loc 1 512 0
 892 0008 04F12805 		add	r5, r4, #40
 893 000c AB42     		cmp	r3, r5
 894              		.loc 1 505 0
 895 000e 6062     		str	r0, [r4, #36]
 896              		.loc 1 512 0
 897 0010 07D0     		beq	.L31
 898              	.LVL59:
 899              	.L32:
 900              	.LBB413:
 901              	.LBB414:
 902              		.loc 2 581 0
 903 0012 1A68     		ldr	r2, [r3]
 904              	.LBE414:
 905              	.LBE413:
 906              		.loc 1 513 0
 907 0014 1846     		mov	r0, r3
 908              	.LBB416:
 909              	.LBB415:
 910              		.loc 2 581 0
 911 0016 A262     		str	r2, [r4, #40]
 912              	.LVL60:
ARM GAS  C:\Users\14122\AppData\Local\Temp\cc5eq1Xn.s 			page 17


 913              	.LBE415:
 914              	.LBE416:
 915              		.loc 1 513 0
 916 0018 FFF7FEFF 		bl	chSchReadyI
 917              	.LVL61:
 918              	.LBB417:
 919              	.LBB412:
 920              		.loc 2 527 0
 921 001c A36A     		ldr	r3, [r4, #40]
 922              	.LVL62:
 923              	.LBE412:
 924              	.LBE417:
 925              		.loc 1 512 0
 926 001e AB42     		cmp	r3, r5
 927 0020 F7D1     		bne	.L32
 928              	.L31:
 929              		.loc 1 521 0
 930 0022 94F82230 		ldrb	r3, [r4, #34]	@ zero_extendqisi2
 931 0026 43B9     		cbnz	r3, .L33
 932              		.loc 1 521 0 is_stmt 0 discriminator 1
 933 0028 94F82130 		ldrb	r3, [r4, #33]	@ zero_extendqisi2
 934 002c 9B07     		lsls	r3, r3, #30
 935 002e 04D1     		bne	.L33
 936              		.loc 1 523 0 is_stmt 1
 937 0030 D4E90423 		ldrd	r2, r3, [r4, #16]
 938 0034 1A61     		str	r2, [r3, #16]
 939 0036 2269     		ldr	r2, [r4, #16]
 940 0038 5361     		str	r3, [r2, #20]
 941              	.L33:
 942              		.loc 1 533 0
 943 003a 0F20     		movs	r0, #15
 944              		.loc 1 537 0
 945 003c BDE83840 		pop	{r3, r4, r5, lr}
 946              		.cfi_restore 14
 947              		.cfi_restore 5
 948              		.cfi_restore 4
 949              		.cfi_restore 3
 950              		.cfi_def_cfa_offset 0
 951              	.LVL63:
 952              		.loc 1 533 0
 953 0040 FFF7FEBF 		b	chSchGoSleepS
 954              	.LVL64:
 955              	.L37:
 956              		.align	2
 957              	.L36:
 958 0044 00000000 		.word	ch
 959              		.cfi_endproc
 960              	.LFE230:
 961              		.size	chThdExitS, .-chThdExitS
 962              		.section	.text.chThdExit,"ax",%progbits
 963              		.align	1
 964              		.p2align 4,,15
 965              		.global	chThdExit
 966              		.syntax unified
 967              		.thumb
 968              		.thumb_func
 969              		.fpu softvfp
ARM GAS  C:\Users\14122\AppData\Local\Temp\cc5eq1Xn.s 			page 18


 970              		.type	chThdExit, %function
 971              	chThdExit:
 972              	.LFB229:
 973              		.loc 1 477 0
 974              		.cfi_startproc
 975              		@ args = 0, pretend = 0, frame = 0
 976              		@ frame_needed = 0, uses_anonymous_args = 0
 977              		@ link register save eliminated.
 978              	.LVL65:
 979              	.LBB418:
 980              	.LBB419:
 981              	.LBB420:
 982              	.LBB421:
 983              		.loc 3 493 0
 984 0000 2023     		movs	r3, #32
 985              		.syntax unified
 986              	@ 493 ".//os/common/ext/ARM/CMSIS/Core/Include/cmsis_gcc.h" 1
 987 0002 83F31188 		MSR basepri, r3
 988              	@ 0 "" 2
 989              	.LVL66:
 990              		.thumb
 991              		.syntax unified
 992              	.LBE421:
 993              	.LBE420:
 994              	.LBE419:
 995              	.LBE418:
 996              		.loc 1 480 0
 997 0006 FFF7FEBF 		b	chThdExitS
 998              	.LVL67:
 999              		.cfi_endproc
 1000              	.LFE229:
 1001              		.size	chThdExit, .-chThdExit
 1002 000a 00BF     		.section	.text.chThdWait,"ax",%progbits
 1003              		.align	1
 1004              		.p2align 4,,15
 1005              		.global	chThdWait
 1006              		.syntax unified
 1007              		.thumb
 1008              		.thumb_func
 1009              		.fpu softvfp
 1010              		.type	chThdWait, %function
 1011              	chThdWait:
 1012              	.LFB231:
 1013              		.loc 1 559 0
 1014              		.cfi_startproc
 1015              		@ args = 0, pretend = 0, frame = 0
 1016              		@ frame_needed = 0, uses_anonymous_args = 0
 1017              	.LVL68:
 1018 0000 38B5     		push	{r3, r4, r5, lr}
 1019              		.cfi_def_cfa_offset 16
 1020              		.cfi_offset 3, -16
 1021              		.cfi_offset 4, -12
 1022              		.cfi_offset 5, -8
 1023              		.cfi_offset 14, -4
 1024              		.loc 1 559 0
 1025 0002 0446     		mov	r4, r0
 1026              	.LBB422:
ARM GAS  C:\Users\14122\AppData\Local\Temp\cc5eq1Xn.s 			page 19


 1027              	.LBB423:
 1028              	.LBB424:
 1029              	.LBB425:
 1030              		.loc 3 493 0
 1031 0004 2023     		movs	r3, #32
 1032              		.syntax unified
 1033              	@ 493 ".//os/common/ext/ARM/CMSIS/Core/Include/cmsis_gcc.h" 1
 1034 0006 83F31188 		MSR basepri, r3
 1035              	@ 0 "" 2
 1036              	.LVL69:
 1037              		.thumb
 1038              		.syntax unified
 1039              	.LBE425:
 1040              	.LBE424:
 1041              	.LBE423:
 1042              	.LBE422:
 1043              		.loc 1 570 0
 1044 000a 90F82030 		ldrb	r3, [r0, #32]	@ zero_extendqisi2
 1045 000e 0F2B     		cmp	r3, #15
 1046 0010 07D0     		beq	.L40
 1047              		.loc 1 571 0
 1048 0012 084B     		ldr	r3, .L45
 1049              	.LBB426:
 1050              	.LBB427:
 1051              		.loc 2 574 0
 1052 0014 826A     		ldr	r2, [r0, #40]
 1053              	.LBE427:
 1054              	.LBE426:
 1055              		.loc 1 571 0
 1056 0016 9B69     		ldr	r3, [r3, #24]
 1057              	.LVL70:
 1058              		.loc 1 572 0
 1059 0018 0920     		movs	r0, #9
 1060              	.LVL71:
 1061              	.LBB429:
 1062              	.LBB428:
 1063              		.loc 2 574 0
 1064 001a 1A60     		str	r2, [r3]
 1065              		.loc 2 575 0
 1066 001c A362     		str	r3, [r4, #40]
 1067              	.LVL72:
 1068              	.LBE428:
 1069              	.LBE429:
 1070              		.loc 1 572 0
 1071 001e FFF7FEFF 		bl	chSchGoSleepS
 1072              	.LVL73:
 1073              	.L40:
 1074              		.loc 1 574 0
 1075 0022 656A     		ldr	r5, [r4, #36]
 1076              	.LVL74:
 1077              	.LBB430:
 1078              	.LBB431:
 1079              	.LBB432:
 1080              	.LBB433:
 1081              	.LBB434:
 1082              		.loc 3 493 0
 1083 0024 0023     		movs	r3, #0
ARM GAS  C:\Users\14122\AppData\Local\Temp\cc5eq1Xn.s 			page 20


 1084              		.syntax unified
 1085              	@ 493 ".//os/common/ext/ARM/CMSIS/Core/Include/cmsis_gcc.h" 1
 1086 0026 83F31188 		MSR basepri, r3
 1087              	@ 0 "" 2
 1088              	.LVL75:
 1089              		.thumb
 1090              		.syntax unified
 1091              	.LBE434:
 1092              	.LBE433:
 1093              	.LBE432:
 1094              	.LBE431:
 1095              	.LBE430:
 1096              		.loc 1 579 0
 1097 002a 2046     		mov	r0, r4
 1098 002c FFF7FEFF 		bl	chThdRelease
 1099              	.LVL76:
 1100              		.loc 1 583 0
 1101 0030 2846     		mov	r0, r5
 1102 0032 38BD     		pop	{r3, r4, r5, pc}
 1103              	.LVL77:
 1104              	.L46:
 1105              		.align	2
 1106              	.L45:
 1107 0034 00000000 		.word	ch
 1108              		.cfi_endproc
 1109              	.LFE231:
 1110              		.size	chThdWait, .-chThdWait
 1111              		.section	.text.chThdSetPriority,"ax",%progbits
 1112              		.align	1
 1113              		.p2align 4,,15
 1114              		.global	chThdSetPriority
 1115              		.syntax unified
 1116              		.thumb
 1117              		.thumb_func
 1118              		.fpu softvfp
 1119              		.type	chThdSetPriority, %function
 1120              	chThdSetPriority:
 1121              	.LFB232:
 1122              		.loc 1 598 0
 1123              		.cfi_startproc
 1124              		@ args = 0, pretend = 0, frame = 0
 1125              		@ frame_needed = 0, uses_anonymous_args = 0
 1126              	.LVL78:
 1127 0000 10B5     		push	{r4, lr}
 1128              		.cfi_def_cfa_offset 8
 1129              		.cfi_offset 4, -8
 1130              		.cfi_offset 14, -4
 1131              	.LBB435:
 1132              	.LBB436:
 1133              	.LBB437:
 1134              	.LBB438:
 1135              		.loc 3 493 0
 1136 0002 2023     		movs	r3, #32
 1137              		.syntax unified
 1138              	@ 493 ".//os/common/ext/ARM/CMSIS/Core/Include/cmsis_gcc.h" 1
 1139 0004 83F31188 		MSR basepri, r3
 1140              	@ 0 "" 2
ARM GAS  C:\Users\14122\AppData\Local\Temp\cc5eq1Xn.s 			page 21


 1141              	.LVL79:
 1142              		.thumb
 1143              		.syntax unified
 1144              	.LBE438:
 1145              	.LBE437:
 1146              	.LBE436:
 1147              	.LBE435:
 1148              		.loc 1 605 0
 1149 0008 084B     		ldr	r3, .L51
 1150 000a 9B69     		ldr	r3, [r3, #24]
 1151 000c DC6B     		ldr	r4, [r3, #60]
 1152              	.LVL80:
 1153              		.loc 1 606 0
 1154 000e 9968     		ldr	r1, [r3, #8]
 1155 0010 A142     		cmp	r1, r4
 1156 0012 01D0     		beq	.L48
 1157              		.loc 1 606 0 is_stmt 0 discriminator 1
 1158 0014 8142     		cmp	r1, r0
 1159 0016 00D2     		bcs	.L49
 1160              	.L48:
 1161              		.loc 1 607 0 is_stmt 1
 1162 0018 9860     		str	r0, [r3, #8]
 1163              	.L49:
 1164              		.loc 1 609 0
 1165 001a D863     		str	r0, [r3, #60]
 1166              		.loc 1 614 0
 1167 001c FFF7FEFF 		bl	chSchRescheduleS
 1168              	.LVL81:
 1169              	.LBB439:
 1170              	.LBB440:
 1171              	.LBB441:
 1172              	.LBB442:
 1173              	.LBB443:
 1174              		.loc 3 493 0
 1175 0020 0023     		movs	r3, #0
 1176              		.syntax unified
 1177              	@ 493 ".//os/common/ext/ARM/CMSIS/Core/Include/cmsis_gcc.h" 1
 1178 0022 83F31188 		MSR basepri, r3
 1179              	@ 0 "" 2
 1180              	.LVL82:
 1181              		.thumb
 1182              		.syntax unified
 1183              	.LBE443:
 1184              	.LBE442:
 1185              	.LBE441:
 1186              	.LBE440:
 1187              	.LBE439:
 1188              		.loc 1 618 0
 1189 0026 2046     		mov	r0, r4
 1190 0028 10BD     		pop	{r4, pc}
 1191              	.LVL83:
 1192              	.L52:
 1193 002a 00BF     		.align	2
 1194              	.L51:
 1195 002c 00000000 		.word	ch
 1196              		.cfi_endproc
 1197              	.LFE232:
ARM GAS  C:\Users\14122\AppData\Local\Temp\cc5eq1Xn.s 			page 22


 1198              		.size	chThdSetPriority, .-chThdSetPriority
 1199              		.section	.text.chThdTerminate,"ax",%progbits
 1200              		.align	1
 1201              		.p2align 4,,15
 1202              		.global	chThdTerminate
 1203              		.syntax unified
 1204              		.thumb
 1205              		.thumb_func
 1206              		.fpu softvfp
 1207              		.type	chThdTerminate, %function
 1208              	chThdTerminate:
 1209              	.LFB233:
 1210              		.loc 1 632 0
 1211              		.cfi_startproc
 1212              		@ args = 0, pretend = 0, frame = 0
 1213              		@ frame_needed = 0, uses_anonymous_args = 0
 1214              		@ link register save eliminated.
 1215              	.LVL84:
 1216              	.LBB444:
 1217              	.LBB445:
 1218              	.LBB446:
 1219              	.LBB447:
 1220              		.loc 3 493 0
 1221 0000 2023     		movs	r3, #32
 1222              		.syntax unified
 1223              	@ 493 ".//os/common/ext/ARM/CMSIS/Core/Include/cmsis_gcc.h" 1
 1224 0002 83F31188 		MSR basepri, r3
 1225              	@ 0 "" 2
 1226              	.LVL85:
 1227              		.thumb
 1228              		.syntax unified
 1229              	.LBE447:
 1230              	.LBE446:
 1231              	.LBE445:
 1232              	.LBE444:
 1233              		.loc 1 635 0
 1234 0006 90F82130 		ldrb	r3, [r0, #33]	@ zero_extendqisi2
 1235              	.LBB448:
 1236              	.LBB449:
 1237              	.LBB450:
 1238              	.LBB451:
 1239              	.LBB452:
 1240              		.loc 3 493 0
 1241 000a 0022     		movs	r2, #0
 1242              	.LBE452:
 1243              	.LBE451:
 1244              	.LBE450:
 1245              	.LBE449:
 1246              	.LBE448:
 1247              		.loc 1 635 0
 1248 000c 43F00403 		orr	r3, r3, #4
 1249 0010 80F82130 		strb	r3, [r0, #33]
 1250              	.LVL86:
 1251              	.LBB457:
 1252              	.LBB456:
 1253              	.LBB455:
 1254              	.LBB454:
ARM GAS  C:\Users\14122\AppData\Local\Temp\cc5eq1Xn.s 			page 23


 1255              	.LBB453:
 1256              		.loc 3 493 0
 1257              		.syntax unified
 1258              	@ 493 ".//os/common/ext/ARM/CMSIS/Core/Include/cmsis_gcc.h" 1
 1259 0014 82F31188 		MSR basepri, r2
 1260              	@ 0 "" 2
 1261              	.LVL87:
 1262              		.thumb
 1263              		.syntax unified
 1264              	.LBE453:
 1265              	.LBE454:
 1266              	.LBE455:
 1267              	.LBE456:
 1268              	.LBE457:
 1269              		.loc 1 637 0
 1270 0018 7047     		bx	lr
 1271              		.cfi_endproc
 1272              	.LFE233:
 1273              		.size	chThdTerminate, .-chThdTerminate
 1274 001a 00BF     		.section	.text.chThdSleep,"ax",%progbits
 1275              		.align	1
 1276              		.p2align 4,,15
 1277              		.global	chThdSleep
 1278              		.syntax unified
 1279              		.thumb
 1280              		.thumb_func
 1281              		.fpu softvfp
 1282              		.type	chThdSleep, %function
 1283              	chThdSleep:
 1284              	.LFB234:
 1285              		.loc 1 651 0
 1286              		.cfi_startproc
 1287              		@ args = 0, pretend = 0, frame = 0
 1288              		@ frame_needed = 0, uses_anonymous_args = 0
 1289              	.LVL88:
 1290 0000 08B5     		push	{r3, lr}
 1291              		.cfi_def_cfa_offset 8
 1292              		.cfi_offset 3, -8
 1293              		.cfi_offset 14, -4
 1294              		.loc 1 651 0
 1295 0002 0146     		mov	r1, r0
 1296              	.LBB458:
 1297              	.LBB459:
 1298              	.LBB460:
 1299              	.LBB461:
 1300              		.loc 3 493 0
 1301 0004 2023     		movs	r3, #32
 1302              		.syntax unified
 1303              	@ 493 ".//os/common/ext/ARM/CMSIS/Core/Include/cmsis_gcc.h" 1
 1304 0006 83F31188 		MSR basepri, r3
 1305              	@ 0 "" 2
 1306              	.LVL89:
 1307              		.thumb
 1308              		.syntax unified
 1309              	.LBE461:
 1310              	.LBE460:
 1311              	.LBE459:
ARM GAS  C:\Users\14122\AppData\Local\Temp\cc5eq1Xn.s 			page 24


 1312              	.LBE458:
 1313              	.LBB462:
 1314              	.LBB463:
 1315              		.file 4 ".//os/rt/include/chthreads.h"
 1316              		.loc 4 382 0
 1317 000a 0820     		movs	r0, #8
 1318              	.LVL90:
 1319 000c FFF7FEFF 		bl	chSchGoSleepTimeoutS
 1320              	.LVL91:
 1321              	.LBE463:
 1322              	.LBE462:
 1323              	.LBB464:
 1324              	.LBB465:
 1325              	.LBB466:
 1326              	.LBB467:
 1327              	.LBB468:
 1328              		.loc 3 493 0
 1329 0010 0023     		movs	r3, #0
 1330              		.syntax unified
 1331              	@ 493 ".//os/common/ext/ARM/CMSIS/Core/Include/cmsis_gcc.h" 1
 1332 0012 83F31188 		MSR basepri, r3
 1333              	@ 0 "" 2
 1334              	.LVL92:
 1335              		.thumb
 1336              		.syntax unified
 1337              	.LBE468:
 1338              	.LBE467:
 1339              	.LBE466:
 1340              	.LBE465:
 1341              	.LBE464:
 1342              		.loc 1 656 0
 1343 0016 08BD     		pop	{r3, pc}
 1344              		.cfi_endproc
 1345              	.LFE234:
 1346              		.size	chThdSleep, .-chThdSleep
 1347              		.section	.text.chThdSleepUntil,"ax",%progbits
 1348              		.align	1
 1349              		.p2align 4,,15
 1350              		.global	chThdSleepUntil
 1351              		.syntax unified
 1352              		.thumb
 1353              		.thumb_func
 1354              		.fpu softvfp
 1355              		.type	chThdSleepUntil, %function
 1356              	chThdSleepUntil:
 1357              	.LFB235:
 1358              		.loc 1 671 0
 1359              		.cfi_startproc
 1360              		@ args = 0, pretend = 0, frame = 0
 1361              		@ frame_needed = 0, uses_anonymous_args = 0
 1362              	.LVL93:
 1363 0000 08B5     		push	{r3, lr}
 1364              		.cfi_def_cfa_offset 8
 1365              		.cfi_offset 3, -8
 1366              		.cfi_offset 14, -4
 1367              	.LBB469:
 1368              	.LBB470:
ARM GAS  C:\Users\14122\AppData\Local\Temp\cc5eq1Xn.s 			page 25


 1369              	.LBB471:
 1370              	.LBB472:
 1371              		.loc 3 493 0
 1372 0002 2023     		movs	r3, #32
 1373              		.syntax unified
 1374              	@ 493 ".//os/common/ext/ARM/CMSIS/Core/Include/cmsis_gcc.h" 1
 1375 0004 83F31188 		MSR basepri, r3
 1376              	@ 0 "" 2
 1377              	.LVL94:
 1378              		.thumb
 1379              		.syntax unified
 1380              	.LBE472:
 1381              	.LBE471:
 1382              	.LBE470:
 1383              	.LBE469:
 1384              	.LBB473:
 1385              	.LBB474:
 1386              	.LBB475:
 1387              	.LBB476:
 1388              		.file 5 ".//os/hal/ports/STM32/LLD/TIMv1/hal_st_lld.h"
 1389              		.loc 5 141 0
 1390 0008 4FF08043 		mov	r3, #1073741824
 1391 000c 596A     		ldr	r1, [r3, #36]
 1392              	.LVL95:
 1393              	.LBE476:
 1394              	.LBE475:
 1395              	.LBE474:
 1396              	.LBE473:
 1397              	.LBB477:
 1398              	.LBB478:
 1399              		.file 6 ".//os/rt/include/chtime.h"
 1400              		.loc 6 464 0
 1401 000e 411A     		subs	r1, r0, r1
 1402 0010 89B2     		uxth	r1, r1
 1403              	.LVL96:
 1404              	.LBE478:
 1405              	.LBE477:
 1406              		.loc 1 676 0
 1407 0012 11B1     		cbz	r1, .L57
 1408              	.LVL97:
 1409              	.LBB479:
 1410              	.LBB480:
 1411              		.loc 4 382 0
 1412 0014 0820     		movs	r0, #8
 1413              	.LVL98:
 1414 0016 FFF7FEFF 		bl	chSchGoSleepTimeoutS
 1415              	.LVL99:
 1416              	.L57:
 1417              	.LBE480:
 1418              	.LBE479:
 1419              	.LBB481:
 1420              	.LBB482:
 1421              	.LBB483:
 1422              	.LBB484:
 1423              	.LBB485:
 1424              		.loc 3 493 0
 1425 001a 0023     		movs	r3, #0
ARM GAS  C:\Users\14122\AppData\Local\Temp\cc5eq1Xn.s 			page 26


 1426              		.syntax unified
 1427              	@ 493 ".//os/common/ext/ARM/CMSIS/Core/Include/cmsis_gcc.h" 1
 1428 001c 83F31188 		MSR basepri, r3
 1429              	@ 0 "" 2
 1430              	.LVL100:
 1431              		.thumb
 1432              		.syntax unified
 1433              	.LBE485:
 1434              	.LBE484:
 1435              	.LBE483:
 1436              	.LBE482:
 1437              	.LBE481:
 1438              		.loc 1 680 0
 1439 0020 08BD     		pop	{r3, pc}
 1440              		.cfi_endproc
 1441              	.LFE235:
 1442              		.size	chThdSleepUntil, .-chThdSleepUntil
 1443 0022 00BF     		.section	.text.chThdSleepUntilWindowed,"ax",%progbits
 1444              		.align	1
 1445              		.p2align 4,,15
 1446              		.global	chThdSleepUntilWindowed
 1447              		.syntax unified
 1448              		.thumb
 1449              		.thumb_func
 1450              		.fpu softvfp
 1451              		.type	chThdSleepUntilWindowed, %function
 1452              	chThdSleepUntilWindowed:
 1453              	.LFB236:
 1454              		.loc 1 696 0
 1455              		.cfi_startproc
 1456              		@ args = 0, pretend = 0, frame = 0
 1457              		@ frame_needed = 0, uses_anonymous_args = 0
 1458              	.LVL101:
 1459 0000 10B5     		push	{r4, lr}
 1460              		.cfi_def_cfa_offset 8
 1461              		.cfi_offset 4, -8
 1462              		.cfi_offset 14, -4
 1463              	.LBB486:
 1464              	.LBB487:
 1465              	.LBB488:
 1466              	.LBB489:
 1467              		.loc 3 493 0
 1468 0002 2023     		movs	r3, #32
 1469              	.LBE489:
 1470              	.LBE488:
 1471              	.LBE487:
 1472              	.LBE486:
 1473              		.loc 1 696 0
 1474 0004 0C46     		mov	r4, r1
 1475              	.LBB493:
 1476              	.LBB492:
 1477              	.LBB491:
 1478              	.LBB490:
 1479              		.loc 3 493 0
 1480              		.syntax unified
 1481              	@ 493 ".//os/common/ext/ARM/CMSIS/Core/Include/cmsis_gcc.h" 1
 1482 0006 83F31188 		MSR basepri, r3
ARM GAS  C:\Users\14122\AppData\Local\Temp\cc5eq1Xn.s 			page 27


 1483              	@ 0 "" 2
 1484              	.LVL102:
 1485              		.thumb
 1486              		.syntax unified
 1487              	.LBE490:
 1488              	.LBE491:
 1489              	.LBE492:
 1490              	.LBE493:
 1491              	.LBB494:
 1492              	.LBB495:
 1493              	.LBB496:
 1494              	.LBB497:
 1495              		.loc 5 141 0
 1496 000a 4FF08043 		mov	r3, #1073741824
 1497 000e 596A     		ldr	r1, [r3, #36]
 1498              	.LVL103:
 1499              	.LBE497:
 1500              	.LBE496:
 1501              	.LBE495:
 1502              	.LBE494:
 1503              	.LBB498:
 1504              	.LBB499:
 1505              		.loc 6 485 0
 1506 0010 221A     		subs	r2, r4, r0
 1507 0012 8BB2     		uxth	r3, r1
 1508 0014 181A     		subs	r0, r3, r0
 1509              	.LVL104:
 1510              	.LBE499:
 1511              	.LBE498:
 1512              		.loc 1 701 0
 1513 0016 9042     		cmp	r0, r2
 1514 0018 04DA     		bge	.L63
 1515              	.LBB500:
 1516              	.LBB501:
 1517              		.loc 6 464 0
 1518 001a 611A     		subs	r1, r4, r1
 1519              	.LBE501:
 1520              	.LBE500:
 1521              	.LBB502:
 1522              	.LBB503:
 1523              		.loc 4 382 0
 1524 001c 89B2     		uxth	r1, r1
 1525 001e 0820     		movs	r0, #8
 1526 0020 FFF7FEFF 		bl	chSchGoSleepTimeoutS
 1527              	.LVL105:
 1528              	.L63:
 1529              	.LBE503:
 1530              	.LBE502:
 1531              	.LBB504:
 1532              	.LBB505:
 1533              	.LBB506:
 1534              	.LBB507:
 1535              	.LBB508:
 1536              		.loc 3 493 0
 1537 0024 0023     		movs	r3, #0
 1538              		.syntax unified
 1539              	@ 493 ".//os/common/ext/ARM/CMSIS/Core/Include/cmsis_gcc.h" 1
ARM GAS  C:\Users\14122\AppData\Local\Temp\cc5eq1Xn.s 			page 28


 1540 0026 83F31188 		MSR basepri, r3
 1541              	@ 0 "" 2
 1542              	.LVL106:
 1543              		.thumb
 1544              		.syntax unified
 1545              	.LBE508:
 1546              	.LBE507:
 1547              	.LBE506:
 1548              	.LBE505:
 1549              	.LBE504:
 1550              		.loc 1 707 0
 1551 002a 2046     		mov	r0, r4
 1552 002c 10BD     		pop	{r4, pc}
 1553              		.cfi_endproc
 1554              	.LFE236:
 1555              		.size	chThdSleepUntilWindowed, .-chThdSleepUntilWindowed
 1556 002e 00BF     		.section	.text.chThdYield,"ax",%progbits
 1557              		.align	1
 1558              		.p2align 4,,15
 1559              		.global	chThdYield
 1560              		.syntax unified
 1561              		.thumb
 1562              		.thumb_func
 1563              		.fpu softvfp
 1564              		.type	chThdYield, %function
 1565              	chThdYield:
 1566              	.LFB237:
 1567              		.loc 1 716 0
 1568              		.cfi_startproc
 1569              		@ args = 0, pretend = 0, frame = 0
 1570              		@ frame_needed = 0, uses_anonymous_args = 0
 1571              	.LVL107:
 1572 0000 08B5     		push	{r3, lr}
 1573              		.cfi_def_cfa_offset 8
 1574              		.cfi_offset 3, -8
 1575              		.cfi_offset 14, -4
 1576              	.LBB509:
 1577              	.LBB510:
 1578              	.LBB511:
 1579              	.LBB512:
 1580              		.loc 3 493 0
 1581 0002 2023     		movs	r3, #32
 1582              		.syntax unified
 1583              	@ 493 ".//os/common/ext/ARM/CMSIS/Core/Include/cmsis_gcc.h" 1
 1584 0004 83F31188 		MSR basepri, r3
 1585              	@ 0 "" 2
 1586              	.LVL108:
 1587              		.thumb
 1588              		.syntax unified
 1589              	.LBE512:
 1590              	.LBE511:
 1591              	.LBE510:
 1592              	.LBE509:
 1593              	.LBB513:
 1594              	.LBB514:
 1595              	.LBB515:
 1596              	.LBB516:
ARM GAS  C:\Users\14122\AppData\Local\Temp\cc5eq1Xn.s 			page 29


 1597              		.loc 2 666 0
 1598 0008 064B     		ldr	r3, .L68
 1599 000a 1A68     		ldr	r2, [r3]
 1600 000c 9B69     		ldr	r3, [r3, #24]
 1601              	.LBE516:
 1602              	.LBE515:
 1603              		.loc 2 680 0
 1604 000e 9268     		ldr	r2, [r2, #8]
 1605 0010 9B68     		ldr	r3, [r3, #8]
 1606 0012 9A42     		cmp	r2, r3
 1607 0014 01D3     		bcc	.L66
 1608              		.loc 2 681 0
 1609 0016 FFF7FEFF 		bl	chSchDoRescheduleBehind
 1610              	.LVL109:
 1611              	.L66:
 1612              	.LBE514:
 1613              	.LBE513:
 1614              	.LBB517:
 1615              	.LBB518:
 1616              	.LBB519:
 1617              	.LBB520:
 1618              	.LBB521:
 1619              		.loc 3 493 0
 1620 001a 0023     		movs	r3, #0
 1621              		.syntax unified
 1622              	@ 493 ".//os/common/ext/ARM/CMSIS/Core/Include/cmsis_gcc.h" 1
 1623 001c 83F31188 		MSR basepri, r3
 1624              	@ 0 "" 2
 1625              	.LVL110:
 1626              		.thumb
 1627              		.syntax unified
 1628              	.LBE521:
 1629              	.LBE520:
 1630              	.LBE519:
 1631              	.LBE518:
 1632              	.LBE517:
 1633              		.loc 1 721 0
 1634 0020 08BD     		pop	{r3, pc}
 1635              	.L69:
 1636 0022 00BF     		.align	2
 1637              	.L68:
 1638 0024 00000000 		.word	ch
 1639              		.cfi_endproc
 1640              	.LFE237:
 1641              		.size	chThdYield, .-chThdYield
 1642              		.section	.text.chThdSuspendS,"ax",%progbits
 1643              		.align	1
 1644              		.p2align 4,,15
 1645              		.global	chThdSuspendS
 1646              		.syntax unified
 1647              		.thumb
 1648              		.thumb_func
 1649              		.fpu softvfp
 1650              		.type	chThdSuspendS, %function
 1651              	chThdSuspendS:
 1652              	.LFB238:
 1653              		.loc 1 733 0
ARM GAS  C:\Users\14122\AppData\Local\Temp\cc5eq1Xn.s 			page 30


 1654              		.cfi_startproc
 1655              		@ args = 0, pretend = 0, frame = 0
 1656              		@ frame_needed = 0, uses_anonymous_args = 0
 1657              	.LVL111:
 1658 0000 0246     		mov	r2, r0
 1659 0002 10B5     		push	{r4, lr}
 1660              		.cfi_def_cfa_offset 8
 1661              		.cfi_offset 4, -8
 1662              		.cfi_offset 14, -4
 1663              	.LBB522:
 1664              	.LBB523:
 1665              		.loc 4 274 0
 1666 0004 044C     		ldr	r4, .L72
 1667              	.LBE523:
 1668              	.LBE522:
 1669              		.loc 1 740 0
 1670 0006 0320     		movs	r0, #3
 1671              	.LVL112:
 1672              	.LBB525:
 1673              	.LBB524:
 1674              		.loc 4 274 0
 1675 0008 A369     		ldr	r3, [r4, #24]
 1676              	.LBE524:
 1677              	.LBE525:
 1678              		.loc 1 738 0
 1679 000a 1360     		str	r3, [r2]
 1680              		.loc 1 739 0
 1681 000c 5A62     		str	r2, [r3, #36]
 1682              		.loc 1 740 0
 1683 000e FFF7FEFF 		bl	chSchGoSleepS
 1684              	.LVL113:
 1685              		.loc 1 742 0
 1686 0012 A369     		ldr	r3, [r4, #24]
 1687              		.loc 1 743 0
 1688 0014 586A     		ldr	r0, [r3, #36]
 1689 0016 10BD     		pop	{r4, pc}
 1690              	.L73:
 1691              		.align	2
 1692              	.L72:
 1693 0018 00000000 		.word	ch
 1694              		.cfi_endproc
 1695              	.LFE238:
 1696              		.size	chThdSuspendS, .-chThdSuspendS
 1697              		.section	.text.chThdSuspendTimeoutS,"ax",%progbits
 1698              		.align	1
 1699              		.p2align 4,,15
 1700              		.global	chThdSuspendTimeoutS
 1701              		.syntax unified
 1702              		.thumb
 1703              		.thumb_func
 1704              		.fpu softvfp
 1705              		.type	chThdSuspendTimeoutS, %function
 1706              	chThdSuspendTimeoutS:
 1707              	.LFB239:
 1708              		.loc 1 764 0
 1709              		.cfi_startproc
 1710              		@ args = 0, pretend = 0, frame = 0
ARM GAS  C:\Users\14122\AppData\Local\Temp\cc5eq1Xn.s 			page 31


 1711              		@ frame_needed = 0, uses_anonymous_args = 0
 1712              		@ link register save eliminated.
 1713              	.LVL114:
 1714              	.LBB526:
 1715              	.LBB527:
 1716              		.loc 4 274 0
 1717 0000 054B     		ldr	r3, .L76
 1718              	.LBE527:
 1719              	.LBE526:
 1720              		.loc 1 764 0
 1721 0002 0246     		mov	r2, r0
 1722              	.LBB529:
 1723              	.LBB528:
 1724              		.loc 4 274 0
 1725 0004 9B69     		ldr	r3, [r3, #24]
 1726              	.LBE528:
 1727              	.LBE529:
 1728              		.loc 1 769 0
 1729 0006 21B1     		cbz	r1, .L75
 1730              		.loc 1 773 0
 1731 0008 0360     		str	r3, [r0]
 1732              		.loc 1 776 0
 1733 000a 0320     		movs	r0, #3
 1734              	.LVL115:
 1735              		.loc 1 774 0
 1736 000c 5A62     		str	r2, [r3, #36]
 1737              		.loc 1 776 0
 1738 000e FFF7FEBF 		b	chSchGoSleepTimeoutS
 1739              	.LVL116:
 1740              	.L75:
 1741              		.loc 1 777 0
 1742 0012 4FF0FF30 		mov	r0, #-1
 1743              	.LVL117:
 1744 0016 7047     		bx	lr
 1745              	.L77:
 1746              		.align	2
 1747              	.L76:
 1748 0018 00000000 		.word	ch
 1749              		.cfi_endproc
 1750              	.LFE239:
 1751              		.size	chThdSuspendTimeoutS, .-chThdSuspendTimeoutS
 1752              		.section	.text.chThdResumeI,"ax",%progbits
 1753              		.align	1
 1754              		.p2align 4,,15
 1755              		.global	chThdResumeI
 1756              		.syntax unified
 1757              		.thumb
 1758              		.thumb_func
 1759              		.fpu softvfp
 1760              		.type	chThdResumeI, %function
 1761              	chThdResumeI:
 1762              	.LFB240:
 1763              		.loc 1 789 0
 1764              		.cfi_startproc
 1765              		@ args = 0, pretend = 0, frame = 0
 1766              		@ frame_needed = 0, uses_anonymous_args = 0
 1767              		@ link register save eliminated.
ARM GAS  C:\Users\14122\AppData\Local\Temp\cc5eq1Xn.s 			page 32


 1768              	.LVL118:
 1769              		.loc 1 791 0
 1770 0000 0368     		ldr	r3, [r0]
 1771 0002 43B1     		cbz	r3, .L78
 1772              		.loc 1 789 0
 1773 0004 10B4     		push	{r4}
 1774              		.cfi_def_cfa_offset 4
 1775              		.cfi_offset 4, -4
 1776 0006 0246     		mov	r2, r0
 1777              	.LVL119:
 1778              	.LBB530:
 1779              		.loc 1 796 0
 1780 0008 0024     		movs	r4, #0
 1781              		.loc 1 798 0
 1782 000a 1846     		mov	r0, r3
 1783              	.LVL120:
 1784              		.loc 1 796 0
 1785 000c 1460     		str	r4, [r2]
 1786              		.loc 1 797 0
 1787 000e 5962     		str	r1, [r3, #36]
 1788              	.LBE530:
 1789              		.loc 1 800 0
 1790 0010 10BC     		pop	{r4}
 1791              		.cfi_restore 4
 1792              		.cfi_def_cfa_offset 0
 1793              	.LBB531:
 1794              		.loc 1 798 0
 1795 0012 FFF7FEBF 		b	chSchReadyI
 1796              	.LVL121:
 1797              	.L78:
 1798 0016 7047     		bx	lr
 1799              	.LBE531:
 1800              		.cfi_endproc
 1801              	.LFE240:
 1802              		.size	chThdResumeI, .-chThdResumeI
 1803              		.section	.text.chThdResumeS,"ax",%progbits
 1804              		.align	1
 1805              		.p2align 4,,15
 1806              		.global	chThdResumeS
 1807              		.syntax unified
 1808              		.thumb
 1809              		.thumb_func
 1810              		.fpu softvfp
 1811              		.type	chThdResumeS, %function
 1812              	chThdResumeS:
 1813              	.LFB241:
 1814              		.loc 1 812 0
 1815              		.cfi_startproc
 1816              		@ args = 0, pretend = 0, frame = 0
 1817              		@ frame_needed = 0, uses_anonymous_args = 0
 1818              		@ link register save eliminated.
 1819              	.LVL122:
 1820              		.loc 1 812 0
 1821 0000 0346     		mov	r3, r0
 1822              		.loc 1 814 0
 1823 0002 0068     		ldr	r0, [r0]
 1824              	.LVL123:
ARM GAS  C:\Users\14122\AppData\Local\Temp\cc5eq1Xn.s 			page 33


 1825 0004 18B1     		cbz	r0, .L83
 1826              	.LVL124:
 1827              	.LBB532:
 1828              		.loc 1 819 0
 1829 0006 0022     		movs	r2, #0
 1830 0008 1A60     		str	r2, [r3]
 1831              		.loc 1 820 0
 1832 000a FFF7FEBF 		b	chSchWakeupS
 1833              	.LVL125:
 1834              	.L83:
 1835              	.LBE532:
 1836              		.loc 1 822 0
 1837 000e 7047     		bx	lr
 1838              		.cfi_endproc
 1839              	.LFE241:
 1840              		.size	chThdResumeS, .-chThdResumeS
 1841              		.section	.text.chThdResume,"ax",%progbits
 1842              		.align	1
 1843              		.p2align 4,,15
 1844              		.global	chThdResume
 1845              		.syntax unified
 1846              		.thumb
 1847              		.thumb_func
 1848              		.fpu softvfp
 1849              		.type	chThdResume, %function
 1850              	chThdResume:
 1851              	.LFB242:
 1852              		.loc 1 834 0
 1853              		.cfi_startproc
 1854              		@ args = 0, pretend = 0, frame = 0
 1855              		@ frame_needed = 0, uses_anonymous_args = 0
 1856              	.LVL126:
 1857              	.LBB533:
 1858              	.LBB534:
 1859              	.LBB535:
 1860              	.LBB536:
 1861              		.loc 3 493 0
 1862 0000 2023     		movs	r3, #32
 1863              		.syntax unified
 1864              	@ 493 ".//os/common/ext/ARM/CMSIS/Core/Include/cmsis_gcc.h" 1
 1865 0002 83F31188 		MSR basepri, r3
 1866              	@ 0 "" 2
 1867              	.LVL127:
 1868              		.thumb
 1869              		.syntax unified
 1870              	.LBE536:
 1871              	.LBE535:
 1872              	.LBE534:
 1873              	.LBE533:
 1874              	.LBB537:
 1875              	.LBB538:
 1876              		.loc 1 814 0
 1877 0006 0268     		ldr	r2, [r0]
 1878 0008 52B1     		cbz	r2, .L91
 1879              	.LBE538:
 1880              	.LBE537:
 1881              		.loc 1 834 0
ARM GAS  C:\Users\14122\AppData\Local\Temp\cc5eq1Xn.s 			page 34


 1882 000a 10B5     		push	{r4, lr}
 1883              		.cfi_def_cfa_offset 8
 1884              		.cfi_offset 4, -8
 1885              		.cfi_offset 14, -4
 1886 000c 0346     		mov	r3, r0
 1887              	.LVL128:
 1888              	.LBB541:
 1889              	.LBB540:
 1890              	.LBB539:
 1891              		.loc 1 819 0
 1892 000e 0024     		movs	r4, #0
 1893              		.loc 1 820 0
 1894 0010 1046     		mov	r0, r2
 1895              	.LVL129:
 1896              		.loc 1 819 0
 1897 0012 1C60     		str	r4, [r3]
 1898              		.loc 1 820 0
 1899 0014 FFF7FEFF 		bl	chSchWakeupS
 1900              	.LVL130:
 1901              	.LBE539:
 1902              	.LBE540:
 1903              	.LBE541:
 1904              	.LBB542:
 1905              	.LBB543:
 1906              	.LBB544:
 1907              	.LBB545:
 1908              	.LBB546:
 1909              		.loc 3 493 0
 1910 0018 0023     		movs	r3, #0
 1911              		.syntax unified
 1912              	@ 493 ".//os/common/ext/ARM/CMSIS/Core/Include/cmsis_gcc.h" 1
 1913 001a 83F31188 		MSR basepri, r3
 1914              	@ 0 "" 2
 1915              	.LVL131:
 1916              		.thumb
 1917              		.syntax unified
 1918              	.LBE546:
 1919              	.LBE545:
 1920              	.LBE544:
 1921              	.LBE543:
 1922              	.LBE542:
 1923              		.loc 1 839 0
 1924 001e 10BD     		pop	{r4, pc}
 1925              	.LVL132:
 1926              	.L91:
 1927              		.cfi_def_cfa_offset 0
 1928              		.cfi_restore 4
 1929              		.cfi_restore 14
 1930              	.LBB551:
 1931              	.LBB550:
 1932              	.LBB549:
 1933              	.LBB548:
 1934              	.LBB547:
 1935              		.loc 3 493 0
 1936 0020 0023     		movs	r3, #0
 1937              		.syntax unified
 1938              	@ 493 ".//os/common/ext/ARM/CMSIS/Core/Include/cmsis_gcc.h" 1
ARM GAS  C:\Users\14122\AppData\Local\Temp\cc5eq1Xn.s 			page 35


 1939 0022 83F31188 		MSR basepri, r3
 1940              	@ 0 "" 2
 1941              	.LVL133:
 1942              		.thumb
 1943              		.syntax unified
 1944 0026 7047     		bx	lr
 1945              	.LBE547:
 1946              	.LBE548:
 1947              	.LBE549:
 1948              	.LBE550:
 1949              	.LBE551:
 1950              		.cfi_endproc
 1951              	.LFE242:
 1952              		.size	chThdResume, .-chThdResume
 1953              		.section	.text.chThdEnqueueTimeoutS,"ax",%progbits
 1954              		.align	1
 1955              		.p2align 4,,15
 1956              		.global	chThdEnqueueTimeoutS
 1957              		.syntax unified
 1958              		.thumb
 1959              		.thumb_func
 1960              		.fpu softvfp
 1961              		.type	chThdEnqueueTimeoutS, %function
 1962              	chThdEnqueueTimeoutS:
 1963              	.LFB243:
 1964              		.loc 1 864 0
 1965              		.cfi_startproc
 1966              		@ args = 0, pretend = 0, frame = 0
 1967              		@ frame_needed = 0, uses_anonymous_args = 0
 1968              		@ link register save eliminated.
 1969              	.LVL134:
 1970              		.loc 1 866 0
 1971 0000 61B1     		cbz	r1, .L95
 1972 0002 0246     		mov	r2, r0
 1973              		.loc 1 870 0
 1974 0004 074B     		ldr	r3, .L99
 1975              		.loc 1 864 0
 1976 0006 10B4     		push	{r4}
 1977              		.cfi_def_cfa_offset 4
 1978              		.cfi_offset 4, -4
 1979              		.loc 1 870 0
 1980 0008 9B69     		ldr	r3, [r3, #24]
 1981              	.LVL135:
 1982              	.LBB552:
 1983              	.LBB553:
 1984              		.loc 2 601 0
 1985 000a 4468     		ldr	r4, [r0, #4]
 1986              	.LBE553:
 1987              	.LBE552:
 1988              		.loc 1 872 0
 1989 000c 0420     		movs	r0, #4
 1990              	.LVL136:
 1991              	.LBB555:
 1992              	.LBB554:
 1993              		.loc 2 601 0
 1994 000e C3E90024 		strd	r2, r4, [r3]
 1995              		.loc 2 602 0
ARM GAS  C:\Users\14122\AppData\Local\Temp\cc5eq1Xn.s 			page 36


 1996 0012 2360     		str	r3, [r4]
 1997              		.loc 2 603 0
 1998 0014 5360     		str	r3, [r2, #4]
 1999              	.LVL137:
 2000              	.LBE554:
 2001              	.LBE555:
 2002              		.loc 1 873 0
 2003 0016 10BC     		pop	{r4}
 2004              		.cfi_restore 4
 2005              		.cfi_def_cfa_offset 0
 2006              		.loc 1 872 0
 2007 0018 FFF7FEBF 		b	chSchGoSleepTimeoutS
 2008              	.LVL138:
 2009              	.L95:
 2010              		.loc 1 873 0
 2011 001c 4FF0FF30 		mov	r0, #-1
 2012              	.LVL139:
 2013 0020 7047     		bx	lr
 2014              	.L100:
 2015 0022 00BF     		.align	2
 2016              	.L99:
 2017 0024 00000000 		.word	ch
 2018              		.cfi_endproc
 2019              	.LFE243:
 2020              		.size	chThdEnqueueTimeoutS, .-chThdEnqueueTimeoutS
 2021              		.section	.text.chThdDequeueNextI,"ax",%progbits
 2022              		.align	1
 2023              		.p2align 4,,15
 2024              		.global	chThdDequeueNextI
 2025              		.syntax unified
 2026              		.thumb
 2027              		.thumb_func
 2028              		.fpu softvfp
 2029              		.type	chThdDequeueNextI, %function
 2030              	chThdDequeueNextI:
 2031              	.LFB244:
 2032              		.loc 1 884 0
 2033              		.cfi_startproc
 2034              		@ args = 0, pretend = 0, frame = 0
 2035              		@ frame_needed = 0, uses_anonymous_args = 0
 2036              		@ link register save eliminated.
 2037              	.LVL140:
 2038              	.LBB556:
 2039              	.LBB557:
 2040              		.loc 2 566 0
 2041 0000 0268     		ldr	r2, [r0]
 2042              	.LVL141:
 2043              	.LBE557:
 2044              	.LBE556:
 2045              		.loc 1 886 0
 2046 0002 9042     		cmp	r0, r2
 2047 0004 09D0     		beq	.L101
 2048 0006 0346     		mov	r3, r0
 2049              	.LVL142:
 2050              		.loc 1 884 0
 2051 0008 10B4     		push	{r4}
 2052              		.cfi_def_cfa_offset 4
ARM GAS  C:\Users\14122\AppData\Local\Temp\cc5eq1Xn.s 			page 37


 2053              		.cfi_offset 4, -4
 2054              	.LBB558:
 2055              	.LBB559:
 2056              	.LBB560:
 2057              	.LBB561:
 2058              		.loc 2 609 0
 2059 000a 1468     		ldr	r4, [r2]
 2060              	.LBE561:
 2061              	.LBE560:
 2062              		.loc 4 435 0
 2063 000c 1046     		mov	r0, r2
 2064              	.LVL143:
 2065              	.LBB563:
 2066              	.LBB562:
 2067              		.loc 2 609 0
 2068 000e 1C60     		str	r4, [r3]
 2069              		.loc 2 610 0
 2070 0010 6360     		str	r3, [r4, #4]
 2071              	.LVL144:
 2072              	.LBE562:
 2073              	.LBE563:
 2074              		.loc 4 434 0
 2075 0012 5162     		str	r1, [r2, #36]
 2076              	.LBE559:
 2077              	.LBE558:
 2078              		.loc 1 889 0
 2079 0014 10BC     		pop	{r4}
 2080              		.cfi_restore 4
 2081              		.cfi_def_cfa_offset 0
 2082              	.LBB565:
 2083              	.LBB564:
 2084              		.loc 4 435 0
 2085 0016 FFF7FEBF 		b	chSchReadyI
 2086              	.LVL145:
 2087              	.L101:
 2088 001a 7047     		bx	lr
 2089              	.LBE564:
 2090              	.LBE565:
 2091              		.cfi_endproc
 2092              	.LFE244:
 2093              		.size	chThdDequeueNextI, .-chThdDequeueNextI
 2094              		.section	.text.chThdDequeueAllI,"ax",%progbits
 2095              		.align	1
 2096              		.p2align 4,,15
 2097              		.global	chThdDequeueAllI
 2098              		.syntax unified
 2099              		.thumb
 2100              		.thumb_func
 2101              		.fpu softvfp
 2102              		.type	chThdDequeueAllI, %function
 2103              	chThdDequeueAllI:
 2104              	.LFB245:
 2105              		.loc 1 899 0
 2106              		.cfi_startproc
 2107              		@ args = 0, pretend = 0, frame = 0
 2108              		@ frame_needed = 0, uses_anonymous_args = 0
 2109              	.LVL146:
ARM GAS  C:\Users\14122\AppData\Local\Temp\cc5eq1Xn.s 			page 38


 2110 0000 38B5     		push	{r3, r4, r5, lr}
 2111              		.cfi_def_cfa_offset 16
 2112              		.cfi_offset 3, -16
 2113              		.cfi_offset 4, -12
 2114              		.cfi_offset 5, -8
 2115              		.cfi_offset 14, -4
 2116              	.LBB566:
 2117              	.LBB567:
 2118              		.loc 2 566 0
 2119 0002 0368     		ldr	r3, [r0]
 2120              	.LVL147:
 2121              	.LBE567:
 2122              	.LBE566:
 2123              		.loc 1 901 0
 2124 0004 9842     		cmp	r0, r3
 2125 0006 0BD0     		beq	.L106
 2126 0008 0446     		mov	r4, r0
 2127 000a 0D46     		mov	r5, r1
 2128              	.LVL148:
 2129              	.L108:
 2130              	.LBB569:
 2131              	.LBB570:
 2132              	.LBB571:
 2133              	.LBB572:
 2134              		.loc 2 609 0
 2135 000c 1A68     		ldr	r2, [r3]
 2136              	.LBE572:
 2137              	.LBE571:
 2138              		.loc 4 435 0
 2139 000e 1846     		mov	r0, r3
 2140              	.LBB574:
 2141              	.LBB573:
 2142              		.loc 2 609 0
 2143 0010 2260     		str	r2, [r4]
 2144              		.loc 2 610 0
 2145 0012 5460     		str	r4, [r2, #4]
 2146              	.LVL149:
 2147              	.LBE573:
 2148              	.LBE574:
 2149              		.loc 4 434 0
 2150 0014 5D62     		str	r5, [r3, #36]
 2151              		.loc 4 435 0
 2152 0016 FFF7FEFF 		bl	chSchReadyI
 2153              	.LVL150:
 2154              	.LBE570:
 2155              	.LBE569:
 2156              	.LBB575:
 2157              	.LBB568:
 2158              		.loc 2 566 0
 2159 001a 2368     		ldr	r3, [r4]
 2160              	.LVL151:
 2161              	.LBE568:
 2162              	.LBE575:
 2163              		.loc 1 901 0
 2164 001c 9C42     		cmp	r4, r3
 2165 001e F5D1     		bne	.L108
 2166              	.LVL152:
ARM GAS  C:\Users\14122\AppData\Local\Temp\cc5eq1Xn.s 			page 39


 2167              	.L106:
 2168              		.loc 1 904 0
 2169 0020 38BD     		pop	{r3, r4, r5, pc}
 2170              		.cfi_endproc
 2171              	.LFE245:
 2172              		.size	chThdDequeueAllI, .-chThdDequeueAllI
 2173 0022 00BF     		.section	.rodata.chThdCreateStatic.str1.4,"aMS",%progbits,1
 2174              		.align	2
 2175              	.LC0:
 2176 0000 6E6F6E61 		.ascii	"noname\000"
 2176      6D6500
 2177              		.text
 2178              	.Letext0:
 2179              		.file 7 "c:\\chibistudio\\tools\\gnu tools arm embedded\\7.0 2017q4\\lib\\gcc\\arm-none-eabi\\7.2.
 2180              		.file 8 "c:\\chibistudio\\tools\\gnu tools arm embedded\\7.0 2017q4\\arm-none-eabi\\include\\machi
 2181              		.file 9 "c:\\chibistudio\\tools\\gnu tools arm embedded\\7.0 2017q4\\arm-none-eabi\\include\\sys\\
 2182              		.file 10 ".//os/common/ports/ARMCMx/compilers/GCC/chtypes.h"
 2183              		.file 11 ".//os/rt/include/chsystypes.h"
 2184              		.file 12 ".//os/common/ext/ARM/CMSIS/Core/Include/core_cm3.h"
 2185              		.file 13 ".//os/common/ext/ST/STM32F1xx/system_stm32f1xx.h"
 2186              		.file 14 ".//os/common/ports/ARMCMx/chcore.h"
 2187              		.file 15 ".//os/common/ports/ARMCMx/chcore_v7m.h"
 2188              		.file 16 ".//os/hal/ports/STM32/LLD/TIMv1/stm32_tim.h"
 2189              		.file 17 ".//os/rt/include/chsem.h"
 2190              		.file 18 ".//os/rt/include/chmtx.h"
 2191              		.file 19 ".//os/rt/include/chsys.h"
 2192              		.file 20 ".//os/rt/include/chregistry.h"
 2193              		.file 21 ".//os/lib/include/chmemcore.h"
 2194              		.file 22 ".//os/lib/include/chmempools.h"
 2195              		.file 23 ".//os/lib/include/chfactory.h"
 2196              		.file 24 ".//os/rt/include/chvt.h"
 2197              		.file 25 ".//os/common/ports/ARMCMx/chcore_timer.h"
 2198              		.file 26 ".//os/lib/include/chmemheaps.h"