ARM GAS  C:\Users\14122\AppData\Local\Temp\ccylLy6s.s 			page 1


   1              		.cpu cortex-m3
   2              		.eabi_attribute 20, 1
   3              		.eabi_attribute 21, 1
   4              		.eabi_attribute 23, 3
   5              		.eabi_attribute 24, 1
   6              		.eabi_attribute 25, 1
   7              		.eabi_attribute 26, 1
   8              		.eabi_attribute 30, 2
   9              		.eabi_attribute 34, 1
  10              		.eabi_attribute 18, 4
  11              		.file	"crt1.c"
  12              		.text
  13              	.Ltext0:
  14              		.cfi_sections	.debug_frame
  15              		.section	.text.__core_init,"ax",%progbits
  16              		.align	1
  17              		.p2align 4,,15
  18              		.weak	__core_init
  19              		.syntax unified
  20              		.thumb
  21              		.thumb_func
  22              		.fpu softvfp
  23              		.type	__core_init, %function
  24              	__core_init:
  25              	.LFB63:
  26              		.file 1 ".//os/common/startup/ARMCMx/compilers/GCC/crt1.c"
  27              		.loc 1 137 0
  28              		.cfi_startproc
  29              		@ args = 0, pretend = 0, frame = 0
  30              		@ frame_needed = 0, uses_anonymous_args = 0
  31              		@ link register save eliminated.
  32              		.loc 1 143 0
  33 0000 7047     		bx	lr
  34              		.cfi_endproc
  35              	.LFE63:
  36              		.size	__core_init, .-__core_init
  37 0002 00BF     		.section	.text.__early_init,"ax",%progbits
  38              		.align	1
  39              		.p2align 4,,15
  40              		.weak	__early_init
  41              		.syntax unified
  42              		.thumb
  43              		.thumb_func
  44              		.fpu softvfp
  45              		.type	__early_init, %function
  46              	__early_init:
  47              	.LFB69:
  48              		.cfi_startproc
  49              		@ args = 0, pretend = 0, frame = 0
  50              		@ frame_needed = 0, uses_anonymous_args = 0
  51              		@ link register save eliminated.
  52 0000 7047     		bx	lr
  53              		.cfi_endproc
  54              	.LFE69:
  55              		.size	__early_init, .-__early_init
  56 0002 00BF     		.section	.text.__late_init,"ax",%progbits
  57              		.align	1
ARM GAS  C:\Users\14122\AppData\Local\Temp\ccylLy6s.s 			page 2


  58              		.p2align 4,,15
  59              		.weak	__late_init
  60              		.syntax unified
  61              		.thumb
  62              		.thumb_func
  63              		.fpu softvfp
  64              		.type	__late_init, %function
  65              	__late_init:
  66              	.LFB71:
  67              		.cfi_startproc
  68              		@ args = 0, pretend = 0, frame = 0
  69              		@ frame_needed = 0, uses_anonymous_args = 0
  70              		@ link register save eliminated.
  71 0000 7047     		bx	lr
  72              		.cfi_endproc
  73              	.LFE71:
  74              		.size	__late_init, .-__late_init
  75 0002 00BF     		.section	.text.__default_exit,"ax",%progbits
  76              		.align	1
  77              		.p2align 4,,15
  78              		.weak	__default_exit
  79              		.syntax unified
  80              		.thumb
  81              		.thumb_func
  82              		.fpu softvfp
  83              		.type	__default_exit, %function
  84              	__default_exit:
  85              	.LFB66:
  86              		.loc 1 183 0
  87              		.cfi_startproc
  88              		@ Volatile: function does not return.
  89              		@ args = 0, pretend = 0, frame = 0
  90              		@ frame_needed = 0, uses_anonymous_args = 0
  91              		@ link register save eliminated.
  92              	.L6:
  93 0000 FEE7     		b	.L6
  94              		.cfi_endproc
  95              	.LFE66:
  96              		.size	__default_exit, .-__default_exit
  97 0002 00BF     		.section	.text.__init_ram_areas,"ax",%progbits
  98              		.align	1
  99              		.p2align 4,,15
 100              		.global	__init_ram_areas
 101              		.syntax unified
 102              		.thumb
 103              		.thumb_func
 104              		.fpu softvfp
 105              		.type	__init_ram_areas, %function
 106              	__init_ram_areas:
 107              	.LFB67:
 108              		.loc 1 193 0
 109              		.cfi_startproc
 110              		@ args = 0, pretend = 0, frame = 0
 111              		@ frame_needed = 0, uses_anonymous_args = 0
 112              		@ link register save eliminated.
 113              	.LVL0:
 114              		.loc 1 193 0
ARM GAS  C:\Users\14122\AppData\Local\Temp\ccylLy6s.s 			page 3


 115 0000 F0B4     		push	{r4, r5, r6, r7}
 116              		.cfi_def_cfa_offset 16
 117              		.cfi_offset 4, -16
 118              		.cfi_offset 5, -12
 119              		.cfi_offset 6, -8
 120              		.cfi_offset 7, -4
 121              	.LBB2:
 122              		.loc 1 210 0
 123 0002 0027     		movs	r7, #0
 124 0004 134E     		ldr	r6, .L19
 125              	.LBE2:
 126              		.loc 1 193 0
 127 0006 144D     		ldr	r5, .L19+4
 128 0008 144C     		ldr	r4, .L19+8
 129 000a 154B     		ldr	r3, .L19+12
 130 000c 1549     		ldr	r1, .L19+16
 131 000e 06F1700C 		add	ip, r6, #112
 132              	.LVL1:
 133              	.L13:
 134              	.LBB3:
 135              		.loc 1 202 0
 136 0012 9C42     		cmp	r4, r3
 137 0014 11D9     		bls	.L17
 138 0016 1A46     		mov	r2, r3
 139 0018 0439     		subs	r1, r1, #4
 140              	.LVL2:
 141              	.L9:
 142              		.loc 1 203 0
 143 001a 51F8040F 		ldr	r0, [r1, #4]!
 144              	.LVL3:
 145 001e 42F8040B 		str	r0, [r2], #4
 146              	.LVL4:
 147              		.loc 1 202 0
 148 0022 9442     		cmp	r4, r2
 149 0024 F9D8     		bhi	.L9
 150 0026 DA43     		mvns	r2, r3
 151              	.LVL5:
 152 0028 1444     		add	r4, r4, r2
 153 002a 24F00304 		bic	r4, r4, #3
 154 002e 0434     		adds	r4, r4, #4
 155 0030 2344     		add	r3, r3, r4
 156              	.LVL6:
 157              		.loc 1 209 0
 158 0032 9D42     		cmp	r5, r3
 159 0034 03D9     		bls	.L18
 160              	.LVL7:
 161              	.L11:
 162              		.loc 1 210 0
 163 0036 43F8047B 		str	r7, [r3], #4
 164              	.LVL8:
 165              	.L17:
 166              		.loc 1 209 0
 167 003a 9D42     		cmp	r5, r3
 168 003c FBD8     		bhi	.L11
 169              	.L18:
 170              	.LVL9:
 171              	.LBE3:
ARM GAS  C:\Users\14122\AppData\Local\Temp\ccylLy6s.s 			page 4


 172              		.loc 1 215 0
 173 003e 6645     		cmp	r6, ip
 174 0040 05D0     		beq	.L7
 175 0042 D6E90413 		ldrd	r1, r3, [r6, #16]
 176              	.LVL10:
 177 0046 D6E90645 		ldrd	r4, r5, [r6, #24]
 178 004a 1036     		adds	r6, r6, #16
 179              	.LVL11:
 180 004c E1E7     		b	.L13
 181              	.LVL12:
 182              	.L7:
 183              		.loc 1 217 0
 184 004e F0BC     		pop	{r4, r5, r6, r7}
 185              		.cfi_restore 7
 186              		.cfi_restore 6
 187              		.cfi_restore 5
 188              		.cfi_restore 4
 189              		.cfi_def_cfa_offset 0
 190              	.LVL13:
 191 0050 7047     		bx	lr
 192              	.L20:
 193 0052 00BF     		.align	2
 194              	.L19:
 195 0054 00000000 		.word	.LANCHOR0
 196 0058 00000000 		.word	__ram0_noinit__
 197 005c 00000000 		.word	__ram0_clear__
 198 0060 00000000 		.word	__ram0_init__
 199 0064 00000000 		.word	__ram0_init_text__
 200              		.cfi_endproc
 201              	.LFE67:
 202              		.size	__init_ram_areas, .-__init_ram_areas
 203              		.section	.rodata.ram_areas,"a",%progbits
 204              		.align	2
 205              		.set	.LANCHOR0,. + 0
 206              		.type	ram_areas, %object
 207              		.size	ram_areas, 128
 208              	ram_areas:
 209 0000 00000000 		.word	__ram0_init_text__
 210 0004 00000000 		.word	__ram0_init__
 211 0008 00000000 		.word	__ram0_clear__
 212 000c 00000000 		.word	__ram0_noinit__
 213 0010 00000000 		.word	__ram1_init_text__
 214 0014 00000000 		.word	__ram1_init__
 215 0018 00000000 		.word	__ram1_clear__
 216 001c 00000000 		.word	__ram1_noinit__
 217 0020 00000000 		.word	__ram2_init_text__
 218 0024 00000000 		.word	__ram2_init__
 219 0028 00000000 		.word	__ram2_clear__
 220 002c 00000000 		.word	__ram2_noinit__
 221 0030 00000000 		.word	__ram3_init_text__
 222 0034 00000000 		.word	__ram3_init__
 223 0038 00000000 		.word	__ram3_clear__
 224 003c 00000000 		.word	__ram3_noinit__
 225 0040 00000000 		.word	__ram4_init_text__
 226 0044 00000000 		.word	__ram4_init__
 227 0048 00000000 		.word	__ram4_clear__
 228 004c 00000000 		.word	__ram4_noinit__
ARM GAS  C:\Users\14122\AppData\Local\Temp\ccylLy6s.s 			page 5


 229 0050 00000000 		.word	__ram5_init_text__
 230 0054 00000000 		.word	__ram5_init__
 231 0058 00000000 		.word	__ram5_clear__
 232 005c 00000000 		.word	__ram5_noinit__
 233 0060 00000000 		.word	__ram6_init_text__
 234 0064 00000000 		.word	__ram6_init__
 235 0068 00000000 		.word	__ram6_clear__
 236 006c 00000000 		.word	__ram6_noinit__
 237 0070 00000000 		.word	__ram7_init_text__
 238 0074 00000000 		.word	__ram7_init__
 239 0078 00000000 		.word	__ram7_clear__
 240 007c 00000000 		.word	__ram7_noinit__
 241              		.text
 242              	.Letext0:
 243              		.file 2 "c:\\chibistudio\\tools\\gnu tools arm embedded\\7.0 2017q4\\arm-none-eabi\\include\\machi
 244              		.file 3 "c:\\chibistudio\\tools\\gnu tools arm embedded\\7.0 2017q4\\arm-none-eabi\\include\\sys\\
 245              		.file 4 ".//os/common/ext/ARM/CMSIS/Core/Include/core_cm3.h"
 246              		.file 5 ".//os/common/ext/ST/STM32F1xx/system_stm32f1xx.h"