ARM GAS  C:\Users\14122\AppData\Local\Temp\cchJjOZG.s 			page 1


   1              		.cpu cortex-m3
   2              		.eabi_attribute 20, 1
   3              		.eabi_attribute 21, 1
   4              		.eabi_attribute 23, 3
   5              		.eabi_attribute 24, 1
   6              		.eabi_attribute 25, 1
   7              		.eabi_attribute 26, 1
   8              		.eabi_attribute 30, 2
   9              		.eabi_attribute 34, 1
  10              		.eabi_attribute 18, 4
  11              		.file	"dbus.c"
  12              		.text
  13              	.Ltext0:
  14              		.cfi_sections	.debug_frame
  15              		.section	.text.uart_dbus_thread,"ax",%progbits
  16              		.align	1
  17              		.p2align 4,,15
  18              		.syntax unified
  19              		.thumb
  20              		.thumb_func
  21              		.fpu softvfp
  22              		.type	uart_dbus_thread, %function
  23              	uart_dbus_thread:
  24              	.LFB257:
  25              		.file 1 "./src/dbus.c"
  26              		.loc 1 79 0
  27              		.cfi_startproc
  28              		@ args = 0, pretend = 0, frame = 0
  29              		@ frame_needed = 0, uses_anonymous_args = 0
  30              	.LVL0:
  31 0000 2DE9F047 		push	{r4, r5, r6, r7, r8, r9, r10, lr}
  32              		.cfi_def_cfa_offset 32
  33              		.cfi_offset 4, -32
  34              		.cfi_offset 5, -28
  35              		.cfi_offset 6, -24
  36              		.cfi_offset 7, -20
  37              		.cfi_offset 8, -16
  38              		.cfi_offset 9, -12
  39              		.cfi_offset 10, -8
  40              		.cfi_offset 14, -4
  41              	.LBB104:
  42              	.LBB105:
  43              		.file 2 ".//os/rt/include/chregistry.h"
  44              		.loc 2 136 0
  45 0004 374F     		ldr	r7, .L11
  46 0006 384A     		ldr	r2, .L11+4
  47 0008 BB69     		ldr	r3, [r7, #24]
  48              	.LBE105:
  49              	.LBE104:
  50              		.loc 1 89 0
  51 000a 384E     		ldr	r6, .L11+8
  52              	.LBB107:
  53              	.LBB106:
  54              		.loc 2 136 0
  55 000c 9A61     		str	r2, [r3, #24]
  56              	.LVL1:
  57              	.LBE106:
ARM GAS  C:\Users\14122\AppData\Local\Temp\cchJjOZG.s 			page 2


  58              	.LBE107:
  59              		.loc 1 90 0
  60 000e DFF8E090 		ldr	r9, .L11+12
  61              		.loc 1 93 0
  62 0012 DFF8E880 		ldr	r8, .L11+24
  63              		.loc 1 87 0
  64 0016 04E0     		b	.L2
  65              	.LVL2:
  66              	.L10:
  67              		.loc 1 98 0
  68 0018 1A78     		ldrb	r2, [r3]	@ zero_extendqisi2
  69 001a 52BB     		cbnz	r2, .L4
  70              		.loc 1 101 0
  71 001c 0322     		movs	r2, #3
  72 001e 1A70     		strb	r2, [r3]
  73              	.LVL3:
  74              	.L5:
  75 0020 BB69     		ldr	r3, [r7, #24]
  76              	.LVL4:
  77              	.L2:
  78              		.loc 1 87 0
  79 0022 93F82140 		ldrb	r4, [r3, #33]	@ zero_extendqisi2
  80 0026 04F00404 		and	r4, r4, #4
  81 002a 04F0FF05 		and	r5, r4, #255
  82 002e F4B9     		cbnz	r4, .L9
  83              		.loc 1 89 0
  84 0030 3046     		mov	r0, r6
  85 0032 FFF7FEFF 		bl	uartStopReceive
  86              	.LVL5:
  87              		.loc 1 90 0
  88 0036 2E4A     		ldr	r2, .L11+12
  89 0038 1221     		movs	r1, #18
  90 003a 3046     		mov	r0, r6
  91 003c FFF7FEFF 		bl	uartStartReceive
  92              	.LVL6:
  93              	.LBB108:
  94              	.LBB109:
  95              	.LBB110:
  96              	.LBB111:
  97              		.file 3 ".//os/common/ext/ARM/CMSIS/Core/Include/cmsis_gcc.h"
  98              		.loc 3 493 0
  99 0040 4FF0200A 		mov	r10, #32
 100              		.syntax unified
 101              	@ 493 ".//os/common/ext/ARM/CMSIS/Core/Include/cmsis_gcc.h" 1
 102 0044 8AF31188 		MSR basepri, r10
 103              	@ 0 "" 2
 104              	.LVL7:
 105              		.thumb
 106              		.syntax unified
 107              	.LBE111:
 108              	.LBE110:
 109              	.LBE109:
 110              	.LBE108:
 111              		.loc 1 93 0
 112 0048 4FF0FF31 		mov	r1, #-1
 113 004c 4046     		mov	r0, r8
 114 004e FFF7FEFF 		bl	chThdSuspendTimeoutS
ARM GAS  C:\Users\14122\AppData\Local\Temp\cchJjOZG.s 			page 3


 115              	.LVL8:
 116              	.LBB112:
 117              	.LBB113:
 118              	.LBB114:
 119              	.LBB115:
 120              	.LBB116:
 121              		.loc 3 493 0
 122              		.syntax unified
 123              	@ 493 ".//os/common/ext/ARM/CMSIS/Core/Include/cmsis_gcc.h" 1
 124 0052 85F31188 		MSR basepri, r5
 125              	@ 0 "" 2
 126              	.LVL9:
 127              		.thumb
 128              		.syntax unified
 129              	.LBE116:
 130              	.LBE115:
 131              	.LBE114:
 132              	.LBE113:
 133              	.LBE112:
 134              		.loc 1 98 0
 135 0056 274B     		ldr	r3, .L11+16
 136              		.loc 1 96 0
 137 0058 0028     		cmp	r0, #0
 138 005a DDD0     		beq	.L10
 139              	.LBB117:
 140              	.LBB118:
 141              		.loc 1 66 0
 142 005c 4FF00422 		mov	r2, #67109888
 143 0060 254B     		ldr	r3, .L11+20
 144              	.LBE118:
 145              	.LBE117:
 146              		.loc 1 112 0
 147 0062 2449     		ldr	r1, .L11+16
 148              	.LBB120:
 149              	.LBB119:
 150              		.loc 1 67 0
 151 0064 C3E90022 		strd	r2, r2, [r3]
 152              		.loc 1 69 0
 153 0068 1D81     		strh	r5, [r3, #8]	@ movhi
 154              	.LVL10:
 155              	.LBE119:
 156              	.LBE120:
 157              		.loc 1 112 0
 158 006a 0C70     		strb	r4, [r1]
 159 006c D8E7     		b	.L5
 160              	.LVL11:
 161              	.L9:
 162              		.loc 1 117 0
 163 006e BDE8F087 		pop	{r4, r5, r6, r7, r8, r9, r10, pc}
 164              	.LVL12:
 165              	.L4:
 166              	.LBB121:
 167              	.LBB122:
 168              	.LBB123:
 169              	.LBB124:
 170              		.loc 3 493 0
 171              		.syntax unified
ARM GAS  C:\Users\14122\AppData\Local\Temp\cchJjOZG.s 			page 4


 172              	@ 493 ".//os/common/ext/ARM/CMSIS/Core/Include/cmsis_gcc.h" 1
 173 0072 8AF31188 		MSR basepri, r10
 174              	@ 0 "" 2
 175              	.LVL13:
 176              		.thumb
 177              		.syntax unified
 178              	.LBE124:
 179              	.LBE123:
 180              	.LBE122:
 181              	.LBE121:
 182              	.LBB125:
 183              	.LBB126:
 184              		.loc 1 25 0
 185 0076 99F80240 		ldrb	r4, [r9, #2]	@ zero_extendqisi2
 186              		.loc 1 26 0
 187 007a 99F80310 		ldrb	r1, [r9, #3]	@ zero_extendqisi2
 188 007e A509     		lsrs	r5, r4, #6
 189              		.loc 1 24 0
 190 0080 99F80130 		ldrb	r3, [r9, #1]	@ zero_extendqisi2
 191              		.loc 1 27 0
 192 0084 99F80520 		ldrb	r2, [r9, #5]	@ zero_extendqisi2
 193              		.loc 1 26 0
 194 0088 99F804E0 		ldrb	lr, [r9, #4]	@ zero_extendqisi2
 195 008c 45EA8105 		orr	r5, r5, r1, lsl #2
 196              		.loc 1 24 0
 197 0090 99F80010 		ldrb	r1, [r9]	@ zero_extendqisi2
 198              		.loc 1 25 0
 199 0094 6401     		lsls	r4, r4, #5
 200              		.loc 1 24 0
 201 0096 DFF860C0 		ldr	ip, .L11+20
 202              		.loc 1 26 0
 203 009a 45EA8E25 		orr	r5, r5, lr, lsl #10
 204              		.loc 1 25 0
 205 009e 44EAD304 		orr	r4, r4, r3, lsr #3
 206              		.loc 1 24 0
 207 00a2 41EA0321 		orr	r1, r1, r3, lsl #8
 208              		.loc 1 27 0
 209 00a6 D301     		lsls	r3, r2, #7
 210 00a8 43EA5E03 		orr	r3, r3, lr, lsr #1
 211              		.loc 1 28 0
 212 00ac 1209     		lsrs	r2, r2, #4
 213              		.loc 1 26 0
 214 00ae C5F30A05 		ubfx	r5, r5, #0, #11
 215              		.loc 1 27 0
 216 00b2 C3F30A03 		ubfx	r3, r3, #0, #11
 217              		.loc 1 25 0
 218 00b6 C4F30A04 		ubfx	r4, r4, #0, #11
 219              		.loc 1 24 0
 220 00ba C1F30A01 		ubfx	r1, r1, #0, #11
 221              		.loc 1 26 0
 222 00be ACF80450 		strh	r5, [ip, #4]	@ movhi
 223              		.loc 1 28 0
 224 00c2 9510     		asrs	r5, r2, #2
 225              		.loc 1 29 0
 226 00c4 02F00302 		and	r2, r2, #3
 227              		.loc 1 27 0
 228 00c8 ACF80630 		strh	r3, [ip, #6]	@ movhi
ARM GAS  C:\Users\14122\AppData\Local\Temp\cchJjOZG.s 			page 5


 229              		.loc 1 25 0
 230 00cc ACF80240 		strh	r4, [ip, #2]	@ movhi
 231              		.loc 1 24 0
 232 00d0 ACF80010 		strh	r1, [ip]	@ movhi
 233              		.loc 1 28 0
 234 00d4 8CF80850 		strb	r5, [ip, #8]
 235              		.loc 1 29 0
 236 00d8 8CF80920 		strb	r2, [ip, #9]
 237              	.LVL14:
 238              	.LBE126:
 239              	.LBE125:
 240              	.LBB127:
 241              	.LBB128:
 242              	.LBB129:
 243              	.LBB130:
 244              	.LBB131:
 245              		.loc 3 493 0
 246              		.syntax unified
 247              	@ 493 ".//os/common/ext/ARM/CMSIS/Core/Include/cmsis_gcc.h" 1
 248 00dc 80F31188 		MSR basepri, r0
 249              	@ 0 "" 2
 250              	.LVL15:
 251              		.thumb
 252              		.syntax unified
 253 00e0 9EE7     		b	.L5
 254              	.L12:
 255 00e2 00BF     		.align	2
 256              	.L11:
 257 00e4 00000000 		.word	ch
 258 00e8 00000000 		.word	.LC0
 259 00ec 00000000 		.word	UARTD2
 260 00f0 00000000 		.word	.LANCHOR0
 261 00f4 00000000 		.word	.LANCHOR2
 262 00f8 00000000 		.word	.LANCHOR3
 263 00fc 00000000 		.word	.LANCHOR1
 264              	.LBE131:
 265              	.LBE130:
 266              	.LBE129:
 267              	.LBE128:
 268              	.LBE127:
 269              		.cfi_endproc
 270              	.LFE257:
 271              		.size	uart_dbus_thread, .-uart_dbus_thread
 272              		.section	.text.rxend,"ax",%progbits
 273              		.align	1
 274              		.p2align 4,,15
 275              		.syntax unified
 276              		.thumb
 277              		.thumb_func
 278              		.fpu softvfp
 279              		.type	rxend, %function
 280              	rxend:
 281              	.LFB254:
 282              		.loc 1 36 0
 283              		.cfi_startproc
 284              		@ args = 0, pretend = 0, frame = 0
 285              		@ frame_needed = 0, uses_anonymous_args = 0
ARM GAS  C:\Users\14122\AppData\Local\Temp\cchJjOZG.s 			page 6


 286              	.LVL16:
 287 0000 08B5     		push	{r3, lr}
 288              		.cfi_def_cfa_offset 8
 289              		.cfi_offset 3, -8
 290              		.cfi_offset 14, -4
 291              	.LBB132:
 292              	.LBB133:
 293              	.LBB134:
 294              	.LBB135:
 295              	.LBB136:
 296              		.loc 3 493 0
 297 0002 2023     		movs	r3, #32
 298              		.syntax unified
 299              	@ 493 ".//os/common/ext/ARM/CMSIS/Core/Include/cmsis_gcc.h" 1
 300 0004 83F31188 		MSR basepri, r3
 301              	@ 0 "" 2
 302              	.LVL17:
 303              		.thumb
 304              		.syntax unified
 305              	.LBE136:
 306              	.LBE135:
 307              	.LBE134:
 308              	.LBE133:
 309              	.LBE132:
 310              		.loc 1 39 0
 311 0008 0021     		movs	r1, #0
 312 000a 0348     		ldr	r0, .L15
 313              	.LVL18:
 314 000c FFF7FEFF 		bl	chThdResumeI
 315              	.LVL19:
 316              	.LBB137:
 317              	.LBB138:
 318              	.LBB139:
 319              	.LBB140:
 320              	.LBB141:
 321              		.loc 3 493 0
 322 0010 0023     		movs	r3, #0
 323              		.syntax unified
 324              	@ 493 ".//os/common/ext/ARM/CMSIS/Core/Include/cmsis_gcc.h" 1
 325 0012 83F31188 		MSR basepri, r3
 326              	@ 0 "" 2
 327              	.LVL20:
 328              		.thumb
 329              		.syntax unified
 330              	.LBE141:
 331              	.LBE140:
 332              	.LBE139:
 333              	.LBE138:
 334              	.LBE137:
 335              		.loc 1 41 0
 336 0016 08BD     		pop	{r3, pc}
 337              	.L16:
 338              		.align	2
 339              	.L15:
 340 0018 00000000 		.word	.LANCHOR1
 341              		.cfi_endproc
 342              	.LFE254:
ARM GAS  C:\Users\14122\AppData\Local\Temp\cchJjOZG.s 			page 7


 343              		.size	rxend, .-rxend
 344              		.section	.text.RC_get,"ax",%progbits
 345              		.align	1
 346              		.p2align 4,,15
 347              		.global	RC_get
 348              		.syntax unified
 349              		.thumb
 350              		.thumb_func
 351              		.fpu softvfp
 352              		.type	RC_get, %function
 353              	RC_get:
 354              	.LFB255:
 355              		.loc 1 60 0
 356              		.cfi_startproc
 357              		@ args = 0, pretend = 0, frame = 0
 358              		@ frame_needed = 0, uses_anonymous_args = 0
 359              		@ link register save eliminated.
 360              		.loc 1 62 0
 361 0000 0048     		ldr	r0, .L18
 362 0002 7047     		bx	lr
 363              	.L19:
 364              		.align	2
 365              	.L18:
 366 0004 00000000 		.word	.LANCHOR3
 367              		.cfi_endproc
 368              	.LFE255:
 369              		.size	RC_get, .-RC_get
 370              		.section	.text.RC_init,"ax",%progbits
 371              		.align	1
 372              		.p2align 4,,15
 373              		.global	RC_init
 374              		.syntax unified
 375              		.thumb
 376              		.thumb_func
 377              		.fpu softvfp
 378              		.type	RC_init, %function
 379              	RC_init:
 380              	.LFB258:
 381              		.loc 1 123 0
 382              		.cfi_startproc
 383              		@ args = 0, pretend = 0, frame = 0
 384              		@ frame_needed = 0, uses_anonymous_args = 0
 385 0000 30B5     		push	{r4, r5, lr}
 386              		.cfi_def_cfa_offset 12
 387              		.cfi_offset 4, -12
 388              		.cfi_offset 5, -8
 389              		.cfi_offset 14, -4
 390              	.LBB142:
 391              	.LBB143:
 392              		.loc 1 66 0
 393 0002 4FF00422 		mov	r2, #67109888
 394              		.loc 1 69 0
 395 0006 0024     		movs	r4, #0
 396              		.loc 1 66 0
 397 0008 0B4B     		ldr	r3, .L22
 398              	.LBE143:
 399              	.LBE142:
ARM GAS  C:\Users\14122\AppData\Local\Temp\cchJjOZG.s 			page 8


 400              		.loc 1 126 0
 401 000a 0C4D     		ldr	r5, .L22+4
 402              		.loc 1 123 0
 403 000c 83B0     		sub	sp, sp, #12
 404              		.cfi_def_cfa_offset 24
 405              	.LBB145:
 406              	.LBB144:
 407              		.loc 1 67 0
 408 000e C3E90022 		strd	r2, r2, [r3]
 409              		.loc 1 69 0
 410 0012 1C81     		strh	r4, [r3, #8]	@ movhi
 411              	.LBE144:
 412              	.LBE145:
 413              		.loc 1 126 0
 414 0014 2846     		mov	r0, r5
 415 0016 0A49     		ldr	r1, .L22+8
 416 0018 FFF7FEFF 		bl	uartStart
 417              	.LVL21:
 418              		.loc 1 127 0
 419 001c 6869     		ldr	r0, [r5, #20]
 420 001e FFF7FEFF 		bl	dmaStreamRelease
 421              	.LVL22:
 422              		.loc 1 129 0
 423 0022 0094     		str	r4, [sp]
 424 0024 074B     		ldr	r3, .L22+12
 425 0026 8722     		movs	r2, #135
 426 0028 4FF43271 		mov	r1, #712
 427 002c 0648     		ldr	r0, .L22+16
 428 002e FFF7FEFF 		bl	chThdCreateStatic
 429              	.LVL23:
 430              		.loc 1 132 0
 431 0032 03B0     		add	sp, sp, #12
 432              		.cfi_def_cfa_offset 12
 433              		@ sp needed
 434 0034 30BD     		pop	{r4, r5, pc}
 435              	.L23:
 436 0036 00BF     		.align	2
 437              	.L22:
 438 0038 00000000 		.word	.LANCHOR3
 439 003c 00000000 		.word	UARTD2
 440 0040 00000000 		.word	.LANCHOR4
 441 0044 00000000 		.word	uart_dbus_thread
 442 0048 00000000 		.word	.LANCHOR5
 443              		.cfi_endproc
 444              	.LFE258:
 445              		.size	RC_init, .-RC_init
 446              		.section	.bss.RC_Ctl,"aw",%nobits
 447              		.align	2
 448              		.set	.LANCHOR3,. + 0
 449              		.type	RC_Ctl, %object
 450              		.size	RC_Ctl, 10
 451              	RC_Ctl:
 452 0000 00000000 		.space	10
 452      00000000 
 452      0000
 453              		.section	.bss.rc_state,"aw",%nobits
 454              		.set	.LANCHOR2,. + 0
ARM GAS  C:\Users\14122\AppData\Local\Temp\cchJjOZG.s 			page 9


 455              		.type	rc_state, %object
 456              		.size	rc_state, 1
 457              	rc_state:
 458 0000 00       		.space	1
 459              		.section	.bss.rxbuf,"aw",%nobits
 460              		.align	2
 461              		.set	.LANCHOR0,. + 0
 462              		.type	rxbuf, %object
 463              		.size	rxbuf, 18
 464              	rxbuf:
 465 0000 00000000 		.space	18
 465      00000000 
 465      00000000 
 465      00000000 
 465      0000
 466              		.section	.bss.uart_dbus_thread_handler,"aw",%nobits
 467              		.align	2
 468              		.set	.LANCHOR1,. + 0
 469              		.type	uart_dbus_thread_handler, %object
 470              		.size	uart_dbus_thread_handler, 4
 471              	uart_dbus_thread_handler:
 472 0000 00000000 		.space	4
 473              		.section	.bss.uart_dbus_thread_wa,"aw",%nobits
 474              		.align	3
 475              		.set	.LANCHOR5,. + 0
 476              		.type	uart_dbus_thread_wa, %object
 477              		.size	uart_dbus_thread_wa, 712
 478              	uart_dbus_thread_wa:
 479 0000 00000000 		.space	712
 479      00000000 
 479      00000000 
 479      00000000 
 479      00000000 
 480              		.section	.data.uart_cfg,"aw",%progbits
 481              		.align	2
 482              		.set	.LANCHOR4,. + 0
 483              		.type	uart_cfg, %object
 484              		.size	uart_cfg, 32
 485              	uart_cfg:
 486 0000 00000000 		.word	0
 487 0004 00000000 		.word	0
 488 0008 00000000 		.word	rxend
 489 000c 00000000 		.word	0
 490 0010 00000000 		.word	0
 491 0014 A0860100 		.word	100000
 492 0018 0014     		.short	5120
 493 001a 2000     		.short	32
 494 001c 0000     		.short	0
 495 001e 0000     		.space	2
 496              		.section	.rodata.uart_dbus_thread.str1.4,"aMS",%progbits,1
 497              		.align	2
 498              	.LC0:
 499 0000 75617274 		.ascii	"uart dbus receiver\000"
 499      20646275 
 499      73207265 
 499      63656976 
 499      657200
ARM GAS  C:\Users\14122\AppData\Local\Temp\cchJjOZG.s 			page 10


 500              		.text
 501              	.Letext0:
 502              		.file 4 "c:\\chibistudio\\tools\\gnu tools arm embedded\\7.0 2017q4\\lib\\gcc\\arm-none-eabi\\7.2.
 503              		.file 5 "c:\\chibistudio\\tools\\gnu tools arm embedded\\7.0 2017q4\\arm-none-eabi\\include\\machi
 504              		.file 6 "c:\\chibistudio\\tools\\gnu tools arm embedded\\7.0 2017q4\\arm-none-eabi\\include\\sys\\
 505              		.file 7 ".//os/common/ports/ARMCMx/compilers/GCC/chtypes.h"
 506              		.file 8 ".//os/rt/include/chsystypes.h"
 507              		.file 9 ".//os/rt/include/chschd.h"
 508              		.file 10 ".//os/rt/include/chtime.h"
 509              		.file 11 ".//os/common/ext/ARM/CMSIS/Core/Include/core_cm3.h"
 510              		.file 12 ".//os/common/ext/ST/STM32F1xx/system_stm32f1xx.h"
 511              		.file 13 ".//os/common/ext/ST/STM32F1xx/stm32f103xb.h"
 512              		.file 14 ".//os/common/ports/ARMCMx/chcore.h"
 513              		.file 15 ".//os/common/ports/ARMCMx/chcore_v7m.h"
 514              		.file 16 ".//os/rt/include/chsem.h"
 515              		.file 17 ".//os/rt/include/chmtx.h"
 516              		.file 18 ".//os/rt/include/chsys.h"
 517              		.file 19 ".//os/rt/include/chevents.h"
 518              		.file 20 ".//os/lib/include/chmemcore.h"
 519              		.file 21 ".//os/lib/include/chmempools.h"
 520              		.file 22 ".//os/lib/include/chfactory.h"
 521              		.file 23 ".//os/hal/ports/STM32/LLD/DMAv1/stm32_dma.h"
 522              		.file 24 ".//os/hal/include/hal_pal.h"
 523              		.file 25 ".//os/hal/ports/STM32/LLD/GPIOv1/hal_pal_lld.h"
 524              		.file 26 ".//os/hal/include/hal_can.h"
 525              		.file 27 ".//os/hal/ports/STM32/LLD/CANv1/hal_can_lld.h"
 526              		.file 28 ".//os/hal/include/hal_uart.h"
 527              		.file 29 ".//os/hal/ports/STM32/LLD/USARTv1/hal_uart_lld.h"
 528              		.file 30 "./src/dbus.h"
 529              		.file 31 ".//os/rt/include/chthreads.h"