ARM GAS  C:\Users\14122\AppData\Local\Temp\ccUGLFNQ.s 			page 1


   1              		.cpu cortex-m3
   2              		.eabi_attribute 20, 1
   3              		.eabi_attribute 21, 1
   4              		.eabi_attribute 23, 3
   5              		.eabi_attribute 24, 1
   6              		.eabi_attribute 25, 1
   7              		.eabi_attribute 26, 1
   8              		.eabi_attribute 30, 2
   9              		.eabi_attribute 34, 1
  10              		.eabi_attribute 18, 4
  11              		.file	"hal.c"
  12              		.text
  13              	.Ltext0:
  14              		.cfi_sections	.debug_frame
  15              		.section	.text.halInit,"ax",%progbits
  16              		.align	1
  17              		.p2align 4,,15
  18              		.global	halInit
  19              		.syntax unified
  20              		.thumb
  21              		.thumb_func
  22              		.fpu softvfp
  23              		.type	halInit, %function
  24              	halInit:
  25              	.LFB253:
  26              		.file 1 ".//os/hal/src/hal.c"
  27              		.loc 1 56 0
  28              		.cfi_startproc
  29              		@ args = 0, pretend = 0, frame = 0
  30              		@ frame_needed = 0, uses_anonymous_args = 0
  31 0000 08B5     		push	{r3, lr}
  32              		.cfi_def_cfa_offset 8
  33              		.cfi_offset 3, -8
  34              		.cfi_offset 14, -4
  35              		.loc 1 62 0
  36 0002 FFF7FEFF 		bl	hal_lld_init
  37              	.LVL0:
  38              		.loc 1 68 0
  39 0006 0648     		ldr	r0, .L4
  40 0008 FFF7FEFF 		bl	_pal_lld_init
  41              	.LVL1:
  42              		.loc 1 75 0
  43 000c FFF7FEFF 		bl	canInit
  44              	.LVL2:
  45              		.loc 1 117 0
  46 0010 FFF7FEFF 		bl	uartInit
  47              	.LVL3:
  48              		.loc 1 146 0
  49 0014 FFF7FEFF 		bl	boardInit
  50              	.LVL4:
  51              		.loc 1 155 0
  52 0018 BDE80840 		pop	{r3, lr}
  53              		.cfi_restore 14
  54              		.cfi_restore 3
  55              		.cfi_def_cfa_offset 0
  56              		.loc 1 153 0
  57 001c FFF7FEBF 		b	stInit
ARM GAS  C:\Users\14122\AppData\Local\Temp\ccUGLFNQ.s 			page 2


  58              	.LVL5:
  59              	.L5:
  60              		.align	2
  61              	.L4:
  62 0020 00000000 		.word	pal_default_config
  63              		.cfi_endproc
  64              	.LFE253:
  65              		.size	halInit, .-halInit
  66              		.text
  67              	.Letext0:
  68              		.file 2 "c:\\chibistudio\\tools\\gnu tools arm embedded\\7.0 2017q4\\lib\\gcc\\arm-none-eabi\\7.2.
  69              		.file 3 "c:\\chibistudio\\tools\\gnu tools arm embedded\\7.0 2017q4\\arm-none-eabi\\include\\machi
  70              		.file 4 "c:\\chibistudio\\tools\\gnu tools arm embedded\\7.0 2017q4\\arm-none-eabi\\include\\sys\\
  71              		.file 5 ".//os/common/ports/ARMCMx/compilers/GCC/chtypes.h"
  72              		.file 6 ".//os/rt/include/chsystypes.h"
  73              		.file 7 ".//os/rt/include/chschd.h"
  74              		.file 8 ".//os/rt/include/chtime.h"
  75              		.file 9 ".//os/common/ext/ARM/CMSIS/Core/Include/core_cm3.h"
  76              		.file 10 ".//os/common/ext/ST/STM32F1xx/system_stm32f1xx.h"
  77              		.file 11 ".//os/common/ext/ST/STM32F1xx/stm32f103xb.h"
  78              		.file 12 ".//os/common/ports/ARMCMx/chcore.h"
  79              		.file 13 ".//os/common/ports/ARMCMx/chcore_v7m.h"
  80              		.file 14 ".//os/rt/include/chsem.h"
  81              		.file 15 ".//os/rt/include/chmtx.h"
  82              		.file 16 ".//os/rt/include/chsys.h"
  83              		.file 17 ".//os/rt/include/chregistry.h"
  84              		.file 18 ".//os/rt/include/chevents.h"
  85              		.file 19 ".//os/lib/include/chmemcore.h"
  86              		.file 20 ".//os/lib/include/chmempools.h"
  87              		.file 21 ".//os/lib/include/chfactory.h"
  88              		.file 22 ".//os/hal/ports/STM32/LLD/DMAv1/stm32_dma.h"
  89              		.file 23 ".//os/hal/include/hal_pal.h"
  90              		.file 24 ".//os/hal/ports/STM32/LLD/GPIOv1/hal_pal_lld.h"
  91              		.file 25 ".//os/hal/include/hal_can.h"
  92              		.file 26 ".//os/hal/ports/STM32/LLD/CANv1/hal_can_lld.h"
  93              		.file 27 ".//os/hal/include/hal_uart.h"
  94              		.file 28 ".//os/hal/ports/STM32/LLD/USARTv1/hal_uart_lld.h"
  95              		.file 29 ".//os/hal/ports/STM32/STM32F1xx/hal_lld.h"
  96              		.file 30 "./board/board.h"
  97              		.file 31 ".//os/hal/include/hal_st.h"
  98              		.file 32 ".//os/hal/osal/rt/osal.h"
  99              		.section	.debug_info,"",%progbits
 100              	.Ldebug_info0:
 101 0000 DD120000 		.4byte	0x12dd
 102 0004 0400     		.2byte	0x4
 103 0006 00000000 		.4byte	.Ldebug_abbrev0
 104 000a 04       		.byte	0x4
 105 000b 01       		.uleb128 0x1
 106 000c 9F060000 		.4byte	.LASF260
 107 0010 0C       		.byte	0xc
 108 0011 5D000000 		.4byte	.LASF261
 109 0015 740B0000 		.4byte	.LASF262
 110 0019 00000000 		.4byte	.Ldebug_ranges0+0
 111 001d 00000000 		.4byte	0
 112 0021 00000000 		.4byte	.Ldebug_line0
 113 0025 02       		.uleb128 0x2
 114 0026 04       		.byte	0x4
ARM GAS  C:\Users\14122\AppData\Local\Temp\ccUGLFNQ.s 			page 3


 115 0027 05       		.byte	0x5
 116 0028 696E7400 		.ascii	"int\000"
 117 002c 03       		.uleb128 0x3
 118 002d 1B000000 		.4byte	.LASF4
 119 0031 02       		.byte	0x2
 120 0032 D8       		.byte	0xd8
 121 0033 37000000 		.4byte	0x37
 122 0037 04       		.uleb128 0x4
 123 0038 04       		.byte	0x4
 124 0039 07       		.byte	0x7
 125 003a 28060000 		.4byte	.LASF0
 126 003e 04       		.uleb128 0x4
 127 003f 08       		.byte	0x8
 128 0040 05       		.byte	0x5
 129 0041 69050000 		.4byte	.LASF1
 130 0045 04       		.uleb128 0x4
 131 0046 08       		.byte	0x8
 132 0047 04       		.byte	0x4
 133 0048 89070000 		.4byte	.LASF2
 134 004c 04       		.uleb128 0x4
 135 004d 01       		.byte	0x1
 136 004e 06       		.byte	0x6
 137 004f FE010000 		.4byte	.LASF3
 138 0053 03       		.uleb128 0x3
 139 0054 46010000 		.4byte	.LASF5
 140 0058 03       		.byte	0x3
 141 0059 2B       		.byte	0x2b
 142 005a 5E000000 		.4byte	0x5e
 143 005e 04       		.uleb128 0x4
 144 005f 01       		.byte	0x1
 145 0060 08       		.byte	0x8
 146 0061 81020000 		.4byte	.LASF6
 147 0065 04       		.uleb128 0x4
 148 0066 02       		.byte	0x2
 149 0067 05       		.byte	0x5
 150 0068 A4090000 		.4byte	.LASF7
 151 006c 03       		.uleb128 0x3
 152 006d 22030000 		.4byte	.LASF8
 153 0071 03       		.byte	0x3
 154 0072 39       		.byte	0x39
 155 0073 77000000 		.4byte	0x77
 156 0077 04       		.uleb128 0x4
 157 0078 02       		.byte	0x2
 158 0079 07       		.byte	0x7
 159 007a C20A0000 		.4byte	.LASF9
 160 007e 03       		.uleb128 0x3
 161 007f 060B0000 		.4byte	.LASF10
 162 0083 03       		.byte	0x3
 163 0084 4D       		.byte	0x4d
 164 0085 89000000 		.4byte	0x89
 165 0089 04       		.uleb128 0x4
 166 008a 04       		.byte	0x4
 167 008b 05       		.byte	0x5
 168 008c 74010000 		.4byte	.LASF11
 169 0090 03       		.uleb128 0x3
 170 0091 56050000 		.4byte	.LASF12
 171 0095 03       		.byte	0x3
ARM GAS  C:\Users\14122\AppData\Local\Temp\ccUGLFNQ.s 			page 4


 172 0096 4F       		.byte	0x4f
 173 0097 9B000000 		.4byte	0x9b
 174 009b 04       		.uleb128 0x4
 175 009c 04       		.byte	0x4
 176 009d 07       		.byte	0x7
 177 009e 13040000 		.4byte	.LASF13
 178 00a2 03       		.uleb128 0x3
 179 00a3 FE030000 		.4byte	.LASF14
 180 00a7 03       		.byte	0x3
 181 00a8 69       		.byte	0x69
 182 00a9 AD000000 		.4byte	0xad
 183 00ad 04       		.uleb128 0x4
 184 00ae 08       		.byte	0x8
 185 00af 07       		.byte	0x7
 186 00b0 1C080000 		.4byte	.LASF15
 187 00b4 03       		.uleb128 0x3
 188 00b5 11020000 		.4byte	.LASF16
 189 00b9 04       		.byte	0x4
 190 00ba 18       		.byte	0x18
 191 00bb 53000000 		.4byte	0x53
 192 00bf 05       		.uleb128 0x5
 193 00c0 B4000000 		.4byte	0xb4
 194 00c4 03       		.uleb128 0x3
 195 00c5 41080000 		.4byte	.LASF17
 196 00c9 04       		.byte	0x4
 197 00ca 24       		.byte	0x24
 198 00cb 6C000000 		.4byte	0x6c
 199 00cf 06       		.uleb128 0x6
 200 00d0 C4000000 		.4byte	0xc4
 201 00d4 03       		.uleb128 0x3
 202 00d5 83000000 		.4byte	.LASF18
 203 00d9 04       		.byte	0x4
 204 00da 2C       		.byte	0x2c
 205 00db 7E000000 		.4byte	0x7e
 206 00df 06       		.uleb128 0x6
 207 00e0 D4000000 		.4byte	0xd4
 208 00e4 03       		.uleb128 0x3
 209 00e5 A30A0000 		.4byte	.LASF19
 210 00e9 04       		.byte	0x4
 211 00ea 30       		.byte	0x30
 212 00eb 90000000 		.4byte	0x90
 213 00ef 06       		.uleb128 0x6
 214 00f0 E4000000 		.4byte	0xe4
 215 00f4 03       		.uleb128 0x3
 216 00f5 BB090000 		.4byte	.LASF20
 217 00f9 04       		.byte	0x4
 218 00fa 3C       		.byte	0x3c
 219 00fb A2000000 		.4byte	0xa2
 220 00ff 03       		.uleb128 0x3
 221 0100 33090000 		.4byte	.LASF21
 222 0104 05       		.byte	0x5
 223 0105 2A       		.byte	0x2a
 224 0106 B4000000 		.4byte	0xb4
 225 010a 03       		.uleb128 0x3
 226 010b 87010000 		.4byte	.LASF22
 227 010f 05       		.byte	0x5
 228 0110 2B       		.byte	0x2b
ARM GAS  C:\Users\14122\AppData\Local\Temp\ccUGLFNQ.s 			page 5


 229 0111 B4000000 		.4byte	0xb4
 230 0115 03       		.uleb128 0x3
 231 0116 510A0000 		.4byte	.LASF23
 232 011a 05       		.byte	0x5
 233 011b 2C       		.byte	0x2c
 234 011c B4000000 		.4byte	0xb4
 235 0120 03       		.uleb128 0x3
 236 0121 55000000 		.4byte	.LASF24
 237 0125 05       		.byte	0x5
 238 0126 2E       		.byte	0x2e
 239 0127 E4000000 		.4byte	0xe4
 240 012b 03       		.uleb128 0x3
 241 012c 62080000 		.4byte	.LASF25
 242 0130 05       		.byte	0x5
 243 0131 2F       		.byte	0x2f
 244 0132 D4000000 		.4byte	0xd4
 245 0136 03       		.uleb128 0x3
 246 0137 26020000 		.4byte	.LASF26
 247 013b 05       		.byte	0x5
 248 013c 31       		.byte	0x31
 249 013d E4000000 		.4byte	0xe4
 250 0141 03       		.uleb128 0x3
 251 0142 79080000 		.4byte	.LASF27
 252 0146 05       		.byte	0x5
 253 0147 32       		.byte	0x32
 254 0148 E4000000 		.4byte	0xe4
 255 014c 03       		.uleb128 0x3
 256 014d AD030000 		.4byte	.LASF28
 257 0151 05       		.byte	0x5
 258 0152 33       		.byte	0x33
 259 0153 D4000000 		.4byte	0xd4
 260 0157 03       		.uleb128 0x3
 261 0158 F5040000 		.4byte	.LASF29
 262 015c 05       		.byte	0x5
 263 015d 34       		.byte	0x34
 264 015e E4000000 		.4byte	0xe4
 265 0162 03       		.uleb128 0x3
 266 0163 80070000 		.4byte	.LASF30
 267 0167 06       		.byte	0x6
 268 0168 34       		.byte	0x34
 269 0169 6D010000 		.4byte	0x16d
 270 016d 07       		.uleb128 0x7
 271 016e 66040000 		.4byte	.LASF48
 272 0172 44       		.byte	0x44
 273 0173 07       		.byte	0x7
 274 0174 8E       		.byte	0x8e
 275 0175 4B020000 		.4byte	0x24b
 276 0179 08       		.uleb128 0x8
 277 017a AE080000 		.4byte	.LASF31
 278 017e 07       		.byte	0x7
 279 017f 8F       		.byte	0x8f
 280 0180 80020000 		.4byte	0x280
 281 0184 00       		.byte	0
 282 0185 08       		.uleb128 0x8
 283 0186 25010000 		.4byte	.LASF32
 284 018a 07       		.byte	0x7
 285 018b 90       		.byte	0x90
ARM GAS  C:\Users\14122\AppData\Local\Temp\ccUGLFNQ.s 			page 6


 286 018c 20010000 		.4byte	0x120
 287 0190 08       		.byte	0x8
 288 0191 09       		.uleb128 0x9
 289 0192 63747800 		.ascii	"ctx\000"
 290 0196 07       		.byte	0x7
 291 0197 91       		.byte	0x91
 292 0198 10080000 		.4byte	0x810
 293 019c 0C       		.byte	0xc
 294 019d 08       		.uleb128 0x8
 295 019e 950A0000 		.4byte	.LASF33
 296 01a2 07       		.byte	0x7
 297 01a3 93       		.byte	0x93
 298 01a4 56020000 		.4byte	0x256
 299 01a8 10       		.byte	0x10
 300 01a9 08       		.uleb128 0x8
 301 01aa DC040000 		.4byte	.LASF34
 302 01ae 07       		.byte	0x7
 303 01af 94       		.byte	0x94
 304 01b0 56020000 		.4byte	0x256
 305 01b4 14       		.byte	0x14
 306 01b5 08       		.uleb128 0x8
 307 01b6 5D090000 		.4byte	.LASF35
 308 01ba 07       		.byte	0x7
 309 01bb 9B       		.byte	0x9b
 310 01bc 74090000 		.4byte	0x974
 311 01c0 18       		.byte	0x18
 312 01c1 08       		.uleb128 0x8
 313 01c2 0E090000 		.4byte	.LASF36
 314 01c6 07       		.byte	0x7
 315 01c7 A4       		.byte	0xa4
 316 01c8 8B090000 		.4byte	0x98b
 317 01cc 1C       		.byte	0x1c
 318 01cd 08       		.uleb128 0x8
 319 01ce E4000000 		.4byte	.LASF37
 320 01d2 07       		.byte	0x7
 321 01d3 A9       		.byte	0xa9
 322 01d4 0A010000 		.4byte	0x10a
 323 01d8 20       		.byte	0x20
 324 01d9 08       		.uleb128 0x8
 325 01da 48030000 		.4byte	.LASF38
 326 01de 07       		.byte	0x7
 327 01df AD       		.byte	0xad
 328 01e0 FF000000 		.4byte	0xff
 329 01e4 21       		.byte	0x21
 330 01e5 08       		.uleb128 0x8
 331 01e6 A9080000 		.4byte	.LASF39
 332 01ea 07       		.byte	0x7
 333 01eb B2       		.byte	0xb2
 334 01ec 15010000 		.4byte	0x115
 335 01f0 22       		.byte	0x22
 336 01f1 0A       		.uleb128 0xa
 337 01f2 7500     		.ascii	"u\000"
 338 01f4 07       		.byte	0x7
 339 01f5 0301     		.2byte	0x103
 340 01f7 AA080000 		.4byte	0x8aa
 341 01fb 24       		.byte	0x24
 342 01fc 0B       		.uleb128 0xb
ARM GAS  C:\Users\14122\AppData\Local\Temp\ccUGLFNQ.s 			page 7


 343 01fd 410A0000 		.4byte	.LASF40
 344 0201 07       		.byte	0x7
 345 0202 0801     		.2byte	0x108
 346 0204 5C020000 		.4byte	0x25c
 347 0208 28       		.byte	0x28
 348 0209 0B       		.uleb128 0xb
 349 020a D8090000 		.4byte	.LASF41
 350 020e 07       		.byte	0x7
 351 020f 0E01     		.2byte	0x10e
 352 0211 80020000 		.4byte	0x280
 353 0215 2C       		.byte	0x2c
 354 0216 0B       		.uleb128 0xb
 355 0217 90010000 		.4byte	.LASF42
 356 021b 07       		.byte	0x7
 357 021c 1401     		.2byte	0x114
 358 021e 36010000 		.4byte	0x136
 359 0222 34       		.byte	0x34
 360 0223 0B       		.uleb128 0xb
 361 0224 61050000 		.4byte	.LASF43
 362 0228 07       		.byte	0x7
 363 0229 1B01     		.2byte	0x11b
 364 022b 6E090000 		.4byte	0x96e
 365 022f 38       		.byte	0x38
 366 0230 0B       		.uleb128 0xb
 367 0231 EC040000 		.4byte	.LASF44
 368 0235 07       		.byte	0x7
 369 0236 1F01     		.2byte	0x11f
 370 0238 20010000 		.4byte	0x120
 371 023c 3C       		.byte	0x3c
 372 023d 0B       		.uleb128 0xb
 373 023e 67030000 		.4byte	.LASF45
 374 0242 07       		.byte	0x7
 375 0243 2601     		.2byte	0x126
 376 0245 33030000 		.4byte	0x333
 377 0249 40       		.byte	0x40
 378 024a 00       		.byte	0
 379 024b 03       		.uleb128 0x3
 380 024c 9C070000 		.4byte	.LASF46
 381 0250 06       		.byte	0x6
 382 0251 39       		.byte	0x39
 383 0252 56020000 		.4byte	0x256
 384 0256 0C       		.uleb128 0xc
 385 0257 04       		.byte	0x4
 386 0258 62010000 		.4byte	0x162
 387 025c 03       		.uleb128 0x3
 388 025d 660A0000 		.4byte	.LASF47
 389 0261 06       		.byte	0x6
 390 0262 3E       		.byte	0x3e
 391 0263 67020000 		.4byte	0x267
 392 0267 07       		.uleb128 0x7
 393 0268 29050000 		.4byte	.LASF49
 394 026c 04       		.byte	0x4
 395 026d 07       		.byte	0x7
 396 026e 7C       		.byte	0x7c
 397 026f 80020000 		.4byte	0x280
 398 0273 08       		.uleb128 0x8
 399 0274 350B0000 		.4byte	.LASF50
ARM GAS  C:\Users\14122\AppData\Local\Temp\ccUGLFNQ.s 			page 8


 400 0278 07       		.byte	0x7
 401 0279 7D       		.byte	0x7d
 402 027a 56020000 		.4byte	0x256
 403 027e 00       		.byte	0
 404 027f 00       		.byte	0
 405 0280 03       		.uleb128 0x3
 406 0281 99010000 		.4byte	.LASF51
 407 0285 06       		.byte	0x6
 408 0286 45       		.byte	0x45
 409 0287 8B020000 		.4byte	0x28b
 410 028b 07       		.uleb128 0x7
 411 028c 68080000 		.4byte	.LASF52
 412 0290 08       		.byte	0x8
 413 0291 07       		.byte	0x7
 414 0292 83       		.byte	0x83
 415 0293 B0020000 		.4byte	0x2b0
 416 0297 08       		.uleb128 0x8
 417 0298 350B0000 		.4byte	.LASF50
 418 029c 07       		.byte	0x7
 419 029d 84       		.byte	0x84
 420 029e 56020000 		.4byte	0x256
 421 02a2 00       		.byte	0
 422 02a3 08       		.uleb128 0x8
 423 02a4 3F0B0000 		.4byte	.LASF53
 424 02a8 07       		.byte	0x7
 425 02a9 85       		.byte	0x85
 426 02aa 56020000 		.4byte	0x256
 427 02ae 04       		.byte	0x4
 428 02af 00       		.byte	0
 429 02b0 03       		.uleb128 0x3
 430 02b1 CF040000 		.4byte	.LASF54
 431 02b5 06       		.byte	0x6
 432 02b6 4C       		.byte	0x4c
 433 02b7 BB020000 		.4byte	0x2bb
 434 02bb 0D       		.uleb128 0xd
 435 02bc D8030000 		.4byte	.LASF55
 436 02c0 1C       		.byte	0x1c
 437 02c1 07       		.byte	0x7
 438 02c2 5E01     		.2byte	0x15e
 439 02c4 17030000 		.4byte	0x317
 440 02c8 0B       		.uleb128 0xb
 441 02c9 AE080000 		.4byte	.LASF31
 442 02cd 07       		.byte	0x7
 443 02ce 5F01     		.2byte	0x15f
 444 02d0 80020000 		.4byte	0x280
 445 02d4 00       		.byte	0
 446 02d5 0B       		.uleb128 0xb
 447 02d6 25010000 		.4byte	.LASF32
 448 02da 07       		.byte	0x7
 449 02db 6001     		.2byte	0x160
 450 02dd 20010000 		.4byte	0x120
 451 02e1 08       		.byte	0x8
 452 02e2 0A       		.uleb128 0xa
 453 02e3 63747800 		.ascii	"ctx\000"
 454 02e7 07       		.byte	0x7
 455 02e8 6201     		.2byte	0x162
 456 02ea 10080000 		.4byte	0x810
ARM GAS  C:\Users\14122\AppData\Local\Temp\ccUGLFNQ.s 			page 9


 457 02ee 0C       		.byte	0xc
 458 02ef 0B       		.uleb128 0xb
 459 02f0 950A0000 		.4byte	.LASF33
 460 02f4 07       		.byte	0x7
 461 02f5 6501     		.2byte	0x165
 462 02f7 56020000 		.4byte	0x256
 463 02fb 10       		.byte	0x10
 464 02fc 0B       		.uleb128 0xb
 465 02fd DC040000 		.4byte	.LASF34
 466 0301 07       		.byte	0x7
 467 0302 6601     		.2byte	0x166
 468 0304 56020000 		.4byte	0x256
 469 0308 14       		.byte	0x14
 470 0309 0B       		.uleb128 0xb
 471 030a 6F060000 		.4byte	.LASF56
 472 030e 07       		.byte	0x7
 473 030f 6901     		.2byte	0x169
 474 0311 56020000 		.4byte	0x256
 475 0315 18       		.byte	0x18
 476 0316 00       		.byte	0
 477 0317 03       		.uleb128 0x3
 478 0318 8B000000 		.4byte	.LASF57
 479 031c 06       		.byte	0x6
 480 031d 51       		.byte	0x51
 481 031e 22030000 		.4byte	0x322
 482 0322 0C       		.uleb128 0xc
 483 0323 04       		.byte	0x4
 484 0324 28030000 		.4byte	0x328
 485 0328 0E       		.uleb128 0xe
 486 0329 33030000 		.4byte	0x333
 487 032d 0F       		.uleb128 0xf
 488 032e 33030000 		.4byte	0x333
 489 0332 00       		.byte	0
 490 0333 10       		.uleb128 0x10
 491 0334 04       		.byte	0x4
 492 0335 03       		.uleb128 0x3
 493 0336 BF040000 		.4byte	.LASF58
 494 033a 06       		.byte	0x6
 495 033b 56       		.byte	0x56
 496 033c 40030000 		.4byte	0x340
 497 0340 0D       		.uleb128 0xd
 498 0341 06080000 		.4byte	.LASF59
 499 0345 14       		.byte	0x14
 500 0346 07       		.byte	0x7
 501 0347 3901     		.2byte	0x139
 502 0349 8F030000 		.4byte	0x38f
 503 034d 0B       		.uleb128 0xb
 504 034e 350B0000 		.4byte	.LASF50
 505 0352 07       		.byte	0x7
 506 0353 3A01     		.2byte	0x13a
 507 0355 91090000 		.4byte	0x991
 508 0359 00       		.byte	0
 509 035a 0B       		.uleb128 0xb
 510 035b 3F0B0000 		.4byte	.LASF53
 511 035f 07       		.byte	0x7
 512 0360 3B01     		.2byte	0x13b
 513 0362 91090000 		.4byte	0x991
ARM GAS  C:\Users\14122\AppData\Local\Temp\ccUGLFNQ.s 			page 10


 514 0366 04       		.byte	0x4
 515 0367 0B       		.uleb128 0xb
 516 0368 86080000 		.4byte	.LASF60
 517 036c 07       		.byte	0x7
 518 036d 3C01     		.2byte	0x13c
 519 036f 5A040000 		.4byte	0x45a
 520 0373 08       		.byte	0x8
 521 0374 0B       		.uleb128 0xb
 522 0375 C4090000 		.4byte	.LASF61
 523 0379 07       		.byte	0x7
 524 037a 3D01     		.2byte	0x13d
 525 037c 17030000 		.4byte	0x317
 526 0380 0C       		.byte	0xc
 527 0381 0A       		.uleb128 0xa
 528 0382 70617200 		.ascii	"par\000"
 529 0386 07       		.byte	0x7
 530 0387 3F01     		.2byte	0x13f
 531 0389 33030000 		.4byte	0x333
 532 038d 10       		.byte	0x10
 533 038e 00       		.byte	0
 534 038f 03       		.uleb128 0x3
 535 0390 70040000 		.4byte	.LASF62
 536 0394 06       		.byte	0x6
 537 0395 5B       		.byte	0x5b
 538 0396 9A030000 		.4byte	0x39a
 539 039a 0D       		.uleb128 0xd
 540 039b A0000000 		.4byte	.LASF63
 541 039f 10       		.byte	0x10
 542 03a0 07       		.byte	0x7
 543 03a1 4901     		.2byte	0x149
 544 03a3 DC030000 		.4byte	0x3dc
 545 03a7 0B       		.uleb128 0xb
 546 03a8 350B0000 		.4byte	.LASF50
 547 03ac 07       		.byte	0x7
 548 03ad 4A01     		.2byte	0x14a
 549 03af 91090000 		.4byte	0x991
 550 03b3 00       		.byte	0
 551 03b4 0B       		.uleb128 0xb
 552 03b5 3F0B0000 		.4byte	.LASF53
 553 03b9 07       		.byte	0x7
 554 03ba 4C01     		.2byte	0x14c
 555 03bc 91090000 		.4byte	0x991
 556 03c0 04       		.byte	0x4
 557 03c1 0B       		.uleb128 0xb
 558 03c2 86080000 		.4byte	.LASF60
 559 03c6 07       		.byte	0x7
 560 03c7 4E01     		.2byte	0x14e
 561 03c9 5A040000 		.4byte	0x45a
 562 03cd 08       		.byte	0x8
 563 03ce 0B       		.uleb128 0xb
 564 03cf AD020000 		.4byte	.LASF64
 565 03d3 07       		.byte	0x7
 566 03d4 5601     		.2byte	0x156
 567 03d6 4F040000 		.4byte	0x44f
 568 03da 0C       		.byte	0xc
 569 03db 00       		.byte	0
 570 03dc 03       		.uleb128 0x3
ARM GAS  C:\Users\14122\AppData\Local\Temp\ccUGLFNQ.s 			page 11


 571 03dd D8020000 		.4byte	.LASF65
 572 03e1 06       		.byte	0x6
 573 03e2 60       		.byte	0x60
 574 03e3 E7030000 		.4byte	0x3e7
 575 03e7 0D       		.uleb128 0xd
 576 03e8 F5090000 		.4byte	.LASF66
 577 03ec 04       		.byte	0x4
 578 03ed 07       		.byte	0x7
 579 03ee 7001     		.2byte	0x170
 580 03f0 02040000 		.4byte	0x402
 581 03f4 0B       		.uleb128 0xb
 582 03f5 CE020000 		.4byte	.LASF67
 583 03f9 07       		.byte	0x7
 584 03fa 7801     		.2byte	0x178
 585 03fc 7A090000 		.4byte	0x97a
 586 0400 00       		.byte	0
 587 0401 00       		.byte	0
 588 0402 03       		.uleb128 0x3
 589 0403 D50A0000 		.4byte	.LASF68
 590 0407 06       		.byte	0x6
 591 0408 65       		.byte	0x65
 592 0409 0D040000 		.4byte	0x40d
 593 040d 0D       		.uleb128 0xd
 594 040e 8B0A0000 		.4byte	.LASF69
 595 0412 74       		.byte	0x74
 596 0413 07       		.byte	0x7
 597 0414 9001     		.2byte	0x190
 598 0416 4F040000 		.4byte	0x44f
 599 041a 0B       		.uleb128 0xb
 600 041b 2D090000 		.4byte	.LASF70
 601 041f 07       		.byte	0x7
 602 0420 9401     		.2byte	0x194
 603 0422 B0020000 		.4byte	0x2b0
 604 0426 00       		.byte	0
 605 0427 0B       		.uleb128 0xb
 606 0428 3A0A0000 		.4byte	.LASF71
 607 042c 07       		.byte	0x7
 608 042d 9801     		.2byte	0x198
 609 042f 8F030000 		.4byte	0x38f
 610 0433 1C       		.byte	0x1c
 611 0434 0A       		.uleb128 0xa
 612 0435 64626700 		.ascii	"dbg\000"
 613 0439 07       		.byte	0x7
 614 043a 9C01     		.2byte	0x19c
 615 043c DC030000 		.4byte	0x3dc
 616 0440 2C       		.byte	0x2c
 617 0441 0B       		.uleb128 0xb
 618 0442 DC080000 		.4byte	.LASF72
 619 0446 07       		.byte	0x7
 620 0447 A001     		.2byte	0x1a0
 621 0449 62010000 		.4byte	0x162
 622 044d 30       		.byte	0x30
 623 044e 00       		.byte	0
 624 044f 03       		.uleb128 0x3
 625 0450 39000000 		.4byte	.LASF73
 626 0454 08       		.byte	0x8
 627 0455 6F       		.byte	0x6f
ARM GAS  C:\Users\14122\AppData\Local\Temp\ccUGLFNQ.s 			page 12


 628 0456 C4000000 		.4byte	0xc4
 629 045a 03       		.uleb128 0x3
 630 045b 84050000 		.4byte	.LASF74
 631 045f 08       		.byte	0x8
 632 0460 79       		.byte	0x79
 633 0461 E4000000 		.4byte	0xe4
 634 0465 11       		.uleb128 0x11
 635 0466 E4000000 		.4byte	0xe4
 636 046a 75040000 		.4byte	0x475
 637 046e 12       		.uleb128 0x12
 638 046f 37000000 		.4byte	0x37
 639 0473 07       		.byte	0x7
 640 0474 00       		.byte	0
 641 0475 13       		.uleb128 0x13
 642 0476 C8050000 		.4byte	.LASF75
 643 047a 09       		.byte	0x9
 644 047b 4007     		.2byte	0x740
 645 047d DF000000 		.4byte	0xdf
 646 0481 14       		.uleb128 0x14
 647 0482 3B040000 		.4byte	.LASF76
 648 0486 0A       		.byte	0xa
 649 0487 45       		.byte	0x45
 650 0488 E4000000 		.4byte	0xe4
 651 048c 11       		.uleb128 0x11
 652 048d BF000000 		.4byte	0xbf
 653 0491 9C040000 		.4byte	0x49c
 654 0495 12       		.uleb128 0x12
 655 0496 37000000 		.4byte	0x37
 656 049a 0F       		.byte	0xf
 657 049b 00       		.byte	0
 658 049c 05       		.uleb128 0x5
 659 049d 8C040000 		.4byte	0x48c
 660 04a1 14       		.uleb128 0x14
 661 04a2 F8070000 		.4byte	.LASF77
 662 04a6 0A       		.byte	0xa
 663 04a7 46       		.byte	0x46
 664 04a8 9C040000 		.4byte	0x49c
 665 04ac 11       		.uleb128 0x11
 666 04ad BF000000 		.4byte	0xbf
 667 04b1 BC040000 		.4byte	0x4bc
 668 04b5 12       		.uleb128 0x12
 669 04b6 37000000 		.4byte	0x37
 670 04ba 07       		.byte	0x7
 671 04bb 00       		.byte	0
 672 04bc 05       		.uleb128 0x5
 673 04bd AC040000 		.4byte	0x4ac
 674 04c1 14       		.uleb128 0x14
 675 04c2 6B090000 		.4byte	.LASF78
 676 04c6 0A       		.byte	0xa
 677 04c7 47       		.byte	0x47
 678 04c8 BC040000 		.4byte	0x4bc
 679 04cc 15       		.uleb128 0x15
 680 04cd 10       		.byte	0x10
 681 04ce 0B       		.byte	0xb
 682 04cf DD       		.byte	0xdd
 683 04d0 05050000 		.4byte	0x505
 684 04d4 09       		.uleb128 0x9
ARM GAS  C:\Users\14122\AppData\Local\Temp\ccUGLFNQ.s 			page 13


 685 04d5 54495200 		.ascii	"TIR\000"
 686 04d9 0B       		.byte	0xb
 687 04da DF       		.byte	0xdf
 688 04db EF000000 		.4byte	0xef
 689 04df 00       		.byte	0
 690 04e0 08       		.uleb128 0x8
 691 04e1 5B0B0000 		.4byte	.LASF79
 692 04e5 0B       		.byte	0xb
 693 04e6 E0       		.byte	0xe0
 694 04e7 EF000000 		.4byte	0xef
 695 04eb 04       		.byte	0x4
 696 04ec 08       		.uleb128 0x8
 697 04ed B4080000 		.4byte	.LASF80
 698 04f1 0B       		.byte	0xb
 699 04f2 E1       		.byte	0xe1
 700 04f3 EF000000 		.4byte	0xef
 701 04f7 08       		.byte	0x8
 702 04f8 08       		.uleb128 0x8
 703 04f9 6A060000 		.4byte	.LASF81
 704 04fd 0B       		.byte	0xb
 705 04fe E2       		.byte	0xe2
 706 04ff EF000000 		.4byte	0xef
 707 0503 0C       		.byte	0xc
 708 0504 00       		.byte	0
 709 0505 03       		.uleb128 0x3
 710 0506 79090000 		.4byte	.LASF82
 711 050a 0B       		.byte	0xb
 712 050b E3       		.byte	0xe3
 713 050c CC040000 		.4byte	0x4cc
 714 0510 15       		.uleb128 0x15
 715 0511 10       		.byte	0x10
 716 0512 0B       		.byte	0xb
 717 0513 E9       		.byte	0xe9
 718 0514 49050000 		.4byte	0x549
 719 0518 09       		.uleb128 0x9
 720 0519 52495200 		.ascii	"RIR\000"
 721 051d 0B       		.byte	0xb
 722 051e EB       		.byte	0xeb
 723 051f EF000000 		.4byte	0xef
 724 0523 00       		.byte	0
 725 0524 08       		.uleb128 0x8
 726 0525 3A0B0000 		.4byte	.LASF83
 727 0529 0B       		.byte	0xb
 728 052a EC       		.byte	0xec
 729 052b EF000000 		.4byte	0xef
 730 052f 04       		.byte	0x4
 731 0530 08       		.uleb128 0x8
 732 0531 8C080000 		.4byte	.LASF84
 733 0535 0B       		.byte	0xb
 734 0536 ED       		.byte	0xed
 735 0537 EF000000 		.4byte	0xef
 736 053b 08       		.byte	0x8
 737 053c 08       		.uleb128 0x8
 738 053d 60060000 		.4byte	.LASF85
 739 0541 0B       		.byte	0xb
 740 0542 EE       		.byte	0xee
 741 0543 EF000000 		.4byte	0xef
ARM GAS  C:\Users\14122\AppData\Local\Temp\ccUGLFNQ.s 			page 14


 742 0547 0C       		.byte	0xc
 743 0548 00       		.byte	0
 744 0549 03       		.uleb128 0x3
 745 054a 91080000 		.4byte	.LASF86
 746 054e 0B       		.byte	0xb
 747 054f EF       		.byte	0xef
 748 0550 10050000 		.4byte	0x510
 749 0554 15       		.uleb128 0x15
 750 0555 08       		.byte	0x8
 751 0556 0B       		.byte	0xb
 752 0557 F5       		.byte	0xf5
 753 0558 75050000 		.4byte	0x575
 754 055c 09       		.uleb128 0x9
 755 055d 46523100 		.ascii	"FR1\000"
 756 0561 0B       		.byte	0xb
 757 0562 F7       		.byte	0xf7
 758 0563 EF000000 		.4byte	0xef
 759 0567 00       		.byte	0
 760 0568 09       		.uleb128 0x9
 761 0569 46523200 		.ascii	"FR2\000"
 762 056d 0B       		.byte	0xb
 763 056e F8       		.byte	0xf8
 764 056f EF000000 		.4byte	0xef
 765 0573 04       		.byte	0x4
 766 0574 00       		.byte	0
 767 0575 03       		.uleb128 0x3
 768 0576 32020000 		.4byte	.LASF87
 769 057a 0B       		.byte	0xb
 770 057b F9       		.byte	0xf9
 771 057c 54050000 		.4byte	0x554
 772 0580 16       		.uleb128 0x16
 773 0581 B002     		.2byte	0x2b0
 774 0583 0B       		.byte	0xb
 775 0584 FF       		.byte	0xff
 776 0585 B5060000 		.4byte	0x6b5
 777 0589 0A       		.uleb128 0xa
 778 058a 4D435200 		.ascii	"MCR\000"
 779 058e 0B       		.byte	0xb
 780 058f 0101     		.2byte	0x101
 781 0591 EF000000 		.4byte	0xef
 782 0595 00       		.byte	0
 783 0596 0A       		.uleb128 0xa
 784 0597 4D535200 		.ascii	"MSR\000"
 785 059b 0B       		.byte	0xb
 786 059c 0201     		.2byte	0x102
 787 059e EF000000 		.4byte	0xef
 788 05a2 04       		.byte	0x4
 789 05a3 0A       		.uleb128 0xa
 790 05a4 54535200 		.ascii	"TSR\000"
 791 05a8 0B       		.byte	0xb
 792 05a9 0301     		.2byte	0x103
 793 05ab EF000000 		.4byte	0xef
 794 05af 08       		.byte	0x8
 795 05b0 0B       		.uleb128 0xb
 796 05b1 EF010000 		.4byte	.LASF88
 797 05b5 0B       		.byte	0xb
 798 05b6 0401     		.2byte	0x104
ARM GAS  C:\Users\14122\AppData\Local\Temp\ccUGLFNQ.s 			page 15


 799 05b8 EF000000 		.4byte	0xef
 800 05bc 0C       		.byte	0xc
 801 05bd 0B       		.uleb128 0xb
 802 05be C9020000 		.4byte	.LASF89
 803 05c2 0B       		.byte	0xb
 804 05c3 0501     		.2byte	0x105
 805 05c5 EF000000 		.4byte	0xef
 806 05c9 10       		.byte	0x10
 807 05ca 0A       		.uleb128 0xa
 808 05cb 49455200 		.ascii	"IER\000"
 809 05cf 0B       		.byte	0xb
 810 05d0 0601     		.2byte	0x106
 811 05d2 EF000000 		.4byte	0xef
 812 05d6 14       		.byte	0x14
 813 05d7 0A       		.uleb128 0xa
 814 05d8 45535200 		.ascii	"ESR\000"
 815 05dc 0B       		.byte	0xb
 816 05dd 0701     		.2byte	0x107
 817 05df EF000000 		.4byte	0xef
 818 05e3 18       		.byte	0x18
 819 05e4 0A       		.uleb128 0xa
 820 05e5 42545200 		.ascii	"BTR\000"
 821 05e9 0B       		.byte	0xb
 822 05ea 0801     		.2byte	0x108
 823 05ec EF000000 		.4byte	0xef
 824 05f0 1C       		.byte	0x1c
 825 05f1 0B       		.uleb128 0xb
 826 05f2 6D020000 		.4byte	.LASF90
 827 05f6 0B       		.byte	0xb
 828 05f7 0901     		.2byte	0x109
 829 05f9 B5060000 		.4byte	0x6b5
 830 05fd 20       		.byte	0x20
 831 05fe 17       		.uleb128 0x17
 832 05ff EB0A0000 		.4byte	.LASF91
 833 0603 0B       		.byte	0xb
 834 0604 0A01     		.2byte	0x10a
 835 0606 C5060000 		.4byte	0x6c5
 836 060a 8001     		.2byte	0x180
 837 060c 17       		.uleb128 0x17
 838 060d 4D020000 		.4byte	.LASF92
 839 0611 0B       		.byte	0xb
 840 0612 0B01     		.2byte	0x10b
 841 0614 D5060000 		.4byte	0x6d5
 842 0618 B001     		.2byte	0x1b0
 843 061a 17       		.uleb128 0x17
 844 061b 77020000 		.4byte	.LASF93
 845 061f 0B       		.byte	0xb
 846 0620 0C01     		.2byte	0x10c
 847 0622 E5060000 		.4byte	0x6e5
 848 0626 D001     		.2byte	0x1d0
 849 0628 18       		.uleb128 0x18
 850 0629 464D5200 		.ascii	"FMR\000"
 851 062d 0B       		.byte	0xb
 852 062e 0D01     		.2byte	0x10d
 853 0630 EF000000 		.4byte	0xef
 854 0634 0002     		.2byte	0x200
 855 0636 17       		.uleb128 0x17
ARM GAS  C:\Users\14122\AppData\Local\Temp\ccUGLFNQ.s 			page 16


 856 0637 5B060000 		.4byte	.LASF94
 857 063b 0B       		.byte	0xb
 858 063c 0E01     		.2byte	0x10e
 859 063e EF000000 		.4byte	0xef
 860 0642 0402     		.2byte	0x204
 861 0644 17       		.uleb128 0x17
 862 0645 FA020000 		.4byte	.LASF95
 863 0649 0B       		.byte	0xb
 864 064a 0F01     		.2byte	0x10f
 865 064c E4000000 		.4byte	0xe4
 866 0650 0802     		.2byte	0x208
 867 0652 17       		.uleb128 0x17
 868 0653 58090000 		.4byte	.LASF96
 869 0657 0B       		.byte	0xb
 870 0658 1001     		.2byte	0x110
 871 065a EF000000 		.4byte	0xef
 872 065e 0C02     		.2byte	0x20c
 873 0660 17       		.uleb128 0x17
 874 0661 8F020000 		.4byte	.LASF97
 875 0665 0B       		.byte	0xb
 876 0666 1101     		.2byte	0x111
 877 0668 E4000000 		.4byte	0xe4
 878 066c 1002     		.2byte	0x210
 879 066e 17       		.uleb128 0x17
 880 066f D2090000 		.4byte	.LASF98
 881 0673 0B       		.byte	0xb
 882 0674 1201     		.2byte	0x112
 883 0676 EF000000 		.4byte	0xef
 884 067a 1402     		.2byte	0x214
 885 067c 17       		.uleb128 0x17
 886 067d 99020000 		.4byte	.LASF99
 887 0681 0B       		.byte	0xb
 888 0682 1301     		.2byte	0x113
 889 0684 E4000000 		.4byte	0xe4
 890 0688 1802     		.2byte	0x218
 891 068a 17       		.uleb128 0x17
 892 068b 82010000 		.4byte	.LASF100
 893 068f 0B       		.byte	0xb
 894 0690 1401     		.2byte	0x114
 895 0692 EF000000 		.4byte	0xef
 896 0696 1C02     		.2byte	0x21c
 897 0698 17       		.uleb128 0x17
 898 0699 A3020000 		.4byte	.LASF101
 899 069d 0B       		.byte	0xb
 900 069e 1501     		.2byte	0x115
 901 06a0 65040000 		.4byte	0x465
 902 06a4 2002     		.2byte	0x220
 903 06a6 17       		.uleb128 0x17
 904 06a7 64070000 		.4byte	.LASF102
 905 06ab 0B       		.byte	0xb
 906 06ac 1601     		.2byte	0x116
 907 06ae F5060000 		.4byte	0x6f5
 908 06b2 4002     		.2byte	0x240
 909 06b4 00       		.byte	0
 910 06b5 11       		.uleb128 0x11
 911 06b6 E4000000 		.4byte	0xe4
 912 06ba C5060000 		.4byte	0x6c5
ARM GAS  C:\Users\14122\AppData\Local\Temp\ccUGLFNQ.s 			page 17


 913 06be 12       		.uleb128 0x12
 914 06bf 37000000 		.4byte	0x37
 915 06c3 57       		.byte	0x57
 916 06c4 00       		.byte	0
 917 06c5 11       		.uleb128 0x11
 918 06c6 05050000 		.4byte	0x505
 919 06ca D5060000 		.4byte	0x6d5
 920 06ce 12       		.uleb128 0x12
 921 06cf 37000000 		.4byte	0x37
 922 06d3 02       		.byte	0x2
 923 06d4 00       		.byte	0
 924 06d5 11       		.uleb128 0x11
 925 06d6 49050000 		.4byte	0x549
 926 06da E5060000 		.4byte	0x6e5
 927 06de 12       		.uleb128 0x12
 928 06df 37000000 		.4byte	0x37
 929 06e3 01       		.byte	0x1
 930 06e4 00       		.byte	0
 931 06e5 11       		.uleb128 0x11
 932 06e6 E4000000 		.4byte	0xe4
 933 06ea F5060000 		.4byte	0x6f5
 934 06ee 12       		.uleb128 0x12
 935 06ef 37000000 		.4byte	0x37
 936 06f3 0B       		.byte	0xb
 937 06f4 00       		.byte	0
 938 06f5 11       		.uleb128 0x11
 939 06f6 75050000 		.4byte	0x575
 940 06fa 05070000 		.4byte	0x705
 941 06fe 12       		.uleb128 0x12
 942 06ff 37000000 		.4byte	0x37
 943 0703 0D       		.byte	0xd
 944 0704 00       		.byte	0
 945 0705 19       		.uleb128 0x19
 946 0706 83060000 		.4byte	.LASF103
 947 070a 0B       		.byte	0xb
 948 070b 1701     		.2byte	0x117
 949 070d 80050000 		.4byte	0x580
 950 0711 1A       		.uleb128 0x1a
 951 0712 10       		.byte	0x10
 952 0713 0B       		.byte	0xb
 953 0714 3501     		.2byte	0x135
 954 0716 4F070000 		.4byte	0x74f
 955 071a 0A       		.uleb128 0xa
 956 071b 43435200 		.ascii	"CCR\000"
 957 071f 0B       		.byte	0xb
 958 0720 3701     		.2byte	0x137
 959 0722 EF000000 		.4byte	0xef
 960 0726 00       		.byte	0
 961 0727 0B       		.uleb128 0xb
 962 0728 03010000 		.4byte	.LASF104
 963 072c 0B       		.byte	0xb
 964 072d 3801     		.2byte	0x138
 965 072f EF000000 		.4byte	0xef
 966 0733 04       		.byte	0x4
 967 0734 0B       		.uleb128 0xb
 968 0735 D1010000 		.4byte	.LASF105
 969 0739 0B       		.byte	0xb
ARM GAS  C:\Users\14122\AppData\Local\Temp\ccUGLFNQ.s 			page 18


 970 073a 3901     		.2byte	0x139
 971 073c EF000000 		.4byte	0xef
 972 0740 08       		.byte	0x8
 973 0741 0B       		.uleb128 0xb
 974 0742 65060000 		.4byte	.LASF106
 975 0746 0B       		.byte	0xb
 976 0747 3A01     		.2byte	0x13a
 977 0749 EF000000 		.4byte	0xef
 978 074d 0C       		.byte	0xc
 979 074e 00       		.byte	0
 980 074f 19       		.uleb128 0x19
 981 0750 E4070000 		.4byte	.LASF107
 982 0754 0B       		.byte	0xb
 983 0755 3B01     		.2byte	0x13b
 984 0757 11070000 		.4byte	0x711
 985 075b 1A       		.uleb128 0x1a
 986 075c 08       		.byte	0x8
 987 075d 0B       		.byte	0xb
 988 075e 3D01     		.2byte	0x13d
 989 0760 7F070000 		.4byte	0x77f
 990 0764 0A       		.uleb128 0xa
 991 0765 49535200 		.ascii	"ISR\000"
 992 0769 0B       		.byte	0xb
 993 076a 3F01     		.2byte	0x13f
 994 076c EF000000 		.4byte	0xef
 995 0770 00       		.byte	0
 996 0771 0B       		.uleb128 0xb
 997 0772 14030000 		.4byte	.LASF108
 998 0776 0B       		.byte	0xb
 999 0777 4001     		.2byte	0x140
 1000 0779 EF000000 		.4byte	0xef
 1001 077d 04       		.byte	0x4
 1002 077e 00       		.byte	0
 1003 077f 19       		.uleb128 0x19
 1004 0780 BD020000 		.4byte	.LASF109
 1005 0784 0B       		.byte	0xb
 1006 0785 4101     		.2byte	0x141
 1007 0787 5B070000 		.4byte	0x75b
 1008 078b 1A       		.uleb128 0x1a
 1009 078c 1C       		.byte	0x1c
 1010 078d 0B       		.byte	0xb
 1011 078e 2902     		.2byte	0x229
 1012 0790 EE070000 		.4byte	0x7ee
 1013 0794 0A       		.uleb128 0xa
 1014 0795 535200   		.ascii	"SR\000"
 1015 0798 0B       		.byte	0xb
 1016 0799 2B02     		.2byte	0x22b
 1017 079b EF000000 		.4byte	0xef
 1018 079f 00       		.byte	0
 1019 07a0 0A       		.uleb128 0xa
 1020 07a1 445200   		.ascii	"DR\000"
 1021 07a4 0B       		.byte	0xb
 1022 07a5 2C02     		.2byte	0x22c
 1023 07a7 EF000000 		.4byte	0xef
 1024 07ab 04       		.byte	0x4
 1025 07ac 0A       		.uleb128 0xa
 1026 07ad 42525200 		.ascii	"BRR\000"
ARM GAS  C:\Users\14122\AppData\Local\Temp\ccUGLFNQ.s 			page 19


 1027 07b1 0B       		.byte	0xb
 1028 07b2 2D02     		.2byte	0x22d
 1029 07b4 EF000000 		.4byte	0xef
 1030 07b8 08       		.byte	0x8
 1031 07b9 0A       		.uleb128 0xa
 1032 07ba 43523100 		.ascii	"CR1\000"
 1033 07be 0B       		.byte	0xb
 1034 07bf 2E02     		.2byte	0x22e
 1035 07c1 EF000000 		.4byte	0xef
 1036 07c5 0C       		.byte	0xc
 1037 07c6 0A       		.uleb128 0xa
 1038 07c7 43523200 		.ascii	"CR2\000"
 1039 07cb 0B       		.byte	0xb
 1040 07cc 2F02     		.2byte	0x22f
 1041 07ce EF000000 		.4byte	0xef
 1042 07d2 10       		.byte	0x10
 1043 07d3 0A       		.uleb128 0xa
 1044 07d4 43523300 		.ascii	"CR3\000"
 1045 07d8 0B       		.byte	0xb
 1046 07d9 3002     		.2byte	0x230
 1047 07db EF000000 		.4byte	0xef
 1048 07df 14       		.byte	0x14
 1049 07e0 0B       		.uleb128 0xb
 1050 07e1 AE050000 		.4byte	.LASF110
 1051 07e5 0B       		.byte	0xb
 1052 07e6 3102     		.2byte	0x231
 1053 07e8 EF000000 		.4byte	0xef
 1054 07ec 18       		.byte	0x18
 1055 07ed 00       		.byte	0
 1056 07ee 19       		.uleb128 0x19
 1057 07ef 59030000 		.4byte	.LASF111
 1058 07f3 0B       		.byte	0xb
 1059 07f4 3202     		.2byte	0x232
 1060 07f6 8B070000 		.4byte	0x78b
 1061 07fa 03       		.uleb128 0x3
 1062 07fb A9010000 		.4byte	.LASF112
 1063 07ff 0C       		.byte	0xc
 1064 0800 65       		.byte	0x65
 1065 0801 33030000 		.4byte	0x333
 1066 0805 03       		.uleb128 0x3
 1067 0806 4E030000 		.4byte	.LASF113
 1068 080a 0C       		.byte	0xc
 1069 080b 6D       		.byte	0x6d
 1070 080c F4000000 		.4byte	0xf4
 1071 0810 07       		.uleb128 0x7
 1072 0811 590A0000 		.4byte	.LASF114
 1073 0815 04       		.byte	0x4
 1074 0816 0C       		.byte	0xc
 1075 0817 89       		.byte	0x89
 1076 0818 28080000 		.4byte	0x828
 1077 081c 09       		.uleb128 0x9
 1078 081d 737000   		.ascii	"sp\000"
 1079 0820 0C       		.byte	0xc
 1080 0821 8A       		.byte	0x8a
 1081 0822 A4080000 		.4byte	0x8a4
 1082 0826 00       		.byte	0
 1083 0827 00       		.byte	0
ARM GAS  C:\Users\14122\AppData\Local\Temp\ccUGLFNQ.s 			page 20


 1084 0828 0D       		.uleb128 0xd
 1085 0829 B7070000 		.4byte	.LASF115
 1086 082d 24       		.byte	0x24
 1087 082e 0D       		.byte	0xd
 1088 082f 5901     		.2byte	0x159
 1089 0831 A4080000 		.4byte	0x8a4
 1090 0835 0A       		.uleb128 0xa
 1091 0836 723400   		.ascii	"r4\000"
 1092 0839 0D       		.byte	0xd
 1093 083a 6C01     		.2byte	0x16c
 1094 083c FA070000 		.4byte	0x7fa
 1095 0840 00       		.byte	0
 1096 0841 0A       		.uleb128 0xa
 1097 0842 723500   		.ascii	"r5\000"
 1098 0845 0D       		.byte	0xd
 1099 0846 6D01     		.2byte	0x16d
 1100 0848 FA070000 		.4byte	0x7fa
 1101 084c 04       		.byte	0x4
 1102 084d 0A       		.uleb128 0xa
 1103 084e 723600   		.ascii	"r6\000"
 1104 0851 0D       		.byte	0xd
 1105 0852 6E01     		.2byte	0x16e
 1106 0854 FA070000 		.4byte	0x7fa
 1107 0858 08       		.byte	0x8
 1108 0859 0A       		.uleb128 0xa
 1109 085a 723700   		.ascii	"r7\000"
 1110 085d 0D       		.byte	0xd
 1111 085e 6F01     		.2byte	0x16f
 1112 0860 FA070000 		.4byte	0x7fa
 1113 0864 0C       		.byte	0xc
 1114 0865 0A       		.uleb128 0xa
 1115 0866 723800   		.ascii	"r8\000"
 1116 0869 0D       		.byte	0xd
 1117 086a 7001     		.2byte	0x170
 1118 086c FA070000 		.4byte	0x7fa
 1119 0870 10       		.byte	0x10
 1120 0871 0A       		.uleb128 0xa
 1121 0872 723900   		.ascii	"r9\000"
 1122 0875 0D       		.byte	0xd
 1123 0876 7101     		.2byte	0x171
 1124 0878 FA070000 		.4byte	0x7fa
 1125 087c 14       		.byte	0x14
 1126 087d 0A       		.uleb128 0xa
 1127 087e 72313000 		.ascii	"r10\000"
 1128 0882 0D       		.byte	0xd
 1129 0883 7201     		.2byte	0x172
 1130 0885 FA070000 		.4byte	0x7fa
 1131 0889 18       		.byte	0x18
 1132 088a 0A       		.uleb128 0xa
 1133 088b 72313100 		.ascii	"r11\000"
 1134 088f 0D       		.byte	0xd
 1135 0890 7301     		.2byte	0x173
 1136 0892 FA070000 		.4byte	0x7fa
 1137 0896 1C       		.byte	0x1c
 1138 0897 0A       		.uleb128 0xa
 1139 0898 6C7200   		.ascii	"lr\000"
 1140 089b 0D       		.byte	0xd
ARM GAS  C:\Users\14122\AppData\Local\Temp\ccUGLFNQ.s 			page 21


 1141 089c 7401     		.2byte	0x174
 1142 089e FA070000 		.4byte	0x7fa
 1143 08a2 20       		.byte	0x20
 1144 08a3 00       		.byte	0
 1145 08a4 0C       		.uleb128 0xc
 1146 08a5 04       		.byte	0x4
 1147 08a6 28080000 		.4byte	0x828
 1148 08aa 1B       		.uleb128 0x1b
 1149 08ab 04       		.byte	0x4
 1150 08ac 07       		.byte	0x7
 1151 08ad C6       		.byte	0xc6
 1152 08ae 0C090000 		.4byte	0x90c
 1153 08b2 1C       		.uleb128 0x1c
 1154 08b3 BB0A0000 		.4byte	.LASF116
 1155 08b7 07       		.byte	0x7
 1156 08b8 CD       		.byte	0xcd
 1157 08b9 2B010000 		.4byte	0x12b
 1158 08bd 1C       		.uleb128 0x1c
 1159 08be 3D010000 		.4byte	.LASF117
 1160 08c2 07       		.byte	0x7
 1161 08c3 D4       		.byte	0xd4
 1162 08c4 2B010000 		.4byte	0x12b
 1163 08c8 1C       		.uleb128 0x1c
 1164 08c9 2D030000 		.4byte	.LASF118
 1165 08cd 07       		.byte	0x7
 1166 08ce DB       		.byte	0xdb
 1167 08cf 33030000 		.4byte	0x333
 1168 08d3 1C       		.uleb128 0x1c
 1169 08d4 67020000 		.4byte	.LASF119
 1170 08d8 07       		.byte	0x7
 1171 08d9 E2       		.byte	0xe2
 1172 08da 0C090000 		.4byte	0x90c
 1173 08de 1C       		.uleb128 0x1c
 1174 08df AF070000 		.4byte	.LASF120
 1175 08e3 07       		.byte	0x7
 1176 08e4 E7       		.byte	0xe7
 1177 08e5 2B010000 		.4byte	0x12b
 1178 08e9 1C       		.uleb128 0x1c
 1179 08ea 32000000 		.4byte	.LASF121
 1180 08ee 07       		.byte	0x7
 1181 08ef F0       		.byte	0xf0
 1182 08f0 37090000 		.4byte	0x937
 1183 08f4 1C       		.uleb128 0x1c
 1184 08f5 D1030000 		.4byte	.LASF122
 1185 08f9 07       		.byte	0x7
 1186 08fa F9       		.byte	0xf9
 1187 08fb 6E090000 		.4byte	0x96e
 1188 08ff 1D       		.uleb128 0x1d
 1189 0900 0A020000 		.4byte	.LASF123
 1190 0904 07       		.byte	0x7
 1191 0905 0101     		.2byte	0x101
 1192 0907 36010000 		.4byte	0x136
 1193 090b 00       		.byte	0
 1194 090c 0C       		.uleb128 0xc
 1195 090d 04       		.byte	0x4
 1196 090e 4B020000 		.4byte	0x24b
 1197 0912 07       		.uleb128 0x7
ARM GAS  C:\Users\14122\AppData\Local\Temp\ccUGLFNQ.s 			page 22


 1198 0913 4B040000 		.4byte	.LASF124
 1199 0917 0C       		.byte	0xc
 1200 0918 0E       		.byte	0xe
 1201 0919 34       		.byte	0x34
 1202 091a 37090000 		.4byte	0x937
 1203 091e 08       		.uleb128 0x8
 1204 091f AE080000 		.4byte	.LASF31
 1205 0923 0E       		.byte	0xe
 1206 0924 35       		.byte	0x35
 1207 0925 80020000 		.4byte	0x280
 1208 0929 00       		.byte	0
 1209 092a 09       		.uleb128 0x9
 1210 092b 636E7400 		.ascii	"cnt\000"
 1211 092f 0E       		.byte	0xe
 1212 0930 37       		.byte	0x37
 1213 0931 4C010000 		.4byte	0x14c
 1214 0935 08       		.byte	0x8
 1215 0936 00       		.byte	0
 1216 0937 0C       		.uleb128 0xc
 1217 0938 04       		.byte	0x4
 1218 0939 12090000 		.4byte	0x912
 1219 093d 07       		.uleb128 0x7
 1220 093e C9090000 		.4byte	.LASF125
 1221 0942 10       		.byte	0x10
 1222 0943 0F       		.byte	0xf
 1223 0944 39       		.byte	0x39
 1224 0945 6E090000 		.4byte	0x96e
 1225 0949 08       		.uleb128 0x8
 1226 094a AE080000 		.4byte	.LASF31
 1227 094e 0F       		.byte	0xf
 1228 094f 3A       		.byte	0x3a
 1229 0950 80020000 		.4byte	0x280
 1230 0954 00       		.byte	0
 1231 0955 08       		.uleb128 0x8
 1232 0956 4F000000 		.4byte	.LASF126
 1233 095a 0F       		.byte	0xf
 1234 095b 3C       		.byte	0x3c
 1235 095c 56020000 		.4byte	0x256
 1236 0960 08       		.byte	0x8
 1237 0961 08       		.uleb128 0x8
 1238 0962 350B0000 		.4byte	.LASF50
 1239 0966 0F       		.byte	0xf
 1240 0967 3E       		.byte	0x3e
 1241 0968 D00A0000 		.4byte	0xad0
 1242 096c 0C       		.byte	0xc
 1243 096d 00       		.byte	0
 1244 096e 0C       		.uleb128 0xc
 1245 096f 04       		.byte	0x4
 1246 0970 3D090000 		.4byte	0x93d
 1247 0974 0C       		.uleb128 0xc
 1248 0975 04       		.byte	0x4
 1249 0976 86090000 		.4byte	0x986
 1250 097a 06       		.uleb128 0x6
 1251 097b 74090000 		.4byte	0x974
 1252 097f 04       		.uleb128 0x4
 1253 0980 01       		.byte	0x1
 1254 0981 08       		.byte	0x8
ARM GAS  C:\Users\14122\AppData\Local\Temp\ccUGLFNQ.s 			page 23


 1255 0982 0F030000 		.4byte	.LASF127
 1256 0986 05       		.uleb128 0x5
 1257 0987 7F090000 		.4byte	0x97f
 1258 098b 0C       		.uleb128 0xc
 1259 098c 04       		.byte	0x4
 1260 098d 05080000 		.4byte	0x805
 1261 0991 0C       		.uleb128 0xc
 1262 0992 04       		.byte	0x4
 1263 0993 35030000 		.4byte	0x335
 1264 0997 1E       		.uleb128 0x1e
 1265 0998 636800   		.ascii	"ch\000"
 1266 099b 07       		.byte	0x7
 1267 099c C701     		.2byte	0x1c7
 1268 099e 02040000 		.4byte	0x402
 1269 09a2 11       		.uleb128 0x11
 1270 09a3 05080000 		.4byte	0x805
 1271 09a7 AD090000 		.4byte	0x9ad
 1272 09ab 1F       		.uleb128 0x1f
 1273 09ac 00       		.byte	0
 1274 09ad 13       		.uleb128 0x13
 1275 09ae 86040000 		.4byte	.LASF128
 1276 09b2 10       		.byte	0x10
 1277 09b3 1701     		.2byte	0x117
 1278 09b5 A2090000 		.4byte	0x9a2
 1279 09b9 15       		.uleb128 0x15
 1280 09ba 16       		.byte	0x16
 1281 09bb 11       		.byte	0x11
 1282 09bc 34       		.byte	0x34
 1283 09bd 9A0A0000 		.4byte	0xa9a
 1284 09c1 08       		.uleb128 0x8
 1285 09c2 500B0000 		.4byte	.LASF129
 1286 09c6 11       		.byte	0x11
 1287 09c7 35       		.byte	0x35
 1288 09c8 9A0A0000 		.4byte	0xa9a
 1289 09cc 00       		.byte	0
 1290 09cd 08       		.uleb128 0x8
 1291 09ce 7D010000 		.4byte	.LASF130
 1292 09d2 11       		.byte	0x11
 1293 09d3 36       		.byte	0x36
 1294 09d4 B4000000 		.4byte	0xb4
 1295 09d8 04       		.byte	0x4
 1296 09d9 08       		.uleb128 0x8
 1297 09da 17080000 		.4byte	.LASF131
 1298 09de 11       		.byte	0x11
 1299 09df 37       		.byte	0x37
 1300 09e0 B4000000 		.4byte	0xb4
 1301 09e4 05       		.byte	0x5
 1302 09e5 08       		.uleb128 0x8
 1303 09e6 E7080000 		.4byte	.LASF132
 1304 09ea 11       		.byte	0x11
 1305 09eb 38       		.byte	0x38
 1306 09ec C4000000 		.4byte	0xc4
 1307 09f0 06       		.byte	0x6
 1308 09f1 08       		.uleb128 0x8
 1309 09f2 7E030000 		.4byte	.LASF133
 1310 09f6 11       		.byte	0x11
 1311 09f7 39       		.byte	0x39
ARM GAS  C:\Users\14122\AppData\Local\Temp\ccUGLFNQ.s 			page 24


 1312 09f8 B4000000 		.4byte	0xb4
 1313 09fc 08       		.byte	0x8
 1314 09fd 08       		.uleb128 0x8
 1315 09fe F60A0000 		.4byte	.LASF134
 1316 0a02 11       		.byte	0x11
 1317 0a03 3A       		.byte	0x3a
 1318 0a04 B4000000 		.4byte	0xb4
 1319 0a08 09       		.byte	0x9
 1320 0a09 08       		.uleb128 0x8
 1321 0a0a 25040000 		.4byte	.LASF135
 1322 0a0e 11       		.byte	0x11
 1323 0a0f 3B       		.byte	0x3b
 1324 0a10 B4000000 		.4byte	0xb4
 1325 0a14 0A       		.byte	0xa
 1326 0a15 08       		.uleb128 0x8
 1327 0a16 22000000 		.4byte	.LASF136
 1328 0a1a 11       		.byte	0x11
 1329 0a1b 3C       		.byte	0x3c
 1330 0a1c B4000000 		.4byte	0xb4
 1331 0a20 0B       		.byte	0xb
 1332 0a21 08       		.uleb128 0x8
 1333 0a22 00000000 		.4byte	.LASF137
 1334 0a26 11       		.byte	0x11
 1335 0a27 3D       		.byte	0x3d
 1336 0a28 B4000000 		.4byte	0xb4
 1337 0a2c 0C       		.byte	0xc
 1338 0a2d 08       		.uleb128 0x8
 1339 0a2e 0B060000 		.4byte	.LASF138
 1340 0a32 11       		.byte	0x11
 1341 0a33 3E       		.byte	0x3e
 1342 0a34 B4000000 		.4byte	0xb4
 1343 0a38 0D       		.byte	0xd
 1344 0a39 08       		.uleb128 0x8
 1345 0a3a 1B010000 		.4byte	.LASF139
 1346 0a3e 11       		.byte	0x11
 1347 0a3f 3F       		.byte	0x3f
 1348 0a40 B4000000 		.4byte	0xb4
 1349 0a44 0E       		.byte	0xe
 1350 0a45 08       		.uleb128 0x8
 1351 0a46 59080000 		.4byte	.LASF140
 1352 0a4a 11       		.byte	0x11
 1353 0a4b 40       		.byte	0x40
 1354 0a4c B4000000 		.4byte	0xb4
 1355 0a50 0F       		.byte	0xf
 1356 0a51 08       		.uleb128 0x8
 1357 0a52 04050000 		.4byte	.LASF141
 1358 0a56 11       		.byte	0x11
 1359 0a57 41       		.byte	0x41
 1360 0a58 B4000000 		.4byte	0xb4
 1361 0a5c 10       		.byte	0x10
 1362 0a5d 08       		.uleb128 0x8
 1363 0a5e 09040000 		.4byte	.LASF142
 1364 0a62 11       		.byte	0x11
 1365 0a63 42       		.byte	0x42
 1366 0a64 B4000000 		.4byte	0xb4
 1367 0a68 11       		.byte	0x11
 1368 0a69 08       		.uleb128 0x8
ARM GAS  C:\Users\14122\AppData\Local\Temp\ccUGLFNQ.s 			page 25


 1369 0a6a 1B0B0000 		.4byte	.LASF143
 1370 0a6e 11       		.byte	0x11
 1371 0a6f 43       		.byte	0x43
 1372 0a70 B4000000 		.4byte	0xb4
 1373 0a74 12       		.byte	0x12
 1374 0a75 08       		.uleb128 0x8
 1375 0a76 3F030000 		.4byte	.LASF144
 1376 0a7a 11       		.byte	0x11
 1377 0a7b 44       		.byte	0x44
 1378 0a7c B4000000 		.4byte	0xb4
 1379 0a80 13       		.byte	0x13
 1380 0a81 08       		.uleb128 0x8
 1381 0a82 43000000 		.4byte	.LASF145
 1382 0a86 11       		.byte	0x11
 1383 0a87 45       		.byte	0x45
 1384 0a88 B4000000 		.4byte	0xb4
 1385 0a8c 14       		.byte	0x14
 1386 0a8d 08       		.uleb128 0x8
 1387 0a8e 9B030000 		.4byte	.LASF146
 1388 0a92 11       		.byte	0x11
 1389 0a93 46       		.byte	0x46
 1390 0a94 B4000000 		.4byte	0xb4
 1391 0a98 15       		.byte	0x15
 1392 0a99 00       		.byte	0
 1393 0a9a 11       		.uleb128 0x11
 1394 0a9b 7F090000 		.4byte	0x97f
 1395 0a9f AA0A0000 		.4byte	0xaaa
 1396 0aa3 12       		.uleb128 0x12
 1397 0aa4 37000000 		.4byte	0x37
 1398 0aa8 03       		.byte	0x3
 1399 0aa9 00       		.byte	0
 1400 0aaa 03       		.uleb128 0x3
 1401 0aab E10A0000 		.4byte	.LASF147
 1402 0aaf 11       		.byte	0x11
 1403 0ab0 47       		.byte	0x47
 1404 0ab1 B9090000 		.4byte	0x9b9
 1405 0ab5 05       		.uleb128 0x5
 1406 0ab6 AA0A0000 		.4byte	0xaaa
 1407 0aba 14       		.uleb128 0x14
 1408 0abb 71000000 		.4byte	.LASF148
 1409 0abf 11       		.byte	0x11
 1410 0ac0 6C       		.byte	0x6c
 1411 0ac1 B50A0000 		.4byte	0xab5
 1412 0ac5 03       		.uleb128 0x3
 1413 0ac6 490A0000 		.4byte	.LASF149
 1414 0aca 0F       		.byte	0xf
 1415 0acb 34       		.byte	0x34
 1416 0acc 3D090000 		.4byte	0x93d
 1417 0ad0 0C       		.uleb128 0xc
 1418 0ad1 04       		.byte	0x4
 1419 0ad2 C50A0000 		.4byte	0xac5
 1420 0ad6 03       		.uleb128 0x3
 1421 0ad7 6D030000 		.4byte	.LASF150
 1422 0adb 12       		.byte	0x12
 1423 0adc 34       		.byte	0x34
 1424 0add E10A0000 		.4byte	0xae1
 1425 0ae1 07       		.uleb128 0x7
ARM GAS  C:\Users\14122\AppData\Local\Temp\ccUGLFNQ.s 			page 26


 1426 0ae2 AC0A0000 		.4byte	.LASF151
 1427 0ae6 14       		.byte	0x14
 1428 0ae7 12       		.byte	0x12
 1429 0ae8 39       		.byte	0x39
 1430 0ae9 2A0B0000 		.4byte	0xb2a
 1431 0aed 08       		.uleb128 0x8
 1432 0aee 350B0000 		.4byte	.LASF50
 1433 0af2 12       		.byte	0x12
 1434 0af3 3A       		.byte	0x3a
 1435 0af4 2A0B0000 		.4byte	0xb2a
 1436 0af8 00       		.byte	0
 1437 0af9 08       		.uleb128 0x8
 1438 0afa 62090000 		.4byte	.LASF152
 1439 0afe 12       		.byte	0x12
 1440 0aff 3D       		.byte	0x3d
 1441 0b00 56020000 		.4byte	0x256
 1442 0b04 04       		.byte	0x4
 1443 0b05 08       		.uleb128 0x8
 1444 0b06 2E0B0000 		.4byte	.LASF153
 1445 0b0a 12       		.byte	0x12
 1446 0b0b 3F       		.byte	0x3f
 1447 0b0c 36010000 		.4byte	0x136
 1448 0b10 08       		.byte	0x8
 1449 0b11 08       		.uleb128 0x8
 1450 0b12 48030000 		.4byte	.LASF38
 1451 0b16 12       		.byte	0x12
 1452 0b17 41       		.byte	0x41
 1453 0b18 41010000 		.4byte	0x141
 1454 0b1c 0C       		.byte	0xc
 1455 0b1d 08       		.uleb128 0x8
 1456 0b1e 95070000 		.4byte	.LASF154
 1457 0b22 12       		.byte	0x12
 1458 0b23 43       		.byte	0x43
 1459 0b24 41010000 		.4byte	0x141
 1460 0b28 10       		.byte	0x10
 1461 0b29 00       		.byte	0
 1462 0b2a 0C       		.uleb128 0xc
 1463 0b2b 04       		.byte	0x4
 1464 0b2c D60A0000 		.4byte	0xad6
 1465 0b30 07       		.uleb128 0x7
 1466 0b31 AE090000 		.4byte	.LASF155
 1467 0b35 04       		.byte	0x4
 1468 0b36 12       		.byte	0x12
 1469 0b37 4A       		.byte	0x4a
 1470 0b38 490B0000 		.4byte	0xb49
 1471 0b3c 08       		.uleb128 0x8
 1472 0b3d 350B0000 		.4byte	.LASF50
 1473 0b41 12       		.byte	0x12
 1474 0b42 4B       		.byte	0x4b
 1475 0b43 2A0B0000 		.4byte	0xb2a
 1476 0b47 00       		.byte	0
 1477 0b48 00       		.byte	0
 1478 0b49 03       		.uleb128 0x3
 1479 0b4a B3050000 		.4byte	.LASF156
 1480 0b4e 12       		.byte	0x12
 1481 0b4f 4E       		.byte	0x4e
 1482 0b50 300B0000 		.4byte	0xb30
ARM GAS  C:\Users\14122\AppData\Local\Temp\ccUGLFNQ.s 			page 27


 1483 0b54 04       		.uleb128 0x4
 1484 0b55 01       		.byte	0x1
 1485 0b56 02       		.byte	0x2
 1486 0b57 E7020000 		.4byte	.LASF157
 1487 0b5b 03       		.uleb128 0x3
 1488 0b5c ED020000 		.4byte	.LASF158
 1489 0b60 13       		.byte	0x13
 1490 0b61 47       		.byte	0x47
 1491 0b62 660B0000 		.4byte	0xb66
 1492 0b66 0C       		.uleb128 0xc
 1493 0b67 04       		.byte	0x4
 1494 0b68 6C0B0000 		.4byte	0xb6c
 1495 0b6c 20       		.uleb128 0x20
 1496 0b6d 33030000 		.4byte	0x333
 1497 0b71 800B0000 		.4byte	0xb80
 1498 0b75 0F       		.uleb128 0xf
 1499 0b76 2C000000 		.4byte	0x2c
 1500 0b7a 0F       		.uleb128 0xf
 1501 0b7b 37000000 		.4byte	0x37
 1502 0b7f 00       		.byte	0
 1503 0b80 15       		.uleb128 0x15
 1504 0b81 08       		.byte	0x8
 1505 0b82 13       		.byte	0x13
 1506 0b83 51       		.byte	0x51
 1507 0b84 A10B0000 		.4byte	0xba1
 1508 0b88 08       		.uleb128 0x8
 1509 0b89 F6030000 		.4byte	.LASF159
 1510 0b8d 13       		.byte	0x13
 1511 0b8e 55       		.byte	0x55
 1512 0b8f A10B0000 		.4byte	0xba1
 1513 0b93 00       		.byte	0
 1514 0b94 08       		.uleb128 0x8
 1515 0b95 2B000000 		.4byte	.LASF160
 1516 0b99 13       		.byte	0x13
 1517 0b9a 59       		.byte	0x59
 1518 0b9b A10B0000 		.4byte	0xba1
 1519 0b9f 04       		.byte	0x4
 1520 0ba0 00       		.byte	0
 1521 0ba1 0C       		.uleb128 0xc
 1522 0ba2 04       		.byte	0x4
 1523 0ba3 B4000000 		.4byte	0xb4
 1524 0ba7 03       		.uleb128 0x3
 1525 0ba8 F4010000 		.4byte	.LASF161
 1526 0bac 13       		.byte	0x13
 1527 0bad 5A       		.byte	0x5a
 1528 0bae 800B0000 		.4byte	0xb80
 1529 0bb2 14       		.uleb128 0x14
 1530 0bb3 100B0000 		.4byte	.LASF162
 1531 0bb7 13       		.byte	0x13
 1532 0bb8 65       		.byte	0x65
 1533 0bb9 A70B0000 		.4byte	0xba7
 1534 0bbd 07       		.uleb128 0x7
 1535 0bbe 11050000 		.4byte	.LASF163
 1536 0bc2 04       		.byte	0x4
 1537 0bc3 14       		.byte	0x14
 1538 0bc4 38       		.byte	0x38
 1539 0bc5 D60B0000 		.4byte	0xbd6
ARM GAS  C:\Users\14122\AppData\Local\Temp\ccUGLFNQ.s 			page 28


 1540 0bc9 08       		.uleb128 0x8
 1541 0bca 350B0000 		.4byte	.LASF50
 1542 0bce 14       		.byte	0x14
 1543 0bcf 39       		.byte	0x39
 1544 0bd0 D60B0000 		.4byte	0xbd6
 1545 0bd4 00       		.byte	0
 1546 0bd5 00       		.byte	0
 1547 0bd6 0C       		.uleb128 0xc
 1548 0bd7 04       		.byte	0x4
 1549 0bd8 BD0B0000 		.4byte	0xbbd
 1550 0bdc 15       		.uleb128 0x15
 1551 0bdd 10       		.byte	0x10
 1552 0bde 14       		.byte	0x14
 1553 0bdf 40       		.byte	0x40
 1554 0be0 150C0000 		.4byte	0xc15
 1555 0be4 08       		.uleb128 0x8
 1556 0be5 350B0000 		.4byte	.LASF50
 1557 0be9 14       		.byte	0x14
 1558 0bea 41       		.byte	0x41
 1559 0beb D60B0000 		.4byte	0xbd6
 1560 0bef 00       		.byte	0
 1561 0bf0 08       		.uleb128 0x8
 1562 0bf1 2E0A0000 		.4byte	.LASF164
 1563 0bf5 14       		.byte	0x14
 1564 0bf6 42       		.byte	0x42
 1565 0bf7 2C000000 		.4byte	0x2c
 1566 0bfb 04       		.byte	0x4
 1567 0bfc 08       		.uleb128 0x8
 1568 0bfd C2050000 		.4byte	.LASF165
 1569 0c01 14       		.byte	0x14
 1570 0c02 44       		.byte	0x44
 1571 0c03 37000000 		.4byte	0x37
 1572 0c07 08       		.byte	0x8
 1573 0c08 08       		.uleb128 0x8
 1574 0c09 7A000000 		.4byte	.LASF166
 1575 0c0d 14       		.byte	0x14
 1576 0c0e 45       		.byte	0x45
 1577 0c0f 5B0B0000 		.4byte	0xb5b
 1578 0c13 0C       		.byte	0xc
 1579 0c14 00       		.byte	0
 1580 0c15 03       		.uleb128 0x3
 1581 0c16 1F090000 		.4byte	.LASF167
 1582 0c1a 14       		.byte	0x14
 1583 0c1b 47       		.byte	0x47
 1584 0c1c DC0B0000 		.4byte	0xbdc
 1585 0c20 07       		.uleb128 0x7
 1586 0c21 C1000000 		.4byte	.LASF168
 1587 0c25 10       		.byte	0x10
 1588 0c26 15       		.byte	0x15
 1589 0c27 93       		.byte	0x93
 1590 0c28 510C0000 		.4byte	0xc51
 1591 0c2c 08       		.uleb128 0x8
 1592 0c2d 350B0000 		.4byte	.LASF50
 1593 0c31 15       		.byte	0x15
 1594 0c32 97       		.byte	0x97
 1595 0c33 510C0000 		.4byte	0xc51
 1596 0c37 00       		.byte	0
ARM GAS  C:\Users\14122\AppData\Local\Temp\ccUGLFNQ.s 			page 29


 1597 0c38 08       		.uleb128 0x8
 1598 0c39 A9080000 		.4byte	.LASF39
 1599 0c3d 15       		.byte	0x15
 1600 0c3e 9B       		.byte	0x9b
 1601 0c3f 57010000 		.4byte	0x157
 1602 0c43 04       		.byte	0x4
 1603 0c44 08       		.uleb128 0x8
 1604 0c45 5D090000 		.4byte	.LASF35
 1605 0c49 15       		.byte	0x15
 1606 0c4a 9D       		.byte	0x9d
 1607 0c4b 570C0000 		.4byte	0xc57
 1608 0c4f 08       		.byte	0x8
 1609 0c50 00       		.byte	0
 1610 0c51 0C       		.uleb128 0xc
 1611 0c52 04       		.byte	0x4
 1612 0c53 200C0000 		.4byte	0xc20
 1613 0c57 11       		.uleb128 0x11
 1614 0c58 7F090000 		.4byte	0x97f
 1615 0c5c 670C0000 		.4byte	0xc67
 1616 0c60 12       		.uleb128 0x12
 1617 0c61 37000000 		.4byte	0x37
 1618 0c65 07       		.byte	0x7
 1619 0c66 00       		.byte	0
 1620 0c67 03       		.uleb128 0x3
 1621 0c68 BD030000 		.4byte	.LASF169
 1622 0c6c 15       		.byte	0x15
 1623 0c6d A1       		.byte	0xa1
 1624 0c6e 200C0000 		.4byte	0xc20
 1625 0c72 07       		.uleb128 0x7
 1626 0c73 440B0000 		.4byte	.LASF170
 1627 0c77 04       		.byte	0x4
 1628 0c78 15       		.byte	0x15
 1629 0c79 A6       		.byte	0xa6
 1630 0c7a 8B0C0000 		.4byte	0xc8b
 1631 0c7e 08       		.uleb128 0x8
 1632 0c7f 350B0000 		.4byte	.LASF50
 1633 0c83 15       		.byte	0x15
 1634 0c84 A7       		.byte	0xa7
 1635 0c85 8B0C0000 		.4byte	0xc8b
 1636 0c89 00       		.byte	0
 1637 0c8a 00       		.byte	0
 1638 0c8b 0C       		.uleb128 0xc
 1639 0c8c 04       		.byte	0x4
 1640 0c8d 670C0000 		.4byte	0xc67
 1641 0c91 03       		.uleb128 0x3
 1642 0c92 050A0000 		.4byte	.LASF171
 1643 0c96 15       		.byte	0x15
 1644 0c97 A8       		.byte	0xa8
 1645 0c98 720C0000 		.4byte	0xc72
 1646 0c9c 0D       		.uleb128 0xd
 1647 0c9d 9B050000 		.4byte	.LASF172
 1648 0ca1 44       		.byte	0x44
 1649 0ca2 15       		.byte	0x15
 1650 0ca3 1101     		.2byte	0x111
 1651 0ca5 120D0000 		.4byte	0xd12
 1652 0ca9 0A       		.uleb128 0xa
 1653 0caa 6D747800 		.ascii	"mtx\000"
ARM GAS  C:\Users\14122\AppData\Local\Temp\ccUGLFNQ.s 			page 30


 1654 0cae 15       		.byte	0x15
 1655 0caf 1601     		.2byte	0x116
 1656 0cb1 C50A0000 		.4byte	0xac5
 1657 0cb5 00       		.byte	0
 1658 0cb6 0B       		.uleb128 0xb
 1659 0cb7 09010000 		.4byte	.LASF173
 1660 0cbb 15       		.byte	0x15
 1661 0cbc 1D01     		.2byte	0x11d
 1662 0cbe 910C0000 		.4byte	0xc91
 1663 0cc2 10       		.byte	0x10
 1664 0cc3 0B       		.uleb128 0xb
 1665 0cc4 BA010000 		.4byte	.LASF174
 1666 0cc8 15       		.byte	0x15
 1667 0cc9 2101     		.2byte	0x121
 1668 0ccb 150C0000 		.4byte	0xc15
 1669 0ccf 14       		.byte	0x14
 1670 0cd0 0B       		.uleb128 0xb
 1671 0cd1 D5070000 		.4byte	.LASF175
 1672 0cd5 15       		.byte	0x15
 1673 0cd6 2601     		.2byte	0x126
 1674 0cd8 910C0000 		.4byte	0xc91
 1675 0cdc 24       		.byte	0x24
 1676 0cdd 0B       		.uleb128 0xb
 1677 0cde 19030000 		.4byte	.LASF176
 1678 0ce2 15       		.byte	0x15
 1679 0ce3 2C01     		.2byte	0x12c
 1680 0ce5 910C0000 		.4byte	0xc91
 1681 0ce9 28       		.byte	0x28
 1682 0cea 0B       		.uleb128 0xb
 1683 0ceb E6030000 		.4byte	.LASF177
 1684 0cef 15       		.byte	0x15
 1685 0cf0 3001     		.2byte	0x130
 1686 0cf2 150C0000 		.4byte	0xc15
 1687 0cf6 2C       		.byte	0x2c
 1688 0cf7 0B       		.uleb128 0xb
 1689 0cf8 D3080000 		.4byte	.LASF178
 1690 0cfc 15       		.byte	0x15
 1691 0cfd 3601     		.2byte	0x136
 1692 0cff 910C0000 		.4byte	0xc91
 1693 0d03 3C       		.byte	0x3c
 1694 0d04 0B       		.uleb128 0xb
 1695 0d05 B5040000 		.4byte	.LASF179
 1696 0d09 15       		.byte	0x15
 1697 0d0a 3C01     		.2byte	0x13c
 1698 0d0c 910C0000 		.4byte	0xc91
 1699 0d10 40       		.byte	0x40
 1700 0d11 00       		.byte	0
 1701 0d12 19       		.uleb128 0x19
 1702 0d13 C3070000 		.4byte	.LASF180
 1703 0d17 15       		.byte	0x15
 1704 0d18 3E01     		.2byte	0x13e
 1705 0d1a 9C0C0000 		.4byte	0xc9c
 1706 0d1e 13       		.uleb128 0x13
 1707 0d1f C0080000 		.4byte	.LASF181
 1708 0d23 15       		.byte	0x15
 1709 0d24 4901     		.2byte	0x149
 1710 0d26 120D0000 		.4byte	0xd12
ARM GAS  C:\Users\14122\AppData\Local\Temp\ccUGLFNQ.s 			page 31


 1711 0d2a 15       		.uleb128 0x15
 1712 0d2b 10       		.byte	0x10
 1713 0d2c 16       		.byte	0x16
 1714 0d2d F0       		.byte	0xf0
 1715 0d2e 870D0000 		.4byte	0xd87
 1716 0d32 09       		.uleb128 0x9
 1717 0d33 646D6100 		.ascii	"dma\000"
 1718 0d37 16       		.byte	0x16
 1719 0d38 F1       		.byte	0xf1
 1720 0d39 870D0000 		.4byte	0xd87
 1721 0d3d 00       		.byte	0
 1722 0d3e 08       		.uleb128 0x8
 1723 0d3f 5E040000 		.4byte	.LASF182
 1724 0d43 16       		.byte	0x16
 1725 0d44 F2       		.byte	0xf2
 1726 0d45 8D0D0000 		.4byte	0xd8d
 1727 0d49 04       		.byte	0x4
 1728 0d4a 08       		.uleb128 0x8
 1729 0d4b DE070000 		.4byte	.LASF183
 1730 0d4f 16       		.byte	0x16
 1731 0d50 F3       		.byte	0xf3
 1732 0d51 E4000000 		.4byte	0xe4
 1733 0d55 08       		.byte	0x8
 1734 0d56 08       		.uleb128 0x8
 1735 0d57 3B090000 		.4byte	.LASF184
 1736 0d5b 16       		.byte	0x16
 1737 0d5c FA       		.byte	0xfa
 1738 0d5d B4000000 		.4byte	0xb4
 1739 0d61 0C       		.byte	0xc
 1740 0d62 08       		.uleb128 0x8
 1741 0d63 58040000 		.4byte	.LASF185
 1742 0d67 16       		.byte	0x16
 1743 0d68 FC       		.byte	0xfc
 1744 0d69 B4000000 		.4byte	0xb4
 1745 0d6d 0D       		.byte	0xd
 1746 0d6e 08       		.uleb128 0x8
 1747 0d6f 15060000 		.4byte	.LASF186
 1748 0d73 16       		.byte	0x16
 1749 0d74 FE       		.byte	0xfe
 1750 0d75 B4000000 		.4byte	0xb4
 1751 0d79 0E       		.byte	0xe
 1752 0d7a 08       		.uleb128 0x8
 1753 0d7b B9080000 		.4byte	.LASF187
 1754 0d7f 16       		.byte	0x16
 1755 0d80 FF       		.byte	0xff
 1756 0d81 B4000000 		.4byte	0xb4
 1757 0d85 0F       		.byte	0xf
 1758 0d86 00       		.byte	0
 1759 0d87 0C       		.uleb128 0xc
 1760 0d88 04       		.byte	0x4
 1761 0d89 7F070000 		.4byte	0x77f
 1762 0d8d 0C       		.uleb128 0xc
 1763 0d8e 04       		.byte	0x4
 1764 0d8f 4F070000 		.4byte	0x74f
 1765 0d93 19       		.uleb128 0x19
 1766 0d94 08000000 		.4byte	.LASF188
 1767 0d98 16       		.byte	0x16
ARM GAS  C:\Users\14122\AppData\Local\Temp\ccUGLFNQ.s 			page 32


 1768 0d99 0001     		.2byte	0x100
 1769 0d9b 2A0D0000 		.4byte	0xd2a
 1770 0d9f 05       		.uleb128 0x5
 1771 0da0 930D0000 		.4byte	0xd93
 1772 0da4 19       		.uleb128 0x19
 1773 0da5 43060000 		.4byte	.LASF189
 1774 0da9 16       		.byte	0x16
 1775 0daa 0901     		.2byte	0x109
 1776 0dac B00D0000 		.4byte	0xdb0
 1777 0db0 0C       		.uleb128 0xc
 1778 0db1 04       		.byte	0x4
 1779 0db2 B60D0000 		.4byte	0xdb6
 1780 0db6 0E       		.uleb128 0xe
 1781 0db7 C60D0000 		.4byte	0xdc6
 1782 0dbb 0F       		.uleb128 0xf
 1783 0dbc 33030000 		.4byte	0x333
 1784 0dc0 0F       		.uleb128 0xf
 1785 0dc1 E4000000 		.4byte	0xe4
 1786 0dc5 00       		.byte	0
 1787 0dc6 1A       		.uleb128 0x1a
 1788 0dc7 08       		.byte	0x8
 1789 0dc8 16       		.byte	0x16
 1790 0dc9 0E01     		.2byte	0x10e
 1791 0dcb EA0D0000 		.4byte	0xdea
 1792 0dcf 0B       		.uleb128 0xb
 1793 0dd0 A4030000 		.4byte	.LASF190
 1794 0dd4 16       		.byte	0x16
 1795 0dd5 0F01     		.2byte	0x10f
 1796 0dd7 A40D0000 		.4byte	0xda4
 1797 0ddb 00       		.byte	0
 1798 0ddc 0B       		.uleb128 0xb
 1799 0ddd 240A0000 		.4byte	.LASF191
 1800 0de1 16       		.byte	0x16
 1801 0de2 1001     		.2byte	0x110
 1802 0de4 33030000 		.4byte	0x333
 1803 0de8 04       		.byte	0x4
 1804 0de9 00       		.byte	0
 1805 0dea 19       		.uleb128 0x19
 1806 0deb 8F060000 		.4byte	.LASF192
 1807 0def 16       		.byte	0x16
 1808 0df0 1101     		.2byte	0x111
 1809 0df2 C60D0000 		.4byte	0xdc6
 1810 0df6 11       		.uleb128 0x11
 1811 0df7 9F0D0000 		.4byte	0xd9f
 1812 0dfb 060E0000 		.4byte	0xe06
 1813 0dff 12       		.uleb128 0x12
 1814 0e00 37000000 		.4byte	0x37
 1815 0e04 06       		.byte	0x6
 1816 0e05 00       		.byte	0
 1817 0e06 05       		.uleb128 0x5
 1818 0e07 F60D0000 		.4byte	0xdf6
 1819 0e0b 13       		.uleb128 0x13
 1820 0e0c 98040000 		.4byte	.LASF193
 1821 0e10 16       		.byte	0x16
 1822 0e11 DF01     		.2byte	0x1df
 1823 0e13 060E0000 		.4byte	0xe06
 1824 0e17 11       		.uleb128 0x11
ARM GAS  C:\Users\14122\AppData\Local\Temp\ccUGLFNQ.s 			page 33


 1825 0e18 EA0D0000 		.4byte	0xdea
 1826 0e1c 270E0000 		.4byte	0xe27
 1827 0e20 12       		.uleb128 0x12
 1828 0e21 37000000 		.4byte	0x37
 1829 0e25 06       		.byte	0x6
 1830 0e26 00       		.byte	0
 1831 0e27 13       		.uleb128 0x13
 1832 0e28 8F090000 		.4byte	.LASF194
 1833 0e2c 16       		.byte	0x16
 1834 0e2d E001     		.2byte	0x1e0
 1835 0e2f 170E0000 		.4byte	0xe17
 1836 0e33 21       		.uleb128 0x21
 1837 0e34 00       		.byte	0
 1838 0e35 17       		.byte	0x17
 1839 0e36 99       		.byte	0x99
 1840 0e37 03       		.uleb128 0x3
 1841 0e38 34030000 		.4byte	.LASF195
 1842 0e3c 17       		.byte	0x17
 1843 0e3d AA       		.byte	0xaa
 1844 0e3e 330E0000 		.4byte	0xe33
 1845 0e42 15       		.uleb128 0x15
 1846 0e43 0C       		.byte	0xc
 1847 0e44 18       		.byte	0x18
 1848 0e45 68       		.byte	0x68
 1849 0e46 6F0E0000 		.4byte	0xe6f
 1850 0e4a 09       		.uleb128 0x9
 1851 0e4b 6F647200 		.ascii	"odr\000"
 1852 0e4f 18       		.byte	0x18
 1853 0e50 6A       		.byte	0x6a
 1854 0e51 E4000000 		.4byte	0xe4
 1855 0e55 00       		.byte	0
 1856 0e56 09       		.uleb128 0x9
 1857 0e57 63726C00 		.ascii	"crl\000"
 1858 0e5b 18       		.byte	0x18
 1859 0e5c 6C       		.byte	0x6c
 1860 0e5d E4000000 		.4byte	0xe4
 1861 0e61 04       		.byte	0x4
 1862 0e62 09       		.uleb128 0x9
 1863 0e63 63726800 		.ascii	"crh\000"
 1864 0e67 18       		.byte	0x18
 1865 0e68 6E       		.byte	0x6e
 1866 0e69 E4000000 		.4byte	0xe4
 1867 0e6d 08       		.byte	0x8
 1868 0e6e 00       		.byte	0
 1869 0e6f 03       		.uleb128 0x3
 1870 0e70 2A010000 		.4byte	.LASF196
 1871 0e74 18       		.byte	0x18
 1872 0e75 6F       		.byte	0x6f
 1873 0e76 420E0000 		.4byte	0xe42
 1874 0e7a 15       		.uleb128 0x15
 1875 0e7b 3C       		.byte	0x3c
 1876 0e7c 18       		.byte	0x18
 1877 0e7d 78       		.byte	0x78
 1878 0e7e BF0E0000 		.4byte	0xebf
 1879 0e82 08       		.uleb128 0x8
 1880 0e83 33080000 		.4byte	.LASF197
 1881 0e87 18       		.byte	0x18
ARM GAS  C:\Users\14122\AppData\Local\Temp\ccUGLFNQ.s 			page 34


 1882 0e88 7A       		.byte	0x7a
 1883 0e89 6F0E0000 		.4byte	0xe6f
 1884 0e8d 00       		.byte	0
 1885 0e8e 08       		.uleb128 0x8
 1886 0e8f D5050000 		.4byte	.LASF198
 1887 0e93 18       		.byte	0x18
 1888 0e94 7C       		.byte	0x7c
 1889 0e95 6F0E0000 		.4byte	0xe6f
 1890 0e99 0C       		.byte	0xc
 1891 0e9a 08       		.uleb128 0x8
 1892 0e9b EF030000 		.4byte	.LASF199
 1893 0e9f 18       		.byte	0x18
 1894 0ea0 7E       		.byte	0x7e
 1895 0ea1 6F0E0000 		.4byte	0xe6f
 1896 0ea5 18       		.byte	0x18
 1897 0ea6 08       		.uleb128 0x8
 1898 0ea7 B6020000 		.4byte	.LASF200
 1899 0eab 18       		.byte	0x18
 1900 0eac 80       		.byte	0x80
 1901 0ead 6F0E0000 		.4byte	0xe6f
 1902 0eb1 24       		.byte	0x24
 1903 0eb2 08       		.uleb128 0x8
 1904 0eb3 EA000000 		.4byte	.LASF201
 1905 0eb7 18       		.byte	0x18
 1906 0eb8 83       		.byte	0x83
 1907 0eb9 6F0E0000 		.4byte	0xe6f
 1908 0ebd 30       		.byte	0x30
 1909 0ebe 00       		.byte	0
 1910 0ebf 03       		.uleb128 0x3
 1911 0ec0 1A0A0000 		.4byte	.LASF202
 1912 0ec4 18       		.byte	0x18
 1913 0ec5 8D       		.byte	0x8d
 1914 0ec6 7A0E0000 		.4byte	0xe7a
 1915 0eca 05       		.uleb128 0x5
 1916 0ecb BF0E0000 		.4byte	0xebf
 1917 0ecf 13       		.uleb128 0x13
 1918 0ed0 DC010000 		.4byte	.LASF203
 1919 0ed4 18       		.byte	0x18
 1920 0ed5 A001     		.2byte	0x1a0
 1921 0ed7 CA0E0000 		.4byte	0xeca
 1922 0edb 11       		.uleb128 0x11
 1923 0edc 370E0000 		.4byte	0xe37
 1924 0ee0 EB0E0000 		.4byte	0xeeb
 1925 0ee4 12       		.uleb128 0x12
 1926 0ee5 37000000 		.4byte	0x37
 1927 0ee9 0F       		.byte	0xf
 1928 0eea 00       		.byte	0
 1929 0eeb 13       		.uleb128 0x13
 1930 0eec 74070000 		.4byte	.LASF204
 1931 0ef0 18       		.byte	0x18
 1932 0ef1 A101     		.2byte	0x1a1
 1933 0ef3 DB0E0000 		.4byte	0xedb
 1934 0ef7 22       		.uleb128 0x22
 1935 0ef8 07       		.byte	0x7
 1936 0ef9 01       		.byte	0x1
 1937 0efa 5E000000 		.4byte	0x5e
 1938 0efe 19       		.byte	0x19
ARM GAS  C:\Users\14122\AppData\Local\Temp\ccUGLFNQ.s 			page 35


 1939 0eff 66       		.byte	0x66
 1940 0f00 230F0000 		.4byte	0xf23
 1941 0f04 23       		.uleb128 0x23
 1942 0f05 E4050000 		.4byte	.LASF205
 1943 0f09 00       		.byte	0
 1944 0f0a 23       		.uleb128 0x23
 1945 0f0b 250B0000 		.4byte	.LASF206
 1946 0f0f 01       		.byte	0x1
 1947 0f10 23       		.uleb128 0x23
 1948 0f11 77050000 		.4byte	.LASF207
 1949 0f15 02       		.byte	0x2
 1950 0f16 23       		.uleb128 0x23
 1951 0f17 91030000 		.4byte	.LASF208
 1952 0f1b 03       		.byte	0x3
 1953 0f1c 23       		.uleb128 0x23
 1954 0f1d 01060000 		.4byte	.LASF209
 1955 0f21 04       		.byte	0x4
 1956 0f22 00       		.byte	0
 1957 0f23 03       		.uleb128 0x3
 1958 0f24 86030000 		.4byte	.LASF210
 1959 0f28 19       		.byte	0x19
 1960 0f29 6C       		.byte	0x6c
 1961 0f2a F70E0000 		.4byte	0xef7
 1962 0f2e 03       		.uleb128 0x3
 1963 0f2f 50010000 		.4byte	.LASF211
 1964 0f33 1A       		.byte	0x1a
 1965 0f34 C2       		.byte	0xc2
 1966 0f35 390F0000 		.4byte	0xf39
 1967 0f39 0D       		.uleb128 0xd
 1968 0f3a 50010000 		.4byte	.LASF211
 1969 0f3e 30       		.byte	0x30
 1970 0f3f 1A       		.byte	0x1a
 1971 0f40 4801     		.2byte	0x148
 1972 0f42 C90F0000 		.4byte	0xfc9
 1973 0f46 0B       		.uleb128 0xb
 1974 0f47 E4000000 		.4byte	.LASF37
 1975 0f4b 1A       		.byte	0x1a
 1976 0f4c 4C01     		.2byte	0x14c
 1977 0f4e 230F0000 		.4byte	0xf23
 1978 0f52 00       		.byte	0
 1979 0f53 0B       		.uleb128 0xb
 1980 0f54 DD000000 		.4byte	.LASF212
 1981 0f58 1A       		.byte	0x1a
 1982 0f59 5001     		.2byte	0x150
 1983 0f5b FE0F0000 		.4byte	0xffe
 1984 0f5f 04       		.byte	0x4
 1985 0f60 0B       		.uleb128 0xb
 1986 0f61 E1090000 		.4byte	.LASF213
 1987 0f65 1A       		.byte	0x1a
 1988 0f66 5401     		.2byte	0x154
 1989 0f68 80020000 		.4byte	0x280
 1990 0f6c 08       		.byte	0x8
 1991 0f6d 0B       		.uleb128 0xb
 1992 0f6e CB080000 		.4byte	.LASF214
 1993 0f72 1A       		.byte	0x1a
 1994 0f73 5801     		.2byte	0x158
 1995 0f75 80020000 		.4byte	0x280
ARM GAS  C:\Users\14122\AppData\Local\Temp\ccUGLFNQ.s 			page 36


 1996 0f79 10       		.byte	0x10
 1997 0f7a 0B       		.uleb128 0xb
 1998 0f7b 5A020000 		.4byte	.LASF215
 1999 0f7f 1A       		.byte	0x1a
 2000 0f80 6601     		.2byte	0x166
 2001 0f82 490B0000 		.4byte	0xb49
 2002 0f86 18       		.byte	0x18
 2003 0f87 0B       		.uleb128 0xb
 2004 0f88 660B0000 		.4byte	.LASF216
 2005 0f8c 1A       		.byte	0x1a
 2006 0f8d 6E01     		.2byte	0x16e
 2007 0f8f 490B0000 		.4byte	0xb49
 2008 0f93 1C       		.byte	0x1c
 2009 0f94 0B       		.uleb128 0xb
 2010 0f95 77060000 		.4byte	.LASF217
 2011 0f99 1A       		.byte	0x1a
 2012 0f9a 7601     		.2byte	0x176
 2013 0f9c 490B0000 		.4byte	0xb49
 2014 0fa0 20       		.byte	0x20
 2015 0fa1 0B       		.uleb128 0xb
 2016 0fa2 94000000 		.4byte	.LASF218
 2017 0fa6 1A       		.byte	0x1a
 2018 0fa7 7B01     		.2byte	0x17b
 2019 0fa9 490B0000 		.4byte	0xb49
 2020 0fad 24       		.byte	0x24
 2021 0fae 0B       		.uleb128 0xb
 2022 0faf D0000000 		.4byte	.LASF219
 2023 0fb3 1A       		.byte	0x1a
 2024 0fb4 7F01     		.2byte	0x17f
 2025 0fb6 490B0000 		.4byte	0xb49
 2026 0fba 28       		.byte	0x28
 2027 0fbb 0A       		.uleb128 0xa
 2028 0fbc 63616E00 		.ascii	"can\000"
 2029 0fc0 1A       		.byte	0x1a
 2030 0fc1 A201     		.2byte	0x1a2
 2031 0fc3 04100000 		.4byte	0x1004
 2032 0fc7 2C       		.byte	0x2c
 2033 0fc8 00       		.byte	0
 2034 0fc9 1A       		.uleb128 0x1a
 2035 0fca 08       		.byte	0x8
 2036 0fcb 1A       		.byte	0x1a
 2037 0fcc 3601     		.2byte	0x136
 2038 0fce ED0F0000 		.4byte	0xfed
 2039 0fd2 0A       		.uleb128 0xa
 2040 0fd3 6D637200 		.ascii	"mcr\000"
 2041 0fd7 1A       		.byte	0x1a
 2042 0fd8 3C01     		.2byte	0x13c
 2043 0fda E4000000 		.4byte	0xe4
 2044 0fde 00       		.byte	0
 2045 0fdf 0A       		.uleb128 0xa
 2046 0fe0 62747200 		.ascii	"btr\000"
 2047 0fe4 1A       		.byte	0x1a
 2048 0fe5 4201     		.2byte	0x142
 2049 0fe7 E4000000 		.4byte	0xe4
 2050 0feb 04       		.byte	0x4
 2051 0fec 00       		.byte	0
 2052 0fed 19       		.uleb128 0x19
ARM GAS  C:\Users\14122\AppData\Local\Temp\ccUGLFNQ.s 			page 37


 2053 0fee F9000000 		.4byte	.LASF220
 2054 0ff2 1A       		.byte	0x1a
 2055 0ff3 4301     		.2byte	0x143
 2056 0ff5 C90F0000 		.4byte	0xfc9
 2057 0ff9 05       		.uleb128 0x5
 2058 0ffa ED0F0000 		.4byte	0xfed
 2059 0ffe 0C       		.uleb128 0xc
 2060 0fff 04       		.byte	0x4
 2061 1000 F90F0000 		.4byte	0xff9
 2062 1004 0C       		.uleb128 0xc
 2063 1005 04       		.byte	0x4
 2064 1006 05070000 		.4byte	0x705
 2065 100a 13       		.uleb128 0x13
 2066 100b 600B0000 		.4byte	.LASF221
 2067 100f 1A       		.byte	0x1a
 2068 1010 AE01     		.2byte	0x1ae
 2069 1012 2E0F0000 		.4byte	0xf2e
 2070 1016 22       		.uleb128 0x22
 2071 1017 07       		.byte	0x7
 2072 1018 01       		.byte	0x1
 2073 1019 5E000000 		.4byte	0x5e
 2074 101d 1B       		.byte	0x1b
 2075 101e 59       		.byte	0x59
 2076 101f 36100000 		.4byte	0x1036
 2077 1023 23       		.uleb128 0x23
 2078 1024 1D050000 		.4byte	.LASF222
 2079 1028 00       		.byte	0
 2080 1029 23       		.uleb128 0x23
 2081 102a B7000000 		.4byte	.LASF223
 2082 102e 01       		.byte	0x1
 2083 102f 23       		.uleb128 0x23
 2084 1030 04030000 		.4byte	.LASF224
 2085 1034 02       		.byte	0x2
 2086 1035 00       		.byte	0
 2087 1036 03       		.uleb128 0x3
 2088 1037 E9090000 		.4byte	.LASF225
 2089 103b 1B       		.byte	0x1b
 2090 103c 5D       		.byte	0x5d
 2091 103d 16100000 		.4byte	0x1016
 2092 1041 22       		.uleb128 0x22
 2093 1042 07       		.byte	0x7
 2094 1043 01       		.byte	0x1
 2095 1044 5E000000 		.4byte	0x5e
 2096 1048 1B       		.byte	0x1b
 2097 1049 62       		.byte	0x62
 2098 104a 61100000 		.4byte	0x1061
 2099 104e 23       		.uleb128 0x23
 2100 104f 750A0000 		.4byte	.LASF226
 2101 1053 00       		.byte	0
 2102 1054 23       		.uleb128 0x23
 2103 1055 5A010000 		.4byte	.LASF227
 2104 1059 01       		.byte	0x1
 2105 105a 23       		.uleb128 0x23
 2106 105b EF080000 		.4byte	.LASF228
 2107 105f 02       		.byte	0x2
 2108 1060 00       		.byte	0
 2109 1061 03       		.uleb128 0x3
ARM GAS  C:\Users\14122\AppData\Local\Temp\ccUGLFNQ.s 			page 38


 2110 1062 C3010000 		.4byte	.LASF229
 2111 1066 1B       		.byte	0x1b
 2112 1067 66       		.byte	0x66
 2113 1068 41100000 		.4byte	0x1041
 2114 106c 22       		.uleb128 0x22
 2115 106d 07       		.byte	0x7
 2116 106e 01       		.byte	0x1
 2117 106f 5E000000 		.4byte	0x5e
 2118 1073 1B       		.byte	0x1b
 2119 1074 6B       		.byte	0x6b
 2120 1075 8C100000 		.4byte	0x108c
 2121 1079 23       		.uleb128 0x23
 2122 107a 4B090000 		.4byte	.LASF230
 2123 107e 00       		.byte	0
 2124 107f 23       		.uleb128 0x23
 2125 1080 4A080000 		.4byte	.LASF231
 2126 1084 01       		.byte	0x1
 2127 1085 23       		.uleb128 0x23
 2128 1086 39050000 		.4byte	.LASF232
 2129 108a 02       		.byte	0x2
 2130 108b 00       		.byte	0
 2131 108c 03       		.uleb128 0x3
 2132 108d 00090000 		.4byte	.LASF233
 2133 1091 1B       		.byte	0x1b
 2134 1092 6F       		.byte	0x6f
 2135 1093 6C100000 		.4byte	0x106c
 2136 1097 19       		.uleb128 0x19
 2137 1098 EF050000 		.4byte	.LASF234
 2138 109c 1C       		.byte	0x1c
 2139 109d B301     		.2byte	0x1b3
 2140 109f E4000000 		.4byte	0xe4
 2141 10a3 19       		.uleb128 0x19
 2142 10a4 69010000 		.4byte	.LASF235
 2143 10a8 1C       		.byte	0x1c
 2144 10a9 B801     		.2byte	0x1b8
 2145 10ab AF100000 		.4byte	0x10af
 2146 10af 0D       		.uleb128 0xd
 2147 10b0 69010000 		.4byte	.LASF235
 2148 10b4 1C       		.byte	0x1c
 2149 10b5 1C       		.byte	0x1c
 2150 10b6 0002     		.2byte	0x200
 2151 10b8 32110000 		.4byte	0x1132
 2152 10bc 0B       		.uleb128 0xb
 2153 10bd E4000000 		.4byte	.LASF37
 2154 10c1 1C       		.byte	0x1c
 2155 10c2 0402     		.2byte	0x204
 2156 10c4 36100000 		.4byte	0x1036
 2157 10c8 00       		.byte	0
 2158 10c9 0B       		.uleb128 0xb
 2159 10ca B2010000 		.4byte	.LASF236
 2160 10ce 1C       		.byte	0x1c
 2161 10cf 0802     		.2byte	0x208
 2162 10d1 61100000 		.4byte	0x1061
 2163 10d5 01       		.byte	0x1
 2164 10d6 0B       		.uleb128 0xb
 2165 10d7 F1000000 		.4byte	.LASF237
 2166 10db 1C       		.byte	0x1c
ARM GAS  C:\Users\14122\AppData\Local\Temp\ccUGLFNQ.s 			page 39


 2167 10dc 0C02     		.2byte	0x20c
 2168 10de 8C100000 		.4byte	0x108c
 2169 10e2 02       		.byte	0x2
 2170 10e3 0B       		.uleb128 0xb
 2171 10e4 DD000000 		.4byte	.LASF212
 2172 10e8 1C       		.byte	0x1c
 2173 10e9 1002     		.2byte	0x210
 2174 10eb 29120000 		.4byte	0x1229
 2175 10ef 04       		.byte	0x4
 2176 10f0 0B       		.uleb128 0xb
 2177 10f1 D6010000 		.4byte	.LASF238
 2178 10f5 1C       		.byte	0x1c
 2179 10f6 2C02     		.2byte	0x22c
 2180 10f8 2F120000 		.4byte	0x122f
 2181 10fc 08       		.byte	0x8
 2182 10fd 0B       		.uleb128 0xb
 2183 10fe DC050000 		.4byte	.LASF239
 2184 1102 1C       		.byte	0x1c
 2185 1103 3002     		.2byte	0x230
 2186 1105 E4000000 		.4byte	0xe4
 2187 1109 0C       		.byte	0xc
 2188 110a 0B       		.uleb128 0xb
 2189 110b 50050000 		.4byte	.LASF240
 2190 110f 1C       		.byte	0x1c
 2191 1110 3402     		.2byte	0x234
 2192 1112 35120000 		.4byte	0x1235
 2193 1116 10       		.byte	0x10
 2194 1117 0B       		.uleb128 0xb
 2195 1118 FB050000 		.4byte	.LASF241
 2196 111c 1C       		.byte	0x1c
 2197 111d 3802     		.2byte	0x238
 2198 111f 35120000 		.4byte	0x1235
 2199 1123 14       		.byte	0x14
 2200 1124 0B       		.uleb128 0xb
 2201 1125 4A050000 		.4byte	.LASF242
 2202 1129 1C       		.byte	0x1c
 2203 112a 3C02     		.2byte	0x23c
 2204 112c CF000000 		.4byte	0xcf
 2205 1130 18       		.byte	0x18
 2206 1131 00       		.byte	0
 2207 1132 19       		.uleb128 0x19
 2208 1133 820A0000 		.4byte	.LASF243
 2209 1137 1C       		.byte	0x1c
 2210 1138 BF01     		.2byte	0x1bf
 2211 113a 3E110000 		.4byte	0x113e
 2212 113e 0C       		.uleb128 0xc
 2213 113f 04       		.byte	0x4
 2214 1140 44110000 		.4byte	0x1144
 2215 1144 0E       		.uleb128 0xe
 2216 1145 4F110000 		.4byte	0x114f
 2217 1149 0F       		.uleb128 0xf
 2218 114a 4F110000 		.4byte	0x114f
 2219 114e 00       		.byte	0
 2220 114f 0C       		.uleb128 0xc
 2221 1150 04       		.byte	0x4
 2222 1151 A3100000 		.4byte	0x10a3
 2223 1155 19       		.uleb128 0x19
ARM GAS  C:\Users\14122\AppData\Local\Temp\ccUGLFNQ.s 			page 40


 2224 1156 15090000 		.4byte	.LASF244
 2225 115a 1C       		.byte	0x1c
 2226 115b C701     		.2byte	0x1c7
 2227 115d 61110000 		.4byte	0x1161
 2228 1161 0C       		.uleb128 0xc
 2229 1162 04       		.byte	0x4
 2230 1163 67110000 		.4byte	0x1167
 2231 1167 0E       		.uleb128 0xe
 2232 1168 77110000 		.4byte	0x1177
 2233 116c 0F       		.uleb128 0xf
 2234 116d 4F110000 		.4byte	0x114f
 2235 1171 0F       		.uleb128 0xf
 2236 1172 C4000000 		.4byte	0xc4
 2237 1176 00       		.byte	0
 2238 1177 19       		.uleb128 0x19
 2239 1178 E2040000 		.4byte	.LASF245
 2240 117c 1C       		.byte	0x1c
 2241 117d CF01     		.2byte	0x1cf
 2242 117f 83110000 		.4byte	0x1183
 2243 1183 0C       		.uleb128 0xc
 2244 1184 04       		.byte	0x4
 2245 1185 89110000 		.4byte	0x1189
 2246 1189 0E       		.uleb128 0xe
 2247 118a 99110000 		.4byte	0x1199
 2248 118e 0F       		.uleb128 0xf
 2249 118f 4F110000 		.4byte	0x114f
 2250 1193 0F       		.uleb128 0xf
 2251 1194 97100000 		.4byte	0x1097
 2252 1198 00       		.byte	0
 2253 1199 1A       		.uleb128 0x1a
 2254 119a 20       		.byte	0x20
 2255 119b 1C       		.byte	0x1c
 2256 119c D501     		.2byte	0x1d5
 2257 119e 18120000 		.4byte	0x1218
 2258 11a2 0B       		.uleb128 0xb
 2259 11a3 41090000 		.4byte	.LASF246
 2260 11a7 1C       		.byte	0x1c
 2261 11a8 D901     		.2byte	0x1d9
 2262 11aa 32110000 		.4byte	0x1132
 2263 11ae 00       		.byte	0
 2264 11af 0B       		.uleb128 0xb
 2265 11b0 AB040000 		.4byte	.LASF247
 2266 11b4 1C       		.byte	0x1c
 2267 11b5 DD01     		.2byte	0x1dd
 2268 11b7 32110000 		.4byte	0x1132
 2269 11bb 04       		.byte	0x4
 2270 11bc 0B       		.uleb128 0xb
 2271 11bd 12010000 		.4byte	.LASF248
 2272 11c1 1C       		.byte	0x1c
 2273 11c2 E101     		.2byte	0x1e1
 2274 11c4 32110000 		.4byte	0x1132
 2275 11c8 08       		.byte	0x8
 2276 11c9 0B       		.uleb128 0xb
 2277 11ca B3030000 		.4byte	.LASF249
 2278 11ce 1C       		.byte	0x1c
 2279 11cf E501     		.2byte	0x1e5
 2280 11d1 55110000 		.4byte	0x1155
ARM GAS  C:\Users\14122\AppData\Local\Temp\ccUGLFNQ.s 			page 41


 2281 11d5 0C       		.byte	0xc
 2282 11d6 0B       		.uleb128 0xb
 2283 11d7 1F060000 		.4byte	.LASF250
 2284 11db 1C       		.byte	0x1c
 2285 11dc E901     		.2byte	0x1e9
 2286 11de 77110000 		.4byte	0x1177
 2287 11e2 10       		.byte	0x10
 2288 11e3 0B       		.uleb128 0xb
 2289 11e4 CB030000 		.4byte	.LASF251
 2290 11e8 1C       		.byte	0x1c
 2291 11e9 EE01     		.2byte	0x1ee
 2292 11eb E4000000 		.4byte	0xe4
 2293 11ef 14       		.byte	0x14
 2294 11f0 0A       		.uleb128 0xa
 2295 11f1 63723100 		.ascii	"cr1\000"
 2296 11f5 1C       		.byte	0x1c
 2297 11f6 F201     		.2byte	0x1f2
 2298 11f8 C4000000 		.4byte	0xc4
 2299 11fc 18       		.byte	0x18
 2300 11fd 0A       		.uleb128 0xa
 2301 11fe 63723200 		.ascii	"cr2\000"
 2302 1202 1C       		.byte	0x1c
 2303 1203 F601     		.2byte	0x1f6
 2304 1205 C4000000 		.4byte	0xc4
 2305 1209 1A       		.byte	0x1a
 2306 120a 0A       		.uleb128 0xa
 2307 120b 63723300 		.ascii	"cr3\000"
 2308 120f 1C       		.byte	0x1c
 2309 1210 FA01     		.2byte	0x1fa
 2310 1212 C4000000 		.4byte	0xc4
 2311 1216 1C       		.byte	0x1c
 2312 1217 00       		.byte	0
 2313 1218 19       		.uleb128 0x19
 2314 1219 30040000 		.4byte	.LASF252
 2315 121d 1C       		.byte	0x1c
 2316 121e FB01     		.2byte	0x1fb
 2317 1220 99110000 		.4byte	0x1199
 2318 1224 05       		.uleb128 0x5
 2319 1225 18120000 		.4byte	0x1218
 2320 1229 0C       		.uleb128 0xc
 2321 122a 04       		.byte	0x4
 2322 122b 24120000 		.4byte	0x1224
 2323 122f 0C       		.uleb128 0xc
 2324 1230 04       		.byte	0x4
 2325 1231 EE070000 		.4byte	0x7ee
 2326 1235 0C       		.uleb128 0xc
 2327 1236 04       		.byte	0x4
 2328 1237 9F0D0000 		.4byte	0xd9f
 2329 123b 13       		.uleb128 0x13
 2330 123c FF0A0000 		.4byte	.LASF253
 2331 1240 1C       		.byte	0x1c
 2332 1241 4C02     		.2byte	0x24c
 2333 1243 A3100000 		.4byte	0x10a3
 2334 1247 24       		.uleb128 0x24
 2335 1248 FC040000 		.4byte	.LASF263
 2336 124c 01       		.byte	0x1
 2337 124d 38       		.byte	0x38
ARM GAS  C:\Users\14122\AppData\Local\Temp\ccUGLFNQ.s 			page 42


 2338 124e 00000000 		.4byte	.LFB253
 2339 1252 24000000 		.4byte	.LFE253-.LFB253
 2340 1256 01       		.uleb128 0x1
 2341 1257 9C       		.byte	0x9c
 2342 1258 93120000 		.4byte	0x1293
 2343 125c 25       		.uleb128 0x25
 2344 125d 06000000 		.4byte	.LVL0
 2345 1261 9C120000 		.4byte	0x129c
 2346 1265 25       		.uleb128 0x25
 2347 1266 0C000000 		.4byte	.LVL1
 2348 126a A7120000 		.4byte	0x12a7
 2349 126e 25       		.uleb128 0x25
 2350 126f 10000000 		.4byte	.LVL2
 2351 1273 B3120000 		.4byte	0x12b3
 2352 1277 25       		.uleb128 0x25
 2353 1278 14000000 		.4byte	.LVL3
 2354 127c BE120000 		.4byte	0x12be
 2355 1280 25       		.uleb128 0x25
 2356 1281 18000000 		.4byte	.LVL4
 2357 1285 CA120000 		.4byte	0x12ca
 2358 1289 26       		.uleb128 0x26
 2359 128a 20000000 		.4byte	.LVL5
 2360 128e D5120000 		.4byte	0x12d5
 2361 1292 00       		.byte	0
 2362 1293 27       		.uleb128 0x27
 2363 1294 52060000 		.4byte	.LASF264
 2364 1298 20       		.byte	0x20
 2365 1299 D301     		.2byte	0x1d3
 2366 129b 03       		.byte	0x3
 2367 129c 28       		.uleb128 0x28
 2368 129d 19020000 		.4byte	.LASF254
 2369 12a1 19020000 		.4byte	.LASF254
 2370 12a5 1D       		.byte	0x1d
 2371 12a6 D9       		.byte	0xd9
 2372 12a7 29       		.uleb128 0x29
 2373 12a8 35060000 		.4byte	.LASF255
 2374 12ac 35060000 		.4byte	.LASF255
 2375 12b0 18       		.byte	0x18
 2376 12b1 A701     		.2byte	0x1a7
 2377 12b3 28       		.uleb128 0x28
 2378 12b4 9B0A0000 		.4byte	.LASF256
 2379 12b8 9B0A0000 		.4byte	.LASF256
 2380 12bc 19       		.byte	0x19
 2381 12bd E0       		.byte	0xe0
 2382 12be 29       		.uleb128 0x29
 2383 12bf 92050000 		.4byte	.LASF257
 2384 12c3 92050000 		.4byte	.LASF257
 2385 12c7 1B       		.byte	0x1b
 2386 12c8 8901     		.2byte	0x189
 2387 12ca 28       		.uleb128 0x28
 2388 12cb 100A0000 		.4byte	.LASF258
 2389 12cf 100A0000 		.4byte	.LASF258
 2390 12d3 1E       		.byte	0x1e
 2391 12d4 B1       		.byte	0xb1
 2392 12d5 28       		.uleb128 0x28
 2393 12d6 3A080000 		.4byte	.LASF259
 2394 12da 3A080000 		.4byte	.LASF259
ARM GAS  C:\Users\14122\AppData\Local\Temp\ccUGLFNQ.s 			page 43


 2395 12de 1F       		.byte	0x1f
 2396 12df 56       		.byte	0x56
 2397 12e0 00       		.byte	0
 2398              		.section	.debug_abbrev,"",%progbits
 2399              	.Ldebug_abbrev0:
 2400 0000 01       		.uleb128 0x1
 2401 0001 11       		.uleb128 0x11
 2402 0002 01       		.byte	0x1
 2403 0003 25       		.uleb128 0x25
 2404 0004 0E       		.uleb128 0xe
 2405 0005 13       		.uleb128 0x13
 2406 0006 0B       		.uleb128 0xb
 2407 0007 03       		.uleb128 0x3
 2408 0008 0E       		.uleb128 0xe
 2409 0009 1B       		.uleb128 0x1b
 2410 000a 0E       		.uleb128 0xe
 2411 000b 55       		.uleb128 0x55
 2412 000c 17       		.uleb128 0x17
 2413 000d 11       		.uleb128 0x11
 2414 000e 01       		.uleb128 0x1
 2415 000f 10       		.uleb128 0x10
 2416 0010 17       		.uleb128 0x17
 2417 0011 00       		.byte	0
 2418 0012 00       		.byte	0
 2419 0013 02       		.uleb128 0x2
 2420 0014 24       		.uleb128 0x24
 2421 0015 00       		.byte	0
 2422 0016 0B       		.uleb128 0xb
 2423 0017 0B       		.uleb128 0xb
 2424 0018 3E       		.uleb128 0x3e
 2425 0019 0B       		.uleb128 0xb
 2426 001a 03       		.uleb128 0x3
 2427 001b 08       		.uleb128 0x8
 2428 001c 00       		.byte	0
 2429 001d 00       		.byte	0
 2430 001e 03       		.uleb128 0x3
 2431 001f 16       		.uleb128 0x16
 2432 0020 00       		.byte	0
 2433 0021 03       		.uleb128 0x3
 2434 0022 0E       		.uleb128 0xe
 2435 0023 3A       		.uleb128 0x3a
 2436 0024 0B       		.uleb128 0xb
 2437 0025 3B       		.uleb128 0x3b
 2438 0026 0B       		.uleb128 0xb
 2439 0027 49       		.uleb128 0x49
 2440 0028 13       		.uleb128 0x13
 2441 0029 00       		.byte	0
 2442 002a 00       		.byte	0
 2443 002b 04       		.uleb128 0x4
 2444 002c 24       		.uleb128 0x24
 2445 002d 00       		.byte	0
 2446 002e 0B       		.uleb128 0xb
 2447 002f 0B       		.uleb128 0xb
 2448 0030 3E       		.uleb128 0x3e
 2449 0031 0B       		.uleb128 0xb
 2450 0032 03       		.uleb128 0x3
 2451 0033 0E       		.uleb128 0xe
ARM GAS  C:\Users\14122\AppData\Local\Temp\ccUGLFNQ.s 			page 44


 2452 0034 00       		.byte	0
 2453 0035 00       		.byte	0
 2454 0036 05       		.uleb128 0x5
 2455 0037 26       		.uleb128 0x26
 2456 0038 00       		.byte	0
 2457 0039 49       		.uleb128 0x49
 2458 003a 13       		.uleb128 0x13
 2459 003b 00       		.byte	0
 2460 003c 00       		.byte	0
 2461 003d 06       		.uleb128 0x6
 2462 003e 35       		.uleb128 0x35
 2463 003f 00       		.byte	0
 2464 0040 49       		.uleb128 0x49
 2465 0041 13       		.uleb128 0x13
 2466 0042 00       		.byte	0
 2467 0043 00       		.byte	0
 2468 0044 07       		.uleb128 0x7
 2469 0045 13       		.uleb128 0x13
 2470 0046 01       		.byte	0x1
 2471 0047 03       		.uleb128 0x3
 2472 0048 0E       		.uleb128 0xe
 2473 0049 0B       		.uleb128 0xb
 2474 004a 0B       		.uleb128 0xb
 2475 004b 3A       		.uleb128 0x3a
 2476 004c 0B       		.uleb128 0xb
 2477 004d 3B       		.uleb128 0x3b
 2478 004e 0B       		.uleb128 0xb
 2479 004f 01       		.uleb128 0x1
 2480 0050 13       		.uleb128 0x13
 2481 0051 00       		.byte	0
 2482 0052 00       		.byte	0
 2483 0053 08       		.uleb128 0x8
 2484 0054 0D       		.uleb128 0xd
 2485 0055 00       		.byte	0
 2486 0056 03       		.uleb128 0x3
 2487 0057 0E       		.uleb128 0xe
 2488 0058 3A       		.uleb128 0x3a
 2489 0059 0B       		.uleb128 0xb
 2490 005a 3B       		.uleb128 0x3b
 2491 005b 0B       		.uleb128 0xb
 2492 005c 49       		.uleb128 0x49
 2493 005d 13       		.uleb128 0x13
 2494 005e 38       		.uleb128 0x38
 2495 005f 0B       		.uleb128 0xb
 2496 0060 00       		.byte	0
 2497 0061 00       		.byte	0
 2498 0062 09       		.uleb128 0x9
 2499 0063 0D       		.uleb128 0xd
 2500 0064 00       		.byte	0
 2501 0065 03       		.uleb128 0x3
 2502 0066 08       		.uleb128 0x8
 2503 0067 3A       		.uleb128 0x3a
 2504 0068 0B       		.uleb128 0xb
 2505 0069 3B       		.uleb128 0x3b
 2506 006a 0B       		.uleb128 0xb
 2507 006b 49       		.uleb128 0x49
 2508 006c 13       		.uleb128 0x13
ARM GAS  C:\Users\14122\AppData\Local\Temp\ccUGLFNQ.s 			page 45


 2509 006d 38       		.uleb128 0x38
 2510 006e 0B       		.uleb128 0xb
 2511 006f 00       		.byte	0
 2512 0070 00       		.byte	0
 2513 0071 0A       		.uleb128 0xa
 2514 0072 0D       		.uleb128 0xd
 2515 0073 00       		.byte	0
 2516 0074 03       		.uleb128 0x3
 2517 0075 08       		.uleb128 0x8
 2518 0076 3A       		.uleb128 0x3a
 2519 0077 0B       		.uleb128 0xb
 2520 0078 3B       		.uleb128 0x3b
 2521 0079 05       		.uleb128 0x5
 2522 007a 49       		.uleb128 0x49
 2523 007b 13       		.uleb128 0x13
 2524 007c 38       		.uleb128 0x38
 2525 007d 0B       		.uleb128 0xb
 2526 007e 00       		.byte	0
 2527 007f 00       		.byte	0
 2528 0080 0B       		.uleb128 0xb
 2529 0081 0D       		.uleb128 0xd
 2530 0082 00       		.byte	0
 2531 0083 03       		.uleb128 0x3
 2532 0084 0E       		.uleb128 0xe
 2533 0085 3A       		.uleb128 0x3a
 2534 0086 0B       		.uleb128 0xb
 2535 0087 3B       		.uleb128 0x3b
 2536 0088 05       		.uleb128 0x5
 2537 0089 49       		.uleb128 0x49
 2538 008a 13       		.uleb128 0x13
 2539 008b 38       		.uleb128 0x38
 2540 008c 0B       		.uleb128 0xb
 2541 008d 00       		.byte	0
 2542 008e 00       		.byte	0
 2543 008f 0C       		.uleb128 0xc
 2544 0090 0F       		.uleb128 0xf
 2545 0091 00       		.byte	0
 2546 0092 0B       		.uleb128 0xb
 2547 0093 0B       		.uleb128 0xb
 2548 0094 49       		.uleb128 0x49
 2549 0095 13       		.uleb128 0x13
 2550 0096 00       		.byte	0
 2551 0097 00       		.byte	0
 2552 0098 0D       		.uleb128 0xd
 2553 0099 13       		.uleb128 0x13
 2554 009a 01       		.byte	0x1
 2555 009b 03       		.uleb128 0x3
 2556 009c 0E       		.uleb128 0xe
 2557 009d 0B       		.uleb128 0xb
 2558 009e 0B       		.uleb128 0xb
 2559 009f 3A       		.uleb128 0x3a
 2560 00a0 0B       		.uleb128 0xb
 2561 00a1 3B       		.uleb128 0x3b
 2562 00a2 05       		.uleb128 0x5
 2563 00a3 01       		.uleb128 0x1
 2564 00a4 13       		.uleb128 0x13
 2565 00a5 00       		.byte	0
ARM GAS  C:\Users\14122\AppData\Local\Temp\ccUGLFNQ.s 			page 46


 2566 00a6 00       		.byte	0
 2567 00a7 0E       		.uleb128 0xe
 2568 00a8 15       		.uleb128 0x15
 2569 00a9 01       		.byte	0x1
 2570 00aa 27       		.uleb128 0x27
 2571 00ab 19       		.uleb128 0x19
 2572 00ac 01       		.uleb128 0x1
 2573 00ad 13       		.uleb128 0x13
 2574 00ae 00       		.byte	0
 2575 00af 00       		.byte	0
 2576 00b0 0F       		.uleb128 0xf
 2577 00b1 05       		.uleb128 0x5
 2578 00b2 00       		.byte	0
 2579 00b3 49       		.uleb128 0x49
 2580 00b4 13       		.uleb128 0x13
 2581 00b5 00       		.byte	0
 2582 00b6 00       		.byte	0
 2583 00b7 10       		.uleb128 0x10
 2584 00b8 0F       		.uleb128 0xf
 2585 00b9 00       		.byte	0
 2586 00ba 0B       		.uleb128 0xb
 2587 00bb 0B       		.uleb128 0xb
 2588 00bc 00       		.byte	0
 2589 00bd 00       		.byte	0
 2590 00be 11       		.uleb128 0x11
 2591 00bf 01       		.uleb128 0x1
 2592 00c0 01       		.byte	0x1
 2593 00c1 49       		.uleb128 0x49
 2594 00c2 13       		.uleb128 0x13
 2595 00c3 01       		.uleb128 0x1
 2596 00c4 13       		.uleb128 0x13
 2597 00c5 00       		.byte	0
 2598 00c6 00       		.byte	0
 2599 00c7 12       		.uleb128 0x12
 2600 00c8 21       		.uleb128 0x21
 2601 00c9 00       		.byte	0
 2602 00ca 49       		.uleb128 0x49
 2603 00cb 13       		.uleb128 0x13
 2604 00cc 2F       		.uleb128 0x2f
 2605 00cd 0B       		.uleb128 0xb
 2606 00ce 00       		.byte	0
 2607 00cf 00       		.byte	0
 2608 00d0 13       		.uleb128 0x13
 2609 00d1 34       		.uleb128 0x34
 2610 00d2 00       		.byte	0
 2611 00d3 03       		.uleb128 0x3
 2612 00d4 0E       		.uleb128 0xe
 2613 00d5 3A       		.uleb128 0x3a
 2614 00d6 0B       		.uleb128 0xb
 2615 00d7 3B       		.uleb128 0x3b
 2616 00d8 05       		.uleb128 0x5
 2617 00d9 49       		.uleb128 0x49
 2618 00da 13       		.uleb128 0x13
 2619 00db 3F       		.uleb128 0x3f
 2620 00dc 19       		.uleb128 0x19
 2621 00dd 3C       		.uleb128 0x3c
 2622 00de 19       		.uleb128 0x19
ARM GAS  C:\Users\14122\AppData\Local\Temp\ccUGLFNQ.s 			page 47


 2623 00df 00       		.byte	0
 2624 00e0 00       		.byte	0
 2625 00e1 14       		.uleb128 0x14
 2626 00e2 34       		.uleb128 0x34
 2627 00e3 00       		.byte	0
 2628 00e4 03       		.uleb128 0x3
 2629 00e5 0E       		.uleb128 0xe
 2630 00e6 3A       		.uleb128 0x3a
 2631 00e7 0B       		.uleb128 0xb
 2632 00e8 3B       		.uleb128 0x3b
 2633 00e9 0B       		.uleb128 0xb
 2634 00ea 49       		.uleb128 0x49
 2635 00eb 13       		.uleb128 0x13
 2636 00ec 3F       		.uleb128 0x3f
 2637 00ed 19       		.uleb128 0x19
 2638 00ee 3C       		.uleb128 0x3c
 2639 00ef 19       		.uleb128 0x19
 2640 00f0 00       		.byte	0
 2641 00f1 00       		.byte	0
 2642 00f2 15       		.uleb128 0x15
 2643 00f3 13       		.uleb128 0x13
 2644 00f4 01       		.byte	0x1
 2645 00f5 0B       		.uleb128 0xb
 2646 00f6 0B       		.uleb128 0xb
 2647 00f7 3A       		.uleb128 0x3a
 2648 00f8 0B       		.uleb128 0xb
 2649 00f9 3B       		.uleb128 0x3b
 2650 00fa 0B       		.uleb128 0xb
 2651 00fb 01       		.uleb128 0x1
 2652 00fc 13       		.uleb128 0x13
 2653 00fd 00       		.byte	0
 2654 00fe 00       		.byte	0
 2655 00ff 16       		.uleb128 0x16
 2656 0100 13       		.uleb128 0x13
 2657 0101 01       		.byte	0x1
 2658 0102 0B       		.uleb128 0xb
 2659 0103 05       		.uleb128 0x5
 2660 0104 3A       		.uleb128 0x3a
 2661 0105 0B       		.uleb128 0xb
 2662 0106 3B       		.uleb128 0x3b
 2663 0107 0B       		.uleb128 0xb
 2664 0108 01       		.uleb128 0x1
 2665 0109 13       		.uleb128 0x13
 2666 010a 00       		.byte	0
 2667 010b 00       		.byte	0
 2668 010c 17       		.uleb128 0x17
 2669 010d 0D       		.uleb128 0xd
 2670 010e 00       		.byte	0
 2671 010f 03       		.uleb128 0x3
 2672 0110 0E       		.uleb128 0xe
 2673 0111 3A       		.uleb128 0x3a
 2674 0112 0B       		.uleb128 0xb
 2675 0113 3B       		.uleb128 0x3b
 2676 0114 05       		.uleb128 0x5
 2677 0115 49       		.uleb128 0x49
 2678 0116 13       		.uleb128 0x13
 2679 0117 38       		.uleb128 0x38
ARM GAS  C:\Users\14122\AppData\Local\Temp\ccUGLFNQ.s 			page 48


 2680 0118 05       		.uleb128 0x5
 2681 0119 00       		.byte	0
 2682 011a 00       		.byte	0
 2683 011b 18       		.uleb128 0x18
 2684 011c 0D       		.uleb128 0xd
 2685 011d 00       		.byte	0
 2686 011e 03       		.uleb128 0x3
 2687 011f 08       		.uleb128 0x8
 2688 0120 3A       		.uleb128 0x3a
 2689 0121 0B       		.uleb128 0xb
 2690 0122 3B       		.uleb128 0x3b
 2691 0123 05       		.uleb128 0x5
 2692 0124 49       		.uleb128 0x49
 2693 0125 13       		.uleb128 0x13
 2694 0126 38       		.uleb128 0x38
 2695 0127 05       		.uleb128 0x5
 2696 0128 00       		.byte	0
 2697 0129 00       		.byte	0
 2698 012a 19       		.uleb128 0x19
 2699 012b 16       		.uleb128 0x16
 2700 012c 00       		.byte	0
 2701 012d 03       		.uleb128 0x3
 2702 012e 0E       		.uleb128 0xe
 2703 012f 3A       		.uleb128 0x3a
 2704 0130 0B       		.uleb128 0xb
 2705 0131 3B       		.uleb128 0x3b
 2706 0132 05       		.uleb128 0x5
 2707 0133 49       		.uleb128 0x49
 2708 0134 13       		.uleb128 0x13
 2709 0135 00       		.byte	0
 2710 0136 00       		.byte	0
 2711 0137 1A       		.uleb128 0x1a
 2712 0138 13       		.uleb128 0x13
 2713 0139 01       		.byte	0x1
 2714 013a 0B       		.uleb128 0xb
 2715 013b 0B       		.uleb128 0xb
 2716 013c 3A       		.uleb128 0x3a
 2717 013d 0B       		.uleb128 0xb
 2718 013e 3B       		.uleb128 0x3b
 2719 013f 05       		.uleb128 0x5
 2720 0140 01       		.uleb128 0x1
 2721 0141 13       		.uleb128 0x13
 2722 0142 00       		.byte	0
 2723 0143 00       		.byte	0
 2724 0144 1B       		.uleb128 0x1b
 2725 0145 17       		.uleb128 0x17
 2726 0146 01       		.byte	0x1
 2727 0147 0B       		.uleb128 0xb
 2728 0148 0B       		.uleb128 0xb
 2729 0149 3A       		.uleb128 0x3a
 2730 014a 0B       		.uleb128 0xb
 2731 014b 3B       		.uleb128 0x3b
 2732 014c 0B       		.uleb128 0xb
 2733 014d 01       		.uleb128 0x1
 2734 014e 13       		.uleb128 0x13
 2735 014f 00       		.byte	0
 2736 0150 00       		.byte	0
ARM GAS  C:\Users\14122\AppData\Local\Temp\ccUGLFNQ.s 			page 49


 2737 0151 1C       		.uleb128 0x1c
 2738 0152 0D       		.uleb128 0xd
 2739 0153 00       		.byte	0
 2740 0154 03       		.uleb128 0x3
 2741 0155 0E       		.uleb128 0xe
 2742 0156 3A       		.uleb128 0x3a
 2743 0157 0B       		.uleb128 0xb
 2744 0158 3B       		.uleb128 0x3b
 2745 0159 0B       		.uleb128 0xb
 2746 015a 49       		.uleb128 0x49
 2747 015b 13       		.uleb128 0x13
 2748 015c 00       		.byte	0
 2749 015d 00       		.byte	0
 2750 015e 1D       		.uleb128 0x1d
 2751 015f 0D       		.uleb128 0xd
 2752 0160 00       		.byte	0
 2753 0161 03       		.uleb128 0x3
 2754 0162 0E       		.uleb128 0xe
 2755 0163 3A       		.uleb128 0x3a
 2756 0164 0B       		.uleb128 0xb
 2757 0165 3B       		.uleb128 0x3b
 2758 0166 05       		.uleb128 0x5
 2759 0167 49       		.uleb128 0x49
 2760 0168 13       		.uleb128 0x13
 2761 0169 00       		.byte	0
 2762 016a 00       		.byte	0
 2763 016b 1E       		.uleb128 0x1e
 2764 016c 34       		.uleb128 0x34
 2765 016d 00       		.byte	0
 2766 016e 03       		.uleb128 0x3
 2767 016f 08       		.uleb128 0x8
 2768 0170 3A       		.uleb128 0x3a
 2769 0171 0B       		.uleb128 0xb
 2770 0172 3B       		.uleb128 0x3b
 2771 0173 05       		.uleb128 0x5
 2772 0174 49       		.uleb128 0x49
 2773 0175 13       		.uleb128 0x13
 2774 0176 3F       		.uleb128 0x3f
 2775 0177 19       		.uleb128 0x19
 2776 0178 3C       		.uleb128 0x3c
 2777 0179 19       		.uleb128 0x19
 2778 017a 00       		.byte	0
 2779 017b 00       		.byte	0
 2780 017c 1F       		.uleb128 0x1f
 2781 017d 21       		.uleb128 0x21
 2782 017e 00       		.byte	0
 2783 017f 00       		.byte	0
 2784 0180 00       		.byte	0
 2785 0181 20       		.uleb128 0x20
 2786 0182 15       		.uleb128 0x15
 2787 0183 01       		.byte	0x1
 2788 0184 27       		.uleb128 0x27
 2789 0185 19       		.uleb128 0x19
 2790 0186 49       		.uleb128 0x49
 2791 0187 13       		.uleb128 0x13
 2792 0188 01       		.uleb128 0x1
 2793 0189 13       		.uleb128 0x13
ARM GAS  C:\Users\14122\AppData\Local\Temp\ccUGLFNQ.s 			page 50


 2794 018a 00       		.byte	0
 2795 018b 00       		.byte	0
 2796 018c 21       		.uleb128 0x21
 2797 018d 13       		.uleb128 0x13
 2798 018e 00       		.byte	0
 2799 018f 0B       		.uleb128 0xb
 2800 0190 0B       		.uleb128 0xb
 2801 0191 3A       		.uleb128 0x3a
 2802 0192 0B       		.uleb128 0xb
 2803 0193 3B       		.uleb128 0x3b
 2804 0194 0B       		.uleb128 0xb
 2805 0195 00       		.byte	0
 2806 0196 00       		.byte	0
 2807 0197 22       		.uleb128 0x22
 2808 0198 04       		.uleb128 0x4
 2809 0199 01       		.byte	0x1
 2810 019a 3E       		.uleb128 0x3e
 2811 019b 0B       		.uleb128 0xb
 2812 019c 0B       		.uleb128 0xb
 2813 019d 0B       		.uleb128 0xb
 2814 019e 49       		.uleb128 0x49
 2815 019f 13       		.uleb128 0x13
 2816 01a0 3A       		.uleb128 0x3a
 2817 01a1 0B       		.uleb128 0xb
 2818 01a2 3B       		.uleb128 0x3b
 2819 01a3 0B       		.uleb128 0xb
 2820 01a4 01       		.uleb128 0x1
 2821 01a5 13       		.uleb128 0x13
 2822 01a6 00       		.byte	0
 2823 01a7 00       		.byte	0
 2824 01a8 23       		.uleb128 0x23
 2825 01a9 28       		.uleb128 0x28
 2826 01aa 00       		.byte	0
 2827 01ab 03       		.uleb128 0x3
 2828 01ac 0E       		.uleb128 0xe
 2829 01ad 1C       		.uleb128 0x1c
 2830 01ae 0B       		.uleb128 0xb
 2831 01af 00       		.byte	0
 2832 01b0 00       		.byte	0
 2833 01b1 24       		.uleb128 0x24
 2834 01b2 2E       		.uleb128 0x2e
 2835 01b3 01       		.byte	0x1
 2836 01b4 3F       		.uleb128 0x3f
 2837 01b5 19       		.uleb128 0x19
 2838 01b6 03       		.uleb128 0x3
 2839 01b7 0E       		.uleb128 0xe
 2840 01b8 3A       		.uleb128 0x3a
 2841 01b9 0B       		.uleb128 0xb
 2842 01ba 3B       		.uleb128 0x3b
 2843 01bb 0B       		.uleb128 0xb
 2844 01bc 27       		.uleb128 0x27
 2845 01bd 19       		.uleb128 0x19
 2846 01be 11       		.uleb128 0x11
 2847 01bf 01       		.uleb128 0x1
 2848 01c0 12       		.uleb128 0x12
 2849 01c1 06       		.uleb128 0x6
 2850 01c2 40       		.uleb128 0x40
ARM GAS  C:\Users\14122\AppData\Local\Temp\ccUGLFNQ.s 			page 51


 2851 01c3 18       		.uleb128 0x18
 2852 01c4 9742     		.uleb128 0x2117
 2853 01c6 19       		.uleb128 0x19
 2854 01c7 01       		.uleb128 0x1
 2855 01c8 13       		.uleb128 0x13
 2856 01c9 00       		.byte	0
 2857 01ca 00       		.byte	0
 2858 01cb 25       		.uleb128 0x25
 2859 01cc 898201   		.uleb128 0x4109
 2860 01cf 00       		.byte	0
 2861 01d0 11       		.uleb128 0x11
 2862 01d1 01       		.uleb128 0x1
 2863 01d2 31       		.uleb128 0x31
 2864 01d3 13       		.uleb128 0x13
 2865 01d4 00       		.byte	0
 2866 01d5 00       		.byte	0
 2867 01d6 26       		.uleb128 0x26
 2868 01d7 898201   		.uleb128 0x4109
 2869 01da 00       		.byte	0
 2870 01db 11       		.uleb128 0x11
 2871 01dc 01       		.uleb128 0x1
 2872 01dd 9542     		.uleb128 0x2115
 2873 01df 19       		.uleb128 0x19
 2874 01e0 31       		.uleb128 0x31
 2875 01e1 13       		.uleb128 0x13
 2876 01e2 00       		.byte	0
 2877 01e3 00       		.byte	0
 2878 01e4 27       		.uleb128 0x27
 2879 01e5 2E       		.uleb128 0x2e
 2880 01e6 00       		.byte	0
 2881 01e7 03       		.uleb128 0x3
 2882 01e8 0E       		.uleb128 0xe
 2883 01e9 3A       		.uleb128 0x3a
 2884 01ea 0B       		.uleb128 0xb
 2885 01eb 3B       		.uleb128 0x3b
 2886 01ec 05       		.uleb128 0x5
 2887 01ed 27       		.uleb128 0x27
 2888 01ee 19       		.uleb128 0x19
 2889 01ef 20       		.uleb128 0x20
 2890 01f0 0B       		.uleb128 0xb
 2891 01f1 00       		.byte	0
 2892 01f2 00       		.byte	0
 2893 01f3 28       		.uleb128 0x28
 2894 01f4 2E       		.uleb128 0x2e
 2895 01f5 00       		.byte	0
 2896 01f6 3F       		.uleb128 0x3f
 2897 01f7 19       		.uleb128 0x19
 2898 01f8 3C       		.uleb128 0x3c
 2899 01f9 19       		.uleb128 0x19
 2900 01fa 6E       		.uleb128 0x6e
 2901 01fb 0E       		.uleb128 0xe
 2902 01fc 03       		.uleb128 0x3
 2903 01fd 0E       		.uleb128 0xe
 2904 01fe 3A       		.uleb128 0x3a
 2905 01ff 0B       		.uleb128 0xb
 2906 0200 3B       		.uleb128 0x3b
 2907 0201 0B       		.uleb128 0xb
ARM GAS  C:\Users\14122\AppData\Local\Temp\ccUGLFNQ.s 			page 52


 2908 0202 00       		.byte	0
 2909 0203 00       		.byte	0
 2910 0204 29       		.uleb128 0x29
 2911 0205 2E       		.uleb128 0x2e
 2912 0206 00       		.byte	0
 2913 0207 3F       		.uleb128 0x3f
 2914 0208 19       		.uleb128 0x19
 2915 0209 3C       		.uleb128 0x3c
 2916 020a 19       		.uleb128 0x19
 2917 020b 6E       		.uleb128 0x6e
 2918 020c 0E       		.uleb128 0xe
 2919 020d 03       		.uleb128 0x3
 2920 020e 0E       		.uleb128 0xe
 2921 020f 3A       		.uleb128 0x3a
 2922 0210 0B       		.uleb128 0xb
 2923 0211 3B       		.uleb128 0x3b
 2924 0212 05       		.uleb128 0x5
 2925 0213 00       		.byte	0
 2926 0214 00       		.byte	0
 2927 0215 00       		.byte	0
 2928              		.section	.debug_aranges,"",%progbits
 2929 0000 1C000000 		.4byte	0x1c
 2930 0004 0200     		.2byte	0x2
 2931 0006 00000000 		.4byte	.Ldebug_info0
 2932 000a 04       		.byte	0x4
 2933 000b 00       		.byte	0
 2934 000c 0000     		.2byte	0
 2935 000e 0000     		.2byte	0
 2936 0010 00000000 		.4byte	.LFB253
 2937 0014 24000000 		.4byte	.LFE253-.LFB253
 2938 0018 00000000 		.4byte	0
 2939 001c 00000000 		.4byte	0
 2940              		.section	.debug_ranges,"",%progbits
 2941              	.Ldebug_ranges0:
 2942 0000 00000000 		.4byte	.LFB253
 2943 0004 24000000 		.4byte	.LFE253
 2944 0008 00000000 		.4byte	0
 2945 000c 00000000 		.4byte	0
 2946              		.section	.debug_line,"",%progbits
 2947              	.Ldebug_line0:
 2948 0000 80040000 		.section	.debug_str,"MS",%progbits,1
 2948      02005E04 
 2948      00000201 
 2948      FB0E0D00 
 2948      01010101 
 2949              	.LASF137:
 2950 0000 6F66665F 		.ascii	"off_ctx\000"
 2950      63747800 
 2951              	.LASF188:
 2952 0008 73746D33 		.ascii	"stm32_dma_stream_t\000"
 2952      325F646D 
 2952      615F7374 
 2952      7265616D 
 2952      5F7400
 2953              	.LASF4:
 2954 001b 73697A65 		.ascii	"size_t\000"
 2954      5F7400
ARM GAS  C:\Users\14122\AppData\Local\Temp\ccUGLFNQ.s 			page 53


 2955              	.LASF136:
 2956 0022 6F66665F 		.ascii	"off_prio\000"
 2956      7072696F 
 2956      00
 2957              	.LASF160:
 2958 002b 656E646D 		.ascii	"endmem\000"
 2958      656D00
 2959              	.LASF121:
 2960 0032 77747365 		.ascii	"wtsemp\000"
 2960      6D7000
 2961              	.LASF73:
 2962 0039 73797374 		.ascii	"systime_t\000"
 2962      696D655F 
 2962      7400
 2963              	.LASF145:
 2964 0043 6F66665F 		.ascii	"off_preempt\000"
 2964      70726565 
 2964      6D707400 
 2965              	.LASF126:
 2966 004f 6F776E65 		.ascii	"owner\000"
 2966      7200
 2967              	.LASF24:
 2968 0055 74707269 		.ascii	"tprio_t\000"
 2968      6F5F7400 
 2969              	.LASF261:
 2970 005d 2E2F2F6F 		.ascii	".//os/hal/src/hal.c\000"
 2970      732F6861 
 2970      6C2F7372 
 2970      632F6861 
 2970      6C2E6300 
 2971              	.LASF148:
 2972 0071 63685F64 		.ascii	"ch_debug\000"
 2972      65627567 
 2972      00
 2973              	.LASF166:
 2974 007a 70726F76 		.ascii	"provider\000"
 2974      69646572 
 2974      00
 2975              	.LASF18:
 2976 0083 696E7433 		.ascii	"int32_t\000"
 2976      325F7400 
 2977              	.LASF57:
 2978 008b 76746675 		.ascii	"vtfunc_t\000"
 2978      6E635F74 
 2978      00
 2979              	.LASF218:
 2980 0094 736C6565 		.ascii	"sleep_event\000"
 2980      705F6576 
 2980      656E7400 
 2981              	.LASF63:
 2982 00a0 63685F76 		.ascii	"ch_virtual_timers_list\000"
 2982      69727475 
 2982      616C5F74 
 2982      696D6572 
 2982      735F6C69 
 2983              	.LASF223:
 2984 00b7 55415254 		.ascii	"UART_STOP\000"
ARM GAS  C:\Users\14122\AppData\Local\Temp\ccUGLFNQ.s 			page 54


 2984      5F53544F 
 2984      5000
 2985              	.LASF168:
 2986 00c1 63685F64 		.ascii	"ch_dyn_element\000"
 2986      796E5F65 
 2986      6C656D65 
 2986      6E7400
 2987              	.LASF219:
 2988 00d0 77616B65 		.ascii	"wakeup_event\000"
 2988      75705F65 
 2988      76656E74 
 2988      00
 2989              	.LASF212:
 2990 00dd 636F6E66 		.ascii	"config\000"
 2990      696700
 2991              	.LASF37:
 2992 00e4 73746174 		.ascii	"state\000"
 2992      6500
 2993              	.LASF201:
 2994 00ea 50454461 		.ascii	"PEData\000"
 2994      746100
 2995              	.LASF237:
 2996 00f1 72787374 		.ascii	"rxstate\000"
 2996      61746500 
 2997              	.LASF220:
 2998 00f9 43414E43 		.ascii	"CANConfig\000"
 2998      6F6E6669 
 2998      6700
 2999              	.LASF104:
 3000 0103 434E4454 		.ascii	"CNDTR\000"
 3000      5200
 3001              	.LASF173:
 3002 0109 6F626A5F 		.ascii	"obj_list\000"
 3002      6C697374 
 3002      00
 3003              	.LASF248:
 3004 0112 7278656E 		.ascii	"rxend_cb\000"
 3004      645F6362 
 3004      00
 3005              	.LASF139:
 3006 011b 6F66665F 		.ascii	"off_older\000"
 3006      6F6C6465 
 3006      7200
 3007              	.LASF32:
 3008 0125 7072696F 		.ascii	"prio\000"
 3008      00
 3009              	.LASF196:
 3010 012a 73746D33 		.ascii	"stm32_gpio_setup_t\000"
 3010      325F6770 
 3010      696F5F73 
 3010      65747570 
 3010      5F7400
 3011              	.LASF117:
 3012 013d 65786974 		.ascii	"exitcode\000"
 3012      636F6465 
 3012      00
 3013              	.LASF5:
ARM GAS  C:\Users\14122\AppData\Local\Temp\ccUGLFNQ.s 			page 55


 3014 0146 5F5F7569 		.ascii	"__uint8_t\000"
 3014      6E74385F 
 3014      7400
 3015              	.LASF211:
 3016 0150 43414E44 		.ascii	"CANDriver\000"
 3016      72697665 
 3016      7200
 3017              	.LASF227:
 3018 015a 55415254 		.ascii	"UART_TX_ACTIVE\000"
 3018      5F54585F 
 3018      41435449 
 3018      564500
 3019              	.LASF235:
 3020 0169 55415254 		.ascii	"UARTDriver\000"
 3020      44726976 
 3020      657200
 3021              	.LASF11:
 3022 0174 6C6F6E67 		.ascii	"long int\000"
 3022      20696E74 
 3022      00
 3023              	.LASF130:
 3024 017d 7A65726F 		.ascii	"zero\000"
 3024      00
 3025              	.LASF100:
 3026 0182 46413152 		.ascii	"FA1R\000"
 3026      00
 3027              	.LASF22:
 3028 0187 74737461 		.ascii	"tstate_t\000"
 3028      74655F74 
 3028      00
 3029              	.LASF42:
 3030 0190 6570656E 		.ascii	"epending\000"
 3030      64696E67 
 3030      00
 3031              	.LASF51:
 3032 0199 74687265 		.ascii	"threads_queue_t\000"
 3032      6164735F 
 3032      71756575 
 3032      655F7400 
 3033              	.LASF112:
 3034 01a9 72656761 		.ascii	"regarm_t\000"
 3034      726D5F74 
 3034      00
 3035              	.LASF236:
 3036 01b2 74787374 		.ascii	"txstate\000"
 3036      61746500 
 3037              	.LASF174:
 3038 01ba 6F626A5F 		.ascii	"obj_pool\000"
 3038      706F6F6C 
 3038      00
 3039              	.LASF229:
 3040 01c3 75617274 		.ascii	"uarttxstate_t\000"
 3040      74787374 
 3040      6174655F 
 3040      7400
 3041              	.LASF105:
 3042 01d1 43504152 		.ascii	"CPAR\000"
ARM GAS  C:\Users\14122\AppData\Local\Temp\ccUGLFNQ.s 			page 56


 3042      00
 3043              	.LASF238:
 3044 01d6 75736172 		.ascii	"usart\000"
 3044      7400
 3045              	.LASF203:
 3046 01dc 70616C5F 		.ascii	"pal_default_config\000"
 3046      64656661 
 3046      756C745F 
 3046      636F6E66 
 3046      696700
 3047              	.LASF88:
 3048 01ef 52463052 		.ascii	"RF0R\000"
 3048      00
 3049              	.LASF161:
 3050 01f4 6D656D63 		.ascii	"memcore_t\000"
 3050      6F72655F 
 3050      7400
 3051              	.LASF3:
 3052 01fe 7369676E 		.ascii	"signed char\000"
 3052      65642063 
 3052      68617200 
 3053              	.LASF123:
 3054 020a 65776D61 		.ascii	"ewmask\000"
 3054      736B00
 3055              	.LASF16:
 3056 0211 75696E74 		.ascii	"uint8_t\000"
 3056      385F7400 
 3057              	.LASF254:
 3058 0219 68616C5F 		.ascii	"hal_lld_init\000"
 3058      6C6C645F 
 3058      696E6974 
 3058      00
 3059              	.LASF26:
 3060 0226 6576656E 		.ascii	"eventmask_t\000"
 3060      746D6173 
 3060      6B5F7400 
 3061              	.LASF87:
 3062 0232 43414E5F 		.ascii	"CAN_FilterRegister_TypeDef\000"
 3062      46696C74 
 3062      65725265 
 3062      67697374 
 3062      65725F54 
 3063              	.LASF92:
 3064 024d 73464946 		.ascii	"sFIFOMailBox\000"
 3064      4F4D6169 
 3064      6C426F78 
 3064      00
 3065              	.LASF215:
 3066 025a 72786675 		.ascii	"rxfull_event\000"
 3066      6C6C5F65 
 3066      76656E74 
 3066      00
 3067              	.LASF119:
 3068 0267 77747472 		.ascii	"wttrp\000"
 3068      7000
 3069              	.LASF90:
 3070 026d 52455345 		.ascii	"RESERVED0\000"
ARM GAS  C:\Users\14122\AppData\Local\Temp\ccUGLFNQ.s 			page 57


 3070      52564544 
 3070      3000
 3071              	.LASF93:
 3072 0277 52455345 		.ascii	"RESERVED1\000"
 3072      52564544 
 3072      3100
 3073              	.LASF6:
 3074 0281 756E7369 		.ascii	"unsigned char\000"
 3074      676E6564 
 3074      20636861 
 3074      7200
 3075              	.LASF97:
 3076 028f 52455345 		.ascii	"RESERVED3\000"
 3076      52564544 
 3076      3300
 3077              	.LASF99:
 3078 0299 52455345 		.ascii	"RESERVED4\000"
 3078      52564544 
 3078      3400
 3079              	.LASF101:
 3080 02a3 52455345 		.ascii	"RESERVED5\000"
 3080      52564544 
 3080      3500
 3081              	.LASF64:
 3082 02ad 6C617374 		.ascii	"lasttime\000"
 3082      74696D65 
 3082      00
 3083              	.LASF200:
 3084 02b6 50444461 		.ascii	"PDData\000"
 3084      746100
 3085              	.LASF109:
 3086 02bd 444D415F 		.ascii	"DMA_TypeDef\000"
 3086      54797065 
 3086      44656600 
 3087              	.LASF89:
 3088 02c9 52463152 		.ascii	"RF1R\000"
 3088      00
 3089              	.LASF67:
 3090 02ce 70616E69 		.ascii	"panic_msg\000"
 3090      635F6D73 
 3090      6700
 3091              	.LASF65:
 3092 02d8 73797374 		.ascii	"system_debug_t\000"
 3092      656D5F64 
 3092      65627567 
 3092      5F7400
 3093              	.LASF157:
 3094 02e7 5F426F6F 		.ascii	"_Bool\000"
 3094      6C00
 3095              	.LASF158:
 3096 02ed 6D656D67 		.ascii	"memgetfunc_t\000"
 3096      65746675 
 3096      6E635F74 
 3096      00
 3097              	.LASF95:
 3098 02fa 52455345 		.ascii	"RESERVED2\000"
 3098      52564544 
ARM GAS  C:\Users\14122\AppData\Local\Temp\ccUGLFNQ.s 			page 58


 3098      3200
 3099              	.LASF224:
 3100 0304 55415254 		.ascii	"UART_READY\000"
 3100      5F524541 
 3100      445900
 3101              	.LASF127:
 3102 030f 63686172 		.ascii	"char\000"
 3102      00
 3103              	.LASF108:
 3104 0314 49464352 		.ascii	"IFCR\000"
 3104      00
 3105              	.LASF176:
 3106 0319 73656D5F 		.ascii	"sem_list\000"
 3106      6C697374 
 3106      00
 3107              	.LASF8:
 3108 0322 5F5F7569 		.ascii	"__uint16_t\000"
 3108      6E743136 
 3108      5F7400
 3109              	.LASF118:
 3110 032d 77746F62 		.ascii	"wtobjp\000"
 3110      6A7000
 3111              	.LASF195:
 3112 0334 70616C65 		.ascii	"palevent_t\000"
 3112      76656E74 
 3112      5F7400
 3113              	.LASF144:
 3114 033f 6F66665F 		.ascii	"off_refs\000"
 3114      72656673 
 3114      00
 3115              	.LASF38:
 3116 0348 666C6167 		.ascii	"flags\000"
 3116      7300
 3117              	.LASF113:
 3118 034e 73746B61 		.ascii	"stkalign_t\000"
 3118      6C69676E 
 3118      5F7400
 3119              	.LASF111:
 3120 0359 55534152 		.ascii	"USART_TypeDef\000"
 3120      545F5479 
 3120      70654465 
 3120      6600
 3121              	.LASF45:
 3122 0367 6D706F6F 		.ascii	"mpool\000"
 3122      6C00
 3123              	.LASF150:
 3124 036d 6576656E 		.ascii	"event_listener_t\000"
 3124      745F6C69 
 3124      7374656E 
 3124      65725F74 
 3124      00
 3125              	.LASF133:
 3126 037e 70747273 		.ascii	"ptrsize\000"
 3126      697A6500 
 3127              	.LASF210:
 3128 0386 63616E73 		.ascii	"canstate_t\000"
 3128      74617465 
ARM GAS  C:\Users\14122\AppData\Local\Temp\ccUGLFNQ.s 			page 59


 3128      5F7400
 3129              	.LASF208:
 3130 0391 43414E5F 		.ascii	"CAN_READY\000"
 3130      52454144 
 3130      5900
 3131              	.LASF146:
 3132 039b 6F66665F 		.ascii	"off_time\000"
 3132      74696D65 
 3132      00
 3133              	.LASF190:
 3134 03a4 646D615F 		.ascii	"dma_func\000"
 3134      66756E63 
 3134      00
 3135              	.LASF28:
 3136 03ad 636E745F 		.ascii	"cnt_t\000"
 3136      7400
 3137              	.LASF249:
 3138 03b3 72786368 		.ascii	"rxchar_cb\000"
 3138      61725F63 
 3138      6200
 3139              	.LASF169:
 3140 03bd 64796E5F 		.ascii	"dyn_element_t\000"
 3140      656C656D 
 3140      656E745F 
 3140      7400
 3141              	.LASF251:
 3142 03cb 73706565 		.ascii	"speed\000"
 3142      6400
 3143              	.LASF122:
 3144 03d1 77746D74 		.ascii	"wtmtxp\000"
 3144      787000
 3145              	.LASF55:
 3146 03d8 63685F72 		.ascii	"ch_ready_list\000"
 3146      65616479 
 3146      5F6C6973 
 3146      7400
 3147              	.LASF177:
 3148 03e6 73656D5F 		.ascii	"sem_pool\000"
 3148      706F6F6C 
 3148      00
 3149              	.LASF199:
 3150 03ef 50434461 		.ascii	"PCData\000"
 3150      746100
 3151              	.LASF159:
 3152 03f6 6E657874 		.ascii	"nextmem\000"
 3152      6D656D00 
 3153              	.LASF14:
 3154 03fe 5F5F7569 		.ascii	"__uint64_t\000"
 3154      6E743634 
 3154      5F7400
 3155              	.LASF142:
 3156 0409 6F66665F 		.ascii	"off_state\000"
 3156      73746174 
 3156      6500
 3157              	.LASF13:
 3158 0413 6C6F6E67 		.ascii	"long unsigned int\000"
 3158      20756E73 
ARM GAS  C:\Users\14122\AppData\Local\Temp\ccUGLFNQ.s 			page 60


 3158      69676E65 
 3158      6420696E 
 3158      7400
 3159              	.LASF135:
 3160 0425 74687265 		.ascii	"threadsize\000"
 3160      61647369 
 3160      7A6500
 3161              	.LASF252:
 3162 0430 55415254 		.ascii	"UARTConfig\000"
 3162      436F6E66 
 3162      696700
 3163              	.LASF76:
 3164 043b 53797374 		.ascii	"SystemCoreClock\000"
 3164      656D436F 
 3164      7265436C 
 3164      6F636B00 
 3165              	.LASF124:
 3166 044b 63685F73 		.ascii	"ch_semaphore\000"
 3166      656D6170 
 3166      686F7265 
 3166      00
 3167              	.LASF185:
 3168 0458 73686966 		.ascii	"shift\000"
 3168      7400
 3169              	.LASF182:
 3170 045e 6368616E 		.ascii	"channel\000"
 3170      6E656C00 
 3171              	.LASF48:
 3172 0466 63685F74 		.ascii	"ch_thread\000"
 3172      68726561 
 3172      6400
 3173              	.LASF62:
 3174 0470 76697274 		.ascii	"virtual_timers_list_t\000"
 3174      75616C5F 
 3174      74696D65 
 3174      72735F6C 
 3174      6973745F 
 3175              	.LASF128:
 3176 0486 63685F69 		.ascii	"ch_idle_thread_wa\000"
 3176      646C655F 
 3176      74687265 
 3176      61645F77 
 3176      6100
 3177              	.LASF193:
 3178 0498 5F73746D 		.ascii	"_stm32_dma_streams\000"
 3178      33325F64 
 3178      6D615F73 
 3178      74726561 
 3178      6D7300
 3179              	.LASF247:
 3180 04ab 7478656E 		.ascii	"txend2_cb\000"
 3180      64325F63 
 3180      6200
 3181              	.LASF179:
 3182 04b5 6669666F 		.ascii	"fifo_list\000"
 3182      5F6C6973 
 3182      7400
ARM GAS  C:\Users\14122\AppData\Local\Temp\ccUGLFNQ.s 			page 61


 3183              	.LASF58:
 3184 04bf 76697274 		.ascii	"virtual_timer_t\000"
 3184      75616C5F 
 3184      74696D65 
 3184      725F7400 
 3185              	.LASF54:
 3186 04cf 72656164 		.ascii	"ready_list_t\000"
 3186      795F6C69 
 3186      73745F74 
 3186      00
 3187              	.LASF34:
 3188 04dc 6F6C6465 		.ascii	"older\000"
 3188      7200
 3189              	.LASF245:
 3190 04e2 75617274 		.ascii	"uartecb_t\000"
 3190      6563625F 
 3190      7400
 3191              	.LASF44:
 3192 04ec 7265616C 		.ascii	"realprio\000"
 3192      7072696F 
 3192      00
 3193              	.LASF29:
 3194 04f5 75636E74 		.ascii	"ucnt_t\000"
 3194      5F7400
 3195              	.LASF263:
 3196 04fc 68616C49 		.ascii	"halInit\000"
 3196      6E697400 
 3197              	.LASF141:
 3198 0504 6F66665F 		.ascii	"off_stklimit\000"
 3198      73746B6C 
 3198      696D6974 
 3198      00
 3199              	.LASF163:
 3200 0511 706F6F6C 		.ascii	"pool_header\000"
 3200      5F686561 
 3200      64657200 
 3201              	.LASF222:
 3202 051d 55415254 		.ascii	"UART_UNINIT\000"
 3202      5F554E49 
 3202      4E495400 
 3203              	.LASF49:
 3204 0529 63685F74 		.ascii	"ch_threads_list\000"
 3204      68726561 
 3204      64735F6C 
 3204      69737400 
 3205              	.LASF232:
 3206 0539 55415254 		.ascii	"UART_RX_COMPLETE\000"
 3206      5F52585F 
 3206      434F4D50 
 3206      4C455445 
 3206      00
 3207              	.LASF242:
 3208 054a 72786275 		.ascii	"rxbuf\000"
 3208      6600
 3209              	.LASF240:
 3210 0550 646D6172 		.ascii	"dmarx\000"
 3210      7800
ARM GAS  C:\Users\14122\AppData\Local\Temp\ccUGLFNQ.s 			page 62


 3211              	.LASF12:
 3212 0556 5F5F7569 		.ascii	"__uint32_t\000"
 3212      6E743332 
 3212      5F7400
 3213              	.LASF43:
 3214 0561 6D74786C 		.ascii	"mtxlist\000"
 3214      69737400 
 3215              	.LASF1:
 3216 0569 6C6F6E67 		.ascii	"long long int\000"
 3216      206C6F6E 
 3216      6720696E 
 3216      7400
 3217              	.LASF207:
 3218 0577 43414E5F 		.ascii	"CAN_STARTING\000"
 3218      53544152 
 3218      54494E47 
 3218      00
 3219              	.LASF74:
 3220 0584 73797369 		.ascii	"sysinterval_t\000"
 3220      6E746572 
 3220      76616C5F 
 3220      7400
 3221              	.LASF257:
 3222 0592 75617274 		.ascii	"uartInit\000"
 3222      496E6974 
 3222      00
 3223              	.LASF172:
 3224 059b 63685F6F 		.ascii	"ch_objects_factory\000"
 3224      626A6563 
 3224      74735F66 
 3224      6163746F 
 3224      727900
 3225              	.LASF110:
 3226 05ae 47545052 		.ascii	"GTPR\000"
 3226      00
 3227              	.LASF156:
 3228 05b3 6576656E 		.ascii	"event_source_t\000"
 3228      745F736F 
 3228      75726365 
 3228      5F7400
 3229              	.LASF165:
 3230 05c2 616C6967 		.ascii	"align\000"
 3230      6E00
 3231              	.LASF75:
 3232 05c8 49544D5F 		.ascii	"ITM_RxBuffer\000"
 3232      52784275 
 3232      66666572 
 3232      00
 3233              	.LASF198:
 3234 05d5 50424461 		.ascii	"PBData\000"
 3234      746100
 3235              	.LASF239:
 3236 05dc 646D616D 		.ascii	"dmamode\000"
 3236      6F646500 
 3237              	.LASF205:
 3238 05e4 43414E5F 		.ascii	"CAN_UNINIT\000"
 3238      554E494E 
ARM GAS  C:\Users\14122\AppData\Local\Temp\ccUGLFNQ.s 			page 63


 3238      495400
 3239              	.LASF234:
 3240 05ef 75617274 		.ascii	"uartflags_t\000"
 3240      666C6167 
 3240      735F7400 
 3241              	.LASF241:
 3242 05fb 646D6174 		.ascii	"dmatx\000"
 3242      7800
 3243              	.LASF209:
 3244 0601 43414E5F 		.ascii	"CAN_SLEEP\000"
 3244      534C4545 
 3244      5000
 3245              	.LASF138:
 3246 060b 6F66665F 		.ascii	"off_newer\000"
 3246      6E657765 
 3246      7200
 3247              	.LASF186:
 3248 0615 73656C66 		.ascii	"selfindex\000"
 3248      696E6465 
 3248      7800
 3249              	.LASF250:
 3250 061f 72786572 		.ascii	"rxerr_cb\000"
 3250      725F6362 
 3250      00
 3251              	.LASF0:
 3252 0628 756E7369 		.ascii	"unsigned int\000"
 3252      676E6564 
 3252      20696E74 
 3252      00
 3253              	.LASF255:
 3254 0635 5F70616C 		.ascii	"_pal_lld_init\000"
 3254      5F6C6C64 
 3254      5F696E69 
 3254      7400
 3255              	.LASF189:
 3256 0643 73746D33 		.ascii	"stm32_dmaisr_t\000"
 3256      325F646D 
 3256      61697372 
 3256      5F7400
 3257              	.LASF264:
 3258 0652 6F73616C 		.ascii	"osalInit\000"
 3258      496E6974 
 3258      00
 3259              	.LASF94:
 3260 065b 464D3152 		.ascii	"FM1R\000"
 3260      00
 3261              	.LASF85:
 3262 0660 52444852 		.ascii	"RDHR\000"
 3262      00
 3263              	.LASF106:
 3264 0665 434D4152 		.ascii	"CMAR\000"
 3264      00
 3265              	.LASF81:
 3266 066a 54444852 		.ascii	"TDHR\000"
 3266      00
 3267              	.LASF56:
 3268 066f 63757272 		.ascii	"current\000"
ARM GAS  C:\Users\14122\AppData\Local\Temp\ccUGLFNQ.s 			page 64


 3268      656E7400 
 3269              	.LASF217:
 3270 0677 6572726F 		.ascii	"error_event\000"
 3270      725F6576 
 3270      656E7400 
 3271              	.LASF103:
 3272 0683 43414E5F 		.ascii	"CAN_TypeDef\000"
 3272      54797065 
 3272      44656600 
 3273              	.LASF192:
 3274 068f 646D615F 		.ascii	"dma_isr_redir_t\000"
 3274      6973725F 
 3274      72656469 
 3274      725F7400 
 3275              	.LASF260:
 3276 069f 474E5520 		.ascii	"GNU C11 7.2.1 20170904 (release) [ARM/embedded-7-br"
 3276      43313120 
 3276      372E322E 
 3276      31203230 
 3276      31373039 
 3277 06d2 616E6368 		.ascii	"anch revision 255204] -mcpu=cortex-m3 -mthumb -ggdb"
 3277      20726576 
 3277      6973696F 
 3277      6E203235 
 3277      35323034 
 3278 0705 202D4F32 		.ascii	" -O2 -fomit-frame-pointer -falign-functions=16 -ffu"
 3278      202D666F 
 3278      6D69742D 
 3278      6672616D 
 3278      652D706F 
 3279 0738 6E637469 		.ascii	"nction-sections -fdata-sections -fno-common\000"
 3279      6F6E2D73 
 3279      65637469 
 3279      6F6E7320 
 3279      2D666461 
 3280              	.LASF102:
 3281 0764 7346696C 		.ascii	"sFilterRegister\000"
 3281      74657252 
 3281      65676973 
 3281      74657200 
 3282              	.LASF204:
 3283 0774 5F70616C 		.ascii	"_pal_events\000"
 3283      5F657665 
 3283      6E747300 
 3284              	.LASF30:
 3285 0780 74687265 		.ascii	"thread_t\000"
 3285      61645F74 
 3285      00
 3286              	.LASF2:
 3287 0789 6C6F6E67 		.ascii	"long double\000"
 3287      20646F75 
 3287      626C6500 
 3288              	.LASF154:
 3289 0795 77666C61 		.ascii	"wflags\000"
 3289      677300
 3290              	.LASF46:
 3291 079c 74687265 		.ascii	"thread_reference_t\000"
ARM GAS  C:\Users\14122\AppData\Local\Temp\ccUGLFNQ.s 			page 65


 3291      61645F72 
 3291      65666572 
 3291      656E6365 
 3291      5F7400
 3292              	.LASF120:
 3293 07af 73656E74 		.ascii	"sentmsg\000"
 3293      6D736700 
 3294              	.LASF115:
 3295 07b7 706F7274 		.ascii	"port_intctx\000"
 3295      5F696E74 
 3295      63747800 
 3296              	.LASF180:
 3297 07c3 6F626A65 		.ascii	"objects_factory_t\000"
 3297      6374735F 
 3297      66616374 
 3297      6F72795F 
 3297      7400
 3298              	.LASF175:
 3299 07d5 6275665F 		.ascii	"buf_list\000"
 3299      6C697374 
 3299      00
 3300              	.LASF183:
 3301 07de 636D6173 		.ascii	"cmask\000"
 3301      6B00
 3302              	.LASF107:
 3303 07e4 444D415F 		.ascii	"DMA_Channel_TypeDef\000"
 3303      4368616E 
 3303      6E656C5F 
 3303      54797065 
 3303      44656600 
 3304              	.LASF77:
 3305 07f8 41484250 		.ascii	"AHBPrescTable\000"
 3305      72657363 
 3305      5461626C 
 3305      6500
 3306              	.LASF59:
 3307 0806 63685F76 		.ascii	"ch_virtual_timer\000"
 3307      69727475 
 3307      616C5F74 
 3307      696D6572 
 3307      00
 3308              	.LASF131:
 3309 0817 73697A65 		.ascii	"size\000"
 3309      00
 3310              	.LASF15:
 3311 081c 6C6F6E67 		.ascii	"long long unsigned int\000"
 3311      206C6F6E 
 3311      6720756E 
 3311      7369676E 
 3311      65642069 
 3312              	.LASF197:
 3313 0833 50414461 		.ascii	"PAData\000"
 3313      746100
 3314              	.LASF259:
 3315 083a 7374496E 		.ascii	"stInit\000"
 3315      697400
 3316              	.LASF17:
ARM GAS  C:\Users\14122\AppData\Local\Temp\ccUGLFNQ.s 			page 66


 3317 0841 75696E74 		.ascii	"uint16_t\000"
 3317      31365F74 
 3317      00
 3318              	.LASF231:
 3319 084a 55415254 		.ascii	"UART_RX_ACTIVE\000"
 3319      5F52585F 
 3319      41435449 
 3319      564500
 3320              	.LASF140:
 3321 0859 6F66665F 		.ascii	"off_name\000"
 3321      6E616D65 
 3321      00
 3322              	.LASF25:
 3323 0862 6D73675F 		.ascii	"msg_t\000"
 3323      7400
 3324              	.LASF52:
 3325 0868 63685F74 		.ascii	"ch_threads_queue\000"
 3325      68726561 
 3325      64735F71 
 3325      75657565 
 3325      00
 3326              	.LASF27:
 3327 0879 6576656E 		.ascii	"eventflags_t\000"
 3327      74666C61 
 3327      67735F74 
 3327      00
 3328              	.LASF60:
 3329 0886 64656C74 		.ascii	"delta\000"
 3329      6100
 3330              	.LASF84:
 3331 088c 52444C52 		.ascii	"RDLR\000"
 3331      00
 3332              	.LASF86:
 3333 0891 43414E5F 		.ascii	"CAN_FIFOMailBox_TypeDef\000"
 3333      4649464F 
 3333      4D61696C 
 3333      426F785F 
 3333      54797065 
 3334              	.LASF39:
 3335 08a9 72656673 		.ascii	"refs\000"
 3335      00
 3336              	.LASF31:
 3337 08ae 71756575 		.ascii	"queue\000"
 3337      6500
 3338              	.LASF80:
 3339 08b4 54444C52 		.ascii	"TDLR\000"
 3339      00
 3340              	.LASF187:
 3341 08b9 76656374 		.ascii	"vector\000"
 3341      6F7200
 3342              	.LASF181:
 3343 08c0 63685F66 		.ascii	"ch_factory\000"
 3343      6163746F 
 3343      727900
 3344              	.LASF214:
 3345 08cb 72787175 		.ascii	"rxqueue\000"
 3345      65756500 
ARM GAS  C:\Users\14122\AppData\Local\Temp\ccUGLFNQ.s 			page 67


 3346              	.LASF178:
 3347 08d3 6D62785F 		.ascii	"mbx_list\000"
 3347      6C697374 
 3347      00
 3348              	.LASF72:
 3349 08dc 6D61696E 		.ascii	"mainthread\000"
 3349      74687265 
 3349      616400
 3350              	.LASF132:
 3351 08e7 76657273 		.ascii	"version\000"
 3351      696F6E00 
 3352              	.LASF228:
 3353 08ef 55415254 		.ascii	"UART_TX_COMPLETE\000"
 3353      5F54585F 
 3353      434F4D50 
 3353      4C455445 
 3353      00
 3354              	.LASF233:
 3355 0900 75617274 		.ascii	"uartrxstate_t\000"
 3355      72787374 
 3355      6174655F 
 3355      7400
 3356              	.LASF36:
 3357 090e 77616261 		.ascii	"wabase\000"
 3357      736500
 3358              	.LASF244:
 3359 0915 75617274 		.ascii	"uartccb_t\000"
 3359      6363625F 
 3359      7400
 3360              	.LASF167:
 3361 091f 6D656D6F 		.ascii	"memory_pool_t\000"
 3361      72795F70 
 3361      6F6F6C5F 
 3361      7400
 3362              	.LASF70:
 3363 092d 726C6973 		.ascii	"rlist\000"
 3363      7400
 3364              	.LASF21:
 3365 0933 746D6F64 		.ascii	"tmode_t\000"
 3365      655F7400 
 3366              	.LASF184:
 3367 093b 64756D6D 		.ascii	"dummy\000"
 3367      7900
 3368              	.LASF246:
 3369 0941 7478656E 		.ascii	"txend1_cb\000"
 3369      64315F63 
 3369      6200
 3370              	.LASF230:
 3371 094b 55415254 		.ascii	"UART_RX_IDLE\000"
 3371      5F52585F 
 3371      49444C45 
 3371      00
 3372              	.LASF96:
 3373 0958 46533152 		.ascii	"FS1R\000"
 3373      00
 3374              	.LASF35:
 3375 095d 6E616D65 		.ascii	"name\000"
ARM GAS  C:\Users\14122\AppData\Local\Temp\ccUGLFNQ.s 			page 68


 3375      00
 3376              	.LASF152:
 3377 0962 6C697374 		.ascii	"listener\000"
 3377      656E6572 
 3377      00
 3378              	.LASF78:
 3379 096b 41504250 		.ascii	"APBPrescTable\000"
 3379      72657363 
 3379      5461626C 
 3379      6500
 3380              	.LASF82:
 3381 0979 43414E5F 		.ascii	"CAN_TxMailBox_TypeDef\000"
 3381      54784D61 
 3381      696C426F 
 3381      785F5479 
 3381      70654465 
 3382              	.LASF194:
 3383 098f 5F73746D 		.ascii	"_stm32_dma_isr_redir\000"
 3383      33325F64 
 3383      6D615F69 
 3383      73725F72 
 3383      65646972 
 3384              	.LASF7:
 3385 09a4 73686F72 		.ascii	"short int\000"
 3385      7420696E 
 3385      7400
 3386              	.LASF155:
 3387 09ae 6576656E 		.ascii	"event_source\000"
 3387      745F736F 
 3387      75726365 
 3387      00
 3388              	.LASF20:
 3389 09bb 75696E74 		.ascii	"uint64_t\000"
 3389      36345F74 
 3389      00
 3390              	.LASF61:
 3391 09c4 66756E63 		.ascii	"func\000"
 3391      00
 3392              	.LASF125:
 3393 09c9 63685F6D 		.ascii	"ch_mutex\000"
 3393      75746578 
 3393      00
 3394              	.LASF98:
 3395 09d2 46464131 		.ascii	"FFA1R\000"
 3395      5200
 3396              	.LASF41:
 3397 09d8 6D736771 		.ascii	"msgqueue\000"
 3397      75657565 
 3397      00
 3398              	.LASF213:
 3399 09e1 74787175 		.ascii	"txqueue\000"
 3399      65756500 
 3400              	.LASF225:
 3401 09e9 75617274 		.ascii	"uartstate_t\000"
 3401      73746174 
 3401      655F7400 
 3402              	.LASF66:
ARM GAS  C:\Users\14122\AppData\Local\Temp\ccUGLFNQ.s 			page 69


 3403 09f5 63685F73 		.ascii	"ch_system_debug\000"
 3403      79737465 
 3403      6D5F6465 
 3403      62756700 
 3404              	.LASF171:
 3405 0a05 64796E5F 		.ascii	"dyn_list_t\000"
 3405      6C697374 
 3405      5F7400
 3406              	.LASF258:
 3407 0a10 626F6172 		.ascii	"boardInit\000"
 3407      64496E69 
 3407      7400
 3408              	.LASF202:
 3409 0a1a 50414C43 		.ascii	"PALConfig\000"
 3409      6F6E6669 
 3409      6700
 3410              	.LASF191:
 3411 0a24 646D615F 		.ascii	"dma_param\000"
 3411      70617261 
 3411      6D00
 3412              	.LASF164:
 3413 0a2e 6F626A65 		.ascii	"object_size\000"
 3413      63745F73 
 3413      697A6500 
 3414              	.LASF71:
 3415 0a3a 76746C69 		.ascii	"vtlist\000"
 3415      737400
 3416              	.LASF40:
 3417 0a41 77616974 		.ascii	"waiting\000"
 3417      696E6700 
 3418              	.LASF149:
 3419 0a49 6D757465 		.ascii	"mutex_t\000"
 3419      785F7400 
 3420              	.LASF23:
 3421 0a51 74726566 		.ascii	"trefs_t\000"
 3421      735F7400 
 3422              	.LASF114:
 3423 0a59 706F7274 		.ascii	"port_context\000"
 3423      5F636F6E 
 3423      74657874 
 3423      00
 3424              	.LASF47:
 3425 0a66 74687265 		.ascii	"threads_list_t\000"
 3425      6164735F 
 3425      6C697374 
 3425      5F7400
 3426              	.LASF226:
 3427 0a75 55415254 		.ascii	"UART_TX_IDLE\000"
 3427      5F54585F 
 3427      49444C45 
 3427      00
 3428              	.LASF243:
 3429 0a82 75617274 		.ascii	"uartcb_t\000"
 3429      63625F74 
 3429      00
 3430              	.LASF69:
 3431 0a8b 63685F73 		.ascii	"ch_system\000"
ARM GAS  C:\Users\14122\AppData\Local\Temp\ccUGLFNQ.s 			page 70


 3431      79737465 
 3431      6D00
 3432              	.LASF33:
 3433 0a95 6E657765 		.ascii	"newer\000"
 3433      7200
 3434              	.LASF256:
 3435 0a9b 63616E49 		.ascii	"canInit\000"
 3435      6E697400 
 3436              	.LASF19:
 3437 0aa3 75696E74 		.ascii	"uint32_t\000"
 3437      33325F74 
 3437      00
 3438              	.LASF151:
 3439 0aac 6576656E 		.ascii	"event_listener\000"
 3439      745F6C69 
 3439      7374656E 
 3439      657200
 3440              	.LASF116:
 3441 0abb 7264796D 		.ascii	"rdymsg\000"
 3441      736700
 3442              	.LASF9:
 3443 0ac2 73686F72 		.ascii	"short unsigned int\000"
 3443      7420756E 
 3443      7369676E 
 3443      65642069 
 3443      6E7400
 3444              	.LASF68:
 3445 0ad5 63685F73 		.ascii	"ch_system_t\000"
 3445      79737465 
 3445      6D5F7400 
 3446              	.LASF147:
 3447 0ae1 63686465 		.ascii	"chdebug_t\000"
 3447      6275675F 
 3447      7400
 3448              	.LASF91:
 3449 0aeb 7354784D 		.ascii	"sTxMailBox\000"
 3449      61696C42 
 3449      6F7800
 3450              	.LASF134:
 3451 0af6 74696D65 		.ascii	"timesize\000"
 3451      73697A65 
 3451      00
 3452              	.LASF253:
 3453 0aff 55415254 		.ascii	"UARTD2\000"
 3453      443200
 3454              	.LASF10:
 3455 0b06 5F5F696E 		.ascii	"__int32_t\000"
 3455      7433325F 
 3455      7400
 3456              	.LASF162:
 3457 0b10 63685F6D 		.ascii	"ch_memcore\000"
 3457      656D636F 
 3457      726500
 3458              	.LASF143:
 3459 0b1b 6F66665F 		.ascii	"off_flags\000"
 3459      666C6167 
 3459      7300
ARM GAS  C:\Users\14122\AppData\Local\Temp\ccUGLFNQ.s 			page 71


 3460              	.LASF206:
 3461 0b25 43414E5F 		.ascii	"CAN_STOP\000"
 3461      53544F50 
 3461      00
 3462              	.LASF153:
 3463 0b2e 6576656E 		.ascii	"events\000"
 3463      747300
 3464              	.LASF50:
 3465 0b35 6E657874 		.ascii	"next\000"
 3465      00
 3466              	.LASF83:
 3467 0b3a 52445452 		.ascii	"RDTR\000"
 3467      00
 3468              	.LASF53:
 3469 0b3f 70726576 		.ascii	"prev\000"
 3469      00
 3470              	.LASF170:
 3471 0b44 63685F64 		.ascii	"ch_dyn_list\000"
 3471      796E5F6C 
 3471      69737400 
 3472              	.LASF129:
 3473 0b50 6964656E 		.ascii	"identifier\000"
 3473      74696669 
 3473      657200
 3474              	.LASF79:
 3475 0b5b 54445452 		.ascii	"TDTR\000"
 3475      00
 3476              	.LASF221:
 3477 0b60 43414E44 		.ascii	"CAND1\000"
 3477      3100
 3478              	.LASF216:
 3479 0b66 7478656D 		.ascii	"txempty_event\000"
 3479      7074795F 
 3479      6576656E 
 3479      7400
 3480              	.LASF262:
 3481 0b74 443A5C68 		.ascii	"D:\\hkust\\robomaster\\eclipse___files\\cundang\\as"
 3481      6B757374 
 3481      5C726F62 
 3481      6F6D6173 
 3481      7465725C 
 3482 0ba2 7369676E 		.ascii	"signment2-master_10.20_turret_2\000"
 3482      6D656E74 
 3482      322D6D61 
 3482      73746572 
 3482      5F31302E 
 3483              		.ident	"GCC: (GNU Tools for Arm Embedded Processors 7-2017-q4-major) 7.2.1 20170904 (release) [ARM
ARM GAS  C:\Users\14122\AppData\Local\Temp\ccUGLFNQ.s 			page 72


DEFINED SYMBOLS
                            *ABS*:00000000 hal.c
C:\Users\14122\AppData\Local\Temp\ccUGLFNQ.s:16     .text.halInit:00000000 $t
C:\Users\14122\AppData\Local\Temp\ccUGLFNQ.s:24     .text.halInit:00000000 halInit
C:\Users\14122\AppData\Local\Temp\ccUGLFNQ.s:62     .text.halInit:00000020 $d

UNDEFINED SYMBOLS
hal_lld_init
_pal_lld_init
canInit
uartInit
boardInit
stInit
pal_default_config
