ARM GAS  C:\Users\14122\AppData\Local\Temp\ccUGLFNQ.s 			page 1


   1              		.cpu cortex-m3
   2              		.eabi_attribute 20, 1
   3              		.eabi_attribute 21, 1
   4              		.eabi_attribute 23, 3
   5              		.eabi_attribute 24, 1
   6              		.eabi_attribute 25, 1
   7              		.eabi_attribute 26, 1
   8              		.eabi_attribute 30, 2
   9              		.eabi_attribute 34, 1
  10              		.eabi_attribute 18, 4
  11              		.file	"hal.c"
  12              		.text
  13              	.Ltext0:
  14              		.cfi_sections	.debug_frame
  15              		.section	.text.halInit,"ax",%progbits
  16              		.align	1
  17              		.p2align 4,,15
  18              		.global	halInit
  19              		.syntax unified
  20              		.thumb
  21              		.thumb_func
  22              		.fpu softvfp
  23              		.type	halInit, %function
  24              	halInit:
  25              	.LFB253:
  26              		.file 1 ".//os/hal/src/hal.c"
  27              		.loc 1 56 0
  28              		.cfi_startproc
  29              		@ args = 0, pretend = 0, frame = 0
  30              		@ frame_needed = 0, uses_anonymous_args = 0
  31 0000 08B5     		push	{r3, lr}
  32              		.cfi_def_cfa_offset 8
  33              		.cfi_offset 3, -8
  34              		.cfi_offset 14, -4
  35              		.loc 1 62 0
  36 0002 FFF7FEFF 		bl	hal_lld_init
  37              	.LVL0:
  38              		.loc 1 68 0
  39 0006 0648     		ldr	r0, .L4
  40 0008 FFF7FEFF 		bl	_pal_lld_init
  41              	.LVL1:
  42              		.loc 1 75 0
  43 000c FFF7FEFF 		bl	canInit
  44              	.LVL2:
  45              		.loc 1 117 0
  46 0010 FFF7FEFF 		bl	uartInit
  47              	.LVL3:
  48              		.loc 1 146 0
  49 0014 FFF7FEFF 		bl	boardInit
  50              	.LVL4:
  51              		.loc 1 155 0
  52 0018 BDE80840 		pop	{r3, lr}
  53              		.cfi_restore 14
  54              		.cfi_restore 3
  55              		.cfi_def_cfa_offset 0
  56              		.loc 1 153 0
  57 001c FFF7FEBF 		b	stInit
ARM GAS  C:\Users\14122\AppData\Local\Temp\ccUGLFNQ.s 			page 2


  58              	.LVL5:
  59              	.L5:
  60              		.align	2
  61              	.L4:
  62 0020 00000000 		.word	pal_default_config
  63              		.cfi_endproc
  64              	.LFE253:
  65              		.size	halInit, .-halInit
  66              		.text
  67              	.Letext0:
  68              		.file 2 "c:\\chibistudio\\tools\\gnu tools arm embedded\\7.0 2017q4\\lib\\gcc\\arm-none-eabi\\7.2.
  69              		.file 3 "c:\\chibistudio\\tools\\gnu tools arm embedded\\7.0 2017q4\\arm-none-eabi\\include\\machi
  70              		.file 4 "c:\\chibistudio\\tools\\gnu tools arm embedded\\7.0 2017q4\\arm-none-eabi\\include\\sys\\
  71              		.file 5 ".//os/common/ports/ARMCMx/compilers/GCC/chtypes.h"
  72              		.file 6 ".//os/rt/include/chsystypes.h"
  73              		.file 7 ".//os/rt/include/chschd.h"
  74              		.file 8 ".//os/rt/include/chtime.h"
  75              		.file 9 ".//os/common/ext/ARM/CMSIS/Core/Include/core_cm3.h"
  76              		.file 10 ".//os/common/ext/ST/STM32F1xx/system_stm32f1xx.h"
  77              		.file 11 ".//os/common/ext/ST/STM32F1xx/stm32f103xb.h"
  78              		.file 12 ".//os/common/ports/ARMCMx/chcore.h"
  79              		.file 13 ".//os/common/ports/ARMCMx/chcore_v7m.h"
  80              		.file 14 ".//os/rt/include/chsem.h"
  81              		.file 15 ".//os/rt/include/chmtx.h"
  82              		.file 16 ".//os/rt/include/chsys.h"
  83              		.file 17 ".//os/rt/include/chregistry.h"
  84              		.file 18 ".//os/rt/include/chevents.h"
  85              		.file 19 ".//os/lib/include/chmemcore.h"
  86              		.file 20 ".//os/lib/include/chmempools.h"
  87              		.file 21 ".//os/lib/include/chfactory.h"
  88              		.file 22 ".//os/hal/ports/STM32/LLD/DMAv1/stm32_dma.h"
  89              		.file 23 ".//os/hal/include/hal_pal.h"
  90              		.file 24 ".//os/hal/ports/STM32/LLD/GPIOv1/hal_pal_lld.h"
  91              		.file 25 ".//os/hal/include/hal_can.h"
  92              		.file 26 ".//os/hal/ports/STM32/LLD/CANv1/hal_can_lld.h"
  93              		.file 27 ".//os/hal/include/hal_uart.h"
  94              		.file 28 ".//os/hal/ports/STM32/LLD/USARTv1/hal_uart_lld.h"
  95              		.file 29 ".//os/hal/ports/STM32/STM32F1xx/hal_lld.h"
  96              		.file 30 "./board/board.h"
  97              		.file 31 ".//os/hal/include/hal_st.h"
  98              		.file 32 ".//os/hal/osal/rt/osal.h"