ARM GAS  C:\Users\14122\AppData\Local\Temp\ccvyTxJM.s 			page 1


   1              		.cpu cortex-m3
   2              		.eabi_attribute 20, 1
   3              		.eabi_attribute 21, 1
   4              		.eabi_attribute 23, 3
   5              		.eabi_attribute 24, 1
   6              		.eabi_attribute 25, 1
   7              		.eabi_attribute 26, 1
   8              		.eabi_attribute 30, 2
   9              		.eabi_attribute 34, 1
  10              		.eabi_attribute 18, 4
  11              		.file	"hal_lld.c"
  12              		.text
  13              	.Ltext0:
  14              		.cfi_sections	.debug_frame
  15              		.section	.text.hal_lld_init,"ax",%progbits
  16              		.align	1
  17              		.p2align 4,,15
  18              		.global	hal_lld_init
  19              		.syntax unified
  20              		.thumb
  21              		.thumb_func
  22              		.fpu softvfp
  23              		.type	hal_lld_init, %function
  24              	hal_lld_init:
  25              	.LFB254:
  26              		.file 1 ".//os/hal/ports/STM32/STM32F1xx/hal_lld.c"
  27              		.loc 1 132 0
  28              		.cfi_startproc
  29              		@ args = 0, pretend = 0, frame = 0
  30              		@ frame_needed = 0, uses_anonymous_args = 0
  31              		.loc 1 135 0
  32 0000 4FF0FF30 		mov	r0, #-1
  33 0004 0022     		movs	r2, #0
  34 0006 104B     		ldr	r3, .L4
  35              		.loc 1 132 0
  36 0008 10B5     		push	{r4, lr}
  37              		.cfi_def_cfa_offset 8
  38              		.cfi_offset 4, -8
  39              		.cfi_offset 14, -4
  40              		.loc 1 135 0
  41 000a 1C69     		ldr	r4, [r3, #16]
  42 000c 1861     		str	r0, [r3, #16]
  43 000e 1C69     		ldr	r4, [r3, #16]
  44 0010 1A61     		str	r2, [r3, #16]
  45 0012 1C69     		ldr	r4, [r3, #16]
  46              		.loc 1 136 0
  47 0014 DC68     		ldr	r4, [r3, #12]
  48 0016 D860     		str	r0, [r3, #12]
  49 0018 D868     		ldr	r0, [r3, #12]
  50 001a DA60     		str	r2, [r3, #12]
  51 001c DA68     		ldr	r2, [r3, #12]
  52              		.loc 1 139 0
  53 001e DA69     		ldr	r2, [r3, #28]
  54              	.LBB4:
  55              	.LBB5:
  56              		.loc 1 57 0
  57 0020 0A49     		ldr	r1, .L4+4
ARM GAS  C:\Users\14122\AppData\Local\Temp\ccvyTxJM.s 			page 2


  58              	.LBE5:
  59              	.LBE4:
  60              		.loc 1 139 0
  61 0022 42F08052 		orr	r2, r2, #268435456
  62 0026 DA61     		str	r2, [r3, #28]
  63 0028 DA69     		ldr	r2, [r3, #28]
  64              		.loc 1 140 0
  65 002a DA69     		ldr	r2, [r3, #28]
  66 002c 42F00062 		orr	r2, r2, #134217728
  67 0030 DA61     		str	r2, [r3, #28]
  68 0032 DB69     		ldr	r3, [r3, #28]
  69              	.LBB7:
  70              	.LBB6:
  71              		.loc 1 57 0
  72 0034 0B68     		ldr	r3, [r1]
  73 0036 43F48073 		orr	r3, r3, #256
  74 003a 0B60     		str	r3, [r1]
  75              	.LBE6:
  76              	.LBE7:
  77              		.loc 1 147 0
  78 003c FFF7FEFF 		bl	dmaInit
  79              	.LVL0:
  80              		.loc 1 157 0
  81 0040 BDE81040 		pop	{r4, lr}
  82              		.cfi_restore 14
  83              		.cfi_restore 4
  84              		.cfi_def_cfa_offset 0
  85              		.loc 1 151 0
  86 0044 FFF7FEBF 		b	irqInit
  87              	.LVL1:
  88              	.L5:
  89              		.align	2
  90              	.L4:
  91 0048 00100240 		.word	1073876992
  92 004c 00700040 		.word	1073770496
  93              		.cfi_endproc
  94              	.LFE254:
  95              		.size	hal_lld_init, .-hal_lld_init
  96              		.section	.text.stm32_clock_init,"ax",%progbits
  97              		.align	1
  98              		.p2align 4,,15
  99              		.global	stm32_clock_init
 100              		.syntax unified
 101              		.thumb
 102              		.thumb_func
 103              		.fpu softvfp
 104              		.type	stm32_clock_init, %function
 105              	stm32_clock_init:
 106              	.LFB255:
 107              		.loc 1 173 0
 108              		.cfi_startproc
 109              		@ args = 0, pretend = 0, frame = 0
 110              		@ frame_needed = 0, uses_anonymous_args = 0
 111              		@ link register save eliminated.
 112              		.loc 1 178 0
 113 0000 1B4B     		ldr	r3, .L20
 114              		.loc 1 179 0
ARM GAS  C:\Users\14122\AppData\Local\Temp\ccvyTxJM.s 			page 3


 115 0002 1A46     		mov	r2, r3
 116              		.loc 1 178 0
 117 0004 1968     		ldr	r1, [r3]
 118 0006 41F00101 		orr	r1, r1, #1
 119 000a 1960     		str	r1, [r3]
 120              	.L7:
 121              		.loc 1 179 0 discriminator 1
 122 000c 1368     		ldr	r3, [r2]
 123 000e 9807     		lsls	r0, r3, #30
 124 0010 FCD5     		bpl	.L7
 125              		.loc 1 182 0
 126 0012 0020     		movs	r0, #0
 127              		.loc 1 181 0
 128 0014 1368     		ldr	r3, [r2]
 129              		.loc 1 183 0
 130 0016 1649     		ldr	r1, .L20
 131              		.loc 1 181 0
 132 0018 03F0F903 		and	r3, r3, #249
 133 001c 1360     		str	r3, [r2]
 134              		.loc 1 182 0
 135 001e 5060     		str	r0, [r2, #4]
 136              	.L8:
 137              		.loc 1 183 0 discriminator 1
 138 0020 4B68     		ldr	r3, [r1, #4]
 139 0022 13F00C0F 		tst	r3, #12
 140 0026 FBD1     		bne	.L8
 141              		.loc 1 192 0
 142 0028 0B68     		ldr	r3, [r1]
 143              		.loc 1 193 0
 144 002a 114A     		ldr	r2, .L20
 145              		.loc 1 192 0
 146 002c 43F48033 		orr	r3, r3, #65536
 147 0030 0B60     		str	r3, [r1]
 148              	.L9:
 149              		.loc 1 193 0 discriminator 1
 150 0032 1368     		ldr	r3, [r2]
 151 0034 9903     		lsls	r1, r3, #14
 152 0036 FCD5     		bpl	.L9
 153              		.loc 1 206 0
 154 0038 5368     		ldr	r3, [r2, #4]
 155              		.loc 1 208 0
 156 003a 0D49     		ldr	r1, .L20
 157              		.loc 1 206 0
 158 003c 43F4E813 		orr	r3, r3, #1900544
 159 0040 5360     		str	r3, [r2, #4]
 160              		.loc 1 207 0
 161 0042 1368     		ldr	r3, [r2]
 162 0044 43F08073 		orr	r3, r3, #16777216
 163 0048 1360     		str	r3, [r2]
 164              	.L10:
 165              		.loc 1 208 0 discriminator 1
 166 004a 0B68     		ldr	r3, [r1]
 167 004c 9B01     		lsls	r3, r3, #6
 168 004e FCD5     		bpl	.L10
 169              		.loc 1 224 0
 170 0050 1222     		movs	r2, #18
 171 0052 084B     		ldr	r3, .L20+4
ARM GAS  C:\Users\14122\AppData\Local\Temp\ccvyTxJM.s 			page 4


 172              		.loc 1 214 0
 173 0054 0848     		ldr	r0, .L20+8
 174 0056 4860     		str	r0, [r1, #4]
 175              		.loc 1 224 0
 176 0058 1A60     		str	r2, [r3]
 177              		.loc 1 229 0
 178 005a 4B68     		ldr	r3, [r1, #4]
 179              		.loc 1 230 0
 180 005c 044A     		ldr	r2, .L20
 181              		.loc 1 229 0
 182 005e 43F00203 		orr	r3, r3, #2
 183 0062 4B60     		str	r3, [r1, #4]
 184              	.L11:
 185              		.loc 1 230 0 discriminator 1
 186 0064 5368     		ldr	r3, [r2, #4]
 187 0066 03F00C03 		and	r3, r3, #12
 188 006a 082B     		cmp	r3, #8
 189 006c FAD1     		bne	.L11
 190              		.loc 1 238 0
 191 006e 7047     		bx	lr
 192              	.L21:
 193              		.align	2
 194              	.L20:
 195 0070 00100240 		.word	1073876992
 196 0074 00200240 		.word	1073881088
 197 0078 00641D00 		.word	1926144
 198              		.cfi_endproc
 199              	.LFE255:
 200              		.size	stm32_clock_init, .-stm32_clock_init
 201              		.global	SystemCoreClock
 202              		.section	.data.SystemCoreClock,"aw",%progbits
 203              		.align	2
 204              		.type	SystemCoreClock, %object
 205              		.size	SystemCoreClock, 4
 206              	SystemCoreClock:
 207 0000 00A24A04 		.word	72000000
 208              		.text
 209              	.Letext0:
 210              		.file 2 "c:\\chibistudio\\tools\\gnu tools arm embedded\\7.0 2017q4\\lib\\gcc\\arm-none-eabi\\7.2.
 211              		.file 3 "c:\\chibistudio\\tools\\gnu tools arm embedded\\7.0 2017q4\\arm-none-eabi\\include\\machi
 212              		.file 4 "c:\\chibistudio\\tools\\gnu tools arm embedded\\7.0 2017q4\\arm-none-eabi\\include\\sys\\
 213              		.file 5 ".//os/common/ports/ARMCMx/compilers/GCC/chtypes.h"
 214              		.file 6 ".//os/rt/include/chsystypes.h"
 215              		.file 7 ".//os/rt/include/chschd.h"
 216              		.file 8 ".//os/rt/include/chtime.h"
 217              		.file 9 ".//os/common/ext/ARM/CMSIS/Core/Include/core_cm3.h"
 218              		.file 10 ".//os/common/ext/ST/STM32F1xx/system_stm32f1xx.h"
 219              		.file 11 ".//os/common/ext/ST/STM32F1xx/stm32f103xb.h"
 220              		.file 12 ".//os/common/ports/ARMCMx/chcore.h"
 221              		.file 13 ".//os/common/ports/ARMCMx/chcore_v7m.h"
 222              		.file 14 ".//os/rt/include/chsem.h"
 223              		.file 15 ".//os/rt/include/chmtx.h"
 224              		.file 16 ".//os/rt/include/chsys.h"
 225              		.file 17 ".//os/rt/include/chregistry.h"
 226              		.file 18 ".//os/rt/include/chevents.h"
 227              		.file 19 ".//os/lib/include/chmemcore.h"
 228              		.file 20 ".//os/lib/include/chmempools.h"
ARM GAS  C:\Users\14122\AppData\Local\Temp\ccvyTxJM.s 			page 5


 229              		.file 21 ".//os/lib/include/chfactory.h"
 230              		.file 22 ".//os/hal/ports/STM32/LLD/DMAv1/stm32_dma.h"
 231              		.file 23 ".//os/hal/include/hal_pal.h"
 232              		.file 24 ".//os/hal/ports/STM32/LLD/GPIOv1/hal_pal_lld.h"
 233              		.file 25 ".//os/hal/include/hal_can.h"
 234              		.file 26 ".//os/hal/ports/STM32/LLD/CANv1/hal_can_lld.h"
 235              		.file 27 ".//os/hal/include/hal_uart.h"
 236              		.file 28 ".//os/hal/ports/STM32/LLD/USARTv1/hal_uart_lld.h"
 237              		.file 29 ".//os/hal/ports/STM32/STM32F1xx/stm32_isr.h"
 238              		.section	.debug_info,"",%progbits
 239              	.Ldebug_info0:
 240 0000 07140000 		.4byte	0x1407
 241 0004 0400     		.2byte	0x4
 242 0006 00000000 		.4byte	.Ldebug_abbrev0
 243 000a 04       		.byte	0x4
 244 000b 01       		.uleb128 0x1
 245 000c A4060000 		.4byte	.LASF270
 246 0010 0C       		.byte	0xc
 247 0011 57090000 		.4byte	.LASF271
 248 0015 F90B0000 		.4byte	.LASF272
 249 0019 18000000 		.4byte	.Ldebug_ranges0+0x18
 250 001d 00000000 		.4byte	0
 251 0021 00000000 		.4byte	.Ldebug_line0
 252 0025 02       		.uleb128 0x2
 253 0026 04       		.byte	0x4
 254 0027 05       		.byte	0x5
 255 0028 696E7400 		.ascii	"int\000"
 256 002c 03       		.uleb128 0x3
 257 002d 1B000000 		.4byte	.LASF4
 258 0031 02       		.byte	0x2
 259 0032 D8       		.byte	0xd8
 260 0033 37000000 		.4byte	0x37
 261 0037 04       		.uleb128 0x4
 262 0038 04       		.byte	0x4
 263 0039 07       		.byte	0x7
 264 003a 39060000 		.4byte	.LASF0
 265 003e 04       		.uleb128 0x4
 266 003f 08       		.byte	0x8
 267 0040 05       		.byte	0x5
 268 0041 7A050000 		.4byte	.LASF1
 269 0045 04       		.uleb128 0x4
 270 0046 08       		.byte	0x8
 271 0047 04       		.byte	0x4
 272 0048 8E070000 		.4byte	.LASF2
 273 004c 04       		.uleb128 0x4
 274 004d 01       		.byte	0x1
 275 004e 06       		.byte	0x6
 276 004f F7010000 		.4byte	.LASF3
 277 0053 03       		.uleb128 0x3
 278 0054 32010000 		.4byte	.LASF5
 279 0058 03       		.byte	0x3
 280 0059 2B       		.byte	0x2b
 281 005a 5E000000 		.4byte	0x5e
 282 005e 04       		.uleb128 0x4
 283 005f 01       		.byte	0x1
 284 0060 08       		.byte	0x8
 285 0061 7A020000 		.4byte	.LASF6
ARM GAS  C:\Users\14122\AppData\Local\Temp\ccvyTxJM.s 			page 6


 286 0065 04       		.uleb128 0x4
 287 0066 02       		.byte	0x2
 288 0067 05       		.byte	0x5
 289 0068 090A0000 		.4byte	.LASF7
 290 006c 03       		.uleb128 0x3
 291 006d 1B030000 		.4byte	.LASF8
 292 0071 03       		.byte	0x3
 293 0072 39       		.byte	0x39
 294 0073 77000000 		.4byte	0x77
 295 0077 04       		.uleb128 0x4
 296 0078 02       		.byte	0x2
 297 0079 07       		.byte	0x7
 298 007a 3E0B0000 		.4byte	.LASF9
 299 007e 03       		.uleb128 0x3
 300 007f 820B0000 		.4byte	.LASF10
 301 0083 03       		.byte	0x3
 302 0084 4D       		.byte	0x4d
 303 0085 89000000 		.4byte	0x89
 304 0089 04       		.uleb128 0x4
 305 008a 04       		.byte	0x4
 306 008b 05       		.byte	0x5
 307 008c 60010000 		.4byte	.LASF11
 308 0090 03       		.uleb128 0x3
 309 0091 67050000 		.4byte	.LASF12
 310 0095 03       		.byte	0x3
 311 0096 4F       		.byte	0x4f
 312 0097 9B000000 		.4byte	0x9b
 313 009b 04       		.uleb128 0x4
 314 009c 04       		.byte	0x4
 315 009d 07       		.byte	0x7
 316 009e 2F040000 		.4byte	.LASF13
 317 00a2 03       		.uleb128 0x3
 318 00a3 1A040000 		.4byte	.LASF14
 319 00a7 03       		.byte	0x3
 320 00a8 69       		.byte	0x69
 321 00a9 AD000000 		.4byte	0xad
 322 00ad 04       		.uleb128 0x4
 323 00ae 08       		.byte	0x8
 324 00af 07       		.byte	0x7
 325 00b0 4D080000 		.4byte	.LASF15
 326 00b4 03       		.uleb128 0x3
 327 00b5 0A020000 		.4byte	.LASF16
 328 00b9 04       		.byte	0x4
 329 00ba 18       		.byte	0x18
 330 00bb 53000000 		.4byte	0x53
 331 00bf 05       		.uleb128 0x5
 332 00c0 B4000000 		.4byte	0xb4
 333 00c4 03       		.uleb128 0x3
 334 00c5 6B080000 		.4byte	.LASF17
 335 00c9 04       		.byte	0x4
 336 00ca 24       		.byte	0x24
 337 00cb 6C000000 		.4byte	0x6c
 338 00cf 06       		.uleb128 0x6
 339 00d0 C4000000 		.4byte	0xc4
 340 00d4 03       		.uleb128 0x3
 341 00d5 6F000000 		.4byte	.LASF18
 342 00d9 04       		.byte	0x4
ARM GAS  C:\Users\14122\AppData\Local\Temp\ccvyTxJM.s 			page 7


 343 00da 2C       		.byte	0x2c
 344 00db 7E000000 		.4byte	0x7e
 345 00df 06       		.uleb128 0x6
 346 00e0 D4000000 		.4byte	0xd4
 347 00e4 03       		.uleb128 0x3
 348 00e5 130B0000 		.4byte	.LASF19
 349 00e9 04       		.byte	0x4
 350 00ea 30       		.byte	0x30
 351 00eb 90000000 		.4byte	0x90
 352 00ef 06       		.uleb128 0x6
 353 00f0 E4000000 		.4byte	0xe4
 354 00f4 03       		.uleb128 0x3
 355 00f5 200A0000 		.4byte	.LASF20
 356 00f9 04       		.byte	0x4
 357 00fa 3C       		.byte	0x3c
 358 00fb A2000000 		.4byte	0xa2
 359 00ff 03       		.uleb128 0x3
 360 0100 87090000 		.4byte	.LASF21
 361 0104 05       		.byte	0x5
 362 0105 2A       		.byte	0x2a
 363 0106 B4000000 		.4byte	0xb4
 364 010a 03       		.uleb128 0x3
 365 010b 73010000 		.4byte	.LASF22
 366 010f 05       		.byte	0x5
 367 0110 2B       		.byte	0x2b
 368 0111 B4000000 		.4byte	0xb4
 369 0115 03       		.uleb128 0x3
 370 0116 BB0A0000 		.4byte	.LASF23
 371 011a 05       		.byte	0x5
 372 011b 2C       		.byte	0x2c
 373 011c B4000000 		.4byte	0xb4
 374 0120 03       		.uleb128 0x3
 375 0121 55000000 		.4byte	.LASF24
 376 0125 05       		.byte	0x5
 377 0126 2E       		.byte	0x2e
 378 0127 E4000000 		.4byte	0xe4
 379 012b 03       		.uleb128 0x3
 380 012c 8C080000 		.4byte	.LASF25
 381 0130 05       		.byte	0x5
 382 0131 2F       		.byte	0x2f
 383 0132 D4000000 		.4byte	0xd4
 384 0136 03       		.uleb128 0x3
 385 0137 1F020000 		.4byte	.LASF26
 386 013b 05       		.byte	0x5
 387 013c 31       		.byte	0x31
 388 013d E4000000 		.4byte	0xe4
 389 0141 03       		.uleb128 0x3
 390 0142 A3080000 		.4byte	.LASF27
 391 0146 05       		.byte	0x5
 392 0147 32       		.byte	0x32
 393 0148 E4000000 		.4byte	0xe4
 394 014c 03       		.uleb128 0x3
 395 014d B3030000 		.4byte	.LASF28
 396 0151 05       		.byte	0x5
 397 0152 33       		.byte	0x33
 398 0153 D4000000 		.4byte	0xd4
 399 0157 03       		.uleb128 0x3
ARM GAS  C:\Users\14122\AppData\Local\Temp\ccvyTxJM.s 			page 8


 400 0158 0E050000 		.4byte	.LASF29
 401 015c 05       		.byte	0x5
 402 015d 34       		.byte	0x34
 403 015e E4000000 		.4byte	0xe4
 404 0162 03       		.uleb128 0x3
 405 0163 85070000 		.4byte	.LASF30
 406 0167 06       		.byte	0x6
 407 0168 34       		.byte	0x34
 408 0169 6D010000 		.4byte	0x16d
 409 016d 07       		.uleb128 0x7
 410 016e 7F040000 		.4byte	.LASF48
 411 0172 44       		.byte	0x44
 412 0173 07       		.byte	0x7
 413 0174 8E       		.byte	0x8e
 414 0175 4B020000 		.4byte	0x24b
 415 0179 08       		.uleb128 0x8
 416 017a D8080000 		.4byte	.LASF31
 417 017e 07       		.byte	0x7
 418 017f 8F       		.byte	0x8f
 419 0180 80020000 		.4byte	0x280
 420 0184 00       		.byte	0
 421 0185 08       		.uleb128 0x8
 422 0186 11010000 		.4byte	.LASF32
 423 018a 07       		.byte	0x7
 424 018b 90       		.byte	0x90
 425 018c 20010000 		.4byte	0x120
 426 0190 08       		.byte	0x8
 427 0191 09       		.uleb128 0x9
 428 0192 63747800 		.ascii	"ctx\000"
 429 0196 07       		.byte	0x7
 430 0197 91       		.byte	0x91
 431 0198 5E090000 		.4byte	0x95e
 432 019c 0C       		.byte	0xc
 433 019d 08       		.uleb128 0x8
 434 019e 0D0B0000 		.4byte	.LASF33
 435 01a2 07       		.byte	0x7
 436 01a3 93       		.byte	0x93
 437 01a4 56020000 		.4byte	0x256
 438 01a8 10       		.byte	0x10
 439 01a9 08       		.uleb128 0x8
 440 01aa F5040000 		.4byte	.LASF34
 441 01ae 07       		.byte	0x7
 442 01af 94       		.byte	0x94
 443 01b0 56020000 		.4byte	0x256
 444 01b4 14       		.byte	0x14
 445 01b5 08       		.uleb128 0x8
 446 01b6 B1090000 		.4byte	.LASF35
 447 01ba 07       		.byte	0x7
 448 01bb 9B       		.byte	0x9b
 449 01bc C20A0000 		.4byte	0xac2
 450 01c0 18       		.byte	0x18
 451 01c1 08       		.uleb128 0x8
 452 01c2 38090000 		.4byte	.LASF36
 453 01c6 07       		.byte	0x7
 454 01c7 A4       		.byte	0xa4
 455 01c8 D90A0000 		.4byte	0xad9
 456 01cc 1C       		.byte	0x1c
ARM GAS  C:\Users\14122\AppData\Local\Temp\ccvyTxJM.s 			page 9


 457 01cd 08       		.uleb128 0x8
 458 01ce D0000000 		.4byte	.LASF37
 459 01d2 07       		.byte	0x7
 460 01d3 A9       		.byte	0xa9
 461 01d4 0A010000 		.4byte	0x10a
 462 01d8 20       		.byte	0x20
 463 01d9 08       		.uleb128 0x8
 464 01da 41030000 		.4byte	.LASF38
 465 01de 07       		.byte	0x7
 466 01df AD       		.byte	0xad
 467 01e0 FF000000 		.4byte	0xff
 468 01e4 21       		.byte	0x21
 469 01e5 08       		.uleb128 0x8
 470 01e6 D3080000 		.4byte	.LASF39
 471 01ea 07       		.byte	0x7
 472 01eb B2       		.byte	0xb2
 473 01ec 15010000 		.4byte	0x115
 474 01f0 22       		.byte	0x22
 475 01f1 0A       		.uleb128 0xa
 476 01f2 7500     		.ascii	"u\000"
 477 01f4 07       		.byte	0x7
 478 01f5 0301     		.2byte	0x103
 479 01f7 F8090000 		.4byte	0x9f8
 480 01fb 24       		.byte	0x24
 481 01fc 0B       		.uleb128 0xb
 482 01fd AB0A0000 		.4byte	.LASF40
 483 0201 07       		.byte	0x7
 484 0202 0801     		.2byte	0x108
 485 0204 5C020000 		.4byte	0x25c
 486 0208 28       		.byte	0x28
 487 0209 0B       		.uleb128 0xb
 488 020a 3D0A0000 		.4byte	.LASF41
 489 020e 07       		.byte	0x7
 490 020f 0E01     		.2byte	0x10e
 491 0211 80020000 		.4byte	0x280
 492 0215 2C       		.byte	0x2c
 493 0216 0B       		.uleb128 0xb
 494 0217 7C010000 		.4byte	.LASF42
 495 021b 07       		.byte	0x7
 496 021c 1401     		.2byte	0x114
 497 021e 36010000 		.4byte	0x136
 498 0222 34       		.byte	0x34
 499 0223 0B       		.uleb128 0xb
 500 0224 72050000 		.4byte	.LASF43
 501 0228 07       		.byte	0x7
 502 0229 1B01     		.2byte	0x11b
 503 022b BC0A0000 		.4byte	0xabc
 504 022f 38       		.byte	0x38
 505 0230 0B       		.uleb128 0xb
 506 0231 05050000 		.4byte	.LASF44
 507 0235 07       		.byte	0x7
 508 0236 1F01     		.2byte	0x11f
 509 0238 20010000 		.4byte	0x120
 510 023c 3C       		.byte	0x3c
 511 023d 0B       		.uleb128 0xb
 512 023e 60030000 		.4byte	.LASF45
 513 0242 07       		.byte	0x7
ARM GAS  C:\Users\14122\AppData\Local\Temp\ccvyTxJM.s 			page 10


 514 0243 2601     		.2byte	0x126
 515 0245 33030000 		.4byte	0x333
 516 0249 40       		.byte	0x40
 517 024a 00       		.byte	0
 518 024b 03       		.uleb128 0x3
 519 024c A1070000 		.4byte	.LASF46
 520 0250 06       		.byte	0x6
 521 0251 39       		.byte	0x39
 522 0252 56020000 		.4byte	0x256
 523 0256 0C       		.uleb128 0xc
 524 0257 04       		.byte	0x4
 525 0258 62010000 		.4byte	0x162
 526 025c 03       		.uleb128 0x3
 527 025d DE0A0000 		.4byte	.LASF47
 528 0261 06       		.byte	0x6
 529 0262 3E       		.byte	0x3e
 530 0263 67020000 		.4byte	0x267
 531 0267 07       		.uleb128 0x7
 532 0268 3A050000 		.4byte	.LASF49
 533 026c 04       		.byte	0x4
 534 026d 07       		.byte	0x7
 535 026e 7C       		.byte	0x7c
 536 026f 80020000 		.4byte	0x280
 537 0273 08       		.uleb128 0x8
 538 0274 B10B0000 		.4byte	.LASF50
 539 0278 07       		.byte	0x7
 540 0279 7D       		.byte	0x7d
 541 027a 56020000 		.4byte	0x256
 542 027e 00       		.byte	0
 543 027f 00       		.byte	0
 544 0280 03       		.uleb128 0x3
 545 0281 85010000 		.4byte	.LASF51
 546 0285 06       		.byte	0x6
 547 0286 45       		.byte	0x45
 548 0287 8B020000 		.4byte	0x28b
 549 028b 07       		.uleb128 0x7
 550 028c 92080000 		.4byte	.LASF52
 551 0290 08       		.byte	0x8
 552 0291 07       		.byte	0x7
 553 0292 83       		.byte	0x83
 554 0293 B0020000 		.4byte	0x2b0
 555 0297 08       		.uleb128 0x8
 556 0298 B10B0000 		.4byte	.LASF50
 557 029c 07       		.byte	0x7
 558 029d 84       		.byte	0x84
 559 029e 56020000 		.4byte	0x256
 560 02a2 00       		.byte	0
 561 02a3 08       		.uleb128 0x8
 562 02a4 C40B0000 		.4byte	.LASF53
 563 02a8 07       		.byte	0x7
 564 02a9 85       		.byte	0x85
 565 02aa 56020000 		.4byte	0x256
 566 02ae 04       		.byte	0x4
 567 02af 00       		.byte	0
 568 02b0 03       		.uleb128 0x3
 569 02b1 E8040000 		.4byte	.LASF54
 570 02b5 06       		.byte	0x6
ARM GAS  C:\Users\14122\AppData\Local\Temp\ccvyTxJM.s 			page 11


 571 02b6 4C       		.byte	0x4c
 572 02b7 BB020000 		.4byte	0x2bb
 573 02bb 0D       		.uleb128 0xd
 574 02bc E7030000 		.4byte	.LASF55
 575 02c0 1C       		.byte	0x1c
 576 02c1 07       		.byte	0x7
 577 02c2 5E01     		.2byte	0x15e
 578 02c4 17030000 		.4byte	0x317
 579 02c8 0B       		.uleb128 0xb
 580 02c9 D8080000 		.4byte	.LASF31
 581 02cd 07       		.byte	0x7
 582 02ce 5F01     		.2byte	0x15f
 583 02d0 80020000 		.4byte	0x280
 584 02d4 00       		.byte	0
 585 02d5 0B       		.uleb128 0xb
 586 02d6 11010000 		.4byte	.LASF32
 587 02da 07       		.byte	0x7
 588 02db 6001     		.2byte	0x160
 589 02dd 20010000 		.4byte	0x120
 590 02e1 08       		.byte	0x8
 591 02e2 0A       		.uleb128 0xa
 592 02e3 63747800 		.ascii	"ctx\000"
 593 02e7 07       		.byte	0x7
 594 02e8 6201     		.2byte	0x162
 595 02ea 5E090000 		.4byte	0x95e
 596 02ee 0C       		.byte	0xc
 597 02ef 0B       		.uleb128 0xb
 598 02f0 0D0B0000 		.4byte	.LASF33
 599 02f4 07       		.byte	0x7
 600 02f5 6501     		.2byte	0x165
 601 02f7 56020000 		.4byte	0x256
 602 02fb 10       		.byte	0x10
 603 02fc 0B       		.uleb128 0xb
 604 02fd F5040000 		.4byte	.LASF34
 605 0301 07       		.byte	0x7
 606 0302 6601     		.2byte	0x166
 607 0304 56020000 		.4byte	0x256
 608 0308 14       		.byte	0x14
 609 0309 0B       		.uleb128 0xb
 610 030a 69060000 		.4byte	.LASF56
 611 030e 07       		.byte	0x7
 612 030f 6901     		.2byte	0x169
 613 0311 56020000 		.4byte	0x256
 614 0315 18       		.byte	0x18
 615 0316 00       		.byte	0
 616 0317 03       		.uleb128 0x3
 617 0318 77000000 		.4byte	.LASF57
 618 031c 06       		.byte	0x6
 619 031d 51       		.byte	0x51
 620 031e 22030000 		.4byte	0x322
 621 0322 0C       		.uleb128 0xc
 622 0323 04       		.byte	0x4
 623 0324 28030000 		.4byte	0x328
 624 0328 0E       		.uleb128 0xe
 625 0329 33030000 		.4byte	0x333
 626 032d 0F       		.uleb128 0xf
 627 032e 33030000 		.4byte	0x333
ARM GAS  C:\Users\14122\AppData\Local\Temp\ccvyTxJM.s 			page 12


 628 0332 00       		.byte	0
 629 0333 10       		.uleb128 0x10
 630 0334 04       		.byte	0x4
 631 0335 03       		.uleb128 0x3
 632 0336 D8040000 		.4byte	.LASF58
 633 033a 06       		.byte	0x6
 634 033b 56       		.byte	0x56
 635 033c 40030000 		.4byte	0x340
 636 0340 0D       		.uleb128 0xd
 637 0341 37080000 		.4byte	.LASF59
 638 0345 14       		.byte	0x14
 639 0346 07       		.byte	0x7
 640 0347 3901     		.2byte	0x139
 641 0349 8F030000 		.4byte	0x38f
 642 034d 0B       		.uleb128 0xb
 643 034e B10B0000 		.4byte	.LASF50
 644 0352 07       		.byte	0x7
 645 0353 3A01     		.2byte	0x13a
 646 0355 DF0A0000 		.4byte	0xadf
 647 0359 00       		.byte	0
 648 035a 0B       		.uleb128 0xb
 649 035b C40B0000 		.4byte	.LASF53
 650 035f 07       		.byte	0x7
 651 0360 3B01     		.2byte	0x13b
 652 0362 DF0A0000 		.4byte	0xadf
 653 0366 04       		.byte	0x4
 654 0367 0B       		.uleb128 0xb
 655 0368 B0080000 		.4byte	.LASF60
 656 036c 07       		.byte	0x7
 657 036d 3C01     		.2byte	0x13c
 658 036f 5A040000 		.4byte	0x45a
 659 0373 08       		.byte	0x8
 660 0374 0B       		.uleb128 0xb
 661 0375 290A0000 		.4byte	.LASF61
 662 0379 07       		.byte	0x7
 663 037a 3D01     		.2byte	0x13d
 664 037c 17030000 		.4byte	0x317
 665 0380 0C       		.byte	0xc
 666 0381 0A       		.uleb128 0xa
 667 0382 70617200 		.ascii	"par\000"
 668 0386 07       		.byte	0x7
 669 0387 3F01     		.2byte	0x13f
 670 0389 33030000 		.4byte	0x333
 671 038d 10       		.byte	0x10
 672 038e 00       		.byte	0
 673 038f 03       		.uleb128 0x3
 674 0390 89040000 		.4byte	.LASF62
 675 0394 06       		.byte	0x6
 676 0395 5B       		.byte	0x5b
 677 0396 9A030000 		.4byte	0x39a
 678 039a 0D       		.uleb128 0xd
 679 039b 8C000000 		.4byte	.LASF63
 680 039f 10       		.byte	0x10
 681 03a0 07       		.byte	0x7
 682 03a1 4901     		.2byte	0x149
 683 03a3 DC030000 		.4byte	0x3dc
 684 03a7 0B       		.uleb128 0xb
ARM GAS  C:\Users\14122\AppData\Local\Temp\ccvyTxJM.s 			page 13


 685 03a8 B10B0000 		.4byte	.LASF50
 686 03ac 07       		.byte	0x7
 687 03ad 4A01     		.2byte	0x14a
 688 03af DF0A0000 		.4byte	0xadf
 689 03b3 00       		.byte	0
 690 03b4 0B       		.uleb128 0xb
 691 03b5 C40B0000 		.4byte	.LASF53
 692 03b9 07       		.byte	0x7
 693 03ba 4C01     		.2byte	0x14c
 694 03bc DF0A0000 		.4byte	0xadf
 695 03c0 04       		.byte	0x4
 696 03c1 0B       		.uleb128 0xb
 697 03c2 B0080000 		.4byte	.LASF60
 698 03c6 07       		.byte	0x7
 699 03c7 4E01     		.2byte	0x14e
 700 03c9 5A040000 		.4byte	0x45a
 701 03cd 08       		.byte	0x8
 702 03ce 0B       		.uleb128 0xb
 703 03cf A6020000 		.4byte	.LASF64
 704 03d3 07       		.byte	0x7
 705 03d4 5601     		.2byte	0x156
 706 03d6 4F040000 		.4byte	0x44f
 707 03da 0C       		.byte	0xc
 708 03db 00       		.byte	0
 709 03dc 03       		.uleb128 0x3
 710 03dd D1020000 		.4byte	.LASF65
 711 03e1 06       		.byte	0x6
 712 03e2 60       		.byte	0x60
 713 03e3 E7030000 		.4byte	0x3e7
 714 03e7 0D       		.uleb128 0xd
 715 03e8 5A0A0000 		.4byte	.LASF66
 716 03ec 04       		.byte	0x4
 717 03ed 07       		.byte	0x7
 718 03ee 7001     		.2byte	0x170
 719 03f0 02040000 		.4byte	0x402
 720 03f4 0B       		.uleb128 0xb
 721 03f5 C7020000 		.4byte	.LASF67
 722 03f9 07       		.byte	0x7
 723 03fa 7801     		.2byte	0x178
 724 03fc C80A0000 		.4byte	0xac8
 725 0400 00       		.byte	0
 726 0401 00       		.byte	0
 727 0402 03       		.uleb128 0x3
 728 0403 510B0000 		.4byte	.LASF68
 729 0407 06       		.byte	0x6
 730 0408 65       		.byte	0x65
 731 0409 0D040000 		.4byte	0x40d
 732 040d 0D       		.uleb128 0xd
 733 040e 030B0000 		.4byte	.LASF69
 734 0412 74       		.byte	0x74
 735 0413 07       		.byte	0x7
 736 0414 9001     		.2byte	0x190
 737 0416 4F040000 		.4byte	0x44f
 738 041a 0B       		.uleb128 0xb
 739 041b 81090000 		.4byte	.LASF70
 740 041f 07       		.byte	0x7
 741 0420 9401     		.2byte	0x194
ARM GAS  C:\Users\14122\AppData\Local\Temp\ccvyTxJM.s 			page 14


 742 0422 B0020000 		.4byte	0x2b0
 743 0426 00       		.byte	0
 744 0427 0B       		.uleb128 0xb
 745 0428 A40A0000 		.4byte	.LASF71
 746 042c 07       		.byte	0x7
 747 042d 9801     		.2byte	0x198
 748 042f 8F030000 		.4byte	0x38f
 749 0433 1C       		.byte	0x1c
 750 0434 0A       		.uleb128 0xa
 751 0435 64626700 		.ascii	"dbg\000"
 752 0439 07       		.byte	0x7
 753 043a 9C01     		.2byte	0x19c
 754 043c DC030000 		.4byte	0x3dc
 755 0440 2C       		.byte	0x2c
 756 0441 0B       		.uleb128 0xb
 757 0442 06090000 		.4byte	.LASF72
 758 0446 07       		.byte	0x7
 759 0447 A001     		.2byte	0x1a0
 760 0449 62010000 		.4byte	0x162
 761 044d 30       		.byte	0x30
 762 044e 00       		.byte	0
 763 044f 03       		.uleb128 0x3
 764 0450 39000000 		.4byte	.LASF73
 765 0454 08       		.byte	0x8
 766 0455 6F       		.byte	0x6f
 767 0456 C4000000 		.4byte	0xc4
 768 045a 03       		.uleb128 0x3
 769 045b 95050000 		.4byte	.LASF74
 770 045f 08       		.byte	0x8
 771 0460 79       		.byte	0x79
 772 0461 E4000000 		.4byte	0xe4
 773 0465 11       		.uleb128 0x11
 774 0466 E4000000 		.4byte	0xe4
 775 046a 75040000 		.4byte	0x475
 776 046e 12       		.uleb128 0x12
 777 046f 37000000 		.4byte	0x37
 778 0473 07       		.byte	0x7
 779 0474 00       		.byte	0
 780 0475 13       		.uleb128 0x13
 781 0476 D9050000 		.4byte	.LASF75
 782 047a 09       		.byte	0x9
 783 047b 4007     		.2byte	0x740
 784 047d DF000000 		.4byte	0xdf
 785 0481 14       		.uleb128 0x14
 786 0482 54040000 		.4byte	.LASF76
 787 0486 0A       		.byte	0xa
 788 0487 45       		.byte	0x45
 789 0488 E4000000 		.4byte	0xe4
 790 048c 11       		.uleb128 0x11
 791 048d BF000000 		.4byte	0xbf
 792 0491 9C040000 		.4byte	0x49c
 793 0495 12       		.uleb128 0x12
 794 0496 37000000 		.4byte	0x37
 795 049a 0F       		.byte	0xf
 796 049b 00       		.byte	0
 797 049c 05       		.uleb128 0x5
 798 049d 8C040000 		.4byte	0x48c
ARM GAS  C:\Users\14122\AppData\Local\Temp\ccvyTxJM.s 			page 15


 799 04a1 14       		.uleb128 0x14
 800 04a2 29080000 		.4byte	.LASF77
 801 04a6 0A       		.byte	0xa
 802 04a7 46       		.byte	0x46
 803 04a8 9C040000 		.4byte	0x49c
 804 04ac 11       		.uleb128 0x11
 805 04ad BF000000 		.4byte	0xbf
 806 04b1 BC040000 		.4byte	0x4bc
 807 04b5 12       		.uleb128 0x12
 808 04b6 37000000 		.4byte	0x37
 809 04ba 07       		.byte	0x7
 810 04bb 00       		.byte	0
 811 04bc 05       		.uleb128 0x5
 812 04bd AC040000 		.4byte	0x4ac
 813 04c1 14       		.uleb128 0x14
 814 04c2 BF090000 		.4byte	.LASF78
 815 04c6 0A       		.byte	0xa
 816 04c7 47       		.byte	0x47
 817 04c8 BC040000 		.4byte	0x4bc
 818 04cc 15       		.uleb128 0x15
 819 04cd 10       		.byte	0x10
 820 04ce 0B       		.byte	0xb
 821 04cf DD       		.byte	0xdd
 822 04d0 05050000 		.4byte	0x505
 823 04d4 09       		.uleb128 0x9
 824 04d5 54495200 		.ascii	"TIR\000"
 825 04d9 0B       		.byte	0xb
 826 04da DF       		.byte	0xdf
 827 04db EF000000 		.4byte	0xef
 828 04df 00       		.byte	0
 829 04e0 08       		.uleb128 0x8
 830 04e1 E00B0000 		.4byte	.LASF79
 831 04e5 0B       		.byte	0xb
 832 04e6 E0       		.byte	0xe0
 833 04e7 EF000000 		.4byte	0xef
 834 04eb 04       		.byte	0x4
 835 04ec 08       		.uleb128 0x8
 836 04ed DE080000 		.4byte	.LASF80
 837 04f1 0B       		.byte	0xb
 838 04f2 E1       		.byte	0xe1
 839 04f3 EF000000 		.4byte	0xef
 840 04f7 08       		.byte	0x8
 841 04f8 08       		.uleb128 0x8
 842 04f9 64060000 		.4byte	.LASF81
 843 04fd 0B       		.byte	0xb
 844 04fe E2       		.byte	0xe2
 845 04ff EF000000 		.4byte	0xef
 846 0503 0C       		.byte	0xc
 847 0504 00       		.byte	0
 848 0505 03       		.uleb128 0x3
 849 0506 DE090000 		.4byte	.LASF82
 850 050a 0B       		.byte	0xb
 851 050b E3       		.byte	0xe3
 852 050c CC040000 		.4byte	0x4cc
 853 0510 15       		.uleb128 0x15
 854 0511 10       		.byte	0x10
 855 0512 0B       		.byte	0xb
ARM GAS  C:\Users\14122\AppData\Local\Temp\ccvyTxJM.s 			page 16


 856 0513 E9       		.byte	0xe9
 857 0514 49050000 		.4byte	0x549
 858 0518 09       		.uleb128 0x9
 859 0519 52495200 		.ascii	"RIR\000"
 860 051d 0B       		.byte	0xb
 861 051e EB       		.byte	0xeb
 862 051f EF000000 		.4byte	0xef
 863 0523 00       		.byte	0
 864 0524 08       		.uleb128 0x8
 865 0525 B60B0000 		.4byte	.LASF83
 866 0529 0B       		.byte	0xb
 867 052a EC       		.byte	0xec
 868 052b EF000000 		.4byte	0xef
 869 052f 04       		.byte	0x4
 870 0530 08       		.uleb128 0x8
 871 0531 B6080000 		.4byte	.LASF84
 872 0535 0B       		.byte	0xb
 873 0536 ED       		.byte	0xed
 874 0537 EF000000 		.4byte	0xef
 875 053b 08       		.byte	0x8
 876 053c 08       		.uleb128 0x8
 877 053d 5A060000 		.4byte	.LASF85
 878 0541 0B       		.byte	0xb
 879 0542 EE       		.byte	0xee
 880 0543 EF000000 		.4byte	0xef
 881 0547 0C       		.byte	0xc
 882 0548 00       		.byte	0
 883 0549 03       		.uleb128 0x3
 884 054a BB080000 		.4byte	.LASF86
 885 054e 0B       		.byte	0xb
 886 054f EF       		.byte	0xef
 887 0550 10050000 		.4byte	0x510
 888 0554 15       		.uleb128 0x15
 889 0555 08       		.byte	0x8
 890 0556 0B       		.byte	0xb
 891 0557 F5       		.byte	0xf5
 892 0558 75050000 		.4byte	0x575
 893 055c 09       		.uleb128 0x9
 894 055d 46523100 		.ascii	"FR1\000"
 895 0561 0B       		.byte	0xb
 896 0562 F7       		.byte	0xf7
 897 0563 EF000000 		.4byte	0xef
 898 0567 00       		.byte	0
 899 0568 09       		.uleb128 0x9
 900 0569 46523200 		.ascii	"FR2\000"
 901 056d 0B       		.byte	0xb
 902 056e F8       		.byte	0xf8
 903 056f EF000000 		.4byte	0xef
 904 0573 04       		.byte	0x4
 905 0574 00       		.byte	0
 906 0575 03       		.uleb128 0x3
 907 0576 2B020000 		.4byte	.LASF87
 908 057a 0B       		.byte	0xb
 909 057b F9       		.byte	0xf9
 910 057c 54050000 		.4byte	0x554
 911 0580 16       		.uleb128 0x16
 912 0581 B002     		.2byte	0x2b0
ARM GAS  C:\Users\14122\AppData\Local\Temp\ccvyTxJM.s 			page 17


 913 0583 0B       		.byte	0xb
 914 0584 FF       		.byte	0xff
 915 0585 B5060000 		.4byte	0x6b5
 916 0589 0A       		.uleb128 0xa
 917 058a 4D435200 		.ascii	"MCR\000"
 918 058e 0B       		.byte	0xb
 919 058f 0101     		.2byte	0x101
 920 0591 EF000000 		.4byte	0xef
 921 0595 00       		.byte	0
 922 0596 0A       		.uleb128 0xa
 923 0597 4D535200 		.ascii	"MSR\000"
 924 059b 0B       		.byte	0xb
 925 059c 0201     		.2byte	0x102
 926 059e EF000000 		.4byte	0xef
 927 05a2 04       		.byte	0x4
 928 05a3 0A       		.uleb128 0xa
 929 05a4 54535200 		.ascii	"TSR\000"
 930 05a8 0B       		.byte	0xb
 931 05a9 0301     		.2byte	0x103
 932 05ab EF000000 		.4byte	0xef
 933 05af 08       		.byte	0x8
 934 05b0 0B       		.uleb128 0xb
 935 05b1 E8010000 		.4byte	.LASF88
 936 05b5 0B       		.byte	0xb
 937 05b6 0401     		.2byte	0x104
 938 05b8 EF000000 		.4byte	0xef
 939 05bc 0C       		.byte	0xc
 940 05bd 0B       		.uleb128 0xb
 941 05be C2020000 		.4byte	.LASF89
 942 05c2 0B       		.byte	0xb
 943 05c3 0501     		.2byte	0x105
 944 05c5 EF000000 		.4byte	0xef
 945 05c9 10       		.byte	0x10
 946 05ca 0A       		.uleb128 0xa
 947 05cb 49455200 		.ascii	"IER\000"
 948 05cf 0B       		.byte	0xb
 949 05d0 0601     		.2byte	0x106
 950 05d2 EF000000 		.4byte	0xef
 951 05d6 14       		.byte	0x14
 952 05d7 0A       		.uleb128 0xa
 953 05d8 45535200 		.ascii	"ESR\000"
 954 05dc 0B       		.byte	0xb
 955 05dd 0701     		.2byte	0x107
 956 05df EF000000 		.4byte	0xef
 957 05e3 18       		.byte	0x18
 958 05e4 0A       		.uleb128 0xa
 959 05e5 42545200 		.ascii	"BTR\000"
 960 05e9 0B       		.byte	0xb
 961 05ea 0801     		.2byte	0x108
 962 05ec EF000000 		.4byte	0xef
 963 05f0 1C       		.byte	0x1c
 964 05f1 0B       		.uleb128 0xb
 965 05f2 66020000 		.4byte	.LASF90
 966 05f6 0B       		.byte	0xb
 967 05f7 0901     		.2byte	0x109
 968 05f9 B5060000 		.4byte	0x6b5
 969 05fd 20       		.byte	0x20
ARM GAS  C:\Users\14122\AppData\Local\Temp\ccvyTxJM.s 			page 18


 970 05fe 17       		.uleb128 0x17
 971 05ff 670B0000 		.4byte	.LASF91
 972 0603 0B       		.byte	0xb
 973 0604 0A01     		.2byte	0x10a
 974 0606 C5060000 		.4byte	0x6c5
 975 060a 8001     		.2byte	0x180
 976 060c 17       		.uleb128 0x17
 977 060d 46020000 		.4byte	.LASF92
 978 0611 0B       		.byte	0xb
 979 0612 0B01     		.2byte	0x10b
 980 0614 D5060000 		.4byte	0x6d5
 981 0618 B001     		.2byte	0x1b0
 982 061a 17       		.uleb128 0x17
 983 061b 70020000 		.4byte	.LASF93
 984 061f 0B       		.byte	0xb
 985 0620 0C01     		.2byte	0x10c
 986 0622 E5060000 		.4byte	0x6e5
 987 0626 D001     		.2byte	0x1d0
 988 0628 18       		.uleb128 0x18
 989 0629 464D5200 		.ascii	"FMR\000"
 990 062d 0B       		.byte	0xb
 991 062e 0D01     		.2byte	0x10d
 992 0630 EF000000 		.4byte	0xef
 993 0634 0002     		.2byte	0x200
 994 0636 17       		.uleb128 0x17
 995 0637 55060000 		.4byte	.LASF94
 996 063b 0B       		.byte	0xb
 997 063c 0E01     		.2byte	0x10e
 998 063e EF000000 		.4byte	0xef
 999 0642 0402     		.2byte	0x204
 1000 0644 17       		.uleb128 0x17
 1001 0645 F3020000 		.4byte	.LASF95
 1002 0649 0B       		.byte	0xb
 1003 064a 0F01     		.2byte	0x10f
 1004 064c E4000000 		.4byte	0xe4
 1005 0650 0802     		.2byte	0x208
 1006 0652 17       		.uleb128 0x17
 1007 0653 AC090000 		.4byte	.LASF96
 1008 0657 0B       		.byte	0xb
 1009 0658 1001     		.2byte	0x110
 1010 065a EF000000 		.4byte	0xef
 1011 065e 0C02     		.2byte	0x20c
 1012 0660 17       		.uleb128 0x17
 1013 0661 88020000 		.4byte	.LASF97
 1014 0665 0B       		.byte	0xb
 1015 0666 1101     		.2byte	0x111
 1016 0668 E4000000 		.4byte	0xe4
 1017 066c 1002     		.2byte	0x210
 1018 066e 17       		.uleb128 0x17
 1019 066f 370A0000 		.4byte	.LASF98
 1020 0673 0B       		.byte	0xb
 1021 0674 1201     		.2byte	0x112
 1022 0676 EF000000 		.4byte	0xef
 1023 067a 1402     		.2byte	0x214
 1024 067c 17       		.uleb128 0x17
 1025 067d 92020000 		.4byte	.LASF99
 1026 0681 0B       		.byte	0xb
ARM GAS  C:\Users\14122\AppData\Local\Temp\ccvyTxJM.s 			page 19


 1027 0682 1301     		.2byte	0x113
 1028 0684 E4000000 		.4byte	0xe4
 1029 0688 1802     		.2byte	0x218
 1030 068a 17       		.uleb128 0x17
 1031 068b 6E010000 		.4byte	.LASF100
 1032 068f 0B       		.byte	0xb
 1033 0690 1401     		.2byte	0x114
 1034 0692 EF000000 		.4byte	0xef
 1035 0696 1C02     		.2byte	0x21c
 1036 0698 17       		.uleb128 0x17
 1037 0699 9C020000 		.4byte	.LASF101
 1038 069d 0B       		.byte	0xb
 1039 069e 1501     		.2byte	0x115
 1040 06a0 65040000 		.4byte	0x465
 1041 06a4 2002     		.2byte	0x220
 1042 06a6 17       		.uleb128 0x17
 1043 06a7 69070000 		.4byte	.LASF102
 1044 06ab 0B       		.byte	0xb
 1045 06ac 1601     		.2byte	0x116
 1046 06ae F5060000 		.4byte	0x6f5
 1047 06b2 4002     		.2byte	0x240
 1048 06b4 00       		.byte	0
 1049 06b5 11       		.uleb128 0x11
 1050 06b6 E4000000 		.4byte	0xe4
 1051 06ba C5060000 		.4byte	0x6c5
 1052 06be 12       		.uleb128 0x12
 1053 06bf 37000000 		.4byte	0x37
 1054 06c3 57       		.byte	0x57
 1055 06c4 00       		.byte	0
 1056 06c5 11       		.uleb128 0x11
 1057 06c6 05050000 		.4byte	0x505
 1058 06ca D5060000 		.4byte	0x6d5
 1059 06ce 12       		.uleb128 0x12
 1060 06cf 37000000 		.4byte	0x37
 1061 06d3 02       		.byte	0x2
 1062 06d4 00       		.byte	0
 1063 06d5 11       		.uleb128 0x11
 1064 06d6 49050000 		.4byte	0x549
 1065 06da E5060000 		.4byte	0x6e5
 1066 06de 12       		.uleb128 0x12
 1067 06df 37000000 		.4byte	0x37
 1068 06e3 01       		.byte	0x1
 1069 06e4 00       		.byte	0
 1070 06e5 11       		.uleb128 0x11
 1071 06e6 E4000000 		.4byte	0xe4
 1072 06ea F5060000 		.4byte	0x6f5
 1073 06ee 12       		.uleb128 0x12
 1074 06ef 37000000 		.4byte	0x37
 1075 06f3 0B       		.byte	0xb
 1076 06f4 00       		.byte	0
 1077 06f5 11       		.uleb128 0x11
 1078 06f6 75050000 		.4byte	0x575
 1079 06fa 05070000 		.4byte	0x705
 1080 06fe 12       		.uleb128 0x12
 1081 06ff 37000000 		.4byte	0x37
 1082 0703 0D       		.byte	0xd
 1083 0704 00       		.byte	0
ARM GAS  C:\Users\14122\AppData\Local\Temp\ccvyTxJM.s 			page 20


 1084 0705 19       		.uleb128 0x19
 1085 0706 88060000 		.4byte	.LASF103
 1086 070a 0B       		.byte	0xb
 1087 070b 1701     		.2byte	0x117
 1088 070d 80050000 		.4byte	0x580
 1089 0711 1A       		.uleb128 0x1a
 1090 0712 10       		.byte	0x10
 1091 0713 0B       		.byte	0xb
 1092 0714 3501     		.2byte	0x135
 1093 0716 4F070000 		.4byte	0x74f
 1094 071a 0A       		.uleb128 0xa
 1095 071b 43435200 		.ascii	"CCR\000"
 1096 071f 0B       		.byte	0xb
 1097 0720 3701     		.2byte	0x137
 1098 0722 EF000000 		.4byte	0xef
 1099 0726 00       		.byte	0
 1100 0727 0B       		.uleb128 0xb
 1101 0728 EF000000 		.4byte	.LASF104
 1102 072c 0B       		.byte	0xb
 1103 072d 3801     		.2byte	0x138
 1104 072f EF000000 		.4byte	0xef
 1105 0733 04       		.byte	0x4
 1106 0734 0B       		.uleb128 0xb
 1107 0735 CA010000 		.4byte	.LASF105
 1108 0739 0B       		.byte	0xb
 1109 073a 3901     		.2byte	0x139
 1110 073c EF000000 		.4byte	0xef
 1111 0740 08       		.byte	0x8
 1112 0741 0B       		.uleb128 0xb
 1113 0742 5F060000 		.4byte	.LASF106
 1114 0746 0B       		.byte	0xb
 1115 0747 3A01     		.2byte	0x13a
 1116 0749 EF000000 		.4byte	0xef
 1117 074d 0C       		.byte	0xc
 1118 074e 00       		.byte	0
 1119 074f 19       		.uleb128 0x19
 1120 0750 15080000 		.4byte	.LASF107
 1121 0754 0B       		.byte	0xb
 1122 0755 3B01     		.2byte	0x13b
 1123 0757 11070000 		.4byte	0x711
 1124 075b 1A       		.uleb128 0x1a
 1125 075c 08       		.byte	0x8
 1126 075d 0B       		.byte	0xb
 1127 075e 3D01     		.2byte	0x13d
 1128 0760 7F070000 		.4byte	0x77f
 1129 0764 0A       		.uleb128 0xa
 1130 0765 49535200 		.ascii	"ISR\000"
 1131 0769 0B       		.byte	0xb
 1132 076a 3F01     		.2byte	0x13f
 1133 076c EF000000 		.4byte	0xef
 1134 0770 00       		.byte	0
 1135 0771 0B       		.uleb128 0xb
 1136 0772 0D030000 		.4byte	.LASF108
 1137 0776 0B       		.byte	0xb
 1138 0777 4001     		.2byte	0x140
 1139 0779 EF000000 		.4byte	0xef
 1140 077d 04       		.byte	0x4
ARM GAS  C:\Users\14122\AppData\Local\Temp\ccvyTxJM.s 			page 21


 1141 077e 00       		.byte	0
 1142 077f 19       		.uleb128 0x19
 1143 0780 B6020000 		.4byte	.LASF109
 1144 0784 0B       		.byte	0xb
 1145 0785 4101     		.2byte	0x141
 1146 0787 5B070000 		.4byte	0x75b
 1147 078b 1A       		.uleb128 0x1a
 1148 078c 24       		.byte	0x24
 1149 078d 0B       		.byte	0xb
 1150 078e 5701     		.2byte	0x157
 1151 0790 07080000 		.4byte	0x807
 1152 0794 0A       		.uleb128 0xa
 1153 0795 41435200 		.ascii	"ACR\000"
 1154 0799 0B       		.byte	0xb
 1155 079a 5901     		.2byte	0x159
 1156 079c EF000000 		.4byte	0xef
 1157 07a0 00       		.byte	0
 1158 07a1 0B       		.uleb128 0xb
 1159 07a2 CD090000 		.4byte	.LASF110
 1160 07a6 0B       		.byte	0xb
 1161 07a7 5A01     		.2byte	0x15a
 1162 07a9 EF000000 		.4byte	0xef
 1163 07ad 04       		.byte	0x4
 1164 07ae 0B       		.uleb128 0xb
 1165 07af 12040000 		.4byte	.LASF111
 1166 07b3 0B       		.byte	0xb
 1167 07b4 5B01     		.2byte	0x15b
 1168 07b6 EF000000 		.4byte	0xef
 1169 07ba 08       		.byte	0x8
 1170 07bb 0A       		.uleb128 0xa
 1171 07bc 535200   		.ascii	"SR\000"
 1172 07bf 0B       		.byte	0xb
 1173 07c0 5C01     		.2byte	0x15c
 1174 07c2 EF000000 		.4byte	0xef
 1175 07c6 0C       		.byte	0xc
 1176 07c7 0A       		.uleb128 0xa
 1177 07c8 435200   		.ascii	"CR\000"
 1178 07cb 0B       		.byte	0xb
 1179 07cc 5D01     		.2byte	0x15d
 1180 07ce EF000000 		.4byte	0xef
 1181 07d2 10       		.byte	0x10
 1182 07d3 0A       		.uleb128 0xa
 1183 07d4 415200   		.ascii	"AR\000"
 1184 07d7 0B       		.byte	0xb
 1185 07d8 5E01     		.2byte	0x15e
 1186 07da EF000000 		.4byte	0xef
 1187 07de 14       		.byte	0x14
 1188 07df 0B       		.uleb128 0xb
 1189 07e0 C3030000 		.4byte	.LASF112
 1190 07e4 0B       		.byte	0xb
 1191 07e5 5F01     		.2byte	0x15f
 1192 07e7 EF000000 		.4byte	0xef
 1193 07eb 18       		.byte	0x18
 1194 07ec 0A       		.uleb128 0xa
 1195 07ed 4F425200 		.ascii	"OBR\000"
 1196 07f1 0B       		.byte	0xb
 1197 07f2 6001     		.2byte	0x160
ARM GAS  C:\Users\14122\AppData\Local\Temp\ccvyTxJM.s 			page 22


 1198 07f4 EF000000 		.4byte	0xef
 1199 07f8 1C       		.byte	0x1c
 1200 07f9 0B       		.uleb128 0xb
 1201 07fa C5010000 		.4byte	.LASF113
 1202 07fe 0B       		.byte	0xb
 1203 07ff 6101     		.2byte	0x161
 1204 0801 EF000000 		.4byte	0xef
 1205 0805 20       		.byte	0x20
 1206 0806 00       		.byte	0
 1207 0807 19       		.uleb128 0x19
 1208 0808 D00A0000 		.4byte	.LASF114
 1209 080c 0B       		.byte	0xb
 1210 080d 6201     		.2byte	0x162
 1211 080f 8B070000 		.4byte	0x78b
 1212 0813 1A       		.uleb128 0x1a
 1213 0814 08       		.byte	0x8
 1214 0815 0B       		.byte	0xb
 1215 0816 B001     		.2byte	0x1b0
 1216 0818 36080000 		.4byte	0x836
 1217 081c 0A       		.uleb128 0xa
 1218 081d 435200   		.ascii	"CR\000"
 1219 0820 0B       		.byte	0xb
 1220 0821 B201     		.2byte	0x1b2
 1221 0823 EF000000 		.4byte	0xef
 1222 0827 00       		.byte	0
 1223 0828 0A       		.uleb128 0xa
 1224 0829 43535200 		.ascii	"CSR\000"
 1225 082d 0B       		.byte	0xb
 1226 082e B301     		.2byte	0x1b3
 1227 0830 EF000000 		.4byte	0xef
 1228 0834 04       		.byte	0x4
 1229 0835 00       		.byte	0
 1230 0836 19       		.uleb128 0x19
 1231 0837 1C0B0000 		.4byte	.LASF115
 1232 083b 0B       		.byte	0xb
 1233 083c B401     		.2byte	0x1b4
 1234 083e 13080000 		.4byte	0x813
 1235 0842 1A       		.uleb128 0x1a
 1236 0843 28       		.byte	0x28
 1237 0844 0B       		.byte	0xb
 1238 0845 BA01     		.2byte	0x1ba
 1239 0847 CD080000 		.4byte	0x8cd
 1240 084b 0A       		.uleb128 0xa
 1241 084c 435200   		.ascii	"CR\000"
 1242 084f 0B       		.byte	0xb
 1243 0850 BC01     		.2byte	0x1bc
 1244 0852 EF000000 		.4byte	0xef
 1245 0856 00       		.byte	0
 1246 0857 0B       		.uleb128 0xb
 1247 0858 FE030000 		.4byte	.LASF116
 1248 085c 0B       		.byte	0xb
 1249 085d BD01     		.2byte	0x1bd
 1250 085f EF000000 		.4byte	0xef
 1251 0863 04       		.byte	0x4
 1252 0864 0A       		.uleb128 0xa
 1253 0865 43495200 		.ascii	"CIR\000"
 1254 0869 0B       		.byte	0xb
ARM GAS  C:\Users\14122\AppData\Local\Temp\ccvyTxJM.s 			page 23


 1255 086a BE01     		.2byte	0x1be
 1256 086c EF000000 		.4byte	0xef
 1257 0870 08       		.byte	0x8
 1258 0871 0B       		.uleb128 0xb
 1259 0872 BB050000 		.4byte	.LASF117
 1260 0876 0B       		.byte	0xb
 1261 0877 BF01     		.2byte	0x1bf
 1262 0879 EF000000 		.4byte	0xef
 1263 087d 0C       		.byte	0xc
 1264 087e 0B       		.uleb128 0xb
 1265 087f BB0B0000 		.4byte	.LASF118
 1266 0883 0B       		.byte	0xb
 1267 0884 C001     		.2byte	0x1c0
 1268 0886 EF000000 		.4byte	0xef
 1269 088a 10       		.byte	0x10
 1270 088b 0B       		.uleb128 0xb
 1271 088c 750A0000 		.4byte	.LASF119
 1272 0890 0B       		.byte	0xb
 1273 0891 C101     		.2byte	0x1c1
 1274 0893 EF000000 		.4byte	0xef
 1275 0897 14       		.byte	0x14
 1276 0898 0B       		.uleb128 0xb
 1277 0899 A6010000 		.4byte	.LASF120
 1278 089d 0B       		.byte	0xb
 1279 089e C201     		.2byte	0x1c2
 1280 08a0 EF000000 		.4byte	0xef
 1281 08a4 18       		.byte	0x18
 1282 08a5 0B       		.uleb128 0xb
 1283 08a6 41040000 		.4byte	.LASF121
 1284 08aa 0B       		.byte	0xb
 1285 08ab C301     		.2byte	0x1c3
 1286 08ad EF000000 		.4byte	0xef
 1287 08b1 1C       		.byte	0x1c
 1288 08b2 0B       		.uleb128 0xb
 1289 08b3 9C030000 		.4byte	.LASF122
 1290 08b7 0B       		.byte	0xb
 1291 08b8 C401     		.2byte	0x1c4
 1292 08ba EF000000 		.4byte	0xef
 1293 08be 20       		.byte	0x20
 1294 08bf 0A       		.uleb128 0xa
 1295 08c0 43535200 		.ascii	"CSR\000"
 1296 08c4 0B       		.byte	0xb
 1297 08c5 C501     		.2byte	0x1c5
 1298 08c7 EF000000 		.4byte	0xef
 1299 08cb 24       		.byte	0x24
 1300 08cc 00       		.byte	0
 1301 08cd 19       		.uleb128 0x19
 1302 08ce D2090000 		.4byte	.LASF123
 1303 08d2 0B       		.byte	0xb
 1304 08d3 C801     		.2byte	0x1c8
 1305 08d5 42080000 		.4byte	0x842
 1306 08d9 1A       		.uleb128 0x1a
 1307 08da 1C       		.byte	0x1c
 1308 08db 0B       		.byte	0xb
 1309 08dc 2902     		.2byte	0x229
 1310 08de 3C090000 		.4byte	0x93c
 1311 08e2 0A       		.uleb128 0xa
ARM GAS  C:\Users\14122\AppData\Local\Temp\ccvyTxJM.s 			page 24


 1312 08e3 535200   		.ascii	"SR\000"
 1313 08e6 0B       		.byte	0xb
 1314 08e7 2B02     		.2byte	0x22b
 1315 08e9 EF000000 		.4byte	0xef
 1316 08ed 00       		.byte	0
 1317 08ee 0A       		.uleb128 0xa
 1318 08ef 445200   		.ascii	"DR\000"
 1319 08f2 0B       		.byte	0xb
 1320 08f3 2C02     		.2byte	0x22c
 1321 08f5 EF000000 		.4byte	0xef
 1322 08f9 04       		.byte	0x4
 1323 08fa 0A       		.uleb128 0xa
 1324 08fb 42525200 		.ascii	"BRR\000"
 1325 08ff 0B       		.byte	0xb
 1326 0900 2D02     		.2byte	0x22d
 1327 0902 EF000000 		.4byte	0xef
 1328 0906 08       		.byte	0x8
 1329 0907 0A       		.uleb128 0xa
 1330 0908 43523100 		.ascii	"CR1\000"
 1331 090c 0B       		.byte	0xb
 1332 090d 2E02     		.2byte	0x22e
 1333 090f EF000000 		.4byte	0xef
 1334 0913 0C       		.byte	0xc
 1335 0914 0A       		.uleb128 0xa
 1336 0915 43523200 		.ascii	"CR2\000"
 1337 0919 0B       		.byte	0xb
 1338 091a 2F02     		.2byte	0x22f
 1339 091c EF000000 		.4byte	0xef
 1340 0920 10       		.byte	0x10
 1341 0921 0A       		.uleb128 0xa
 1342 0922 43523300 		.ascii	"CR3\000"
 1343 0926 0B       		.byte	0xb
 1344 0927 3002     		.2byte	0x230
 1345 0929 EF000000 		.4byte	0xef
 1346 092d 14       		.byte	0x14
 1347 092e 0B       		.uleb128 0xb
 1348 092f B6050000 		.4byte	.LASF124
 1349 0933 0B       		.byte	0xb
 1350 0934 3102     		.2byte	0x231
 1351 0936 EF000000 		.4byte	0xef
 1352 093a 18       		.byte	0x18
 1353 093b 00       		.byte	0
 1354 093c 19       		.uleb128 0x19
 1355 093d 52030000 		.4byte	.LASF125
 1356 0941 0B       		.byte	0xb
 1357 0942 3202     		.2byte	0x232
 1358 0944 D9080000 		.4byte	0x8d9
 1359 0948 03       		.uleb128 0x3
 1360 0949 95010000 		.4byte	.LASF126
 1361 094d 0C       		.byte	0xc
 1362 094e 65       		.byte	0x65
 1363 094f 33030000 		.4byte	0x333
 1364 0953 03       		.uleb128 0x3
 1365 0954 47030000 		.4byte	.LASF127
 1366 0958 0C       		.byte	0xc
 1367 0959 6D       		.byte	0x6d
 1368 095a F4000000 		.4byte	0xf4
ARM GAS  C:\Users\14122\AppData\Local\Temp\ccvyTxJM.s 			page 25


 1369 095e 07       		.uleb128 0x7
 1370 095f C30A0000 		.4byte	.LASF128
 1371 0963 04       		.byte	0x4
 1372 0964 0C       		.byte	0xc
 1373 0965 89       		.byte	0x89
 1374 0966 76090000 		.4byte	0x976
 1375 096a 09       		.uleb128 0x9
 1376 096b 737000   		.ascii	"sp\000"
 1377 096e 0C       		.byte	0xc
 1378 096f 8A       		.byte	0x8a
 1379 0970 F2090000 		.4byte	0x9f2
 1380 0974 00       		.byte	0
 1381 0975 00       		.byte	0
 1382 0976 0D       		.uleb128 0xd
 1383 0977 D7070000 		.4byte	.LASF129
 1384 097b 24       		.byte	0x24
 1385 097c 0D       		.byte	0xd
 1386 097d 5901     		.2byte	0x159
 1387 097f F2090000 		.4byte	0x9f2
 1388 0983 0A       		.uleb128 0xa
 1389 0984 723400   		.ascii	"r4\000"
 1390 0987 0D       		.byte	0xd
 1391 0988 6C01     		.2byte	0x16c
 1392 098a 48090000 		.4byte	0x948
 1393 098e 00       		.byte	0
 1394 098f 0A       		.uleb128 0xa
 1395 0990 723500   		.ascii	"r5\000"
 1396 0993 0D       		.byte	0xd
 1397 0994 6D01     		.2byte	0x16d
 1398 0996 48090000 		.4byte	0x948
 1399 099a 04       		.byte	0x4
 1400 099b 0A       		.uleb128 0xa
 1401 099c 723600   		.ascii	"r6\000"
 1402 099f 0D       		.byte	0xd
 1403 09a0 6E01     		.2byte	0x16e
 1404 09a2 48090000 		.4byte	0x948
 1405 09a6 08       		.byte	0x8
 1406 09a7 0A       		.uleb128 0xa
 1407 09a8 723700   		.ascii	"r7\000"
 1408 09ab 0D       		.byte	0xd
 1409 09ac 6F01     		.2byte	0x16f
 1410 09ae 48090000 		.4byte	0x948
 1411 09b2 0C       		.byte	0xc
 1412 09b3 0A       		.uleb128 0xa
 1413 09b4 723800   		.ascii	"r8\000"
 1414 09b7 0D       		.byte	0xd
 1415 09b8 7001     		.2byte	0x170
 1416 09ba 48090000 		.4byte	0x948
 1417 09be 10       		.byte	0x10
 1418 09bf 0A       		.uleb128 0xa
 1419 09c0 723900   		.ascii	"r9\000"
 1420 09c3 0D       		.byte	0xd
 1421 09c4 7101     		.2byte	0x171
 1422 09c6 48090000 		.4byte	0x948
 1423 09ca 14       		.byte	0x14
 1424 09cb 0A       		.uleb128 0xa
 1425 09cc 72313000 		.ascii	"r10\000"
ARM GAS  C:\Users\14122\AppData\Local\Temp\ccvyTxJM.s 			page 26


 1426 09d0 0D       		.byte	0xd
 1427 09d1 7201     		.2byte	0x172
 1428 09d3 48090000 		.4byte	0x948
 1429 09d7 18       		.byte	0x18
 1430 09d8 0A       		.uleb128 0xa
 1431 09d9 72313100 		.ascii	"r11\000"
 1432 09dd 0D       		.byte	0xd
 1433 09de 7301     		.2byte	0x173
 1434 09e0 48090000 		.4byte	0x948
 1435 09e4 1C       		.byte	0x1c
 1436 09e5 0A       		.uleb128 0xa
 1437 09e6 6C7200   		.ascii	"lr\000"
 1438 09e9 0D       		.byte	0xd
 1439 09ea 7401     		.2byte	0x174
 1440 09ec 48090000 		.4byte	0x948
 1441 09f0 20       		.byte	0x20
 1442 09f1 00       		.byte	0
 1443 09f2 0C       		.uleb128 0xc
 1444 09f3 04       		.byte	0x4
 1445 09f4 76090000 		.4byte	0x976
 1446 09f8 1B       		.uleb128 0x1b
 1447 09f9 04       		.byte	0x4
 1448 09fa 07       		.byte	0x7
 1449 09fb C6       		.byte	0xc6
 1450 09fc 5A0A0000 		.4byte	0xa5a
 1451 0a00 1C       		.uleb128 0x1c
 1452 0a01 370B0000 		.4byte	.LASF130
 1453 0a05 07       		.byte	0x7
 1454 0a06 CD       		.byte	0xcd
 1455 0a07 2B010000 		.4byte	0x12b
 1456 0a0b 1C       		.uleb128 0x1c
 1457 0a0c 29010000 		.4byte	.LASF131
 1458 0a10 07       		.byte	0x7
 1459 0a11 D4       		.byte	0xd4
 1460 0a12 2B010000 		.4byte	0x12b
 1461 0a16 1C       		.uleb128 0x1c
 1462 0a17 26030000 		.4byte	.LASF132
 1463 0a1b 07       		.byte	0x7
 1464 0a1c DB       		.byte	0xdb
 1465 0a1d 33030000 		.4byte	0x333
 1466 0a21 1C       		.uleb128 0x1c
 1467 0a22 60020000 		.4byte	.LASF133
 1468 0a26 07       		.byte	0x7
 1469 0a27 E2       		.byte	0xe2
 1470 0a28 5A0A0000 		.4byte	0xa5a
 1471 0a2c 1C       		.uleb128 0x1c
 1472 0a2d B4070000 		.4byte	.LASF134
 1473 0a31 07       		.byte	0x7
 1474 0a32 E7       		.byte	0xe7
 1475 0a33 2B010000 		.4byte	0x12b
 1476 0a37 1C       		.uleb128 0x1c
 1477 0a38 32000000 		.4byte	.LASF135
 1478 0a3c 07       		.byte	0x7
 1479 0a3d F0       		.byte	0xf0
 1480 0a3e 850A0000 		.4byte	0xa85
 1481 0a42 1C       		.uleb128 0x1c
 1482 0a43 E0030000 		.4byte	.LASF136
ARM GAS  C:\Users\14122\AppData\Local\Temp\ccvyTxJM.s 			page 27


 1483 0a47 07       		.byte	0x7
 1484 0a48 F9       		.byte	0xf9
 1485 0a49 BC0A0000 		.4byte	0xabc
 1486 0a4d 1D       		.uleb128 0x1d
 1487 0a4e 03020000 		.4byte	.LASF137
 1488 0a52 07       		.byte	0x7
 1489 0a53 0101     		.2byte	0x101
 1490 0a55 36010000 		.4byte	0x136
 1491 0a59 00       		.byte	0
 1492 0a5a 0C       		.uleb128 0xc
 1493 0a5b 04       		.byte	0x4
 1494 0a5c 4B020000 		.4byte	0x24b
 1495 0a60 07       		.uleb128 0x7
 1496 0a61 64040000 		.4byte	.LASF138
 1497 0a65 0C       		.byte	0xc
 1498 0a66 0E       		.byte	0xe
 1499 0a67 34       		.byte	0x34
 1500 0a68 850A0000 		.4byte	0xa85
 1501 0a6c 08       		.uleb128 0x8
 1502 0a6d D8080000 		.4byte	.LASF31
 1503 0a71 0E       		.byte	0xe
 1504 0a72 35       		.byte	0x35
 1505 0a73 80020000 		.4byte	0x280
 1506 0a77 00       		.byte	0
 1507 0a78 09       		.uleb128 0x9
 1508 0a79 636E7400 		.ascii	"cnt\000"
 1509 0a7d 0E       		.byte	0xe
 1510 0a7e 37       		.byte	0x37
 1511 0a7f 4C010000 		.4byte	0x14c
 1512 0a83 08       		.byte	0x8
 1513 0a84 00       		.byte	0
 1514 0a85 0C       		.uleb128 0xc
 1515 0a86 04       		.byte	0x4
 1516 0a87 600A0000 		.4byte	0xa60
 1517 0a8b 07       		.uleb128 0x7
 1518 0a8c 2E0A0000 		.4byte	.LASF139
 1519 0a90 10       		.byte	0x10
 1520 0a91 0F       		.byte	0xf
 1521 0a92 39       		.byte	0x39
 1522 0a93 BC0A0000 		.4byte	0xabc
 1523 0a97 08       		.uleb128 0x8
 1524 0a98 D8080000 		.4byte	.LASF31
 1525 0a9c 0F       		.byte	0xf
 1526 0a9d 3A       		.byte	0x3a
 1527 0a9e 80020000 		.4byte	0x280
 1528 0aa2 00       		.byte	0
 1529 0aa3 08       		.uleb128 0x8
 1530 0aa4 4F000000 		.4byte	.LASF140
 1531 0aa8 0F       		.byte	0xf
 1532 0aa9 3C       		.byte	0x3c
 1533 0aaa 56020000 		.4byte	0x256
 1534 0aae 08       		.byte	0x8
 1535 0aaf 08       		.uleb128 0x8
 1536 0ab0 B10B0000 		.4byte	.LASF50
 1537 0ab4 0F       		.byte	0xf
 1538 0ab5 3E       		.byte	0x3e
 1539 0ab6 1E0C0000 		.4byte	0xc1e
ARM GAS  C:\Users\14122\AppData\Local\Temp\ccvyTxJM.s 			page 28


 1540 0aba 0C       		.byte	0xc
 1541 0abb 00       		.byte	0
 1542 0abc 0C       		.uleb128 0xc
 1543 0abd 04       		.byte	0x4
 1544 0abe 8B0A0000 		.4byte	0xa8b
 1545 0ac2 0C       		.uleb128 0xc
 1546 0ac3 04       		.byte	0x4
 1547 0ac4 D40A0000 		.4byte	0xad4
 1548 0ac8 06       		.uleb128 0x6
 1549 0ac9 C20A0000 		.4byte	0xac2
 1550 0acd 04       		.uleb128 0x4
 1551 0ace 01       		.byte	0x1
 1552 0acf 08       		.byte	0x8
 1553 0ad0 08030000 		.4byte	.LASF141
 1554 0ad4 05       		.uleb128 0x5
 1555 0ad5 CD0A0000 		.4byte	0xacd
 1556 0ad9 0C       		.uleb128 0xc
 1557 0ada 04       		.byte	0x4
 1558 0adb 53090000 		.4byte	0x953
 1559 0adf 0C       		.uleb128 0xc
 1560 0ae0 04       		.byte	0x4
 1561 0ae1 35030000 		.4byte	0x335
 1562 0ae5 1E       		.uleb128 0x1e
 1563 0ae6 636800   		.ascii	"ch\000"
 1564 0ae9 07       		.byte	0x7
 1565 0aea C701     		.2byte	0x1c7
 1566 0aec 02040000 		.4byte	0x402
 1567 0af0 11       		.uleb128 0x11
 1568 0af1 53090000 		.4byte	0x953
 1569 0af5 FB0A0000 		.4byte	0xafb
 1570 0af9 1F       		.uleb128 0x1f
 1571 0afa 00       		.byte	0
 1572 0afb 13       		.uleb128 0x13
 1573 0afc 9F040000 		.4byte	.LASF142
 1574 0b00 10       		.byte	0x10
 1575 0b01 1701     		.2byte	0x117
 1576 0b03 F00A0000 		.4byte	0xaf0
 1577 0b07 15       		.uleb128 0x15
 1578 0b08 16       		.byte	0x16
 1579 0b09 11       		.byte	0x11
 1580 0b0a 34       		.byte	0x34
 1581 0b0b E80B0000 		.4byte	0xbe8
 1582 0b0f 08       		.uleb128 0x8
 1583 0b10 D50B0000 		.4byte	.LASF143
 1584 0b14 11       		.byte	0x11
 1585 0b15 35       		.byte	0x35
 1586 0b16 E80B0000 		.4byte	0xbe8
 1587 0b1a 00       		.byte	0
 1588 0b1b 08       		.uleb128 0x8
 1589 0b1c 69010000 		.4byte	.LASF144
 1590 0b20 11       		.byte	0x11
 1591 0b21 36       		.byte	0x36
 1592 0b22 B4000000 		.4byte	0xb4
 1593 0b26 04       		.byte	0x4
 1594 0b27 08       		.uleb128 0x8
 1595 0b28 48080000 		.4byte	.LASF145
 1596 0b2c 11       		.byte	0x11
ARM GAS  C:\Users\14122\AppData\Local\Temp\ccvyTxJM.s 			page 29


 1597 0b2d 37       		.byte	0x37
 1598 0b2e B4000000 		.4byte	0xb4
 1599 0b32 05       		.byte	0x5
 1600 0b33 08       		.uleb128 0x8
 1601 0b34 11090000 		.4byte	.LASF146
 1602 0b38 11       		.byte	0x11
 1603 0b39 38       		.byte	0x38
 1604 0b3a C4000000 		.4byte	0xc4
 1605 0b3e 06       		.byte	0x6
 1606 0b3f 08       		.uleb128 0x8
 1607 0b40 7F030000 		.4byte	.LASF147
 1608 0b44 11       		.byte	0x11
 1609 0b45 39       		.byte	0x39
 1610 0b46 B4000000 		.4byte	0xb4
 1611 0b4a 08       		.byte	0x8
 1612 0b4b 08       		.uleb128 0x8
 1613 0b4c 720B0000 		.4byte	.LASF148
 1614 0b50 11       		.byte	0x11
 1615 0b51 3A       		.byte	0x3a
 1616 0b52 B4000000 		.4byte	0xb4
 1617 0b56 09       		.byte	0x9
 1618 0b57 08       		.uleb128 0x8
 1619 0b58 71060000 		.4byte	.LASF149
 1620 0b5c 11       		.byte	0x11
 1621 0b5d 3B       		.byte	0x3b
 1622 0b5e B4000000 		.4byte	0xb4
 1623 0b62 0A       		.byte	0xa
 1624 0b63 08       		.uleb128 0x8
 1625 0b64 22000000 		.4byte	.LASF150
 1626 0b68 11       		.byte	0x11
 1627 0b69 3C       		.byte	0x3c
 1628 0b6a B4000000 		.4byte	0xb4
 1629 0b6e 0B       		.byte	0xb
 1630 0b6f 08       		.uleb128 0x8
 1631 0b70 00000000 		.4byte	.LASF151
 1632 0b74 11       		.byte	0x11
 1633 0b75 3D       		.byte	0x3d
 1634 0b76 B4000000 		.4byte	0xb4
 1635 0b7a 0C       		.byte	0xc
 1636 0b7b 08       		.uleb128 0x8
 1637 0b7c 1C060000 		.4byte	.LASF152
 1638 0b80 11       		.byte	0x11
 1639 0b81 3E       		.byte	0x3e
 1640 0b82 B4000000 		.4byte	0xb4
 1641 0b86 0D       		.byte	0xd
 1642 0b87 08       		.uleb128 0x8
 1643 0b88 07010000 		.4byte	.LASF153
 1644 0b8c 11       		.byte	0x11
 1645 0b8d 3F       		.byte	0x3f
 1646 0b8e B4000000 		.4byte	0xb4
 1647 0b92 0E       		.byte	0xe
 1648 0b93 08       		.uleb128 0x8
 1649 0b94 83080000 		.4byte	.LASF154
 1650 0b98 11       		.byte	0x11
 1651 0b99 40       		.byte	0x40
 1652 0b9a B4000000 		.4byte	0xb4
 1653 0b9e 0F       		.byte	0xf
ARM GAS  C:\Users\14122\AppData\Local\Temp\ccvyTxJM.s 			page 30


 1654 0b9f 08       		.uleb128 0x8
 1655 0ba0 15050000 		.4byte	.LASF155
 1656 0ba4 11       		.byte	0x11
 1657 0ba5 41       		.byte	0x41
 1658 0ba6 B4000000 		.4byte	0xb4
 1659 0baa 10       		.byte	0x10
 1660 0bab 08       		.uleb128 0x8
 1661 0bac 25040000 		.4byte	.LASF156
 1662 0bb0 11       		.byte	0x11
 1663 0bb1 42       		.byte	0x42
 1664 0bb2 B4000000 		.4byte	0xb4
 1665 0bb6 11       		.byte	0x11
 1666 0bb7 08       		.uleb128 0x8
 1667 0bb8 970B0000 		.4byte	.LASF157
 1668 0bbc 11       		.byte	0x11
 1669 0bbd 43       		.byte	0x43
 1670 0bbe B4000000 		.4byte	0xb4
 1671 0bc2 12       		.byte	0x12
 1672 0bc3 08       		.uleb128 0x8
 1673 0bc4 38030000 		.4byte	.LASF158
 1674 0bc8 11       		.byte	0x11
 1675 0bc9 44       		.byte	0x44
 1676 0bca B4000000 		.4byte	0xb4
 1677 0bce 13       		.byte	0x13
 1678 0bcf 08       		.uleb128 0x8
 1679 0bd0 43000000 		.4byte	.LASF159
 1680 0bd4 11       		.byte	0x11
 1681 0bd5 45       		.byte	0x45
 1682 0bd6 B4000000 		.4byte	0xb4
 1683 0bda 14       		.byte	0x14
 1684 0bdb 08       		.uleb128 0x8
 1685 0bdc A1030000 		.4byte	.LASF160
 1686 0be0 11       		.byte	0x11
 1687 0be1 46       		.byte	0x46
 1688 0be2 B4000000 		.4byte	0xb4
 1689 0be6 15       		.byte	0x15
 1690 0be7 00       		.byte	0
 1691 0be8 11       		.uleb128 0x11
 1692 0be9 CD0A0000 		.4byte	0xacd
 1693 0bed F80B0000 		.4byte	0xbf8
 1694 0bf1 12       		.uleb128 0x12
 1695 0bf2 37000000 		.4byte	0x37
 1696 0bf6 03       		.byte	0x3
 1697 0bf7 00       		.byte	0
 1698 0bf8 03       		.uleb128 0x3
 1699 0bf9 5D0B0000 		.4byte	.LASF161
 1700 0bfd 11       		.byte	0x11
 1701 0bfe 47       		.byte	0x47
 1702 0bff 070B0000 		.4byte	0xb07
 1703 0c03 05       		.uleb128 0x5
 1704 0c04 F80B0000 		.4byte	0xbf8
 1705 0c08 14       		.uleb128 0x14
 1706 0c09 5D000000 		.4byte	.LASF162
 1707 0c0d 11       		.byte	0x11
 1708 0c0e 6C       		.byte	0x6c
 1709 0c0f 030C0000 		.4byte	0xc03
 1710 0c13 03       		.uleb128 0x3
ARM GAS  C:\Users\14122\AppData\Local\Temp\ccvyTxJM.s 			page 31


 1711 0c14 B30A0000 		.4byte	.LASF163
 1712 0c18 0F       		.byte	0xf
 1713 0c19 34       		.byte	0x34
 1714 0c1a 8B0A0000 		.4byte	0xa8b
 1715 0c1e 0C       		.uleb128 0xc
 1716 0c1f 04       		.byte	0x4
 1717 0c20 130C0000 		.4byte	0xc13
 1718 0c24 03       		.uleb128 0x3
 1719 0c25 6E030000 		.4byte	.LASF164
 1720 0c29 12       		.byte	0x12
 1721 0c2a 34       		.byte	0x34
 1722 0c2b 2F0C0000 		.4byte	0xc2f
 1723 0c2f 07       		.uleb128 0x7
 1724 0c30 280B0000 		.4byte	.LASF165
 1725 0c34 14       		.byte	0x14
 1726 0c35 12       		.byte	0x12
 1727 0c36 39       		.byte	0x39
 1728 0c37 780C0000 		.4byte	0xc78
 1729 0c3b 08       		.uleb128 0x8
 1730 0c3c B10B0000 		.4byte	.LASF50
 1731 0c40 12       		.byte	0x12
 1732 0c41 3A       		.byte	0x3a
 1733 0c42 780C0000 		.4byte	0xc78
 1734 0c46 00       		.byte	0
 1735 0c47 08       		.uleb128 0x8
 1736 0c48 B6090000 		.4byte	.LASF166
 1737 0c4c 12       		.byte	0x12
 1738 0c4d 3D       		.byte	0x3d
 1739 0c4e 56020000 		.4byte	0x256
 1740 0c52 04       		.byte	0x4
 1741 0c53 08       		.uleb128 0x8
 1742 0c54 AA0B0000 		.4byte	.LASF167
 1743 0c58 12       		.byte	0x12
 1744 0c59 3F       		.byte	0x3f
 1745 0c5a 36010000 		.4byte	0x136
 1746 0c5e 08       		.byte	0x8
 1747 0c5f 08       		.uleb128 0x8
 1748 0c60 41030000 		.4byte	.LASF38
 1749 0c64 12       		.byte	0x12
 1750 0c65 41       		.byte	0x41
 1751 0c66 41010000 		.4byte	0x141
 1752 0c6a 0C       		.byte	0xc
 1753 0c6b 08       		.uleb128 0x8
 1754 0c6c 9A070000 		.4byte	.LASF168
 1755 0c70 12       		.byte	0x12
 1756 0c71 43       		.byte	0x43
 1757 0c72 41010000 		.4byte	0x141
 1758 0c76 10       		.byte	0x10
 1759 0c77 00       		.byte	0
 1760 0c78 0C       		.uleb128 0xc
 1761 0c79 04       		.byte	0x4
 1762 0c7a 240C0000 		.4byte	0xc24
 1763 0c7e 07       		.uleb128 0x7
 1764 0c7f 130A0000 		.4byte	.LASF169
 1765 0c83 04       		.byte	0x4
 1766 0c84 12       		.byte	0x12
 1767 0c85 4A       		.byte	0x4a
ARM GAS  C:\Users\14122\AppData\Local\Temp\ccvyTxJM.s 			page 32


 1768 0c86 970C0000 		.4byte	0xc97
 1769 0c8a 08       		.uleb128 0x8
 1770 0c8b B10B0000 		.4byte	.LASF50
 1771 0c8f 12       		.byte	0x12
 1772 0c90 4B       		.byte	0x4b
 1773 0c91 780C0000 		.4byte	0xc78
 1774 0c95 00       		.byte	0
 1775 0c96 00       		.byte	0
 1776 0c97 03       		.uleb128 0x3
 1777 0c98 C4050000 		.4byte	.LASF170
 1778 0c9c 12       		.byte	0x12
 1779 0c9d 4E       		.byte	0x4e
 1780 0c9e 7E0C0000 		.4byte	0xc7e
 1781 0ca2 04       		.uleb128 0x4
 1782 0ca3 01       		.byte	0x1
 1783 0ca4 02       		.byte	0x2
 1784 0ca5 E0020000 		.4byte	.LASF171
 1785 0ca9 03       		.uleb128 0x3
 1786 0caa E6020000 		.4byte	.LASF172
 1787 0cae 13       		.byte	0x13
 1788 0caf 47       		.byte	0x47
 1789 0cb0 B40C0000 		.4byte	0xcb4
 1790 0cb4 0C       		.uleb128 0xc
 1791 0cb5 04       		.byte	0x4
 1792 0cb6 BA0C0000 		.4byte	0xcba
 1793 0cba 20       		.uleb128 0x20
 1794 0cbb 33030000 		.4byte	0x333
 1795 0cbf CE0C0000 		.4byte	0xcce
 1796 0cc3 0F       		.uleb128 0xf
 1797 0cc4 2C000000 		.4byte	0x2c
 1798 0cc8 0F       		.uleb128 0xf
 1799 0cc9 37000000 		.4byte	0x37
 1800 0ccd 00       		.byte	0
 1801 0cce 15       		.uleb128 0x15
 1802 0ccf 08       		.byte	0x8
 1803 0cd0 13       		.byte	0x13
 1804 0cd1 51       		.byte	0x51
 1805 0cd2 EF0C0000 		.4byte	0xcef
 1806 0cd6 08       		.uleb128 0x8
 1807 0cd7 0A040000 		.4byte	.LASF173
 1808 0cdb 13       		.byte	0x13
 1809 0cdc 55       		.byte	0x55
 1810 0cdd EF0C0000 		.4byte	0xcef
 1811 0ce1 00       		.byte	0
 1812 0ce2 08       		.uleb128 0x8
 1813 0ce3 2B000000 		.4byte	.LASF174
 1814 0ce7 13       		.byte	0x13
 1815 0ce8 59       		.byte	0x59
 1816 0ce9 EF0C0000 		.4byte	0xcef
 1817 0ced 04       		.byte	0x4
 1818 0cee 00       		.byte	0
 1819 0cef 0C       		.uleb128 0xc
 1820 0cf0 04       		.byte	0x4
 1821 0cf1 B4000000 		.4byte	0xb4
 1822 0cf5 03       		.uleb128 0x3
 1823 0cf6 ED010000 		.4byte	.LASF175
 1824 0cfa 13       		.byte	0x13
ARM GAS  C:\Users\14122\AppData\Local\Temp\ccvyTxJM.s 			page 33


 1825 0cfb 5A       		.byte	0x5a
 1826 0cfc CE0C0000 		.4byte	0xcce
 1827 0d00 14       		.uleb128 0x14
 1828 0d01 8C0B0000 		.4byte	.LASF176
 1829 0d05 13       		.byte	0x13
 1830 0d06 65       		.byte	0x65
 1831 0d07 F50C0000 		.4byte	0xcf5
 1832 0d0b 07       		.uleb128 0x7
 1833 0d0c 22050000 		.4byte	.LASF177
 1834 0d10 04       		.byte	0x4
 1835 0d11 14       		.byte	0x14
 1836 0d12 38       		.byte	0x38
 1837 0d13 240D0000 		.4byte	0xd24
 1838 0d17 08       		.uleb128 0x8
 1839 0d18 B10B0000 		.4byte	.LASF50
 1840 0d1c 14       		.byte	0x14
 1841 0d1d 39       		.byte	0x39
 1842 0d1e 240D0000 		.4byte	0xd24
 1843 0d22 00       		.byte	0
 1844 0d23 00       		.byte	0
 1845 0d24 0C       		.uleb128 0xc
 1846 0d25 04       		.byte	0x4
 1847 0d26 0B0D0000 		.4byte	0xd0b
 1848 0d2a 15       		.uleb128 0x15
 1849 0d2b 10       		.byte	0x10
 1850 0d2c 14       		.byte	0x14
 1851 0d2d 40       		.byte	0x40
 1852 0d2e 630D0000 		.4byte	0xd63
 1853 0d32 08       		.uleb128 0x8
 1854 0d33 B10B0000 		.4byte	.LASF50
 1855 0d37 14       		.byte	0x14
 1856 0d38 41       		.byte	0x41
 1857 0d39 240D0000 		.4byte	0xd24
 1858 0d3d 00       		.byte	0
 1859 0d3e 08       		.uleb128 0x8
 1860 0d3f 900A0000 		.4byte	.LASF178
 1861 0d43 14       		.byte	0x14
 1862 0d44 42       		.byte	0x42
 1863 0d45 2C000000 		.4byte	0x2c
 1864 0d49 04       		.byte	0x4
 1865 0d4a 08       		.uleb128 0x8
 1866 0d4b D3050000 		.4byte	.LASF179
 1867 0d4f 14       		.byte	0x14
 1868 0d50 44       		.byte	0x44
 1869 0d51 37000000 		.4byte	0x37
 1870 0d55 08       		.byte	0x8
 1871 0d56 08       		.uleb128 0x8
 1872 0d57 66000000 		.4byte	.LASF180
 1873 0d5b 14       		.byte	0x14
 1874 0d5c 45       		.byte	0x45
 1875 0d5d A90C0000 		.4byte	0xca9
 1876 0d61 0C       		.byte	0xc
 1877 0d62 00       		.byte	0
 1878 0d63 03       		.uleb128 0x3
 1879 0d64 49090000 		.4byte	.LASF181
 1880 0d68 14       		.byte	0x14
 1881 0d69 47       		.byte	0x47
ARM GAS  C:\Users\14122\AppData\Local\Temp\ccvyTxJM.s 			page 34


 1882 0d6a 2A0D0000 		.4byte	0xd2a
 1883 0d6e 07       		.uleb128 0x7
 1884 0d6f AD000000 		.4byte	.LASF182
 1885 0d73 10       		.byte	0x10
 1886 0d74 15       		.byte	0x15
 1887 0d75 93       		.byte	0x93
 1888 0d76 9F0D0000 		.4byte	0xd9f
 1889 0d7a 08       		.uleb128 0x8
 1890 0d7b B10B0000 		.4byte	.LASF50
 1891 0d7f 15       		.byte	0x15
 1892 0d80 97       		.byte	0x97
 1893 0d81 9F0D0000 		.4byte	0xd9f
 1894 0d85 00       		.byte	0
 1895 0d86 08       		.uleb128 0x8
 1896 0d87 D3080000 		.4byte	.LASF39
 1897 0d8b 15       		.byte	0x15
 1898 0d8c 9B       		.byte	0x9b
 1899 0d8d 57010000 		.4byte	0x157
 1900 0d91 04       		.byte	0x4
 1901 0d92 08       		.uleb128 0x8
 1902 0d93 B1090000 		.4byte	.LASF35
 1903 0d97 15       		.byte	0x15
 1904 0d98 9D       		.byte	0x9d
 1905 0d99 A50D0000 		.4byte	0xda5
 1906 0d9d 08       		.byte	0x8
 1907 0d9e 00       		.byte	0
 1908 0d9f 0C       		.uleb128 0xc
 1909 0da0 04       		.byte	0x4
 1910 0da1 6E0D0000 		.4byte	0xd6e
 1911 0da5 11       		.uleb128 0x11
 1912 0da6 CD0A0000 		.4byte	0xacd
 1913 0daa B50D0000 		.4byte	0xdb5
 1914 0dae 12       		.uleb128 0x12
 1915 0daf 37000000 		.4byte	0x37
 1916 0db3 07       		.byte	0x7
 1917 0db4 00       		.byte	0
 1918 0db5 03       		.uleb128 0x3
 1919 0db6 CC030000 		.4byte	.LASF183
 1920 0dba 15       		.byte	0x15
 1921 0dbb A1       		.byte	0xa1
 1922 0dbc 6E0D0000 		.4byte	0xd6e
 1923 0dc0 07       		.uleb128 0x7
 1924 0dc1 C90B0000 		.4byte	.LASF184
 1925 0dc5 04       		.byte	0x4
 1926 0dc6 15       		.byte	0x15
 1927 0dc7 A6       		.byte	0xa6
 1928 0dc8 D90D0000 		.4byte	0xdd9
 1929 0dcc 08       		.uleb128 0x8
 1930 0dcd B10B0000 		.4byte	.LASF50
 1931 0dd1 15       		.byte	0x15
 1932 0dd2 A7       		.byte	0xa7
 1933 0dd3 D90D0000 		.4byte	0xdd9
 1934 0dd7 00       		.byte	0
 1935 0dd8 00       		.byte	0
 1936 0dd9 0C       		.uleb128 0xc
 1937 0dda 04       		.byte	0x4
 1938 0ddb B50D0000 		.4byte	0xdb5
ARM GAS  C:\Users\14122\AppData\Local\Temp\ccvyTxJM.s 			page 35


 1939 0ddf 03       		.uleb128 0x3
 1940 0de0 6A0A0000 		.4byte	.LASF185
 1941 0de4 15       		.byte	0x15
 1942 0de5 A8       		.byte	0xa8
 1943 0de6 C00D0000 		.4byte	0xdc0
 1944 0dea 0D       		.uleb128 0xd
 1945 0deb A3050000 		.4byte	.LASF186
 1946 0def 44       		.byte	0x44
 1947 0df0 15       		.byte	0x15
 1948 0df1 1101     		.2byte	0x111
 1949 0df3 600E0000 		.4byte	0xe60
 1950 0df7 0A       		.uleb128 0xa
 1951 0df8 6D747800 		.ascii	"mtx\000"
 1952 0dfc 15       		.byte	0x15
 1953 0dfd 1601     		.2byte	0x116
 1954 0dff 130C0000 		.4byte	0xc13
 1955 0e03 00       		.byte	0
 1956 0e04 0B       		.uleb128 0xb
 1957 0e05 F5000000 		.4byte	.LASF187
 1958 0e09 15       		.byte	0x15
 1959 0e0a 1D01     		.2byte	0x11d
 1960 0e0c DF0D0000 		.4byte	0xddf
 1961 0e10 10       		.byte	0x10
 1962 0e11 0B       		.uleb128 0xb
 1963 0e12 AE010000 		.4byte	.LASF188
 1964 0e16 15       		.byte	0x15
 1965 0e17 2101     		.2byte	0x121
 1966 0e19 630D0000 		.4byte	0xd63
 1967 0e1d 14       		.byte	0x14
 1968 0e1e 0B       		.uleb128 0xb
 1969 0e1f 06080000 		.4byte	.LASF189
 1970 0e23 15       		.byte	0x15
 1971 0e24 2601     		.2byte	0x126
 1972 0e26 DF0D0000 		.4byte	0xddf
 1973 0e2a 24       		.byte	0x24
 1974 0e2b 0B       		.uleb128 0xb
 1975 0e2c 12030000 		.4byte	.LASF190
 1976 0e30 15       		.byte	0x15
 1977 0e31 2C01     		.2byte	0x12c
 1978 0e33 DF0D0000 		.4byte	0xddf
 1979 0e37 28       		.byte	0x28
 1980 0e38 0B       		.uleb128 0xb
 1981 0e39 F5030000 		.4byte	.LASF191
 1982 0e3d 15       		.byte	0x15
 1983 0e3e 3001     		.2byte	0x130
 1984 0e40 630D0000 		.4byte	0xd63
 1985 0e44 2C       		.byte	0x2c
 1986 0e45 0B       		.uleb128 0xb
 1987 0e46 FD080000 		.4byte	.LASF192
 1988 0e4a 15       		.byte	0x15
 1989 0e4b 3601     		.2byte	0x136
 1990 0e4d DF0D0000 		.4byte	0xddf
 1991 0e51 3C       		.byte	0x3c
 1992 0e52 0B       		.uleb128 0xb
 1993 0e53 CE040000 		.4byte	.LASF193
 1994 0e57 15       		.byte	0x15
 1995 0e58 3C01     		.2byte	0x13c
ARM GAS  C:\Users\14122\AppData\Local\Temp\ccvyTxJM.s 			page 36


 1996 0e5a DF0D0000 		.4byte	0xddf
 1997 0e5e 40       		.byte	0x40
 1998 0e5f 00       		.byte	0
 1999 0e60 19       		.uleb128 0x19
 2000 0e61 E3070000 		.4byte	.LASF194
 2001 0e65 15       		.byte	0x15
 2002 0e66 3E01     		.2byte	0x13e
 2003 0e68 EA0D0000 		.4byte	0xdea
 2004 0e6c 13       		.uleb128 0x13
 2005 0e6d EA080000 		.4byte	.LASF195
 2006 0e71 15       		.byte	0x15
 2007 0e72 4901     		.2byte	0x149
 2008 0e74 600E0000 		.4byte	0xe60
 2009 0e78 15       		.uleb128 0x15
 2010 0e79 10       		.byte	0x10
 2011 0e7a 16       		.byte	0x16
 2012 0e7b F0       		.byte	0xf0
 2013 0e7c D50E0000 		.4byte	0xed5
 2014 0e80 09       		.uleb128 0x9
 2015 0e81 646D6100 		.ascii	"dma\000"
 2016 0e85 16       		.byte	0x16
 2017 0e86 F1       		.byte	0xf1
 2018 0e87 D50E0000 		.4byte	0xed5
 2019 0e8b 00       		.byte	0
 2020 0e8c 08       		.uleb128 0x8
 2021 0e8d 77040000 		.4byte	.LASF196
 2022 0e91 16       		.byte	0x16
 2023 0e92 F2       		.byte	0xf2
 2024 0e93 DB0E0000 		.4byte	0xedb
 2025 0e97 04       		.byte	0x4
 2026 0e98 08       		.uleb128 0x8
 2027 0e99 0F080000 		.4byte	.LASF197
 2028 0e9d 16       		.byte	0x16
 2029 0e9e F3       		.byte	0xf3
 2030 0e9f E4000000 		.4byte	0xe4
 2031 0ea3 08       		.byte	0x8
 2032 0ea4 08       		.uleb128 0x8
 2033 0ea5 8F090000 		.4byte	.LASF198
 2034 0ea9 16       		.byte	0x16
 2035 0eaa FA       		.byte	0xfa
 2036 0eab B4000000 		.4byte	0xb4
 2037 0eaf 0C       		.byte	0xc
 2038 0eb0 08       		.uleb128 0x8
 2039 0eb1 71040000 		.4byte	.LASF199
 2040 0eb5 16       		.byte	0x16
 2041 0eb6 FC       		.byte	0xfc
 2042 0eb7 B4000000 		.4byte	0xb4
 2043 0ebb 0D       		.byte	0xd
 2044 0ebc 08       		.uleb128 0x8
 2045 0ebd 26060000 		.4byte	.LASF200
 2046 0ec1 16       		.byte	0x16
 2047 0ec2 FE       		.byte	0xfe
 2048 0ec3 B4000000 		.4byte	0xb4
 2049 0ec7 0E       		.byte	0xe
 2050 0ec8 08       		.uleb128 0x8
 2051 0ec9 E3080000 		.4byte	.LASF201
 2052 0ecd 16       		.byte	0x16
ARM GAS  C:\Users\14122\AppData\Local\Temp\ccvyTxJM.s 			page 37


 2053 0ece FF       		.byte	0xff
 2054 0ecf B4000000 		.4byte	0xb4
 2055 0ed3 0F       		.byte	0xf
 2056 0ed4 00       		.byte	0
 2057 0ed5 0C       		.uleb128 0xc
 2058 0ed6 04       		.byte	0x4
 2059 0ed7 7F070000 		.4byte	0x77f
 2060 0edb 0C       		.uleb128 0xc
 2061 0edc 04       		.byte	0x4
 2062 0edd 4F070000 		.4byte	0x74f
 2063 0ee1 19       		.uleb128 0x19
 2064 0ee2 08000000 		.4byte	.LASF202
 2065 0ee6 16       		.byte	0x16
 2066 0ee7 0001     		.2byte	0x100
 2067 0ee9 780E0000 		.4byte	0xe78
 2068 0eed 05       		.uleb128 0x5
 2069 0eee E10E0000 		.4byte	0xee1
 2070 0ef2 19       		.uleb128 0x19
 2071 0ef3 46060000 		.4byte	.LASF203
 2072 0ef7 16       		.byte	0x16
 2073 0ef8 0901     		.2byte	0x109
 2074 0efa FE0E0000 		.4byte	0xefe
 2075 0efe 0C       		.uleb128 0xc
 2076 0eff 04       		.byte	0x4
 2077 0f00 040F0000 		.4byte	0xf04
 2078 0f04 0E       		.uleb128 0xe
 2079 0f05 140F0000 		.4byte	0xf14
 2080 0f09 0F       		.uleb128 0xf
 2081 0f0a 33030000 		.4byte	0x333
 2082 0f0e 0F       		.uleb128 0xf
 2083 0f0f E4000000 		.4byte	0xe4
 2084 0f13 00       		.byte	0
 2085 0f14 1A       		.uleb128 0x1a
 2086 0f15 08       		.byte	0x8
 2087 0f16 16       		.byte	0x16
 2088 0f17 0E01     		.2byte	0x10e
 2089 0f19 380F0000 		.4byte	0xf38
 2090 0f1d 0B       		.uleb128 0xb
 2091 0f1e AA030000 		.4byte	.LASF204
 2092 0f22 16       		.byte	0x16
 2093 0f23 0F01     		.2byte	0x10f
 2094 0f25 F20E0000 		.4byte	0xef2
 2095 0f29 00       		.byte	0
 2096 0f2a 0B       		.uleb128 0xb
 2097 0f2b 860A0000 		.4byte	.LASF205
 2098 0f2f 16       		.byte	0x16
 2099 0f30 1001     		.2byte	0x110
 2100 0f32 33030000 		.4byte	0x333
 2101 0f36 04       		.byte	0x4
 2102 0f37 00       		.byte	0
 2103 0f38 19       		.uleb128 0x19
 2104 0f39 94060000 		.4byte	.LASF206
 2105 0f3d 16       		.byte	0x16
 2106 0f3e 1101     		.2byte	0x111
 2107 0f40 140F0000 		.4byte	0xf14
 2108 0f44 11       		.uleb128 0x11
 2109 0f45 ED0E0000 		.4byte	0xeed
ARM GAS  C:\Users\14122\AppData\Local\Temp\ccvyTxJM.s 			page 38


 2110 0f49 540F0000 		.4byte	0xf54
 2111 0f4d 12       		.uleb128 0x12
 2112 0f4e 37000000 		.4byte	0x37
 2113 0f52 06       		.byte	0x6
 2114 0f53 00       		.byte	0
 2115 0f54 05       		.uleb128 0x5
 2116 0f55 440F0000 		.4byte	0xf44
 2117 0f59 13       		.uleb128 0x13
 2118 0f5a B1040000 		.4byte	.LASF207
 2119 0f5e 16       		.byte	0x16
 2120 0f5f DF01     		.2byte	0x1df
 2121 0f61 540F0000 		.4byte	0xf54
 2122 0f65 11       		.uleb128 0x11
 2123 0f66 380F0000 		.4byte	0xf38
 2124 0f6a 750F0000 		.4byte	0xf75
 2125 0f6e 12       		.uleb128 0x12
 2126 0f6f 37000000 		.4byte	0x37
 2127 0f73 06       		.byte	0x6
 2128 0f74 00       		.byte	0
 2129 0f75 13       		.uleb128 0x13
 2130 0f76 F4090000 		.4byte	.LASF208
 2131 0f7a 16       		.byte	0x16
 2132 0f7b E001     		.2byte	0x1e0
 2133 0f7d 650F0000 		.4byte	0xf65
 2134 0f81 21       		.uleb128 0x21
 2135 0f82 00       		.byte	0
 2136 0f83 17       		.byte	0x17
 2137 0f84 99       		.byte	0x99
 2138 0f85 03       		.uleb128 0x3
 2139 0f86 2D030000 		.4byte	.LASF209
 2140 0f8a 17       		.byte	0x17
 2141 0f8b AA       		.byte	0xaa
 2142 0f8c 810F0000 		.4byte	0xf81
 2143 0f90 15       		.uleb128 0x15
 2144 0f91 0C       		.byte	0xc
 2145 0f92 18       		.byte	0x18
 2146 0f93 68       		.byte	0x68
 2147 0f94 BD0F0000 		.4byte	0xfbd
 2148 0f98 09       		.uleb128 0x9
 2149 0f99 6F647200 		.ascii	"odr\000"
 2150 0f9d 18       		.byte	0x18
 2151 0f9e 6A       		.byte	0x6a
 2152 0f9f E4000000 		.4byte	0xe4
 2153 0fa3 00       		.byte	0
 2154 0fa4 09       		.uleb128 0x9
 2155 0fa5 63726C00 		.ascii	"crl\000"
 2156 0fa9 18       		.byte	0x18
 2157 0faa 6C       		.byte	0x6c
 2158 0fab E4000000 		.4byte	0xe4
 2159 0faf 04       		.byte	0x4
 2160 0fb0 09       		.uleb128 0x9
 2161 0fb1 63726800 		.ascii	"crh\000"
 2162 0fb5 18       		.byte	0x18
 2163 0fb6 6E       		.byte	0x6e
 2164 0fb7 E4000000 		.4byte	0xe4
 2165 0fbb 08       		.byte	0x8
 2166 0fbc 00       		.byte	0
ARM GAS  C:\Users\14122\AppData\Local\Temp\ccvyTxJM.s 			page 39


 2167 0fbd 03       		.uleb128 0x3
 2168 0fbe 16010000 		.4byte	.LASF210
 2169 0fc2 18       		.byte	0x18
 2170 0fc3 6F       		.byte	0x6f
 2171 0fc4 900F0000 		.4byte	0xf90
 2172 0fc8 15       		.uleb128 0x15
 2173 0fc9 3C       		.byte	0x3c
 2174 0fca 18       		.byte	0x18
 2175 0fcb 78       		.byte	0x78
 2176 0fcc 0D100000 		.4byte	0x100d
 2177 0fd0 08       		.uleb128 0x8
 2178 0fd1 64080000 		.4byte	.LASF211
 2179 0fd5 18       		.byte	0x18
 2180 0fd6 7A       		.byte	0x7a
 2181 0fd7 BD0F0000 		.4byte	0xfbd
 2182 0fdb 00       		.byte	0
 2183 0fdc 08       		.uleb128 0x8
 2184 0fdd E6050000 		.4byte	.LASF212
 2185 0fe1 18       		.byte	0x18
 2186 0fe2 7C       		.byte	0x7c
 2187 0fe3 BD0F0000 		.4byte	0xfbd
 2188 0fe7 0C       		.byte	0xc
 2189 0fe8 08       		.uleb128 0x8
 2190 0fe9 03040000 		.4byte	.LASF213
 2191 0fed 18       		.byte	0x18
 2192 0fee 7E       		.byte	0x7e
 2193 0fef BD0F0000 		.4byte	0xfbd
 2194 0ff3 18       		.byte	0x18
 2195 0ff4 08       		.uleb128 0x8
 2196 0ff5 AF020000 		.4byte	.LASF214
 2197 0ff9 18       		.byte	0x18
 2198 0ffa 80       		.byte	0x80
 2199 0ffb BD0F0000 		.4byte	0xfbd
 2200 0fff 24       		.byte	0x24
 2201 1000 08       		.uleb128 0x8
 2202 1001 D6000000 		.4byte	.LASF215
 2203 1005 18       		.byte	0x18
 2204 1006 83       		.byte	0x83
 2205 1007 BD0F0000 		.4byte	0xfbd
 2206 100b 30       		.byte	0x30
 2207 100c 00       		.byte	0
 2208 100d 03       		.uleb128 0x3
 2209 100e 7C0A0000 		.4byte	.LASF216
 2210 1012 18       		.byte	0x18
 2211 1013 8D       		.byte	0x8d
 2212 1014 C80F0000 		.4byte	0xfc8
 2213 1018 05       		.uleb128 0x5
 2214 1019 0D100000 		.4byte	0x100d
 2215 101d 13       		.uleb128 0x13
 2216 101e D5010000 		.4byte	.LASF217
 2217 1022 18       		.byte	0x18
 2218 1023 A001     		.2byte	0x1a0
 2219 1025 18100000 		.4byte	0x1018
 2220 1029 11       		.uleb128 0x11
 2221 102a 850F0000 		.4byte	0xf85
 2222 102e 39100000 		.4byte	0x1039
 2223 1032 12       		.uleb128 0x12
ARM GAS  C:\Users\14122\AppData\Local\Temp\ccvyTxJM.s 			page 40


 2224 1033 37000000 		.4byte	0x37
 2225 1037 0F       		.byte	0xf
 2226 1038 00       		.byte	0
 2227 1039 13       		.uleb128 0x13
 2228 103a 79070000 		.4byte	.LASF218
 2229 103e 18       		.byte	0x18
 2230 103f A101     		.2byte	0x1a1
 2231 1041 29100000 		.4byte	0x1029
 2232 1045 22       		.uleb128 0x22
 2233 1046 07       		.byte	0x7
 2234 1047 01       		.byte	0x1
 2235 1048 5E000000 		.4byte	0x5e
 2236 104c 19       		.byte	0x19
 2237 104d 66       		.byte	0x66
 2238 104e 71100000 		.4byte	0x1071
 2239 1052 23       		.uleb128 0x23
 2240 1053 F5050000 		.4byte	.LASF219
 2241 1057 00       		.byte	0
 2242 1058 23       		.uleb128 0x23
 2243 1059 A10B0000 		.4byte	.LASF220
 2244 105d 01       		.byte	0x1
 2245 105e 23       		.uleb128 0x23
 2246 105f 88050000 		.4byte	.LASF221
 2247 1063 02       		.byte	0x2
 2248 1064 23       		.uleb128 0x23
 2249 1065 92030000 		.4byte	.LASF222
 2250 1069 03       		.byte	0x3
 2251 106a 23       		.uleb128 0x23
 2252 106b 12060000 		.4byte	.LASF223
 2253 106f 04       		.byte	0x4
 2254 1070 00       		.byte	0
 2255 1071 03       		.uleb128 0x3
 2256 1072 87030000 		.4byte	.LASF224
 2257 1076 19       		.byte	0x19
 2258 1077 6C       		.byte	0x6c
 2259 1078 45100000 		.4byte	0x1045
 2260 107c 03       		.uleb128 0x3
 2261 107d 3C010000 		.4byte	.LASF225
 2262 1081 1A       		.byte	0x1a
 2263 1082 C2       		.byte	0xc2
 2264 1083 87100000 		.4byte	0x1087
 2265 1087 0D       		.uleb128 0xd
 2266 1088 3C010000 		.4byte	.LASF225
 2267 108c 30       		.byte	0x30
 2268 108d 1A       		.byte	0x1a
 2269 108e 4801     		.2byte	0x148
 2270 1090 17110000 		.4byte	0x1117
 2271 1094 0B       		.uleb128 0xb
 2272 1095 D0000000 		.4byte	.LASF37
 2273 1099 1A       		.byte	0x1a
 2274 109a 4C01     		.2byte	0x14c
 2275 109c 71100000 		.4byte	0x1071
 2276 10a0 00       		.byte	0
 2277 10a1 0B       		.uleb128 0xb
 2278 10a2 C9000000 		.4byte	.LASF226
 2279 10a6 1A       		.byte	0x1a
 2280 10a7 5001     		.2byte	0x150
ARM GAS  C:\Users\14122\AppData\Local\Temp\ccvyTxJM.s 			page 41


 2281 10a9 4C110000 		.4byte	0x114c
 2282 10ad 04       		.byte	0x4
 2283 10ae 0B       		.uleb128 0xb
 2284 10af 460A0000 		.4byte	.LASF227
 2285 10b3 1A       		.byte	0x1a
 2286 10b4 5401     		.2byte	0x154
 2287 10b6 80020000 		.4byte	0x280
 2288 10ba 08       		.byte	0x8
 2289 10bb 0B       		.uleb128 0xb
 2290 10bc F5080000 		.4byte	.LASF228
 2291 10c0 1A       		.byte	0x1a
 2292 10c1 5801     		.2byte	0x158
 2293 10c3 80020000 		.4byte	0x280
 2294 10c7 10       		.byte	0x10
 2295 10c8 0B       		.uleb128 0xb
 2296 10c9 53020000 		.4byte	.LASF229
 2297 10cd 1A       		.byte	0x1a
 2298 10ce 6601     		.2byte	0x166
 2299 10d0 970C0000 		.4byte	0xc97
 2300 10d4 18       		.byte	0x18
 2301 10d5 0B       		.uleb128 0xb
 2302 10d6 EB0B0000 		.4byte	.LASF230
 2303 10da 1A       		.byte	0x1a
 2304 10db 6E01     		.2byte	0x16e
 2305 10dd 970C0000 		.4byte	0xc97
 2306 10e1 1C       		.byte	0x1c
 2307 10e2 0B       		.uleb128 0xb
 2308 10e3 7C060000 		.4byte	.LASF231
 2309 10e7 1A       		.byte	0x1a
 2310 10e8 7601     		.2byte	0x176
 2311 10ea 970C0000 		.4byte	0xc97
 2312 10ee 20       		.byte	0x20
 2313 10ef 0B       		.uleb128 0xb
 2314 10f0 80000000 		.4byte	.LASF232
 2315 10f4 1A       		.byte	0x1a
 2316 10f5 7B01     		.2byte	0x17b
 2317 10f7 970C0000 		.4byte	0xc97
 2318 10fb 24       		.byte	0x24
 2319 10fc 0B       		.uleb128 0xb
 2320 10fd BC000000 		.4byte	.LASF233
 2321 1101 1A       		.byte	0x1a
 2322 1102 7F01     		.2byte	0x17f
 2323 1104 970C0000 		.4byte	0xc97
 2324 1108 28       		.byte	0x28
 2325 1109 0A       		.uleb128 0xa
 2326 110a 63616E00 		.ascii	"can\000"
 2327 110e 1A       		.byte	0x1a
 2328 110f A201     		.2byte	0x1a2
 2329 1111 52110000 		.4byte	0x1152
 2330 1115 2C       		.byte	0x2c
 2331 1116 00       		.byte	0
 2332 1117 1A       		.uleb128 0x1a
 2333 1118 08       		.byte	0x8
 2334 1119 1A       		.byte	0x1a
 2335 111a 3601     		.2byte	0x136
 2336 111c 3B110000 		.4byte	0x113b
 2337 1120 0A       		.uleb128 0xa
ARM GAS  C:\Users\14122\AppData\Local\Temp\ccvyTxJM.s 			page 42


 2338 1121 6D637200 		.ascii	"mcr\000"
 2339 1125 1A       		.byte	0x1a
 2340 1126 3C01     		.2byte	0x13c
 2341 1128 E4000000 		.4byte	0xe4
 2342 112c 00       		.byte	0
 2343 112d 0A       		.uleb128 0xa
 2344 112e 62747200 		.ascii	"btr\000"
 2345 1132 1A       		.byte	0x1a
 2346 1133 4201     		.2byte	0x142
 2347 1135 E4000000 		.4byte	0xe4
 2348 1139 04       		.byte	0x4
 2349 113a 00       		.byte	0
 2350 113b 19       		.uleb128 0x19
 2351 113c E5000000 		.4byte	.LASF234
 2352 1140 1A       		.byte	0x1a
 2353 1141 4301     		.2byte	0x143
 2354 1143 17110000 		.4byte	0x1117
 2355 1147 05       		.uleb128 0x5
 2356 1148 3B110000 		.4byte	0x113b
 2357 114c 0C       		.uleb128 0xc
 2358 114d 04       		.byte	0x4
 2359 114e 47110000 		.4byte	0x1147
 2360 1152 0C       		.uleb128 0xc
 2361 1153 04       		.byte	0x4
 2362 1154 05070000 		.4byte	0x705
 2363 1158 13       		.uleb128 0x13
 2364 1159 E50B0000 		.4byte	.LASF235
 2365 115d 1A       		.byte	0x1a
 2366 115e AE01     		.2byte	0x1ae
 2367 1160 7C100000 		.4byte	0x107c
 2368 1164 22       		.uleb128 0x22
 2369 1165 07       		.byte	0x7
 2370 1166 01       		.byte	0x1
 2371 1167 5E000000 		.4byte	0x5e
 2372 116b 1B       		.byte	0x1b
 2373 116c 59       		.byte	0x59
 2374 116d 84110000 		.4byte	0x1184
 2375 1171 23       		.uleb128 0x23
 2376 1172 2E050000 		.4byte	.LASF236
 2377 1176 00       		.byte	0
 2378 1177 23       		.uleb128 0x23
 2379 1178 A3000000 		.4byte	.LASF237
 2380 117c 01       		.byte	0x1
 2381 117d 23       		.uleb128 0x23
 2382 117e FD020000 		.4byte	.LASF238
 2383 1182 02       		.byte	0x2
 2384 1183 00       		.byte	0
 2385 1184 03       		.uleb128 0x3
 2386 1185 4E0A0000 		.4byte	.LASF239
 2387 1189 1B       		.byte	0x1b
 2388 118a 5D       		.byte	0x5d
 2389 118b 64110000 		.4byte	0x1164
 2390 118f 22       		.uleb128 0x22
 2391 1190 07       		.byte	0x7
 2392 1191 01       		.byte	0x1
 2393 1192 5E000000 		.4byte	0x5e
 2394 1196 1B       		.byte	0x1b
ARM GAS  C:\Users\14122\AppData\Local\Temp\ccvyTxJM.s 			page 43


 2395 1197 62       		.byte	0x62
 2396 1198 AF110000 		.4byte	0x11af
 2397 119c 23       		.uleb128 0x23
 2398 119d ED0A0000 		.4byte	.LASF240
 2399 11a1 00       		.byte	0
 2400 11a2 23       		.uleb128 0x23
 2401 11a3 46010000 		.4byte	.LASF241
 2402 11a7 01       		.byte	0x1
 2403 11a8 23       		.uleb128 0x23
 2404 11a9 19090000 		.4byte	.LASF242
 2405 11ad 02       		.byte	0x2
 2406 11ae 00       		.byte	0
 2407 11af 03       		.uleb128 0x3
 2408 11b0 B7010000 		.4byte	.LASF243
 2409 11b4 1B       		.byte	0x1b
 2410 11b5 66       		.byte	0x66
 2411 11b6 8F110000 		.4byte	0x118f
 2412 11ba 22       		.uleb128 0x22
 2413 11bb 07       		.byte	0x7
 2414 11bc 01       		.byte	0x1
 2415 11bd 5E000000 		.4byte	0x5e
 2416 11c1 1B       		.byte	0x1b
 2417 11c2 6B       		.byte	0x6b
 2418 11c3 DA110000 		.4byte	0x11da
 2419 11c7 23       		.uleb128 0x23
 2420 11c8 9F090000 		.4byte	.LASF244
 2421 11cc 00       		.byte	0
 2422 11cd 23       		.uleb128 0x23
 2423 11ce 74080000 		.4byte	.LASF245
 2424 11d2 01       		.byte	0x1
 2425 11d3 23       		.uleb128 0x23
 2426 11d4 4A050000 		.4byte	.LASF246
 2427 11d8 02       		.byte	0x2
 2428 11d9 00       		.byte	0
 2429 11da 03       		.uleb128 0x3
 2430 11db 2A090000 		.4byte	.LASF247
 2431 11df 1B       		.byte	0x1b
 2432 11e0 6F       		.byte	0x6f
 2433 11e1 BA110000 		.4byte	0x11ba
 2434 11e5 19       		.uleb128 0x19
 2435 11e6 00060000 		.4byte	.LASF248
 2436 11ea 1C       		.byte	0x1c
 2437 11eb B301     		.2byte	0x1b3
 2438 11ed E4000000 		.4byte	0xe4
 2439 11f1 19       		.uleb128 0x19
 2440 11f2 55010000 		.4byte	.LASF249
 2441 11f6 1C       		.byte	0x1c
 2442 11f7 B801     		.2byte	0x1b8
 2443 11f9 FD110000 		.4byte	0x11fd
 2444 11fd 0D       		.uleb128 0xd
 2445 11fe 55010000 		.4byte	.LASF249
 2446 1202 1C       		.byte	0x1c
 2447 1203 1C       		.byte	0x1c
 2448 1204 0002     		.2byte	0x200
 2449 1206 80120000 		.4byte	0x1280
 2450 120a 0B       		.uleb128 0xb
 2451 120b D0000000 		.4byte	.LASF37
ARM GAS  C:\Users\14122\AppData\Local\Temp\ccvyTxJM.s 			page 44


 2452 120f 1C       		.byte	0x1c
 2453 1210 0402     		.2byte	0x204
 2454 1212 84110000 		.4byte	0x1184
 2455 1216 00       		.byte	0
 2456 1217 0B       		.uleb128 0xb
 2457 1218 9E010000 		.4byte	.LASF250
 2458 121c 1C       		.byte	0x1c
 2459 121d 0802     		.2byte	0x208
 2460 121f AF110000 		.4byte	0x11af
 2461 1223 01       		.byte	0x1
 2462 1224 0B       		.uleb128 0xb
 2463 1225 DD000000 		.4byte	.LASF251
 2464 1229 1C       		.byte	0x1c
 2465 122a 0C02     		.2byte	0x20c
 2466 122c DA110000 		.4byte	0x11da
 2467 1230 02       		.byte	0x2
 2468 1231 0B       		.uleb128 0xb
 2469 1232 C9000000 		.4byte	.LASF226
 2470 1236 1C       		.byte	0x1c
 2471 1237 1002     		.2byte	0x210
 2472 1239 77130000 		.4byte	0x1377
 2473 123d 04       		.byte	0x4
 2474 123e 0B       		.uleb128 0xb
 2475 123f CF010000 		.4byte	.LASF252
 2476 1243 1C       		.byte	0x1c
 2477 1244 2C02     		.2byte	0x22c
 2478 1246 7D130000 		.4byte	0x137d
 2479 124a 08       		.byte	0x8
 2480 124b 0B       		.uleb128 0xb
 2481 124c ED050000 		.4byte	.LASF253
 2482 1250 1C       		.byte	0x1c
 2483 1251 3002     		.2byte	0x230
 2484 1253 E4000000 		.4byte	0xe4
 2485 1257 0C       		.byte	0xc
 2486 1258 0B       		.uleb128 0xb
 2487 1259 61050000 		.4byte	.LASF254
 2488 125d 1C       		.byte	0x1c
 2489 125e 3402     		.2byte	0x234
 2490 1260 83130000 		.4byte	0x1383
 2491 1264 10       		.byte	0x10
 2492 1265 0B       		.uleb128 0xb
 2493 1266 0C060000 		.4byte	.LASF255
 2494 126a 1C       		.byte	0x1c
 2495 126b 3802     		.2byte	0x238
 2496 126d 83130000 		.4byte	0x1383
 2497 1271 14       		.byte	0x14
 2498 1272 0B       		.uleb128 0xb
 2499 1273 5B050000 		.4byte	.LASF256
 2500 1277 1C       		.byte	0x1c
 2501 1278 3C02     		.2byte	0x23c
 2502 127a CF000000 		.4byte	0xcf
 2503 127e 18       		.byte	0x18
 2504 127f 00       		.byte	0
 2505 1280 19       		.uleb128 0x19
 2506 1281 FA0A0000 		.4byte	.LASF257
 2507 1285 1C       		.byte	0x1c
 2508 1286 BF01     		.2byte	0x1bf
ARM GAS  C:\Users\14122\AppData\Local\Temp\ccvyTxJM.s 			page 45


 2509 1288 8C120000 		.4byte	0x128c
 2510 128c 0C       		.uleb128 0xc
 2511 128d 04       		.byte	0x4
 2512 128e 92120000 		.4byte	0x1292
 2513 1292 0E       		.uleb128 0xe
 2514 1293 9D120000 		.4byte	0x129d
 2515 1297 0F       		.uleb128 0xf
 2516 1298 9D120000 		.4byte	0x129d
 2517 129c 00       		.byte	0
 2518 129d 0C       		.uleb128 0xc
 2519 129e 04       		.byte	0x4
 2520 129f F1110000 		.4byte	0x11f1
 2521 12a3 19       		.uleb128 0x19
 2522 12a4 3F090000 		.4byte	.LASF258
 2523 12a8 1C       		.byte	0x1c
 2524 12a9 C701     		.2byte	0x1c7
 2525 12ab AF120000 		.4byte	0x12af
 2526 12af 0C       		.uleb128 0xc
 2527 12b0 04       		.byte	0x4
 2528 12b1 B5120000 		.4byte	0x12b5
 2529 12b5 0E       		.uleb128 0xe
 2530 12b6 C5120000 		.4byte	0x12c5
 2531 12ba 0F       		.uleb128 0xf
 2532 12bb 9D120000 		.4byte	0x129d
 2533 12bf 0F       		.uleb128 0xf
 2534 12c0 C4000000 		.4byte	0xc4
 2535 12c4 00       		.byte	0
 2536 12c5 19       		.uleb128 0x19
 2537 12c6 FB040000 		.4byte	.LASF259
 2538 12ca 1C       		.byte	0x1c
 2539 12cb CF01     		.2byte	0x1cf
 2540 12cd D1120000 		.4byte	0x12d1
 2541 12d1 0C       		.uleb128 0xc
 2542 12d2 04       		.byte	0x4
 2543 12d3 D7120000 		.4byte	0x12d7
 2544 12d7 0E       		.uleb128 0xe
 2545 12d8 E7120000 		.4byte	0x12e7
 2546 12dc 0F       		.uleb128 0xf
 2547 12dd 9D120000 		.4byte	0x129d
 2548 12e1 0F       		.uleb128 0xf
 2549 12e2 E5110000 		.4byte	0x11e5
 2550 12e6 00       		.byte	0
 2551 12e7 1A       		.uleb128 0x1a
 2552 12e8 20       		.byte	0x20
 2553 12e9 1C       		.byte	0x1c
 2554 12ea D501     		.2byte	0x1d5
 2555 12ec 66130000 		.4byte	0x1366
 2556 12f0 0B       		.uleb128 0xb
 2557 12f1 95090000 		.4byte	.LASF260
 2558 12f5 1C       		.byte	0x1c
 2559 12f6 D901     		.2byte	0x1d9
 2560 12f8 80120000 		.4byte	0x1280
 2561 12fc 00       		.byte	0
 2562 12fd 0B       		.uleb128 0xb
 2563 12fe C4040000 		.4byte	.LASF261
 2564 1302 1C       		.byte	0x1c
 2565 1303 DD01     		.2byte	0x1dd
ARM GAS  C:\Users\14122\AppData\Local\Temp\ccvyTxJM.s 			page 46


 2566 1305 80120000 		.4byte	0x1280
 2567 1309 04       		.byte	0x4
 2568 130a 0B       		.uleb128 0xb
 2569 130b FE000000 		.4byte	.LASF262
 2570 130f 1C       		.byte	0x1c
 2571 1310 E101     		.2byte	0x1e1
 2572 1312 80120000 		.4byte	0x1280
 2573 1316 08       		.byte	0x8
 2574 1317 0B       		.uleb128 0xb
 2575 1318 B9030000 		.4byte	.LASF263
 2576 131c 1C       		.byte	0x1c
 2577 131d E501     		.2byte	0x1e5
 2578 131f A3120000 		.4byte	0x12a3
 2579 1323 0C       		.byte	0xc
 2580 1324 0B       		.uleb128 0xb
 2581 1325 30060000 		.4byte	.LASF264
 2582 1329 1C       		.byte	0x1c
 2583 132a E901     		.2byte	0x1e9
 2584 132c C5120000 		.4byte	0x12c5
 2585 1330 10       		.byte	0x10
 2586 1331 0B       		.uleb128 0xb
 2587 1332 DA030000 		.4byte	.LASF265
 2588 1336 1C       		.byte	0x1c
 2589 1337 EE01     		.2byte	0x1ee
 2590 1339 E4000000 		.4byte	0xe4
 2591 133d 14       		.byte	0x14
 2592 133e 0A       		.uleb128 0xa
 2593 133f 63723100 		.ascii	"cr1\000"
 2594 1343 1C       		.byte	0x1c
 2595 1344 F201     		.2byte	0x1f2
 2596 1346 C4000000 		.4byte	0xc4
 2597 134a 18       		.byte	0x18
 2598 134b 0A       		.uleb128 0xa
 2599 134c 63723200 		.ascii	"cr2\000"
 2600 1350 1C       		.byte	0x1c
 2601 1351 F601     		.2byte	0x1f6
 2602 1353 C4000000 		.4byte	0xc4
 2603 1357 1A       		.byte	0x1a
 2604 1358 0A       		.uleb128 0xa
 2605 1359 63723300 		.ascii	"cr3\000"
 2606 135d 1C       		.byte	0x1c
 2607 135e FA01     		.2byte	0x1fa
 2608 1360 C4000000 		.4byte	0xc4
 2609 1364 1C       		.byte	0x1c
 2610 1365 00       		.byte	0
 2611 1366 19       		.uleb128 0x19
 2612 1367 49040000 		.4byte	.LASF266
 2613 136b 1C       		.byte	0x1c
 2614 136c FB01     		.2byte	0x1fb
 2615 136e E7120000 		.4byte	0x12e7
 2616 1372 05       		.uleb128 0x5
 2617 1373 66130000 		.4byte	0x1366
 2618 1377 0C       		.uleb128 0xc
 2619 1378 04       		.byte	0x4
 2620 1379 72130000 		.4byte	0x1372
 2621 137d 0C       		.uleb128 0xc
 2622 137e 04       		.byte	0x4
ARM GAS  C:\Users\14122\AppData\Local\Temp\ccvyTxJM.s 			page 47


 2623 137f 3C090000 		.4byte	0x93c
 2624 1383 0C       		.uleb128 0xc
 2625 1384 04       		.byte	0x4
 2626 1385 ED0E0000 		.4byte	0xeed
 2627 1389 13       		.uleb128 0x13
 2628 138a 7B0B0000 		.4byte	.LASF267
 2629 138e 1C       		.byte	0x1c
 2630 138f 4C02     		.2byte	0x24c
 2631 1391 F1110000 		.4byte	0x11f1
 2632 1395 24       		.uleb128 0x24
 2633 1396 81040000 		.4byte	0x481
 2634 139a 01       		.byte	0x1
 2635 139b 27       		.byte	0x27
 2636 139c 05       		.uleb128 0x5
 2637 139d 03       		.byte	0x3
 2638 139e 00000000 		.4byte	SystemCoreClock
 2639 13a2 25       		.uleb128 0x25
 2640 13a3 F5070000 		.4byte	.LASF273
 2641 13a7 01       		.byte	0x1
 2642 13a8 AD       		.byte	0xad
 2643 13a9 00000000 		.4byte	.LFB255
 2644 13ad 7C000000 		.4byte	.LFE255-.LFB255
 2645 13b1 01       		.uleb128 0x1
 2646 13b2 9C       		.byte	0x9c
 2647 13b3 26       		.uleb128 0x26
 2648 13b4 12020000 		.4byte	.LASF274
 2649 13b8 01       		.byte	0x1
 2650 13b9 84       		.byte	0x84
 2651 13ba 00000000 		.4byte	.LFB254
 2652 13be 50000000 		.4byte	.LFE254-.LFB254
 2653 13c2 01       		.uleb128 0x1
 2654 13c3 9C       		.byte	0x9c
 2655 13c4 EA130000 		.4byte	0x13ea
 2656 13c8 27       		.uleb128 0x27
 2657 13c9 EA130000 		.4byte	0x13ea
 2658 13cd 20000000 		.4byte	.LBB4
 2659 13d1 00000000 		.4byte	.Ldebug_ranges0+0
 2660 13d5 01       		.byte	0x1
 2661 13d6 8F       		.byte	0x8f
 2662 13d7 28       		.uleb128 0x28
 2663 13d8 40000000 		.4byte	.LVL0
 2664 13dc F2130000 		.4byte	0x13f2
 2665 13e0 29       		.uleb128 0x29
 2666 13e1 48000000 		.4byte	.LVL1
 2667 13e5 FE130000 		.4byte	0x13fe
 2668 13e9 00       		.byte	0
 2669 13ea 2A       		.uleb128 0x2a
 2670 13eb BC070000 		.4byte	.LASF275
 2671 13ef 01       		.byte	0x1
 2672 13f0 36       		.byte	0x36
 2673 13f1 01       		.byte	0x1
 2674 13f2 2B       		.uleb128 0x2b
 2675 13f3 66030000 		.4byte	.LASF268
 2676 13f7 66030000 		.4byte	.LASF268
 2677 13fb 16       		.byte	0x16
 2678 13fc E601     		.2byte	0x1e6
 2679 13fe 2B       		.uleb128 0x2b
ARM GAS  C:\Users\14122\AppData\Local\Temp\ccvyTxJM.s 			page 48


 2680 13ff 9C0A0000 		.4byte	.LASF269
 2681 1403 9C0A0000 		.4byte	.LASF269
 2682 1407 1D       		.byte	0x1d
 2683 1408 0201     		.2byte	0x102
 2684 140a 00       		.byte	0
 2685              		.section	.debug_abbrev,"",%progbits
 2686              	.Ldebug_abbrev0:
 2687 0000 01       		.uleb128 0x1
 2688 0001 11       		.uleb128 0x11
 2689 0002 01       		.byte	0x1
 2690 0003 25       		.uleb128 0x25
 2691 0004 0E       		.uleb128 0xe
 2692 0005 13       		.uleb128 0x13
 2693 0006 0B       		.uleb128 0xb
 2694 0007 03       		.uleb128 0x3
 2695 0008 0E       		.uleb128 0xe
 2696 0009 1B       		.uleb128 0x1b
 2697 000a 0E       		.uleb128 0xe
 2698 000b 55       		.uleb128 0x55
 2699 000c 17       		.uleb128 0x17
 2700 000d 11       		.uleb128 0x11
 2701 000e 01       		.uleb128 0x1
 2702 000f 10       		.uleb128 0x10
 2703 0010 17       		.uleb128 0x17
 2704 0011 00       		.byte	0
 2705 0012 00       		.byte	0
 2706 0013 02       		.uleb128 0x2
 2707 0014 24       		.uleb128 0x24
 2708 0015 00       		.byte	0
 2709 0016 0B       		.uleb128 0xb
 2710 0017 0B       		.uleb128 0xb
 2711 0018 3E       		.uleb128 0x3e
 2712 0019 0B       		.uleb128 0xb
 2713 001a 03       		.uleb128 0x3
 2714 001b 08       		.uleb128 0x8
 2715 001c 00       		.byte	0
 2716 001d 00       		.byte	0
 2717 001e 03       		.uleb128 0x3
 2718 001f 16       		.uleb128 0x16
 2719 0020 00       		.byte	0
 2720 0021 03       		.uleb128 0x3
 2721 0022 0E       		.uleb128 0xe
 2722 0023 3A       		.uleb128 0x3a
 2723 0024 0B       		.uleb128 0xb
 2724 0025 3B       		.uleb128 0x3b
 2725 0026 0B       		.uleb128 0xb
 2726 0027 49       		.uleb128 0x49
 2727 0028 13       		.uleb128 0x13
 2728 0029 00       		.byte	0
 2729 002a 00       		.byte	0
 2730 002b 04       		.uleb128 0x4
 2731 002c 24       		.uleb128 0x24
 2732 002d 00       		.byte	0
 2733 002e 0B       		.uleb128 0xb
 2734 002f 0B       		.uleb128 0xb
 2735 0030 3E       		.uleb128 0x3e
 2736 0031 0B       		.uleb128 0xb
ARM GAS  C:\Users\14122\AppData\Local\Temp\ccvyTxJM.s 			page 49


 2737 0032 03       		.uleb128 0x3
 2738 0033 0E       		.uleb128 0xe
 2739 0034 00       		.byte	0
 2740 0035 00       		.byte	0
 2741 0036 05       		.uleb128 0x5
 2742 0037 26       		.uleb128 0x26
 2743 0038 00       		.byte	0
 2744 0039 49       		.uleb128 0x49
 2745 003a 13       		.uleb128 0x13
 2746 003b 00       		.byte	0
 2747 003c 00       		.byte	0
 2748 003d 06       		.uleb128 0x6
 2749 003e 35       		.uleb128 0x35
 2750 003f 00       		.byte	0
 2751 0040 49       		.uleb128 0x49
 2752 0041 13       		.uleb128 0x13
 2753 0042 00       		.byte	0
 2754 0043 00       		.byte	0
 2755 0044 07       		.uleb128 0x7
 2756 0045 13       		.uleb128 0x13
 2757 0046 01       		.byte	0x1
 2758 0047 03       		.uleb128 0x3
 2759 0048 0E       		.uleb128 0xe
 2760 0049 0B       		.uleb128 0xb
 2761 004a 0B       		.uleb128 0xb
 2762 004b 3A       		.uleb128 0x3a
 2763 004c 0B       		.uleb128 0xb
 2764 004d 3B       		.uleb128 0x3b
 2765 004e 0B       		.uleb128 0xb
 2766 004f 01       		.uleb128 0x1
 2767 0050 13       		.uleb128 0x13
 2768 0051 00       		.byte	0
 2769 0052 00       		.byte	0
 2770 0053 08       		.uleb128 0x8
 2771 0054 0D       		.uleb128 0xd
 2772 0055 00       		.byte	0
 2773 0056 03       		.uleb128 0x3
 2774 0057 0E       		.uleb128 0xe
 2775 0058 3A       		.uleb128 0x3a
 2776 0059 0B       		.uleb128 0xb
 2777 005a 3B       		.uleb128 0x3b
 2778 005b 0B       		.uleb128 0xb
 2779 005c 49       		.uleb128 0x49
 2780 005d 13       		.uleb128 0x13
 2781 005e 38       		.uleb128 0x38
 2782 005f 0B       		.uleb128 0xb
 2783 0060 00       		.byte	0
 2784 0061 00       		.byte	0
 2785 0062 09       		.uleb128 0x9
 2786 0063 0D       		.uleb128 0xd
 2787 0064 00       		.byte	0
 2788 0065 03       		.uleb128 0x3
 2789 0066 08       		.uleb128 0x8
 2790 0067 3A       		.uleb128 0x3a
 2791 0068 0B       		.uleb128 0xb
 2792 0069 3B       		.uleb128 0x3b
 2793 006a 0B       		.uleb128 0xb
ARM GAS  C:\Users\14122\AppData\Local\Temp\ccvyTxJM.s 			page 50


 2794 006b 49       		.uleb128 0x49
 2795 006c 13       		.uleb128 0x13
 2796 006d 38       		.uleb128 0x38
 2797 006e 0B       		.uleb128 0xb
 2798 006f 00       		.byte	0
 2799 0070 00       		.byte	0
 2800 0071 0A       		.uleb128 0xa
 2801 0072 0D       		.uleb128 0xd
 2802 0073 00       		.byte	0
 2803 0074 03       		.uleb128 0x3
 2804 0075 08       		.uleb128 0x8
 2805 0076 3A       		.uleb128 0x3a
 2806 0077 0B       		.uleb128 0xb
 2807 0078 3B       		.uleb128 0x3b
 2808 0079 05       		.uleb128 0x5
 2809 007a 49       		.uleb128 0x49
 2810 007b 13       		.uleb128 0x13
 2811 007c 38       		.uleb128 0x38
 2812 007d 0B       		.uleb128 0xb
 2813 007e 00       		.byte	0
 2814 007f 00       		.byte	0
 2815 0080 0B       		.uleb128 0xb
 2816 0081 0D       		.uleb128 0xd
 2817 0082 00       		.byte	0
 2818 0083 03       		.uleb128 0x3
 2819 0084 0E       		.uleb128 0xe
 2820 0085 3A       		.uleb128 0x3a
 2821 0086 0B       		.uleb128 0xb
 2822 0087 3B       		.uleb128 0x3b
 2823 0088 05       		.uleb128 0x5
 2824 0089 49       		.uleb128 0x49
 2825 008a 13       		.uleb128 0x13
 2826 008b 38       		.uleb128 0x38
 2827 008c 0B       		.uleb128 0xb
 2828 008d 00       		.byte	0
 2829 008e 00       		.byte	0
 2830 008f 0C       		.uleb128 0xc
 2831 0090 0F       		.uleb128 0xf
 2832 0091 00       		.byte	0
 2833 0092 0B       		.uleb128 0xb
 2834 0093 0B       		.uleb128 0xb
 2835 0094 49       		.uleb128 0x49
 2836 0095 13       		.uleb128 0x13
 2837 0096 00       		.byte	0
 2838 0097 00       		.byte	0
 2839 0098 0D       		.uleb128 0xd
 2840 0099 13       		.uleb128 0x13
 2841 009a 01       		.byte	0x1
 2842 009b 03       		.uleb128 0x3
 2843 009c 0E       		.uleb128 0xe
 2844 009d 0B       		.uleb128 0xb
 2845 009e 0B       		.uleb128 0xb
 2846 009f 3A       		.uleb128 0x3a
 2847 00a0 0B       		.uleb128 0xb
 2848 00a1 3B       		.uleb128 0x3b
 2849 00a2 05       		.uleb128 0x5
 2850 00a3 01       		.uleb128 0x1
ARM GAS  C:\Users\14122\AppData\Local\Temp\ccvyTxJM.s 			page 51


 2851 00a4 13       		.uleb128 0x13
 2852 00a5 00       		.byte	0
 2853 00a6 00       		.byte	0
 2854 00a7 0E       		.uleb128 0xe
 2855 00a8 15       		.uleb128 0x15
 2856 00a9 01       		.byte	0x1
 2857 00aa 27       		.uleb128 0x27
 2858 00ab 19       		.uleb128 0x19
 2859 00ac 01       		.uleb128 0x1
 2860 00ad 13       		.uleb128 0x13
 2861 00ae 00       		.byte	0
 2862 00af 00       		.byte	0
 2863 00b0 0F       		.uleb128 0xf
 2864 00b1 05       		.uleb128 0x5
 2865 00b2 00       		.byte	0
 2866 00b3 49       		.uleb128 0x49
 2867 00b4 13       		.uleb128 0x13
 2868 00b5 00       		.byte	0
 2869 00b6 00       		.byte	0
 2870 00b7 10       		.uleb128 0x10
 2871 00b8 0F       		.uleb128 0xf
 2872 00b9 00       		.byte	0
 2873 00ba 0B       		.uleb128 0xb
 2874 00bb 0B       		.uleb128 0xb
 2875 00bc 00       		.byte	0
 2876 00bd 00       		.byte	0
 2877 00be 11       		.uleb128 0x11
 2878 00bf 01       		.uleb128 0x1
 2879 00c0 01       		.byte	0x1
 2880 00c1 49       		.uleb128 0x49
 2881 00c2 13       		.uleb128 0x13
 2882 00c3 01       		.uleb128 0x1
 2883 00c4 13       		.uleb128 0x13
 2884 00c5 00       		.byte	0
 2885 00c6 00       		.byte	0
 2886 00c7 12       		.uleb128 0x12
 2887 00c8 21       		.uleb128 0x21
 2888 00c9 00       		.byte	0
 2889 00ca 49       		.uleb128 0x49
 2890 00cb 13       		.uleb128 0x13
 2891 00cc 2F       		.uleb128 0x2f
 2892 00cd 0B       		.uleb128 0xb
 2893 00ce 00       		.byte	0
 2894 00cf 00       		.byte	0
 2895 00d0 13       		.uleb128 0x13
 2896 00d1 34       		.uleb128 0x34
 2897 00d2 00       		.byte	0
 2898 00d3 03       		.uleb128 0x3
 2899 00d4 0E       		.uleb128 0xe
 2900 00d5 3A       		.uleb128 0x3a
 2901 00d6 0B       		.uleb128 0xb
 2902 00d7 3B       		.uleb128 0x3b
 2903 00d8 05       		.uleb128 0x5
 2904 00d9 49       		.uleb128 0x49
 2905 00da 13       		.uleb128 0x13
 2906 00db 3F       		.uleb128 0x3f
 2907 00dc 19       		.uleb128 0x19
ARM GAS  C:\Users\14122\AppData\Local\Temp\ccvyTxJM.s 			page 52


 2908 00dd 3C       		.uleb128 0x3c
 2909 00de 19       		.uleb128 0x19
 2910 00df 00       		.byte	0
 2911 00e0 00       		.byte	0
 2912 00e1 14       		.uleb128 0x14
 2913 00e2 34       		.uleb128 0x34
 2914 00e3 00       		.byte	0
 2915 00e4 03       		.uleb128 0x3
 2916 00e5 0E       		.uleb128 0xe
 2917 00e6 3A       		.uleb128 0x3a
 2918 00e7 0B       		.uleb128 0xb
 2919 00e8 3B       		.uleb128 0x3b
 2920 00e9 0B       		.uleb128 0xb
 2921 00ea 49       		.uleb128 0x49
 2922 00eb 13       		.uleb128 0x13
 2923 00ec 3F       		.uleb128 0x3f
 2924 00ed 19       		.uleb128 0x19
 2925 00ee 3C       		.uleb128 0x3c
 2926 00ef 19       		.uleb128 0x19
 2927 00f0 00       		.byte	0
 2928 00f1 00       		.byte	0
 2929 00f2 15       		.uleb128 0x15
 2930 00f3 13       		.uleb128 0x13
 2931 00f4 01       		.byte	0x1
 2932 00f5 0B       		.uleb128 0xb
 2933 00f6 0B       		.uleb128 0xb
 2934 00f7 3A       		.uleb128 0x3a
 2935 00f8 0B       		.uleb128 0xb
 2936 00f9 3B       		.uleb128 0x3b
 2937 00fa 0B       		.uleb128 0xb
 2938 00fb 01       		.uleb128 0x1
 2939 00fc 13       		.uleb128 0x13
 2940 00fd 00       		.byte	0
 2941 00fe 00       		.byte	0
 2942 00ff 16       		.uleb128 0x16
 2943 0100 13       		.uleb128 0x13
 2944 0101 01       		.byte	0x1
 2945 0102 0B       		.uleb128 0xb
 2946 0103 05       		.uleb128 0x5
 2947 0104 3A       		.uleb128 0x3a
 2948 0105 0B       		.uleb128 0xb
 2949 0106 3B       		.uleb128 0x3b
 2950 0107 0B       		.uleb128 0xb
 2951 0108 01       		.uleb128 0x1
 2952 0109 13       		.uleb128 0x13
 2953 010a 00       		.byte	0
 2954 010b 00       		.byte	0
 2955 010c 17       		.uleb128 0x17
 2956 010d 0D       		.uleb128 0xd
 2957 010e 00       		.byte	0
 2958 010f 03       		.uleb128 0x3
 2959 0110 0E       		.uleb128 0xe
 2960 0111 3A       		.uleb128 0x3a
 2961 0112 0B       		.uleb128 0xb
 2962 0113 3B       		.uleb128 0x3b
 2963 0114 05       		.uleb128 0x5
 2964 0115 49       		.uleb128 0x49
ARM GAS  C:\Users\14122\AppData\Local\Temp\ccvyTxJM.s 			page 53


 2965 0116 13       		.uleb128 0x13
 2966 0117 38       		.uleb128 0x38
 2967 0118 05       		.uleb128 0x5
 2968 0119 00       		.byte	0
 2969 011a 00       		.byte	0
 2970 011b 18       		.uleb128 0x18
 2971 011c 0D       		.uleb128 0xd
 2972 011d 00       		.byte	0
 2973 011e 03       		.uleb128 0x3
 2974 011f 08       		.uleb128 0x8
 2975 0120 3A       		.uleb128 0x3a
 2976 0121 0B       		.uleb128 0xb
 2977 0122 3B       		.uleb128 0x3b
 2978 0123 05       		.uleb128 0x5
 2979 0124 49       		.uleb128 0x49
 2980 0125 13       		.uleb128 0x13
 2981 0126 38       		.uleb128 0x38
 2982 0127 05       		.uleb128 0x5
 2983 0128 00       		.byte	0
 2984 0129 00       		.byte	0
 2985 012a 19       		.uleb128 0x19
 2986 012b 16       		.uleb128 0x16
 2987 012c 00       		.byte	0
 2988 012d 03       		.uleb128 0x3
 2989 012e 0E       		.uleb128 0xe
 2990 012f 3A       		.uleb128 0x3a
 2991 0130 0B       		.uleb128 0xb
 2992 0131 3B       		.uleb128 0x3b
 2993 0132 05       		.uleb128 0x5
 2994 0133 49       		.uleb128 0x49
 2995 0134 13       		.uleb128 0x13
 2996 0135 00       		.byte	0
 2997 0136 00       		.byte	0
 2998 0137 1A       		.uleb128 0x1a
 2999 0138 13       		.uleb128 0x13
 3000 0139 01       		.byte	0x1
 3001 013a 0B       		.uleb128 0xb
 3002 013b 0B       		.uleb128 0xb
 3003 013c 3A       		.uleb128 0x3a
 3004 013d 0B       		.uleb128 0xb
 3005 013e 3B       		.uleb128 0x3b
 3006 013f 05       		.uleb128 0x5
 3007 0140 01       		.uleb128 0x1
 3008 0141 13       		.uleb128 0x13
 3009 0142 00       		.byte	0
 3010 0143 00       		.byte	0
 3011 0144 1B       		.uleb128 0x1b
 3012 0145 17       		.uleb128 0x17
 3013 0146 01       		.byte	0x1
 3014 0147 0B       		.uleb128 0xb
 3015 0148 0B       		.uleb128 0xb
 3016 0149 3A       		.uleb128 0x3a
 3017 014a 0B       		.uleb128 0xb
 3018 014b 3B       		.uleb128 0x3b
 3019 014c 0B       		.uleb128 0xb
 3020 014d 01       		.uleb128 0x1
 3021 014e 13       		.uleb128 0x13
ARM GAS  C:\Users\14122\AppData\Local\Temp\ccvyTxJM.s 			page 54


 3022 014f 00       		.byte	0
 3023 0150 00       		.byte	0
 3024 0151 1C       		.uleb128 0x1c
 3025 0152 0D       		.uleb128 0xd
 3026 0153 00       		.byte	0
 3027 0154 03       		.uleb128 0x3
 3028 0155 0E       		.uleb128 0xe
 3029 0156 3A       		.uleb128 0x3a
 3030 0157 0B       		.uleb128 0xb
 3031 0158 3B       		.uleb128 0x3b
 3032 0159 0B       		.uleb128 0xb
 3033 015a 49       		.uleb128 0x49
 3034 015b 13       		.uleb128 0x13
 3035 015c 00       		.byte	0
 3036 015d 00       		.byte	0
 3037 015e 1D       		.uleb128 0x1d
 3038 015f 0D       		.uleb128 0xd
 3039 0160 00       		.byte	0
 3040 0161 03       		.uleb128 0x3
 3041 0162 0E       		.uleb128 0xe
 3042 0163 3A       		.uleb128 0x3a
 3043 0164 0B       		.uleb128 0xb
 3044 0165 3B       		.uleb128 0x3b
 3045 0166 05       		.uleb128 0x5
 3046 0167 49       		.uleb128 0x49
 3047 0168 13       		.uleb128 0x13
 3048 0169 00       		.byte	0
 3049 016a 00       		.byte	0
 3050 016b 1E       		.uleb128 0x1e
 3051 016c 34       		.uleb128 0x34
 3052 016d 00       		.byte	0
 3053 016e 03       		.uleb128 0x3
 3054 016f 08       		.uleb128 0x8
 3055 0170 3A       		.uleb128 0x3a
 3056 0171 0B       		.uleb128 0xb
 3057 0172 3B       		.uleb128 0x3b
 3058 0173 05       		.uleb128 0x5
 3059 0174 49       		.uleb128 0x49
 3060 0175 13       		.uleb128 0x13
 3061 0176 3F       		.uleb128 0x3f
 3062 0177 19       		.uleb128 0x19
 3063 0178 3C       		.uleb128 0x3c
 3064 0179 19       		.uleb128 0x19
 3065 017a 00       		.byte	0
 3066 017b 00       		.byte	0
 3067 017c 1F       		.uleb128 0x1f
 3068 017d 21       		.uleb128 0x21
 3069 017e 00       		.byte	0
 3070 017f 00       		.byte	0
 3071 0180 00       		.byte	0
 3072 0181 20       		.uleb128 0x20
 3073 0182 15       		.uleb128 0x15
 3074 0183 01       		.byte	0x1
 3075 0184 27       		.uleb128 0x27
 3076 0185 19       		.uleb128 0x19
 3077 0186 49       		.uleb128 0x49
 3078 0187 13       		.uleb128 0x13
ARM GAS  C:\Users\14122\AppData\Local\Temp\ccvyTxJM.s 			page 55


 3079 0188 01       		.uleb128 0x1
 3080 0189 13       		.uleb128 0x13
 3081 018a 00       		.byte	0
 3082 018b 00       		.byte	0
 3083 018c 21       		.uleb128 0x21
 3084 018d 13       		.uleb128 0x13
 3085 018e 00       		.byte	0
 3086 018f 0B       		.uleb128 0xb
 3087 0190 0B       		.uleb128 0xb
 3088 0191 3A       		.uleb128 0x3a
 3089 0192 0B       		.uleb128 0xb
 3090 0193 3B       		.uleb128 0x3b
 3091 0194 0B       		.uleb128 0xb
 3092 0195 00       		.byte	0
 3093 0196 00       		.byte	0
 3094 0197 22       		.uleb128 0x22
 3095 0198 04       		.uleb128 0x4
 3096 0199 01       		.byte	0x1
 3097 019a 3E       		.uleb128 0x3e
 3098 019b 0B       		.uleb128 0xb
 3099 019c 0B       		.uleb128 0xb
 3100 019d 0B       		.uleb128 0xb
 3101 019e 49       		.uleb128 0x49
 3102 019f 13       		.uleb128 0x13
 3103 01a0 3A       		.uleb128 0x3a
 3104 01a1 0B       		.uleb128 0xb
 3105 01a2 3B       		.uleb128 0x3b
 3106 01a3 0B       		.uleb128 0xb
 3107 01a4 01       		.uleb128 0x1
 3108 01a5 13       		.uleb128 0x13
 3109 01a6 00       		.byte	0
 3110 01a7 00       		.byte	0
 3111 01a8 23       		.uleb128 0x23
 3112 01a9 28       		.uleb128 0x28
 3113 01aa 00       		.byte	0
 3114 01ab 03       		.uleb128 0x3
 3115 01ac 0E       		.uleb128 0xe
 3116 01ad 1C       		.uleb128 0x1c
 3117 01ae 0B       		.uleb128 0xb
 3118 01af 00       		.byte	0
 3119 01b0 00       		.byte	0
 3120 01b1 24       		.uleb128 0x24
 3121 01b2 34       		.uleb128 0x34
 3122 01b3 00       		.byte	0
 3123 01b4 47       		.uleb128 0x47
 3124 01b5 13       		.uleb128 0x13
 3125 01b6 3A       		.uleb128 0x3a
 3126 01b7 0B       		.uleb128 0xb
 3127 01b8 3B       		.uleb128 0x3b
 3128 01b9 0B       		.uleb128 0xb
 3129 01ba 02       		.uleb128 0x2
 3130 01bb 18       		.uleb128 0x18
 3131 01bc 00       		.byte	0
 3132 01bd 00       		.byte	0
 3133 01be 25       		.uleb128 0x25
 3134 01bf 2E       		.uleb128 0x2e
 3135 01c0 00       		.byte	0
ARM GAS  C:\Users\14122\AppData\Local\Temp\ccvyTxJM.s 			page 56


 3136 01c1 3F       		.uleb128 0x3f
 3137 01c2 19       		.uleb128 0x19
 3138 01c3 03       		.uleb128 0x3
 3139 01c4 0E       		.uleb128 0xe
 3140 01c5 3A       		.uleb128 0x3a
 3141 01c6 0B       		.uleb128 0xb
 3142 01c7 3B       		.uleb128 0x3b
 3143 01c8 0B       		.uleb128 0xb
 3144 01c9 27       		.uleb128 0x27
 3145 01ca 19       		.uleb128 0x19
 3146 01cb 11       		.uleb128 0x11
 3147 01cc 01       		.uleb128 0x1
 3148 01cd 12       		.uleb128 0x12
 3149 01ce 06       		.uleb128 0x6
 3150 01cf 40       		.uleb128 0x40
 3151 01d0 18       		.uleb128 0x18
 3152 01d1 9742     		.uleb128 0x2117
 3153 01d3 19       		.uleb128 0x19
 3154 01d4 00       		.byte	0
 3155 01d5 00       		.byte	0
 3156 01d6 26       		.uleb128 0x26
 3157 01d7 2E       		.uleb128 0x2e
 3158 01d8 01       		.byte	0x1
 3159 01d9 3F       		.uleb128 0x3f
 3160 01da 19       		.uleb128 0x19
 3161 01db 03       		.uleb128 0x3
 3162 01dc 0E       		.uleb128 0xe
 3163 01dd 3A       		.uleb128 0x3a
 3164 01de 0B       		.uleb128 0xb
 3165 01df 3B       		.uleb128 0x3b
 3166 01e0 0B       		.uleb128 0xb
 3167 01e1 27       		.uleb128 0x27
 3168 01e2 19       		.uleb128 0x19
 3169 01e3 11       		.uleb128 0x11
 3170 01e4 01       		.uleb128 0x1
 3171 01e5 12       		.uleb128 0x12
 3172 01e6 06       		.uleb128 0x6
 3173 01e7 40       		.uleb128 0x40
 3174 01e8 18       		.uleb128 0x18
 3175 01e9 9742     		.uleb128 0x2117
 3176 01eb 19       		.uleb128 0x19
 3177 01ec 01       		.uleb128 0x1
 3178 01ed 13       		.uleb128 0x13
 3179 01ee 00       		.byte	0
 3180 01ef 00       		.byte	0
 3181 01f0 27       		.uleb128 0x27
 3182 01f1 1D       		.uleb128 0x1d
 3183 01f2 00       		.byte	0
 3184 01f3 31       		.uleb128 0x31
 3185 01f4 13       		.uleb128 0x13
 3186 01f5 52       		.uleb128 0x52
 3187 01f6 01       		.uleb128 0x1
 3188 01f7 55       		.uleb128 0x55
 3189 01f8 17       		.uleb128 0x17
 3190 01f9 58       		.uleb128 0x58
 3191 01fa 0B       		.uleb128 0xb
 3192 01fb 59       		.uleb128 0x59
ARM GAS  C:\Users\14122\AppData\Local\Temp\ccvyTxJM.s 			page 57


 3193 01fc 0B       		.uleb128 0xb
 3194 01fd 00       		.byte	0
 3195 01fe 00       		.byte	0
 3196 01ff 28       		.uleb128 0x28
 3197 0200 898201   		.uleb128 0x4109
 3198 0203 00       		.byte	0
 3199 0204 11       		.uleb128 0x11
 3200 0205 01       		.uleb128 0x1
 3201 0206 31       		.uleb128 0x31
 3202 0207 13       		.uleb128 0x13
 3203 0208 00       		.byte	0
 3204 0209 00       		.byte	0
 3205 020a 29       		.uleb128 0x29
 3206 020b 898201   		.uleb128 0x4109
 3207 020e 00       		.byte	0
 3208 020f 11       		.uleb128 0x11
 3209 0210 01       		.uleb128 0x1
 3210 0211 9542     		.uleb128 0x2115
 3211 0213 19       		.uleb128 0x19
 3212 0214 31       		.uleb128 0x31
 3213 0215 13       		.uleb128 0x13
 3214 0216 00       		.byte	0
 3215 0217 00       		.byte	0
 3216 0218 2A       		.uleb128 0x2a
 3217 0219 2E       		.uleb128 0x2e
 3218 021a 00       		.byte	0
 3219 021b 03       		.uleb128 0x3
 3220 021c 0E       		.uleb128 0xe
 3221 021d 3A       		.uleb128 0x3a
 3222 021e 0B       		.uleb128 0xb
 3223 021f 3B       		.uleb128 0x3b
 3224 0220 0B       		.uleb128 0xb
 3225 0221 27       		.uleb128 0x27
 3226 0222 19       		.uleb128 0x19
 3227 0223 20       		.uleb128 0x20
 3228 0224 0B       		.uleb128 0xb
 3229 0225 00       		.byte	0
 3230 0226 00       		.byte	0
 3231 0227 2B       		.uleb128 0x2b
 3232 0228 2E       		.uleb128 0x2e
 3233 0229 00       		.byte	0
 3234 022a 3F       		.uleb128 0x3f
 3235 022b 19       		.uleb128 0x19
 3236 022c 3C       		.uleb128 0x3c
 3237 022d 19       		.uleb128 0x19
 3238 022e 6E       		.uleb128 0x6e
 3239 022f 0E       		.uleb128 0xe
 3240 0230 03       		.uleb128 0x3
 3241 0231 0E       		.uleb128 0xe
 3242 0232 3A       		.uleb128 0x3a
 3243 0233 0B       		.uleb128 0xb
 3244 0234 3B       		.uleb128 0x3b
 3245 0235 05       		.uleb128 0x5
 3246 0236 00       		.byte	0
 3247 0237 00       		.byte	0
 3248 0238 00       		.byte	0
 3249              		.section	.debug_aranges,"",%progbits
ARM GAS  C:\Users\14122\AppData\Local\Temp\ccvyTxJM.s 			page 58


 3250 0000 24000000 		.4byte	0x24
 3251 0004 0200     		.2byte	0x2
 3252 0006 00000000 		.4byte	.Ldebug_info0
 3253 000a 04       		.byte	0x4
 3254 000b 00       		.byte	0
 3255 000c 0000     		.2byte	0
 3256 000e 0000     		.2byte	0
 3257 0010 00000000 		.4byte	.LFB254
 3258 0014 50000000 		.4byte	.LFE254-.LFB254
 3259 0018 00000000 		.4byte	.LFB255
 3260 001c 7C000000 		.4byte	.LFE255-.LFB255
 3261 0020 00000000 		.4byte	0
 3262 0024 00000000 		.4byte	0
 3263              		.section	.debug_ranges,"",%progbits
 3264              	.Ldebug_ranges0:
 3265 0000 20000000 		.4byte	.LBB4
 3266 0004 22000000 		.4byte	.LBE4
 3267 0008 34000000 		.4byte	.LBB7
 3268 000c 3C000000 		.4byte	.LBE7
 3269 0010 00000000 		.4byte	0
 3270 0014 00000000 		.4byte	0
 3271 0018 00000000 		.4byte	.LFB254
 3272 001c 50000000 		.4byte	.LFE254
 3273 0020 00000000 		.4byte	.LFB255
 3274 0024 7C000000 		.4byte	.LFE255
 3275 0028 00000000 		.4byte	0
 3276 002c 00000000 		.4byte	0
 3277              		.section	.debug_line,"",%progbits
 3278              	.Ldebug_line0:
 3279 0000 96040000 		.section	.debug_str,"MS",%progbits,1
 3279      02001B04 
 3279      00000201 
 3279      FB0E0D00 
 3279      01010101 
 3280              	.LASF151:
 3281 0000 6F66665F 		.ascii	"off_ctx\000"
 3281      63747800 
 3282              	.LASF202:
 3283 0008 73746D33 		.ascii	"stm32_dma_stream_t\000"
 3283      325F646D 
 3283      615F7374 
 3283      7265616D 
 3283      5F7400
 3284              	.LASF4:
 3285 001b 73697A65 		.ascii	"size_t\000"
 3285      5F7400
 3286              	.LASF150:
 3287 0022 6F66665F 		.ascii	"off_prio\000"
 3287      7072696F 
 3287      00
 3288              	.LASF174:
 3289 002b 656E646D 		.ascii	"endmem\000"
 3289      656D00
 3290              	.LASF135:
 3291 0032 77747365 		.ascii	"wtsemp\000"
 3291      6D7000
 3292              	.LASF73:
ARM GAS  C:\Users\14122\AppData\Local\Temp\ccvyTxJM.s 			page 59


 3293 0039 73797374 		.ascii	"systime_t\000"
 3293      696D655F 
 3293      7400
 3294              	.LASF159:
 3295 0043 6F66665F 		.ascii	"off_preempt\000"
 3295      70726565 
 3295      6D707400 
 3296              	.LASF140:
 3297 004f 6F776E65 		.ascii	"owner\000"
 3297      7200
 3298              	.LASF24:
 3299 0055 74707269 		.ascii	"tprio_t\000"
 3299      6F5F7400 
 3300              	.LASF162:
 3301 005d 63685F64 		.ascii	"ch_debug\000"
 3301      65627567 
 3301      00
 3302              	.LASF180:
 3303 0066 70726F76 		.ascii	"provider\000"
 3303      69646572 
 3303      00
 3304              	.LASF18:
 3305 006f 696E7433 		.ascii	"int32_t\000"
 3305      325F7400 
 3306              	.LASF57:
 3307 0077 76746675 		.ascii	"vtfunc_t\000"
 3307      6E635F74 
 3307      00
 3308              	.LASF232:
 3309 0080 736C6565 		.ascii	"sleep_event\000"
 3309      705F6576 
 3309      656E7400 
 3310              	.LASF63:
 3311 008c 63685F76 		.ascii	"ch_virtual_timers_list\000"
 3311      69727475 
 3311      616C5F74 
 3311      696D6572 
 3311      735F6C69 
 3312              	.LASF237:
 3313 00a3 55415254 		.ascii	"UART_STOP\000"
 3313      5F53544F 
 3313      5000
 3314              	.LASF182:
 3315 00ad 63685F64 		.ascii	"ch_dyn_element\000"
 3315      796E5F65 
 3315      6C656D65 
 3315      6E7400
 3316              	.LASF233:
 3317 00bc 77616B65 		.ascii	"wakeup_event\000"
 3317      75705F65 
 3317      76656E74 
 3317      00
 3318              	.LASF226:
 3319 00c9 636F6E66 		.ascii	"config\000"
 3319      696700
 3320              	.LASF37:
 3321 00d0 73746174 		.ascii	"state\000"
ARM GAS  C:\Users\14122\AppData\Local\Temp\ccvyTxJM.s 			page 60


 3321      6500
 3322              	.LASF215:
 3323 00d6 50454461 		.ascii	"PEData\000"
 3323      746100
 3324              	.LASF251:
 3325 00dd 72787374 		.ascii	"rxstate\000"
 3325      61746500 
 3326              	.LASF234:
 3327 00e5 43414E43 		.ascii	"CANConfig\000"
 3327      6F6E6669 
 3327      6700
 3328              	.LASF104:
 3329 00ef 434E4454 		.ascii	"CNDTR\000"
 3329      5200
 3330              	.LASF187:
 3331 00f5 6F626A5F 		.ascii	"obj_list\000"
 3331      6C697374 
 3331      00
 3332              	.LASF262:
 3333 00fe 7278656E 		.ascii	"rxend_cb\000"
 3333      645F6362 
 3333      00
 3334              	.LASF153:
 3335 0107 6F66665F 		.ascii	"off_older\000"
 3335      6F6C6465 
 3335      7200
 3336              	.LASF32:
 3337 0111 7072696F 		.ascii	"prio\000"
 3337      00
 3338              	.LASF210:
 3339 0116 73746D33 		.ascii	"stm32_gpio_setup_t\000"
 3339      325F6770 
 3339      696F5F73 
 3339      65747570 
 3339      5F7400
 3340              	.LASF131:
 3341 0129 65786974 		.ascii	"exitcode\000"
 3341      636F6465 
 3341      00
 3342              	.LASF5:
 3343 0132 5F5F7569 		.ascii	"__uint8_t\000"
 3343      6E74385F 
 3343      7400
 3344              	.LASF225:
 3345 013c 43414E44 		.ascii	"CANDriver\000"
 3345      72697665 
 3345      7200
 3346              	.LASF241:
 3347 0146 55415254 		.ascii	"UART_TX_ACTIVE\000"
 3347      5F54585F 
 3347      41435449 
 3347      564500
 3348              	.LASF249:
 3349 0155 55415254 		.ascii	"UARTDriver\000"
 3349      44726976 
 3349      657200
 3350              	.LASF11:
ARM GAS  C:\Users\14122\AppData\Local\Temp\ccvyTxJM.s 			page 61


 3351 0160 6C6F6E67 		.ascii	"long int\000"
 3351      20696E74 
 3351      00
 3352              	.LASF144:
 3353 0169 7A65726F 		.ascii	"zero\000"
 3353      00
 3354              	.LASF100:
 3355 016e 46413152 		.ascii	"FA1R\000"
 3355      00
 3356              	.LASF22:
 3357 0173 74737461 		.ascii	"tstate_t\000"
 3357      74655F74 
 3357      00
 3358              	.LASF42:
 3359 017c 6570656E 		.ascii	"epending\000"
 3359      64696E67 
 3359      00
 3360              	.LASF51:
 3361 0185 74687265 		.ascii	"threads_queue_t\000"
 3361      6164735F 
 3361      71756575 
 3361      655F7400 
 3362              	.LASF126:
 3363 0195 72656761 		.ascii	"regarm_t\000"
 3363      726D5F74 
 3363      00
 3364              	.LASF250:
 3365 019e 74787374 		.ascii	"txstate\000"
 3365      61746500 
 3366              	.LASF120:
 3367 01a6 41504232 		.ascii	"APB2ENR\000"
 3367      454E5200 
 3368              	.LASF188:
 3369 01ae 6F626A5F 		.ascii	"obj_pool\000"
 3369      706F6F6C 
 3369      00
 3370              	.LASF243:
 3371 01b7 75617274 		.ascii	"uarttxstate_t\000"
 3371      74787374 
 3371      6174655F 
 3371      7400
 3372              	.LASF113:
 3373 01c5 57525052 		.ascii	"WRPR\000"
 3373      00
 3374              	.LASF105:
 3375 01ca 43504152 		.ascii	"CPAR\000"
 3375      00
 3376              	.LASF252:
 3377 01cf 75736172 		.ascii	"usart\000"
 3377      7400
 3378              	.LASF217:
 3379 01d5 70616C5F 		.ascii	"pal_default_config\000"
 3379      64656661 
 3379      756C745F 
 3379      636F6E66 
 3379      696700
 3380              	.LASF88:
ARM GAS  C:\Users\14122\AppData\Local\Temp\ccvyTxJM.s 			page 62


 3381 01e8 52463052 		.ascii	"RF0R\000"
 3381      00
 3382              	.LASF175:
 3383 01ed 6D656D63 		.ascii	"memcore_t\000"
 3383      6F72655F 
 3383      7400
 3384              	.LASF3:
 3385 01f7 7369676E 		.ascii	"signed char\000"
 3385      65642063 
 3385      68617200 
 3386              	.LASF137:
 3387 0203 65776D61 		.ascii	"ewmask\000"
 3387      736B00
 3388              	.LASF16:
 3389 020a 75696E74 		.ascii	"uint8_t\000"
 3389      385F7400 
 3390              	.LASF274:
 3391 0212 68616C5F 		.ascii	"hal_lld_init\000"
 3391      6C6C645F 
 3391      696E6974 
 3391      00
 3392              	.LASF26:
 3393 021f 6576656E 		.ascii	"eventmask_t\000"
 3393      746D6173 
 3393      6B5F7400 
 3394              	.LASF87:
 3395 022b 43414E5F 		.ascii	"CAN_FilterRegister_TypeDef\000"
 3395      46696C74 
 3395      65725265 
 3395      67697374 
 3395      65725F54 
 3396              	.LASF92:
 3397 0246 73464946 		.ascii	"sFIFOMailBox\000"
 3397      4F4D6169 
 3397      6C426F78 
 3397      00
 3398              	.LASF229:
 3399 0253 72786675 		.ascii	"rxfull_event\000"
 3399      6C6C5F65 
 3399      76656E74 
 3399      00
 3400              	.LASF133:
 3401 0260 77747472 		.ascii	"wttrp\000"
 3401      7000
 3402              	.LASF90:
 3403 0266 52455345 		.ascii	"RESERVED0\000"
 3403      52564544 
 3403      3000
 3404              	.LASF93:
 3405 0270 52455345 		.ascii	"RESERVED1\000"
 3405      52564544 
 3405      3100
 3406              	.LASF6:
 3407 027a 756E7369 		.ascii	"unsigned char\000"
 3407      676E6564 
 3407      20636861 
 3407      7200
ARM GAS  C:\Users\14122\AppData\Local\Temp\ccvyTxJM.s 			page 63


 3408              	.LASF97:
 3409 0288 52455345 		.ascii	"RESERVED3\000"
 3409      52564544 
 3409      3300
 3410              	.LASF99:
 3411 0292 52455345 		.ascii	"RESERVED4\000"
 3411      52564544 
 3411      3400
 3412              	.LASF101:
 3413 029c 52455345 		.ascii	"RESERVED5\000"
 3413      52564544 
 3413      3500
 3414              	.LASF64:
 3415 02a6 6C617374 		.ascii	"lasttime\000"
 3415      74696D65 
 3415      00
 3416              	.LASF214:
 3417 02af 50444461 		.ascii	"PDData\000"
 3417      746100
 3418              	.LASF109:
 3419 02b6 444D415F 		.ascii	"DMA_TypeDef\000"
 3419      54797065 
 3419      44656600 
 3420              	.LASF89:
 3421 02c2 52463152 		.ascii	"RF1R\000"
 3421      00
 3422              	.LASF67:
 3423 02c7 70616E69 		.ascii	"panic_msg\000"
 3423      635F6D73 
 3423      6700
 3424              	.LASF65:
 3425 02d1 73797374 		.ascii	"system_debug_t\000"
 3425      656D5F64 
 3425      65627567 
 3425      5F7400
 3426              	.LASF171:
 3427 02e0 5F426F6F 		.ascii	"_Bool\000"
 3427      6C00
 3428              	.LASF172:
 3429 02e6 6D656D67 		.ascii	"memgetfunc_t\000"
 3429      65746675 
 3429      6E635F74 
 3429      00
 3430              	.LASF95:
 3431 02f3 52455345 		.ascii	"RESERVED2\000"
 3431      52564544 
 3431      3200
 3432              	.LASF238:
 3433 02fd 55415254 		.ascii	"UART_READY\000"
 3433      5F524541 
 3433      445900
 3434              	.LASF141:
 3435 0308 63686172 		.ascii	"char\000"
 3435      00
 3436              	.LASF108:
 3437 030d 49464352 		.ascii	"IFCR\000"
 3437      00
ARM GAS  C:\Users\14122\AppData\Local\Temp\ccvyTxJM.s 			page 64


 3438              	.LASF190:
 3439 0312 73656D5F 		.ascii	"sem_list\000"
 3439      6C697374 
 3439      00
 3440              	.LASF8:
 3441 031b 5F5F7569 		.ascii	"__uint16_t\000"
 3441      6E743136 
 3441      5F7400
 3442              	.LASF132:
 3443 0326 77746F62 		.ascii	"wtobjp\000"
 3443      6A7000
 3444              	.LASF209:
 3445 032d 70616C65 		.ascii	"palevent_t\000"
 3445      76656E74 
 3445      5F7400
 3446              	.LASF158:
 3447 0338 6F66665F 		.ascii	"off_refs\000"
 3447      72656673 
 3447      00
 3448              	.LASF38:
 3449 0341 666C6167 		.ascii	"flags\000"
 3449      7300
 3450              	.LASF127:
 3451 0347 73746B61 		.ascii	"stkalign_t\000"
 3451      6C69676E 
 3451      5F7400
 3452              	.LASF125:
 3453 0352 55534152 		.ascii	"USART_TypeDef\000"
 3453      545F5479 
 3453      70654465 
 3453      6600
 3454              	.LASF45:
 3455 0360 6D706F6F 		.ascii	"mpool\000"
 3455      6C00
 3456              	.LASF268:
 3457 0366 646D6149 		.ascii	"dmaInit\000"
 3457      6E697400 
 3458              	.LASF164:
 3459 036e 6576656E 		.ascii	"event_listener_t\000"
 3459      745F6C69 
 3459      7374656E 
 3459      65725F74 
 3459      00
 3460              	.LASF147:
 3461 037f 70747273 		.ascii	"ptrsize\000"
 3461      697A6500 
 3462              	.LASF224:
 3463 0387 63616E73 		.ascii	"canstate_t\000"
 3463      74617465 
 3463      5F7400
 3464              	.LASF222:
 3465 0392 43414E5F 		.ascii	"CAN_READY\000"
 3465      52454144 
 3465      5900
 3466              	.LASF122:
 3467 039c 42444352 		.ascii	"BDCR\000"
 3467      00
ARM GAS  C:\Users\14122\AppData\Local\Temp\ccvyTxJM.s 			page 65


 3468              	.LASF160:
 3469 03a1 6F66665F 		.ascii	"off_time\000"
 3469      74696D65 
 3469      00
 3470              	.LASF204:
 3471 03aa 646D615F 		.ascii	"dma_func\000"
 3471      66756E63 
 3471      00
 3472              	.LASF28:
 3473 03b3 636E745F 		.ascii	"cnt_t\000"
 3473      7400
 3474              	.LASF263:
 3475 03b9 72786368 		.ascii	"rxchar_cb\000"
 3475      61725F63 
 3475      6200
 3476              	.LASF112:
 3477 03c3 52455345 		.ascii	"RESERVED\000"
 3477      52564544 
 3477      00
 3478              	.LASF183:
 3479 03cc 64796E5F 		.ascii	"dyn_element_t\000"
 3479      656C656D 
 3479      656E745F 
 3479      7400
 3480              	.LASF265:
 3481 03da 73706565 		.ascii	"speed\000"
 3481      6400
 3482              	.LASF136:
 3483 03e0 77746D74 		.ascii	"wtmtxp\000"
 3483      787000
 3484              	.LASF55:
 3485 03e7 63685F72 		.ascii	"ch_ready_list\000"
 3485      65616479 
 3485      5F6C6973 
 3485      7400
 3486              	.LASF191:
 3487 03f5 73656D5F 		.ascii	"sem_pool\000"
 3487      706F6F6C 
 3487      00
 3488              	.LASF116:
 3489 03fe 43464752 		.ascii	"CFGR\000"
 3489      00
 3490              	.LASF213:
 3491 0403 50434461 		.ascii	"PCData\000"
 3491      746100
 3492              	.LASF173:
 3493 040a 6E657874 		.ascii	"nextmem\000"
 3493      6D656D00 
 3494              	.LASF111:
 3495 0412 4F50544B 		.ascii	"OPTKEYR\000"
 3495      45595200 
 3496              	.LASF14:
 3497 041a 5F5F7569 		.ascii	"__uint64_t\000"
 3497      6E743634 
 3497      5F7400
 3498              	.LASF156:
 3499 0425 6F66665F 		.ascii	"off_state\000"
ARM GAS  C:\Users\14122\AppData\Local\Temp\ccvyTxJM.s 			page 66


 3499      73746174 
 3499      6500
 3500              	.LASF13:
 3501 042f 6C6F6E67 		.ascii	"long unsigned int\000"
 3501      20756E73 
 3501      69676E65 
 3501      6420696E 
 3501      7400
 3502              	.LASF121:
 3503 0441 41504231 		.ascii	"APB1ENR\000"
 3503      454E5200 
 3504              	.LASF266:
 3505 0449 55415254 		.ascii	"UARTConfig\000"
 3505      436F6E66 
 3505      696700
 3506              	.LASF76:
 3507 0454 53797374 		.ascii	"SystemCoreClock\000"
 3507      656D436F 
 3507      7265436C 
 3507      6F636B00 
 3508              	.LASF138:
 3509 0464 63685F73 		.ascii	"ch_semaphore\000"
 3509      656D6170 
 3509      686F7265 
 3509      00
 3510              	.LASF199:
 3511 0471 73686966 		.ascii	"shift\000"
 3511      7400
 3512              	.LASF196:
 3513 0477 6368616E 		.ascii	"channel\000"
 3513      6E656C00 
 3514              	.LASF48:
 3515 047f 63685F74 		.ascii	"ch_thread\000"
 3515      68726561 
 3515      6400
 3516              	.LASF62:
 3517 0489 76697274 		.ascii	"virtual_timers_list_t\000"
 3517      75616C5F 
 3517      74696D65 
 3517      72735F6C 
 3517      6973745F 
 3518              	.LASF142:
 3519 049f 63685F69 		.ascii	"ch_idle_thread_wa\000"
 3519      646C655F 
 3519      74687265 
 3519      61645F77 
 3519      6100
 3520              	.LASF207:
 3521 04b1 5F73746D 		.ascii	"_stm32_dma_streams\000"
 3521      33325F64 
 3521      6D615F73 
 3521      74726561 
 3521      6D7300
 3522              	.LASF261:
 3523 04c4 7478656E 		.ascii	"txend2_cb\000"
 3523      64325F63 
 3523      6200
ARM GAS  C:\Users\14122\AppData\Local\Temp\ccvyTxJM.s 			page 67


 3524              	.LASF193:
 3525 04ce 6669666F 		.ascii	"fifo_list\000"
 3525      5F6C6973 
 3525      7400
 3526              	.LASF58:
 3527 04d8 76697274 		.ascii	"virtual_timer_t\000"
 3527      75616C5F 
 3527      74696D65 
 3527      725F7400 
 3528              	.LASF54:
 3529 04e8 72656164 		.ascii	"ready_list_t\000"
 3529      795F6C69 
 3529      73745F74 
 3529      00
 3530              	.LASF34:
 3531 04f5 6F6C6465 		.ascii	"older\000"
 3531      7200
 3532              	.LASF259:
 3533 04fb 75617274 		.ascii	"uartecb_t\000"
 3533      6563625F 
 3533      7400
 3534              	.LASF44:
 3535 0505 7265616C 		.ascii	"realprio\000"
 3535      7072696F 
 3535      00
 3536              	.LASF29:
 3537 050e 75636E74 		.ascii	"ucnt_t\000"
 3537      5F7400
 3538              	.LASF155:
 3539 0515 6F66665F 		.ascii	"off_stklimit\000"
 3539      73746B6C 
 3539      696D6974 
 3539      00
 3540              	.LASF177:
 3541 0522 706F6F6C 		.ascii	"pool_header\000"
 3541      5F686561 
 3541      64657200 
 3542              	.LASF236:
 3543 052e 55415254 		.ascii	"UART_UNINIT\000"
 3543      5F554E49 
 3543      4E495400 
 3544              	.LASF49:
 3545 053a 63685F74 		.ascii	"ch_threads_list\000"
 3545      68726561 
 3545      64735F6C 
 3545      69737400 
 3546              	.LASF246:
 3547 054a 55415254 		.ascii	"UART_RX_COMPLETE\000"
 3547      5F52585F 
 3547      434F4D50 
 3547      4C455445 
 3547      00
 3548              	.LASF256:
 3549 055b 72786275 		.ascii	"rxbuf\000"
 3549      6600
 3550              	.LASF254:
 3551 0561 646D6172 		.ascii	"dmarx\000"
ARM GAS  C:\Users\14122\AppData\Local\Temp\ccvyTxJM.s 			page 68


 3551      7800
 3552              	.LASF12:
 3553 0567 5F5F7569 		.ascii	"__uint32_t\000"
 3553      6E743332 
 3553      5F7400
 3554              	.LASF43:
 3555 0572 6D74786C 		.ascii	"mtxlist\000"
 3555      69737400 
 3556              	.LASF1:
 3557 057a 6C6F6E67 		.ascii	"long long int\000"
 3557      206C6F6E 
 3557      6720696E 
 3557      7400
 3558              	.LASF221:
 3559 0588 43414E5F 		.ascii	"CAN_STARTING\000"
 3559      53544152 
 3559      54494E47 
 3559      00
 3560              	.LASF74:
 3561 0595 73797369 		.ascii	"sysinterval_t\000"
 3561      6E746572 
 3561      76616C5F 
 3561      7400
 3562              	.LASF186:
 3563 05a3 63685F6F 		.ascii	"ch_objects_factory\000"
 3563      626A6563 
 3563      74735F66 
 3563      6163746F 
 3563      727900
 3564              	.LASF124:
 3565 05b6 47545052 		.ascii	"GTPR\000"
 3565      00
 3566              	.LASF117:
 3567 05bb 41504232 		.ascii	"APB2RSTR\000"
 3567      52535452 
 3567      00
 3568              	.LASF170:
 3569 05c4 6576656E 		.ascii	"event_source_t\000"
 3569      745F736F 
 3569      75726365 
 3569      5F7400
 3570              	.LASF179:
 3571 05d3 616C6967 		.ascii	"align\000"
 3571      6E00
 3572              	.LASF75:
 3573 05d9 49544D5F 		.ascii	"ITM_RxBuffer\000"
 3573      52784275 
 3573      66666572 
 3573      00
 3574              	.LASF212:
 3575 05e6 50424461 		.ascii	"PBData\000"
 3575      746100
 3576              	.LASF253:
 3577 05ed 646D616D 		.ascii	"dmamode\000"
 3577      6F646500 
 3578              	.LASF219:
 3579 05f5 43414E5F 		.ascii	"CAN_UNINIT\000"
ARM GAS  C:\Users\14122\AppData\Local\Temp\ccvyTxJM.s 			page 69


 3579      554E494E 
 3579      495400
 3580              	.LASF248:
 3581 0600 75617274 		.ascii	"uartflags_t\000"
 3581      666C6167 
 3581      735F7400 
 3582              	.LASF255:
 3583 060c 646D6174 		.ascii	"dmatx\000"
 3583      7800
 3584              	.LASF223:
 3585 0612 43414E5F 		.ascii	"CAN_SLEEP\000"
 3585      534C4545 
 3585      5000
 3586              	.LASF152:
 3587 061c 6F66665F 		.ascii	"off_newer\000"
 3587      6E657765 
 3587      7200
 3588              	.LASF200:
 3589 0626 73656C66 		.ascii	"selfindex\000"
 3589      696E6465 
 3589      7800
 3590              	.LASF264:
 3591 0630 72786572 		.ascii	"rxerr_cb\000"
 3591      725F6362 
 3591      00
 3592              	.LASF0:
 3593 0639 756E7369 		.ascii	"unsigned int\000"
 3593      676E6564 
 3593      20696E74 
 3593      00
 3594              	.LASF203:
 3595 0646 73746D33 		.ascii	"stm32_dmaisr_t\000"
 3595      325F646D 
 3595      61697372 
 3595      5F7400
 3596              	.LASF94:
 3597 0655 464D3152 		.ascii	"FM1R\000"
 3597      00
 3598              	.LASF85:
 3599 065a 52444852 		.ascii	"RDHR\000"
 3599      00
 3600              	.LASF106:
 3601 065f 434D4152 		.ascii	"CMAR\000"
 3601      00
 3602              	.LASF81:
 3603 0664 54444852 		.ascii	"TDHR\000"
 3603      00
 3604              	.LASF56:
 3605 0669 63757272 		.ascii	"current\000"
 3605      656E7400 
 3606              	.LASF149:
 3607 0671 74687265 		.ascii	"threadsize\000"
 3607      61647369 
 3607      7A6500
 3608              	.LASF231:
 3609 067c 6572726F 		.ascii	"error_event\000"
 3609      725F6576 
ARM GAS  C:\Users\14122\AppData\Local\Temp\ccvyTxJM.s 			page 70


 3609      656E7400 
 3610              	.LASF103:
 3611 0688 43414E5F 		.ascii	"CAN_TypeDef\000"
 3611      54797065 
 3611      44656600 
 3612              	.LASF206:
 3613 0694 646D615F 		.ascii	"dma_isr_redir_t\000"
 3613      6973725F 
 3613      72656469 
 3613      725F7400 
 3614              	.LASF270:
 3615 06a4 474E5520 		.ascii	"GNU C11 7.2.1 20170904 (release) [ARM/embedded-7-br"
 3615      43313120 
 3615      372E322E 
 3615      31203230 
 3615      31373039 
 3616 06d7 616E6368 		.ascii	"anch revision 255204] -mcpu=cortex-m3 -mthumb -ggdb"
 3616      20726576 
 3616      6973696F 
 3616      6E203235 
 3616      35323034 
 3617 070a 202D4F32 		.ascii	" -O2 -fomit-frame-pointer -falign-functions=16 -ffu"
 3617      202D666F 
 3617      6D69742D 
 3617      6672616D 
 3617      652D706F 
 3618 073d 6E637469 		.ascii	"nction-sections -fdata-sections -fno-common\000"
 3618      6F6E2D73 
 3618      65637469 
 3618      6F6E7320 
 3618      2D666461 
 3619              	.LASF102:
 3620 0769 7346696C 		.ascii	"sFilterRegister\000"
 3620      74657252 
 3620      65676973 
 3620      74657200 
 3621              	.LASF218:
 3622 0779 5F70616C 		.ascii	"_pal_events\000"
 3622      5F657665 
 3622      6E747300 
 3623              	.LASF30:
 3624 0785 74687265 		.ascii	"thread_t\000"
 3624      61645F74 
 3624      00
 3625              	.LASF2:
 3626 078e 6C6F6E67 		.ascii	"long double\000"
 3626      20646F75 
 3626      626C6500 
 3627              	.LASF168:
 3628 079a 77666C61 		.ascii	"wflags\000"
 3628      677300
 3629              	.LASF46:
 3630 07a1 74687265 		.ascii	"thread_reference_t\000"
 3630      61645F72 
 3630      65666572 
 3630      656E6365 
 3630      5F7400
ARM GAS  C:\Users\14122\AppData\Local\Temp\ccvyTxJM.s 			page 71


 3631              	.LASF134:
 3632 07b4 73656E74 		.ascii	"sentmsg\000"
 3632      6D736700 
 3633              	.LASF275:
 3634 07bc 68616C5F 		.ascii	"hal_lld_backup_domain_init\000"
 3634      6C6C645F 
 3634      6261636B 
 3634      75705F64 
 3634      6F6D6169 
 3635              	.LASF129:
 3636 07d7 706F7274 		.ascii	"port_intctx\000"
 3636      5F696E74 
 3636      63747800 
 3637              	.LASF194:
 3638 07e3 6F626A65 		.ascii	"objects_factory_t\000"
 3638      6374735F 
 3638      66616374 
 3638      6F72795F 
 3638      7400
 3639              	.LASF273:
 3640 07f5 73746D33 		.ascii	"stm32_clock_init\000"
 3640      325F636C 
 3640      6F636B5F 
 3640      696E6974 
 3640      00
 3641              	.LASF189:
 3642 0806 6275665F 		.ascii	"buf_list\000"
 3642      6C697374 
 3642      00
 3643              	.LASF197:
 3644 080f 636D6173 		.ascii	"cmask\000"
 3644      6B00
 3645              	.LASF107:
 3646 0815 444D415F 		.ascii	"DMA_Channel_TypeDef\000"
 3646      4368616E 
 3646      6E656C5F 
 3646      54797065 
 3646      44656600 
 3647              	.LASF77:
 3648 0829 41484250 		.ascii	"AHBPrescTable\000"
 3648      72657363 
 3648      5461626C 
 3648      6500
 3649              	.LASF59:
 3650 0837 63685F76 		.ascii	"ch_virtual_timer\000"
 3650      69727475 
 3650      616C5F74 
 3650      696D6572 
 3650      00
 3651              	.LASF145:
 3652 0848 73697A65 		.ascii	"size\000"
 3652      00
 3653              	.LASF15:
 3654 084d 6C6F6E67 		.ascii	"long long unsigned int\000"
 3654      206C6F6E 
 3654      6720756E 
 3654      7369676E 
ARM GAS  C:\Users\14122\AppData\Local\Temp\ccvyTxJM.s 			page 72


 3654      65642069 
 3655              	.LASF211:
 3656 0864 50414461 		.ascii	"PAData\000"
 3656      746100
 3657              	.LASF17:
 3658 086b 75696E74 		.ascii	"uint16_t\000"
 3658      31365F74 
 3658      00
 3659              	.LASF245:
 3660 0874 55415254 		.ascii	"UART_RX_ACTIVE\000"
 3660      5F52585F 
 3660      41435449 
 3660      564500
 3661              	.LASF154:
 3662 0883 6F66665F 		.ascii	"off_name\000"
 3662      6E616D65 
 3662      00
 3663              	.LASF25:
 3664 088c 6D73675F 		.ascii	"msg_t\000"
 3664      7400
 3665              	.LASF52:
 3666 0892 63685F74 		.ascii	"ch_threads_queue\000"
 3666      68726561 
 3666      64735F71 
 3666      75657565 
 3666      00
 3667              	.LASF27:
 3668 08a3 6576656E 		.ascii	"eventflags_t\000"
 3668      74666C61 
 3668      67735F74 
 3668      00
 3669              	.LASF60:
 3670 08b0 64656C74 		.ascii	"delta\000"
 3670      6100
 3671              	.LASF84:
 3672 08b6 52444C52 		.ascii	"RDLR\000"
 3672      00
 3673              	.LASF86:
 3674 08bb 43414E5F 		.ascii	"CAN_FIFOMailBox_TypeDef\000"
 3674      4649464F 
 3674      4D61696C 
 3674      426F785F 
 3674      54797065 
 3675              	.LASF39:
 3676 08d3 72656673 		.ascii	"refs\000"
 3676      00
 3677              	.LASF31:
 3678 08d8 71756575 		.ascii	"queue\000"
 3678      6500
 3679              	.LASF80:
 3680 08de 54444C52 		.ascii	"TDLR\000"
 3680      00
 3681              	.LASF201:
 3682 08e3 76656374 		.ascii	"vector\000"
 3682      6F7200
 3683              	.LASF195:
 3684 08ea 63685F66 		.ascii	"ch_factory\000"
ARM GAS  C:\Users\14122\AppData\Local\Temp\ccvyTxJM.s 			page 73


 3684      6163746F 
 3684      727900
 3685              	.LASF228:
 3686 08f5 72787175 		.ascii	"rxqueue\000"
 3686      65756500 
 3687              	.LASF192:
 3688 08fd 6D62785F 		.ascii	"mbx_list\000"
 3688      6C697374 
 3688      00
 3689              	.LASF72:
 3690 0906 6D61696E 		.ascii	"mainthread\000"
 3690      74687265 
 3690      616400
 3691              	.LASF146:
 3692 0911 76657273 		.ascii	"version\000"
 3692      696F6E00 
 3693              	.LASF242:
 3694 0919 55415254 		.ascii	"UART_TX_COMPLETE\000"
 3694      5F54585F 
 3694      434F4D50 
 3694      4C455445 
 3694      00
 3695              	.LASF247:
 3696 092a 75617274 		.ascii	"uartrxstate_t\000"
 3696      72787374 
 3696      6174655F 
 3696      7400
 3697              	.LASF36:
 3698 0938 77616261 		.ascii	"wabase\000"
 3698      736500
 3699              	.LASF258:
 3700 093f 75617274 		.ascii	"uartccb_t\000"
 3700      6363625F 
 3700      7400
 3701              	.LASF181:
 3702 0949 6D656D6F 		.ascii	"memory_pool_t\000"
 3702      72795F70 
 3702      6F6F6C5F 
 3702      7400
 3703              	.LASF271:
 3704 0957 2E2F2F6F 		.ascii	".//os/hal/ports/STM32/STM32F1xx/hal_lld.c\000"
 3704      732F6861 
 3704      6C2F706F 
 3704      7274732F 
 3704      53544D33 
 3705              	.LASF70:
 3706 0981 726C6973 		.ascii	"rlist\000"
 3706      7400
 3707              	.LASF21:
 3708 0987 746D6F64 		.ascii	"tmode_t\000"
 3708      655F7400 
 3709              	.LASF198:
 3710 098f 64756D6D 		.ascii	"dummy\000"
 3710      7900
 3711              	.LASF260:
 3712 0995 7478656E 		.ascii	"txend1_cb\000"
 3712      64315F63 
ARM GAS  C:\Users\14122\AppData\Local\Temp\ccvyTxJM.s 			page 74


 3712      6200
 3713              	.LASF244:
 3714 099f 55415254 		.ascii	"UART_RX_IDLE\000"
 3714      5F52585F 
 3714      49444C45 
 3714      00
 3715              	.LASF96:
 3716 09ac 46533152 		.ascii	"FS1R\000"
 3716      00
 3717              	.LASF35:
 3718 09b1 6E616D65 		.ascii	"name\000"
 3718      00
 3719              	.LASF166:
 3720 09b6 6C697374 		.ascii	"listener\000"
 3720      656E6572 
 3720      00
 3721              	.LASF78:
 3722 09bf 41504250 		.ascii	"APBPrescTable\000"
 3722      72657363 
 3722      5461626C 
 3722      6500
 3723              	.LASF110:
 3724 09cd 4B455952 		.ascii	"KEYR\000"
 3724      00
 3725              	.LASF123:
 3726 09d2 5243435F 		.ascii	"RCC_TypeDef\000"
 3726      54797065 
 3726      44656600 
 3727              	.LASF82:
 3728 09de 43414E5F 		.ascii	"CAN_TxMailBox_TypeDef\000"
 3728      54784D61 
 3728      696C426F 
 3728      785F5479 
 3728      70654465 
 3729              	.LASF208:
 3730 09f4 5F73746D 		.ascii	"_stm32_dma_isr_redir\000"
 3730      33325F64 
 3730      6D615F69 
 3730      73725F72 
 3730      65646972 
 3731              	.LASF7:
 3732 0a09 73686F72 		.ascii	"short int\000"
 3732      7420696E 
 3732      7400
 3733              	.LASF169:
 3734 0a13 6576656E 		.ascii	"event_source\000"
 3734      745F736F 
 3734      75726365 
 3734      00
 3735              	.LASF20:
 3736 0a20 75696E74 		.ascii	"uint64_t\000"
 3736      36345F74 
 3736      00
 3737              	.LASF61:
 3738 0a29 66756E63 		.ascii	"func\000"
 3738      00
 3739              	.LASF139:
ARM GAS  C:\Users\14122\AppData\Local\Temp\ccvyTxJM.s 			page 75


 3740 0a2e 63685F6D 		.ascii	"ch_mutex\000"
 3740      75746578 
 3740      00
 3741              	.LASF98:
 3742 0a37 46464131 		.ascii	"FFA1R\000"
 3742      5200
 3743              	.LASF41:
 3744 0a3d 6D736771 		.ascii	"msgqueue\000"
 3744      75657565 
 3744      00
 3745              	.LASF227:
 3746 0a46 74787175 		.ascii	"txqueue\000"
 3746      65756500 
 3747              	.LASF239:
 3748 0a4e 75617274 		.ascii	"uartstate_t\000"
 3748      73746174 
 3748      655F7400 
 3749              	.LASF66:
 3750 0a5a 63685F73 		.ascii	"ch_system_debug\000"
 3750      79737465 
 3750      6D5F6465 
 3750      62756700 
 3751              	.LASF185:
 3752 0a6a 64796E5F 		.ascii	"dyn_list_t\000"
 3752      6C697374 
 3752      5F7400
 3753              	.LASF119:
 3754 0a75 41484245 		.ascii	"AHBENR\000"
 3754      4E5200
 3755              	.LASF216:
 3756 0a7c 50414C43 		.ascii	"PALConfig\000"
 3756      6F6E6669 
 3756      6700
 3757              	.LASF205:
 3758 0a86 646D615F 		.ascii	"dma_param\000"
 3758      70617261 
 3758      6D00
 3759              	.LASF178:
 3760 0a90 6F626A65 		.ascii	"object_size\000"
 3760      63745F73 
 3760      697A6500 
 3761              	.LASF269:
 3762 0a9c 69727149 		.ascii	"irqInit\000"
 3762      6E697400 
 3763              	.LASF71:
 3764 0aa4 76746C69 		.ascii	"vtlist\000"
 3764      737400
 3765              	.LASF40:
 3766 0aab 77616974 		.ascii	"waiting\000"
 3766      696E6700 
 3767              	.LASF163:
 3768 0ab3 6D757465 		.ascii	"mutex_t\000"
 3768      785F7400 
 3769              	.LASF23:
 3770 0abb 74726566 		.ascii	"trefs_t\000"
 3770      735F7400 
 3771              	.LASF128:
ARM GAS  C:\Users\14122\AppData\Local\Temp\ccvyTxJM.s 			page 76


 3772 0ac3 706F7274 		.ascii	"port_context\000"
 3772      5F636F6E 
 3772      74657874 
 3772      00
 3773              	.LASF114:
 3774 0ad0 464C4153 		.ascii	"FLASH_TypeDef\000"
 3774      485F5479 
 3774      70654465 
 3774      6600
 3775              	.LASF47:
 3776 0ade 74687265 		.ascii	"threads_list_t\000"
 3776      6164735F 
 3776      6C697374 
 3776      5F7400
 3777              	.LASF240:
 3778 0aed 55415254 		.ascii	"UART_TX_IDLE\000"
 3778      5F54585F 
 3778      49444C45 
 3778      00
 3779              	.LASF257:
 3780 0afa 75617274 		.ascii	"uartcb_t\000"
 3780      63625F74 
 3780      00
 3781              	.LASF69:
 3782 0b03 63685F73 		.ascii	"ch_system\000"
 3782      79737465 
 3782      6D00
 3783              	.LASF33:
 3784 0b0d 6E657765 		.ascii	"newer\000"
 3784      7200
 3785              	.LASF19:
 3786 0b13 75696E74 		.ascii	"uint32_t\000"
 3786      33325F74 
 3786      00
 3787              	.LASF115:
 3788 0b1c 5057525F 		.ascii	"PWR_TypeDef\000"
 3788      54797065 
 3788      44656600 
 3789              	.LASF165:
 3790 0b28 6576656E 		.ascii	"event_listener\000"
 3790      745F6C69 
 3790      7374656E 
 3790      657200
 3791              	.LASF130:
 3792 0b37 7264796D 		.ascii	"rdymsg\000"
 3792      736700
 3793              	.LASF9:
 3794 0b3e 73686F72 		.ascii	"short unsigned int\000"
 3794      7420756E 
 3794      7369676E 
 3794      65642069 
 3794      6E7400
 3795              	.LASF68:
 3796 0b51 63685F73 		.ascii	"ch_system_t\000"
 3796      79737465 
 3796      6D5F7400 
 3797              	.LASF161:
ARM GAS  C:\Users\14122\AppData\Local\Temp\ccvyTxJM.s 			page 77


 3798 0b5d 63686465 		.ascii	"chdebug_t\000"
 3798      6275675F 
 3798      7400
 3799              	.LASF91:
 3800 0b67 7354784D 		.ascii	"sTxMailBox\000"
 3800      61696C42 
 3800      6F7800
 3801              	.LASF148:
 3802 0b72 74696D65 		.ascii	"timesize\000"
 3802      73697A65 
 3802      00
 3803              	.LASF267:
 3804 0b7b 55415254 		.ascii	"UARTD2\000"
 3804      443200
 3805              	.LASF10:
 3806 0b82 5F5F696E 		.ascii	"__int32_t\000"
 3806      7433325F 
 3806      7400
 3807              	.LASF176:
 3808 0b8c 63685F6D 		.ascii	"ch_memcore\000"
 3808      656D636F 
 3808      726500
 3809              	.LASF157:
 3810 0b97 6F66665F 		.ascii	"off_flags\000"
 3810      666C6167 
 3810      7300
 3811              	.LASF220:
 3812 0ba1 43414E5F 		.ascii	"CAN_STOP\000"
 3812      53544F50 
 3812      00
 3813              	.LASF167:
 3814 0baa 6576656E 		.ascii	"events\000"
 3814      747300
 3815              	.LASF50:
 3816 0bb1 6E657874 		.ascii	"next\000"
 3816      00
 3817              	.LASF83:
 3818 0bb6 52445452 		.ascii	"RDTR\000"
 3818      00
 3819              	.LASF118:
 3820 0bbb 41504231 		.ascii	"APB1RSTR\000"
 3820      52535452 
 3820      00
 3821              	.LASF53:
 3822 0bc4 70726576 		.ascii	"prev\000"
 3822      00
 3823              	.LASF184:
 3824 0bc9 63685F64 		.ascii	"ch_dyn_list\000"
 3824      796E5F6C 
 3824      69737400 
 3825              	.LASF143:
 3826 0bd5 6964656E 		.ascii	"identifier\000"
 3826      74696669 
 3826      657200
 3827              	.LASF79:
 3828 0be0 54445452 		.ascii	"TDTR\000"
 3828      00
ARM GAS  C:\Users\14122\AppData\Local\Temp\ccvyTxJM.s 			page 78


 3829              	.LASF235:
 3830 0be5 43414E44 		.ascii	"CAND1\000"
 3830      3100
 3831              	.LASF230:
 3832 0beb 7478656D 		.ascii	"txempty_event\000"
 3832      7074795F 
 3832      6576656E 
 3832      7400
 3833              	.LASF272:
 3834 0bf9 443A5C68 		.ascii	"D:\\hkust\\robomaster\\eclipse___files\\cundang\\as"
 3834      6B757374 
 3834      5C726F62 
 3834      6F6D6173 
 3834      7465725C 
 3835 0c27 7369676E 		.ascii	"signment2-master_10.20_turret_2\000"
 3835      6D656E74 
 3835      322D6D61 
 3835      73746572 
 3835      5F31302E 
 3836              		.ident	"GCC: (GNU Tools for Arm Embedded Processors 7-2017-q4-major) 7.2.1 20170904 (release) [ARM
ARM GAS  C:\Users\14122\AppData\Local\Temp\ccvyTxJM.s 			page 79


DEFINED SYMBOLS
                            *ABS*:00000000 hal_lld.c
C:\Users\14122\AppData\Local\Temp\ccvyTxJM.s:16     .text.hal_lld_init:00000000 $t
C:\Users\14122\AppData\Local\Temp\ccvyTxJM.s:24     .text.hal_lld_init:00000000 hal_lld_init
C:\Users\14122\AppData\Local\Temp\ccvyTxJM.s:91     .text.hal_lld_init:00000048 $d
C:\Users\14122\AppData\Local\Temp\ccvyTxJM.s:97     .text.stm32_clock_init:00000000 $t
C:\Users\14122\AppData\Local\Temp\ccvyTxJM.s:105    .text.stm32_clock_init:00000000 stm32_clock_init
C:\Users\14122\AppData\Local\Temp\ccvyTxJM.s:195    .text.stm32_clock_init:00000070 $d
C:\Users\14122\AppData\Local\Temp\ccvyTxJM.s:206    .data.SystemCoreClock:00000000 SystemCoreClock
C:\Users\14122\AppData\Local\Temp\ccvyTxJM.s:203    .data.SystemCoreClock:00000000 $d

UNDEFINED SYMBOLS
dmaInit
irqInit
