ARM GAS  C:\Users\14122\AppData\Local\Temp\ccMqnaqC.s 			page 1


   1              		.cpu cortex-m3
   2              		.eabi_attribute 20, 1
   3              		.eabi_attribute 21, 1
   4              		.eabi_attribute 23, 3
   5              		.eabi_attribute 24, 1
   6              		.eabi_attribute 25, 1
   7              		.eabi_attribute 26, 1
   8              		.eabi_attribute 30, 2
   9              		.eabi_attribute 34, 1
  10              		.eabi_attribute 18, 4
  11              		.file	"hal_st_lld.c"
  12              		.text
  13              	.Ltext0:
  14              		.cfi_sections	.debug_frame
  15              		.section	.text.VectorB0,"ax",%progbits
  16              		.align	1
  17              		.p2align 4,,15
  18              		.global	VectorB0
  19              		.syntax unified
  20              		.thumb
  21              		.thumb_func
  22              		.fpu softvfp
  23              		.type	VectorB0, %function
  24              	VectorB0:
  25              	.LFB253:
  26              		.file 1 ".//os/hal/ports/STM32/LLD/TIMv1/hal_st_lld.c"
  27              		.loc 1 253 0
  28              		.cfi_startproc
  29              		@ args = 0, pretend = 0, frame = 0
  30              		@ frame_needed = 0, uses_anonymous_args = 0
  31              		.loc 1 260 0
  32 0000 4FF08043 		mov	r3, #1073741824
  33 0004 1A69     		ldr	r2, [r3, #16]
  34 0006 9207     		lsls	r2, r2, #30
  35 0008 01D4     		bmi	.L11
  36              		.loc 1 268 0
  37 000a FFF7FEBF 		b	_port_irq_epilogue
  38              	.LVL0:
  39              	.L11:
  40              		.loc 1 253 0
  41 000e 10B5     		push	{r4, lr}
  42              		.cfi_def_cfa_offset 8
  43              		.cfi_offset 4, -8
  44              		.cfi_offset 14, -4
  45              		.loc 1 261 0
  46 0010 0024     		movs	r4, #0
  47              	.LBB52:
  48              	.LBB53:
  49              	.LBB54:
  50              	.LBB55:
  51              	.LBB56:
  52              	.LBB57:
  53              		.file 2 ".//os/common/ext/ARM/CMSIS/Core/Include/cmsis_gcc.h"
  54              		.loc 2 493 0
  55 0012 2022     		movs	r2, #32
  56              	.LBE57:
  57              	.LBE56:
ARM GAS  C:\Users\14122\AppData\Local\Temp\ccMqnaqC.s 			page 2


  58              	.LBE55:
  59              	.LBE54:
  60              	.LBE53:
  61              	.LBE52:
  62              		.loc 1 261 0
  63 0014 1C61     		str	r4, [r3, #16]
  64              	.LVL1:
  65              	.LBB63:
  66              	.LBB62:
  67              	.LBB61:
  68              	.LBB60:
  69              	.LBB59:
  70              	.LBB58:
  71              		.loc 2 493 0
  72              		.syntax unified
  73              	@ 493 ".//os/common/ext/ARM/CMSIS/Core/Include/cmsis_gcc.h" 1
  74 0016 82F31188 		MSR basepri, r2
  75              	@ 0 "" 2
  76              	.LVL2:
  77              		.thumb
  78              		.syntax unified
  79              	.LBE58:
  80              	.LBE59:
  81              	.LBE60:
  82              	.LBE61:
  83              	.LBE62:
  84              	.LBE63:
  85              	.LBB64:
  86              	.LBB65:
  87              		.file 3 ".//os/hal/osal/rt/osal.h"
  88              		.loc 3 603 0
  89 001a FFF7FEFF 		bl	chSysTimerHandlerI
  90              	.LVL3:
  91              	.LBE65:
  92              	.LBE64:
  93              	.LBB66:
  94              	.LBB67:
  95              	.LBB68:
  96              	.LBB69:
  97              	.LBB70:
  98              	.LBB71:
  99              		.loc 2 493 0
 100              		.syntax unified
 101              	@ 493 ".//os/common/ext/ARM/CMSIS/Core/Include/cmsis_gcc.h" 1
 102 001e 84F31188 		MSR basepri, r4
 103              	@ 0 "" 2
 104              	.LVL4:
 105              		.thumb
 106              		.syntax unified
 107              	.LBE71:
 108              	.LBE70:
 109              	.LBE69:
 110              	.LBE68:
 111              	.LBE67:
 112              	.LBE66:
 113              		.loc 1 269 0
 114 0022 BDE81040 		pop	{r4, lr}
ARM GAS  C:\Users\14122\AppData\Local\Temp\ccMqnaqC.s 			page 3


 115              		.cfi_restore 14
 116              		.cfi_restore 4
 117              		.cfi_def_cfa_offset 0
 118              		.loc 1 268 0
 119 0026 FFF7FEBF 		b	_port_irq_epilogue
 120              	.LVL5:
 121              		.cfi_endproc
 122              	.LFE253:
 123              		.size	VectorB0, .-VectorB0
 124 002a 00BF     		.section	.text.st_lld_init,"ax",%progbits
 125              		.align	1
 126              		.p2align 4,,15
 127              		.global	st_lld_init
 128              		.syntax unified
 129              		.thumb
 130              		.thumb_func
 131              		.fpu softvfp
 132              		.type	st_lld_init, %function
 133              	st_lld_init:
 134              	.LFB254:
 135              		.loc 1 281 0
 136              		.cfi_startproc
 137              		@ args = 0, pretend = 0, frame = 0
 138              		@ frame_needed = 0, uses_anonymous_args = 0
 139              		@ link register save eliminated.
 140 0000 70B4     		push	{r4, r5, r6}
 141              		.cfi_def_cfa_offset 12
 142              		.cfi_offset 4, -12
 143              		.cfi_offset 5, -8
 144              		.cfi_offset 6, -4
 145              		.loc 1 299 0
 146 0002 0124     		movs	r4, #1
 147              		.loc 1 293 0
 148 0004 4FF08043 		mov	r3, #1073741824
 149              		.loc 1 295 0
 150 0008 0022     		movs	r2, #0
 151              		.loc 1 293 0
 152 000a 48F69F46 		movw	r6, #35999
 153              		.loc 1 294 0
 154 000e 4FF6FF75 		movw	r5, #65535
 155              		.loc 1 287 0
 156 0012 0B49     		ldr	r1, .L14
 157 0014 C869     		ldr	r0, [r1, #28]
 158 0016 2043     		orrs	r0, r0, r4
 159 0018 C861     		str	r0, [r1, #28]
 160              		.loc 1 290 0
 161 001a 0A48     		ldr	r0, .L14+4
 162              		.loc 1 287 0
 163 001c C969     		ldr	r1, [r1, #28]
 164              		.loc 1 290 0
 165 001e 4168     		ldr	r1, [r0, #4]
 166 0020 41F40061 		orr	r1, r1, #2048
 167 0024 4160     		str	r1, [r0, #4]
 168              		.loc 1 293 0
 169 0026 9E62     		str	r6, [r3, #40]
 170              		.loc 1 303 0
 171 0028 0821     		movs	r1, #8
ARM GAS  C:\Users\14122\AppData\Local\Temp\ccMqnaqC.s 			page 4


 172              		.loc 1 294 0
 173 002a DD62     		str	r5, [r3, #44]
 174              		.loc 1 303 0
 175 002c 1C20     		movs	r0, #28
 176              		.loc 1 295 0
 177 002e 9A61     		str	r2, [r3, #24]
 178              		.loc 1 296 0
 179 0030 5A63     		str	r2, [r3, #52]
 180              		.loc 1 297 0
 181 0032 DA60     		str	r2, [r3, #12]
 182              		.loc 1 298 0
 183 0034 5A60     		str	r2, [r3, #4]
 184              		.loc 1 299 0
 185 0036 5C61     		str	r4, [r3, #20]
 186              		.loc 1 300 0
 187 0038 1C60     		str	r4, [r3]
 188              		.loc 1 318 0
 189 003a 70BC     		pop	{r4, r5, r6}
 190              		.cfi_restore 6
 191              		.cfi_restore 5
 192              		.cfi_restore 4
 193              		.cfi_def_cfa_offset 0
 194              		.loc 1 303 0
 195 003c FFF7FEBF 		b	nvicEnableVector
 196              	.LVL6:
 197              	.L15:
 198              		.align	2
 199              	.L14:
 200 0040 00100240 		.word	1073876992
 201 0044 002004E0 		.word	-536600576
 202              		.cfi_endproc
 203              	.LFE254:
 204              		.size	st_lld_init, .-st_lld_init
 205              		.text
 206              	.Letext0:
 207              		.file 4 "c:\\chibistudio\\tools\\gnu tools arm embedded\\7.0 2017q4\\lib\\gcc\\arm-none-eabi\\7.2.
 208              		.file 5 "c:\\chibistudio\\tools\\gnu tools arm embedded\\7.0 2017q4\\arm-none-eabi\\include\\machi
 209              		.file 6 "c:\\chibistudio\\tools\\gnu tools arm embedded\\7.0 2017q4\\arm-none-eabi\\include\\sys\\
 210              		.file 7 ".//os/common/ports/ARMCMx/compilers/GCC/chtypes.h"
 211              		.file 8 ".//os/rt/include/chsystypes.h"
 212              		.file 9 ".//os/rt/include/chschd.h"
 213              		.file 10 ".//os/rt/include/chtime.h"
 214              		.file 11 ".//os/common/ext/ARM/CMSIS/Core/Include/core_cm3.h"
 215              		.file 12 ".//os/common/ext/ST/STM32F1xx/system_stm32f1xx.h"
 216              		.file 13 ".//os/common/ext/ST/STM32F1xx/stm32f103xb.h"
 217              		.file 14 ".//os/common/ports/ARMCMx/chcore.h"
 218              		.file 15 ".//os/common/ports/ARMCMx/chcore_v7m.h"
 219              		.file 16 ".//os/hal/ports/STM32/LLD/TIMv1/stm32_tim.h"
 220              		.file 17 ".//os/rt/include/chsem.h"
 221              		.file 18 ".//os/rt/include/chmtx.h"
 222              		.file 19 ".//os/rt/include/chsys.h"
 223              		.file 20 ".//os/rt/include/chregistry.h"
 224              		.file 21 ".//os/rt/include/chevents.h"
 225              		.file 22 ".//os/lib/include/chmemcore.h"
 226              		.file 23 ".//os/lib/include/chmempools.h"
 227              		.file 24 ".//os/lib/include/chfactory.h"
 228              		.file 25 ".//os/hal/ports/STM32/LLD/DMAv1/stm32_dma.h"
ARM GAS  C:\Users\14122\AppData\Local\Temp\ccMqnaqC.s 			page 5


 229              		.file 26 ".//os/hal/include/hal_pal.h"
 230              		.file 27 ".//os/hal/ports/STM32/LLD/GPIOv1/hal_pal_lld.h"
 231              		.file 28 ".//os/hal/include/hal_can.h"
 232              		.file 29 ".//os/hal/ports/STM32/LLD/CANv1/hal_can_lld.h"
 233              		.file 30 ".//os/hal/include/hal_uart.h"
 234              		.file 31 ".//os/hal/ports/STM32/LLD/USARTv1/hal_uart_lld.h"
 235              		.file 32 ".//os/hal/ports/common/ARMCMx/nvic.h"
 236              		.section	.debug_info,"",%progbits
 237              	.Ldebug_info0:
 238 0000 0F160000 		.4byte	0x160f
 239 0004 0400     		.2byte	0x4
 240 0006 00000000 		.4byte	.Ldebug_abbrev0
 241 000a 04       		.byte	0x4
 242 000b 01       		.uleb128 0x1
 243 000c 9A070000 		.4byte	.LASF288
 244 0010 0C       		.byte	0xc
 245 0011 EA010000 		.4byte	.LASF289
 246 0015 D00C0000 		.4byte	.LASF290
 247 0019 18000000 		.4byte	.Ldebug_ranges0+0x18
 248 001d 00000000 		.4byte	0
 249 0021 00000000 		.4byte	.Ldebug_line0
 250 0025 02       		.uleb128 0x2
 251 0026 04       		.byte	0x4
 252 0027 05       		.byte	0x5
 253 0028 696E7400 		.ascii	"int\000"
 254 002c 03       		.uleb128 0x3
 255 002d 1B000000 		.4byte	.LASF4
 256 0031 04       		.byte	0x4
 257 0032 D8       		.byte	0xd8
 258 0033 37000000 		.4byte	0x37
 259 0037 04       		.uleb128 0x4
 260 0038 04       		.byte	0x4
 261 0039 07       		.byte	0x7
 262 003a F5060000 		.4byte	.LASF0
 263 003e 04       		.uleb128 0x4
 264 003f 08       		.byte	0x8
 265 0040 05       		.byte	0x5
 266 0041 1C060000 		.4byte	.LASF1
 267 0045 04       		.uleb128 0x4
 268 0046 08       		.byte	0x8
 269 0047 04       		.byte	0x4
 270 0048 84080000 		.4byte	.LASF2
 271 004c 04       		.uleb128 0x4
 272 004d 01       		.byte	0x1
 273 004e 06       		.byte	0x6
 274 004f 52020000 		.4byte	.LASF3
 275 0053 03       		.uleb128 0x3
 276 0054 48010000 		.4byte	.LASF5
 277 0058 05       		.byte	0x5
 278 0059 2B       		.byte	0x2b
 279 005a 5E000000 		.4byte	0x5e
 280 005e 04       		.uleb128 0x4
 281 005f 01       		.byte	0x1
 282 0060 08       		.byte	0x8
 283 0061 DB020000 		.4byte	.LASF6
 284 0065 04       		.uleb128 0x4
 285 0066 02       		.byte	0x2
ARM GAS  C:\Users\14122\AppData\Local\Temp\ccMqnaqC.s 			page 6


 286 0067 05       		.byte	0x5
 287 0068 E30A0000 		.4byte	.LASF7
 288 006c 03       		.uleb128 0x3
 289 006d 8F030000 		.4byte	.LASF8
 290 0071 05       		.byte	0x5
 291 0072 39       		.byte	0x39
 292 0073 77000000 		.4byte	0x77
 293 0077 04       		.uleb128 0x4
 294 0078 02       		.byte	0x2
 295 0079 07       		.byte	0x7
 296 007a 150C0000 		.4byte	.LASF9
 297 007e 03       		.uleb128 0x3
 298 007f 590C0000 		.4byte	.LASF10
 299 0083 05       		.byte	0x5
 300 0084 4D       		.byte	0x4d
 301 0085 89000000 		.4byte	0x89
 302 0089 04       		.uleb128 0x4
 303 008a 04       		.byte	0x4
 304 008b 05       		.byte	0x5
 305 008c 76010000 		.4byte	.LASF11
 306 0090 03       		.uleb128 0x3
 307 0091 09060000 		.4byte	.LASF12
 308 0095 05       		.byte	0x5
 309 0096 4F       		.byte	0x4f
 310 0097 9B000000 		.4byte	0x9b
 311 009b 04       		.uleb128 0x4
 312 009c 04       		.byte	0x4
 313 009d 07       		.byte	0x7
 314 009e BD040000 		.4byte	.LASF13
 315 00a2 03       		.uleb128 0x3
 316 00a3 A8040000 		.4byte	.LASF14
 317 00a7 05       		.byte	0x5
 318 00a8 69       		.byte	0x69
 319 00a9 AD000000 		.4byte	0xad
 320 00ad 04       		.uleb128 0x4
 321 00ae 08       		.byte	0x8
 322 00af 07       		.byte	0x7
 323 00b0 34090000 		.4byte	.LASF15
 324 00b4 03       		.uleb128 0x3
 325 00b5 65020000 		.4byte	.LASF16
 326 00b9 06       		.byte	0x6
 327 00ba 18       		.byte	0x18
 328 00bb 53000000 		.4byte	0x53
 329 00bf 05       		.uleb128 0x5
 330 00c0 B4000000 		.4byte	0xb4
 331 00c4 03       		.uleb128 0x3
 332 00c5 52090000 		.4byte	.LASF17
 333 00c9 06       		.byte	0x6
 334 00ca 24       		.byte	0x24
 335 00cb 6C000000 		.4byte	0x6c
 336 00cf 06       		.uleb128 0x6
 337 00d0 C4000000 		.4byte	0xc4
 338 00d4 03       		.uleb128 0x3
 339 00d5 6F000000 		.4byte	.LASF18
 340 00d9 06       		.byte	0x6
 341 00da 2C       		.byte	0x2c
 342 00db 7E000000 		.4byte	0x7e
ARM GAS  C:\Users\14122\AppData\Local\Temp\ccMqnaqC.s 			page 7


 343 00df 06       		.uleb128 0x6
 344 00e0 D4000000 		.4byte	0xd4
 345 00e4 03       		.uleb128 0x3
 346 00e5 F60B0000 		.4byte	.LASF19
 347 00e9 06       		.byte	0x6
 348 00ea 30       		.byte	0x30
 349 00eb 90000000 		.4byte	0x90
 350 00ef 06       		.uleb128 0x6
 351 00f0 E4000000 		.4byte	0xe4
 352 00f4 03       		.uleb128 0x3
 353 00f5 FA0A0000 		.4byte	.LASF20
 354 00f9 06       		.byte	0x6
 355 00fa 3C       		.byte	0x3c
 356 00fb A2000000 		.4byte	0xa2
 357 00ff 03       		.uleb128 0x3
 358 0100 5C0A0000 		.4byte	.LASF21
 359 0104 07       		.byte	0x7
 360 0105 2A       		.byte	0x2a
 361 0106 B4000000 		.4byte	0xb4
 362 010a 03       		.uleb128 0x3
 363 010b A6010000 		.4byte	.LASF22
 364 010f 07       		.byte	0x7
 365 0110 2B       		.byte	0x2b
 366 0111 B4000000 		.4byte	0xb4
 367 0115 03       		.uleb128 0x3
 368 0116 960B0000 		.4byte	.LASF23
 369 011a 07       		.byte	0x7
 370 011b 2C       		.byte	0x2c
 371 011c B4000000 		.4byte	0xb4
 372 0120 03       		.uleb128 0x3
 373 0121 55000000 		.4byte	.LASF24
 374 0125 07       		.byte	0x7
 375 0126 2E       		.byte	0x2e
 376 0127 E4000000 		.4byte	0xe4
 377 012b 03       		.uleb128 0x3
 378 012c 73090000 		.4byte	.LASF25
 379 0130 07       		.byte	0x7
 380 0131 2F       		.byte	0x2f
 381 0132 D4000000 		.4byte	0xd4
 382 0136 03       		.uleb128 0x3
 383 0137 6D020000 		.4byte	.LASF26
 384 013b 07       		.byte	0x7
 385 013c 31       		.byte	0x31
 386 013d E4000000 		.4byte	0xe4
 387 0141 03       		.uleb128 0x3
 388 0142 8A090000 		.4byte	.LASF27
 389 0146 07       		.byte	0x7
 390 0147 32       		.byte	0x32
 391 0148 E4000000 		.4byte	0xe4
 392 014c 03       		.uleb128 0x3
 393 014d 24040000 		.4byte	.LASF28
 394 0151 07       		.byte	0x7
 395 0152 33       		.byte	0x33
 396 0153 D4000000 		.4byte	0xd4
 397 0157 03       		.uleb128 0x3
 398 0158 B0050000 		.4byte	.LASF29
 399 015c 07       		.byte	0x7
ARM GAS  C:\Users\14122\AppData\Local\Temp\ccMqnaqC.s 			page 8


 400 015d 34       		.byte	0x34
 401 015e E4000000 		.4byte	0xe4
 402 0162 03       		.uleb128 0x3
 403 0163 7B080000 		.4byte	.LASF30
 404 0167 08       		.byte	0x8
 405 0168 34       		.byte	0x34
 406 0169 6D010000 		.4byte	0x16d
 407 016d 07       		.uleb128 0x7
 408 016e 15050000 		.4byte	.LASF48
 409 0172 44       		.byte	0x44
 410 0173 09       		.byte	0x9
 411 0174 8E       		.byte	0x8e
 412 0175 4B020000 		.4byte	0x24b
 413 0179 08       		.uleb128 0x8
 414 017a C4090000 		.4byte	.LASF31
 415 017e 09       		.byte	0x9
 416 017f 8F       		.byte	0x8f
 417 0180 80020000 		.4byte	0x280
 418 0184 00       		.byte	0
 419 0185 08       		.uleb128 0x8
 420 0186 27010000 		.4byte	.LASF32
 421 018a 09       		.byte	0x9
 422 018b 90       		.byte	0x90
 423 018c 20010000 		.4byte	0x120
 424 0190 08       		.byte	0x8
 425 0191 09       		.uleb128 0x9
 426 0192 63747800 		.ascii	"ctx\000"
 427 0196 09       		.byte	0x9
 428 0197 91       		.byte	0x91
 429 0198 EB080000 		.4byte	0x8eb
 430 019c 0C       		.byte	0xc
 431 019d 08       		.uleb128 0x8
 432 019e DA0B0000 		.4byte	.LASF33
 433 01a2 09       		.byte	0x9
 434 01a3 93       		.byte	0x93
 435 01a4 56020000 		.4byte	0x256
 436 01a8 10       		.byte	0x10
 437 01a9 08       		.uleb128 0x8
 438 01aa 8B050000 		.4byte	.LASF34
 439 01ae 09       		.byte	0x9
 440 01af 94       		.byte	0x94
 441 01b0 56020000 		.4byte	0x256
 442 01b4 14       		.byte	0x14
 443 01b5 08       		.uleb128 0x8
 444 01b6 860A0000 		.4byte	.LASF35
 445 01ba 09       		.byte	0x9
 446 01bb 9B       		.byte	0x9b
 447 01bc 7C0B0000 		.4byte	0xb7c
 448 01c0 18       		.byte	0x18
 449 01c1 08       		.uleb128 0x8
 450 01c2 370A0000 		.4byte	.LASF36
 451 01c6 09       		.byte	0x9
 452 01c7 A4       		.byte	0xa4
 453 01c8 930B0000 		.4byte	0xb93
 454 01cc 1C       		.byte	0x1c
 455 01cd 08       		.uleb128 0x8
 456 01ce D0000000 		.4byte	.LASF37
ARM GAS  C:\Users\14122\AppData\Local\Temp\ccMqnaqC.s 			page 9


 457 01d2 09       		.byte	0x9
 458 01d3 A9       		.byte	0xa9
 459 01d4 0A010000 		.4byte	0x10a
 460 01d8 20       		.byte	0x20
 461 01d9 08       		.uleb128 0x8
 462 01da B5030000 		.4byte	.LASF38
 463 01de 09       		.byte	0x9
 464 01df AD       		.byte	0xad
 465 01e0 FF000000 		.4byte	0xff
 466 01e4 21       		.byte	0x21
 467 01e5 08       		.uleb128 0x8
 468 01e6 BF090000 		.4byte	.LASF39
 469 01ea 09       		.byte	0x9
 470 01eb B2       		.byte	0xb2
 471 01ec 15010000 		.4byte	0x115
 472 01f0 22       		.byte	0x22
 473 01f1 0A       		.uleb128 0xa
 474 01f2 7500     		.ascii	"u\000"
 475 01f4 09       		.byte	0x9
 476 01f5 0301     		.2byte	0x103
 477 01f7 B20A0000 		.4byte	0xab2
 478 01fb 24       		.byte	0x24
 479 01fc 0B       		.uleb128 0xb
 480 01fd 860B0000 		.4byte	.LASF40
 481 0201 09       		.byte	0x9
 482 0202 0801     		.2byte	0x108
 483 0204 5C020000 		.4byte	0x25c
 484 0208 28       		.byte	0x28
 485 0209 0B       		.uleb128 0xb
 486 020a 170B0000 		.4byte	.LASF41
 487 020e 09       		.byte	0x9
 488 020f 0E01     		.2byte	0x10e
 489 0211 80020000 		.4byte	0x280
 490 0215 2C       		.byte	0x2c
 491 0216 0B       		.uleb128 0xb
 492 0217 AF010000 		.4byte	.LASF42
 493 021b 09       		.byte	0x9
 494 021c 1401     		.2byte	0x114
 495 021e 36010000 		.4byte	0x136
 496 0222 34       		.byte	0x34
 497 0223 0B       		.uleb128 0xb
 498 0224 14060000 		.4byte	.LASF43
 499 0228 09       		.byte	0x9
 500 0229 1B01     		.2byte	0x11b
 501 022b 760B0000 		.4byte	0xb76
 502 022f 38       		.byte	0x38
 503 0230 0B       		.uleb128 0xb
 504 0231 9B050000 		.4byte	.LASF44
 505 0235 09       		.byte	0x9
 506 0236 1F01     		.2byte	0x11f
 507 0238 20010000 		.4byte	0x120
 508 023c 3C       		.byte	0x3c
 509 023d 0B       		.uleb128 0xb
 510 023e D4030000 		.4byte	.LASF45
 511 0242 09       		.byte	0x9
 512 0243 2601     		.2byte	0x126
 513 0245 33030000 		.4byte	0x333
ARM GAS  C:\Users\14122\AppData\Local\Temp\ccMqnaqC.s 			page 10


 514 0249 40       		.byte	0x40
 515 024a 00       		.byte	0
 516 024b 03       		.uleb128 0x3
 517 024c 97080000 		.4byte	.LASF46
 518 0250 08       		.byte	0x8
 519 0251 39       		.byte	0x39
 520 0252 56020000 		.4byte	0x256
 521 0256 0C       		.uleb128 0xc
 522 0257 04       		.byte	0x4
 523 0258 62010000 		.4byte	0x162
 524 025c 03       		.uleb128 0x3
 525 025d AB0B0000 		.4byte	.LASF47
 526 0261 08       		.byte	0x8
 527 0262 3E       		.byte	0x3e
 528 0263 67020000 		.4byte	0x267
 529 0267 07       		.uleb128 0x7
 530 0268 DC050000 		.4byte	.LASF49
 531 026c 04       		.byte	0x4
 532 026d 09       		.byte	0x9
 533 026e 7C       		.byte	0x7c
 534 026f 80020000 		.4byte	0x280
 535 0273 08       		.uleb128 0x8
 536 0274 880C0000 		.4byte	.LASF50
 537 0278 09       		.byte	0x9
 538 0279 7D       		.byte	0x7d
 539 027a 56020000 		.4byte	0x256
 540 027e 00       		.byte	0
 541 027f 00       		.byte	0
 542 0280 03       		.uleb128 0x3
 543 0281 B8010000 		.4byte	.LASF51
 544 0285 08       		.byte	0x8
 545 0286 45       		.byte	0x45
 546 0287 8B020000 		.4byte	0x28b
 547 028b 07       		.uleb128 0x7
 548 028c 79090000 		.4byte	.LASF52
 549 0290 08       		.byte	0x8
 550 0291 09       		.byte	0x9
 551 0292 83       		.byte	0x83
 552 0293 B0020000 		.4byte	0x2b0
 553 0297 08       		.uleb128 0x8
 554 0298 880C0000 		.4byte	.LASF50
 555 029c 09       		.byte	0x9
 556 029d 84       		.byte	0x84
 557 029e 56020000 		.4byte	0x256
 558 02a2 00       		.byte	0
 559 02a3 08       		.uleb128 0x8
 560 02a4 9B0C0000 		.4byte	.LASF53
 561 02a8 09       		.byte	0x9
 562 02a9 85       		.byte	0x85
 563 02aa 56020000 		.4byte	0x256
 564 02ae 04       		.byte	0x4
 565 02af 00       		.byte	0
 566 02b0 03       		.uleb128 0x3
 567 02b1 7E050000 		.4byte	.LASF54
 568 02b5 08       		.byte	0x8
 569 02b6 4C       		.byte	0x4c
 570 02b7 BB020000 		.4byte	0x2bb
ARM GAS  C:\Users\14122\AppData\Local\Temp\ccMqnaqC.s 			page 11


 571 02bb 0D       		.uleb128 0xd
 572 02bc 5E040000 		.4byte	.LASF55
 573 02c0 1C       		.byte	0x1c
 574 02c1 09       		.byte	0x9
 575 02c2 5E01     		.2byte	0x15e
 576 02c4 17030000 		.4byte	0x317
 577 02c8 0B       		.uleb128 0xb
 578 02c9 C4090000 		.4byte	.LASF31
 579 02cd 09       		.byte	0x9
 580 02ce 5F01     		.2byte	0x15f
 581 02d0 80020000 		.4byte	0x280
 582 02d4 00       		.byte	0
 583 02d5 0B       		.uleb128 0xb
 584 02d6 27010000 		.4byte	.LASF32
 585 02da 09       		.byte	0x9
 586 02db 6001     		.2byte	0x160
 587 02dd 20010000 		.4byte	0x120
 588 02e1 08       		.byte	0x8
 589 02e2 0A       		.uleb128 0xa
 590 02e3 63747800 		.ascii	"ctx\000"
 591 02e7 09       		.byte	0x9
 592 02e8 6201     		.2byte	0x162
 593 02ea EB080000 		.4byte	0x8eb
 594 02ee 0C       		.byte	0xc
 595 02ef 0B       		.uleb128 0xb
 596 02f0 DA0B0000 		.4byte	.LASF33
 597 02f4 09       		.byte	0x9
 598 02f5 6501     		.2byte	0x165
 599 02f7 56020000 		.4byte	0x256
 600 02fb 10       		.byte	0x10
 601 02fc 0B       		.uleb128 0xb
 602 02fd 8B050000 		.4byte	.LASF34
 603 0301 09       		.byte	0x9
 604 0302 6601     		.2byte	0x166
 605 0304 56020000 		.4byte	0x256
 606 0308 14       		.byte	0x14
 607 0309 0B       		.uleb128 0xb
 608 030a 6A070000 		.4byte	.LASF56
 609 030e 09       		.byte	0x9
 610 030f 6901     		.2byte	0x169
 611 0311 56020000 		.4byte	0x256
 612 0315 18       		.byte	0x18
 613 0316 00       		.byte	0
 614 0317 03       		.uleb128 0x3
 615 0318 77000000 		.4byte	.LASF57
 616 031c 08       		.byte	0x8
 617 031d 51       		.byte	0x51
 618 031e 22030000 		.4byte	0x322
 619 0322 0C       		.uleb128 0xc
 620 0323 04       		.byte	0x4
 621 0324 28030000 		.4byte	0x328
 622 0328 0E       		.uleb128 0xe
 623 0329 33030000 		.4byte	0x333
 624 032d 0F       		.uleb128 0xf
 625 032e 33030000 		.4byte	0x333
 626 0332 00       		.byte	0
 627 0333 10       		.uleb128 0x10
ARM GAS  C:\Users\14122\AppData\Local\Temp\ccMqnaqC.s 			page 12


 628 0334 04       		.byte	0x4
 629 0335 03       		.uleb128 0x3
 630 0336 6E050000 		.4byte	.LASF58
 631 033a 08       		.byte	0x8
 632 033b 56       		.byte	0x56
 633 033c 40030000 		.4byte	0x340
 634 0340 0D       		.uleb128 0xd
 635 0341 16090000 		.4byte	.LASF59
 636 0345 14       		.byte	0x14
 637 0346 09       		.byte	0x9
 638 0347 3901     		.2byte	0x139
 639 0349 8F030000 		.4byte	0x38f
 640 034d 0B       		.uleb128 0xb
 641 034e 880C0000 		.4byte	.LASF50
 642 0352 09       		.byte	0x9
 643 0353 3A01     		.2byte	0x13a
 644 0355 990B0000 		.4byte	0xb99
 645 0359 00       		.byte	0
 646 035a 0B       		.uleb128 0xb
 647 035b 9B0C0000 		.4byte	.LASF53
 648 035f 09       		.byte	0x9
 649 0360 3B01     		.2byte	0x13b
 650 0362 990B0000 		.4byte	0xb99
 651 0366 04       		.byte	0x4
 652 0367 0B       		.uleb128 0xb
 653 0368 9C090000 		.4byte	.LASF60
 654 036c 09       		.byte	0x9
 655 036d 3C01     		.2byte	0x13c
 656 036f 5A040000 		.4byte	0x45a
 657 0373 08       		.byte	0x8
 658 0374 0B       		.uleb128 0xb
 659 0375 030B0000 		.4byte	.LASF61
 660 0379 09       		.byte	0x9
 661 037a 3D01     		.2byte	0x13d
 662 037c 17030000 		.4byte	0x317
 663 0380 0C       		.byte	0xc
 664 0381 0A       		.uleb128 0xa
 665 0382 70617200 		.ascii	"par\000"
 666 0386 09       		.byte	0x9
 667 0387 3F01     		.2byte	0x13f
 668 0389 33030000 		.4byte	0x333
 669 038d 10       		.byte	0x10
 670 038e 00       		.byte	0
 671 038f 03       		.uleb128 0x3
 672 0390 1F050000 		.4byte	.LASF62
 673 0394 08       		.byte	0x8
 674 0395 5B       		.byte	0x5b
 675 0396 9A030000 		.4byte	0x39a
 676 039a 0D       		.uleb128 0xd
 677 039b 8C000000 		.4byte	.LASF63
 678 039f 10       		.byte	0x10
 679 03a0 09       		.byte	0x9
 680 03a1 4901     		.2byte	0x149
 681 03a3 DC030000 		.4byte	0x3dc
 682 03a7 0B       		.uleb128 0xb
 683 03a8 880C0000 		.4byte	.LASF50
 684 03ac 09       		.byte	0x9
ARM GAS  C:\Users\14122\AppData\Local\Temp\ccMqnaqC.s 			page 13


 685 03ad 4A01     		.2byte	0x14a
 686 03af 990B0000 		.4byte	0xb99
 687 03b3 00       		.byte	0
 688 03b4 0B       		.uleb128 0xb
 689 03b5 9B0C0000 		.4byte	.LASF53
 690 03b9 09       		.byte	0x9
 691 03ba 4C01     		.2byte	0x14c
 692 03bc 990B0000 		.4byte	0xb99
 693 03c0 04       		.byte	0x4
 694 03c1 0B       		.uleb128 0xb
 695 03c2 9C090000 		.4byte	.LASF60
 696 03c6 09       		.byte	0x9
 697 03c7 4E01     		.2byte	0x14e
 698 03c9 5A040000 		.4byte	0x45a
 699 03cd 08       		.byte	0x8
 700 03ce 0B       		.uleb128 0xb
 701 03cf 07030000 		.4byte	.LASF64
 702 03d3 09       		.byte	0x9
 703 03d4 5601     		.2byte	0x156
 704 03d6 4F040000 		.4byte	0x44f
 705 03da 0C       		.byte	0xc
 706 03db 00       		.byte	0
 707 03dc 03       		.uleb128 0x3
 708 03dd 32030000 		.4byte	.LASF65
 709 03e1 08       		.byte	0x8
 710 03e2 60       		.byte	0x60
 711 03e3 E7030000 		.4byte	0x3e7
 712 03e7 0D       		.uleb128 0xd
 713 03e8 3D0B0000 		.4byte	.LASF66
 714 03ec 04       		.byte	0x4
 715 03ed 09       		.byte	0x9
 716 03ee 7001     		.2byte	0x170
 717 03f0 02040000 		.4byte	0x402
 718 03f4 0B       		.uleb128 0xb
 719 03f5 28030000 		.4byte	.LASF67
 720 03f9 09       		.byte	0x9
 721 03fa 7801     		.2byte	0x178
 722 03fc 820B0000 		.4byte	0xb82
 723 0400 00       		.byte	0
 724 0401 00       		.byte	0
 725 0402 03       		.uleb128 0x3
 726 0403 280C0000 		.4byte	.LASF68
 727 0407 08       		.byte	0x8
 728 0408 65       		.byte	0x65
 729 0409 0D040000 		.4byte	0x40d
 730 040d 0D       		.uleb128 0xd
 731 040e D00B0000 		.4byte	.LASF69
 732 0412 74       		.byte	0x74
 733 0413 09       		.byte	0x9
 734 0414 9001     		.2byte	0x190
 735 0416 4F040000 		.4byte	0x44f
 736 041a 0B       		.uleb128 0xb
 737 041b 560A0000 		.4byte	.LASF70
 738 041f 09       		.byte	0x9
 739 0420 9401     		.2byte	0x194
 740 0422 B0020000 		.4byte	0x2b0
 741 0426 00       		.byte	0
ARM GAS  C:\Users\14122\AppData\Local\Temp\ccMqnaqC.s 			page 14


 742 0427 0B       		.uleb128 0xb
 743 0428 7F0B0000 		.4byte	.LASF71
 744 042c 09       		.byte	0x9
 745 042d 9801     		.2byte	0x198
 746 042f 8F030000 		.4byte	0x38f
 747 0433 1C       		.byte	0x1c
 748 0434 0A       		.uleb128 0xa
 749 0435 64626700 		.ascii	"dbg\000"
 750 0439 09       		.byte	0x9
 751 043a 9C01     		.2byte	0x19c
 752 043c DC030000 		.4byte	0x3dc
 753 0440 2C       		.byte	0x2c
 754 0441 0B       		.uleb128 0xb
 755 0442 F2090000 		.4byte	.LASF72
 756 0446 09       		.byte	0x9
 757 0447 A001     		.2byte	0x1a0
 758 0449 62010000 		.4byte	0x162
 759 044d 30       		.byte	0x30
 760 044e 00       		.byte	0
 761 044f 03       		.uleb128 0x3
 762 0450 39000000 		.4byte	.LASF73
 763 0454 0A       		.byte	0xa
 764 0455 6F       		.byte	0x6f
 765 0456 C4000000 		.4byte	0xc4
 766 045a 03       		.uleb128 0x3
 767 045b 37060000 		.4byte	.LASF74
 768 045f 0A       		.byte	0xa
 769 0460 79       		.byte	0x79
 770 0461 E4000000 		.4byte	0xe4
 771 0465 11       		.uleb128 0x11
 772 0466 E4000000 		.4byte	0xe4
 773 046a 75040000 		.4byte	0x475
 774 046e 12       		.uleb128 0x12
 775 046f 37000000 		.4byte	0x37
 776 0473 07       		.byte	0x7
 777 0474 00       		.byte	0
 778 0475 13       		.uleb128 0x13
 779 0476 8E060000 		.4byte	.LASF75
 780 047a 0B       		.byte	0xb
 781 047b 4007     		.2byte	0x740
 782 047d DF000000 		.4byte	0xdf
 783 0481 14       		.uleb128 0x14
 784 0482 EA040000 		.4byte	.LASF76
 785 0486 0C       		.byte	0xc
 786 0487 45       		.byte	0x45
 787 0488 E4000000 		.4byte	0xe4
 788 048c 11       		.uleb128 0x11
 789 048d BF000000 		.4byte	0xbf
 790 0491 9C040000 		.4byte	0x49c
 791 0495 12       		.uleb128 0x12
 792 0496 37000000 		.4byte	0x37
 793 049a 0F       		.byte	0xf
 794 049b 00       		.byte	0
 795 049c 05       		.uleb128 0x5
 796 049d 8C040000 		.4byte	0x48c
 797 04a1 14       		.uleb128 0x14
 798 04a2 08090000 		.4byte	.LASF77
ARM GAS  C:\Users\14122\AppData\Local\Temp\ccMqnaqC.s 			page 15


 799 04a6 0C       		.byte	0xc
 800 04a7 46       		.byte	0x46
 801 04a8 9C040000 		.4byte	0x49c
 802 04ac 11       		.uleb128 0x11
 803 04ad BF000000 		.4byte	0xbf
 804 04b1 BC040000 		.4byte	0x4bc
 805 04b5 12       		.uleb128 0x12
 806 04b6 37000000 		.4byte	0x37
 807 04ba 07       		.byte	0x7
 808 04bb 00       		.byte	0
 809 04bc 05       		.uleb128 0x5
 810 04bd AC040000 		.4byte	0x4ac
 811 04c1 14       		.uleb128 0x14
 812 04c2 9E0A0000 		.4byte	.LASF78
 813 04c6 0C       		.byte	0xc
 814 04c7 47       		.byte	0x47
 815 04c8 BC040000 		.4byte	0x4bc
 816 04cc 15       		.uleb128 0x15
 817 04cd 10       		.byte	0x10
 818 04ce 0D       		.byte	0xd
 819 04cf DD       		.byte	0xdd
 820 04d0 05050000 		.4byte	0x505
 821 04d4 09       		.uleb128 0x9
 822 04d5 54495200 		.ascii	"TIR\000"
 823 04d9 0D       		.byte	0xd
 824 04da DF       		.byte	0xdf
 825 04db EF000000 		.4byte	0xef
 826 04df 00       		.byte	0
 827 04e0 08       		.uleb128 0x8
 828 04e1 B70C0000 		.4byte	.LASF79
 829 04e5 0D       		.byte	0xd
 830 04e6 E0       		.byte	0xe0
 831 04e7 EF000000 		.4byte	0xef
 832 04eb 04       		.byte	0x4
 833 04ec 08       		.uleb128 0x8
 834 04ed CA090000 		.4byte	.LASF80
 835 04f1 0D       		.byte	0xd
 836 04f2 E1       		.byte	0xe1
 837 04f3 EF000000 		.4byte	0xef
 838 04f7 08       		.byte	0x8
 839 04f8 08       		.uleb128 0x8
 840 04f9 65070000 		.4byte	.LASF81
 841 04fd 0D       		.byte	0xd
 842 04fe E2       		.byte	0xe2
 843 04ff EF000000 		.4byte	0xef
 844 0503 0C       		.byte	0xc
 845 0504 00       		.byte	0
 846 0505 03       		.uleb128 0x3
 847 0506 B80A0000 		.4byte	.LASF82
 848 050a 0D       		.byte	0xd
 849 050b E3       		.byte	0xe3
 850 050c CC040000 		.4byte	0x4cc
 851 0510 15       		.uleb128 0x15
 852 0511 10       		.byte	0x10
 853 0512 0D       		.byte	0xd
 854 0513 E9       		.byte	0xe9
 855 0514 49050000 		.4byte	0x549
ARM GAS  C:\Users\14122\AppData\Local\Temp\ccMqnaqC.s 			page 16


 856 0518 09       		.uleb128 0x9
 857 0519 52495200 		.ascii	"RIR\000"
 858 051d 0D       		.byte	0xd
 859 051e EB       		.byte	0xeb
 860 051f EF000000 		.4byte	0xef
 861 0523 00       		.byte	0
 862 0524 08       		.uleb128 0x8
 863 0525 8D0C0000 		.4byte	.LASF83
 864 0529 0D       		.byte	0xd
 865 052a EC       		.byte	0xec
 866 052b EF000000 		.4byte	0xef
 867 052f 04       		.byte	0x4
 868 0530 08       		.uleb128 0x8
 869 0531 A2090000 		.4byte	.LASF84
 870 0535 0D       		.byte	0xd
 871 0536 ED       		.byte	0xed
 872 0537 EF000000 		.4byte	0xef
 873 053b 08       		.byte	0x8
 874 053c 08       		.uleb128 0x8
 875 053d 48070000 		.4byte	.LASF85
 876 0541 0D       		.byte	0xd
 877 0542 EE       		.byte	0xee
 878 0543 EF000000 		.4byte	0xef
 879 0547 0C       		.byte	0xc
 880 0548 00       		.byte	0
 881 0549 03       		.uleb128 0x3
 882 054a A7090000 		.4byte	.LASF86
 883 054e 0D       		.byte	0xd
 884 054f EF       		.byte	0xef
 885 0550 10050000 		.4byte	0x510
 886 0554 15       		.uleb128 0x15
 887 0555 08       		.byte	0x8
 888 0556 0D       		.byte	0xd
 889 0557 F5       		.byte	0xf5
 890 0558 75050000 		.4byte	0x575
 891 055c 09       		.uleb128 0x9
 892 055d 46523100 		.ascii	"FR1\000"
 893 0561 0D       		.byte	0xd
 894 0562 F7       		.byte	0xf7
 895 0563 EF000000 		.4byte	0xef
 896 0567 00       		.byte	0
 897 0568 09       		.uleb128 0x9
 898 0569 46523200 		.ascii	"FR2\000"
 899 056d 0D       		.byte	0xd
 900 056e F8       		.byte	0xf8
 901 056f EF000000 		.4byte	0xef
 902 0573 04       		.byte	0x4
 903 0574 00       		.byte	0
 904 0575 03       		.uleb128 0x3
 905 0576 79020000 		.4byte	.LASF87
 906 057a 0D       		.byte	0xd
 907 057b F9       		.byte	0xf9
 908 057c 54050000 		.4byte	0x554
 909 0580 16       		.uleb128 0x16
 910 0581 B002     		.2byte	0x2b0
 911 0583 0D       		.byte	0xd
 912 0584 FF       		.byte	0xff
ARM GAS  C:\Users\14122\AppData\Local\Temp\ccMqnaqC.s 			page 17


 913 0585 B5060000 		.4byte	0x6b5
 914 0589 0A       		.uleb128 0xa
 915 058a 4D435200 		.ascii	"MCR\000"
 916 058e 0D       		.byte	0xd
 917 058f 0101     		.2byte	0x101
 918 0591 EF000000 		.4byte	0xef
 919 0595 00       		.byte	0
 920 0596 0A       		.uleb128 0xa
 921 0597 4D535200 		.ascii	"MSR\000"
 922 059b 0D       		.byte	0xd
 923 059c 0201     		.2byte	0x102
 924 059e EF000000 		.4byte	0xef
 925 05a2 04       		.byte	0x4
 926 05a3 0A       		.uleb128 0xa
 927 05a4 54535200 		.ascii	"TSR\000"
 928 05a8 0D       		.byte	0xd
 929 05a9 0301     		.2byte	0x103
 930 05ab EF000000 		.4byte	0xef
 931 05af 08       		.byte	0x8
 932 05b0 0B       		.uleb128 0xb
 933 05b1 43020000 		.4byte	.LASF88
 934 05b5 0D       		.byte	0xd
 935 05b6 0401     		.2byte	0x104
 936 05b8 EF000000 		.4byte	0xef
 937 05bc 0C       		.byte	0xc
 938 05bd 0B       		.uleb128 0xb
 939 05be 23030000 		.4byte	.LASF89
 940 05c2 0D       		.byte	0xd
 941 05c3 0501     		.2byte	0x105
 942 05c5 EF000000 		.4byte	0xef
 943 05c9 10       		.byte	0x10
 944 05ca 0A       		.uleb128 0xa
 945 05cb 49455200 		.ascii	"IER\000"
 946 05cf 0D       		.byte	0xd
 947 05d0 0601     		.2byte	0x106
 948 05d2 EF000000 		.4byte	0xef
 949 05d6 14       		.byte	0x14
 950 05d7 0A       		.uleb128 0xa
 951 05d8 45535200 		.ascii	"ESR\000"
 952 05dc 0D       		.byte	0xd
 953 05dd 0701     		.2byte	0x107
 954 05df EF000000 		.4byte	0xef
 955 05e3 18       		.byte	0x18
 956 05e4 0A       		.uleb128 0xa
 957 05e5 42545200 		.ascii	"BTR\000"
 958 05e9 0D       		.byte	0xd
 959 05ea 0801     		.2byte	0x108
 960 05ec EF000000 		.4byte	0xef
 961 05f0 1C       		.byte	0x1c
 962 05f1 0B       		.uleb128 0xb
 963 05f2 C7020000 		.4byte	.LASF90
 964 05f6 0D       		.byte	0xd
 965 05f7 0901     		.2byte	0x109
 966 05f9 B5060000 		.4byte	0x6b5
 967 05fd 20       		.byte	0x20
 968 05fe 17       		.uleb128 0x17
 969 05ff 3E0C0000 		.4byte	.LASF91
ARM GAS  C:\Users\14122\AppData\Local\Temp\ccMqnaqC.s 			page 18


 970 0603 0D       		.byte	0xd
 971 0604 0A01     		.2byte	0x10a
 972 0606 C5060000 		.4byte	0x6c5
 973 060a 8001     		.2byte	0x180
 974 060c 17       		.uleb128 0x17
 975 060d 94020000 		.4byte	.LASF92
 976 0611 0D       		.byte	0xd
 977 0612 0B01     		.2byte	0x10b
 978 0614 D5060000 		.4byte	0x6d5
 979 0618 B001     		.2byte	0x1b0
 980 061a 17       		.uleb128 0x17
 981 061b D1020000 		.4byte	.LASF93
 982 061f 0D       		.byte	0xd
 983 0620 0C01     		.2byte	0x10c
 984 0622 E5060000 		.4byte	0x6e5
 985 0626 D001     		.2byte	0x1d0
 986 0628 18       		.uleb128 0x18
 987 0629 464D5200 		.ascii	"FMR\000"
 988 062d 0D       		.byte	0xd
 989 062e 0D01     		.2byte	0x10d
 990 0630 EF000000 		.4byte	0xef
 991 0634 0002     		.2byte	0x200
 992 0636 17       		.uleb128 0x17
 993 0637 2F070000 		.4byte	.LASF94
 994 063b 0D       		.byte	0xd
 995 063c 0E01     		.2byte	0x10e
 996 063e EF000000 		.4byte	0xef
 997 0642 0402     		.2byte	0x204
 998 0644 17       		.uleb128 0x17
 999 0645 54030000 		.4byte	.LASF95
 1000 0649 0D       		.byte	0xd
 1001 064a 0F01     		.2byte	0x10f
 1002 064c E4000000 		.4byte	0xe4
 1003 0650 0802     		.2byte	0x208
 1004 0652 17       		.uleb128 0x17
 1005 0653 810A0000 		.4byte	.LASF96
 1006 0657 0D       		.byte	0xd
 1007 0658 1001     		.2byte	0x110
 1008 065a EF000000 		.4byte	0xef
 1009 065e 0C02     		.2byte	0x20c
 1010 0660 17       		.uleb128 0x17
 1011 0661 E9020000 		.4byte	.LASF97
 1012 0665 0D       		.byte	0xd
 1013 0666 1101     		.2byte	0x111
 1014 0668 E4000000 		.4byte	0xe4
 1015 066c 1002     		.2byte	0x210
 1016 066e 17       		.uleb128 0x17
 1017 066f 110B0000 		.4byte	.LASF98
 1018 0673 0D       		.byte	0xd
 1019 0674 1201     		.2byte	0x112
 1020 0676 EF000000 		.4byte	0xef
 1021 067a 1402     		.2byte	0x214
 1022 067c 17       		.uleb128 0x17
 1023 067d F3020000 		.4byte	.LASF99
 1024 0681 0D       		.byte	0xd
 1025 0682 1301     		.2byte	0x113
 1026 0684 E4000000 		.4byte	0xe4
ARM GAS  C:\Users\14122\AppData\Local\Temp\ccMqnaqC.s 			page 19


 1027 0688 1802     		.2byte	0x218
 1028 068a 17       		.uleb128 0x17
 1029 068b A1010000 		.4byte	.LASF100
 1030 068f 0D       		.byte	0xd
 1031 0690 1401     		.2byte	0x114
 1032 0692 EF000000 		.4byte	0xef
 1033 0696 1C02     		.2byte	0x21c
 1034 0698 17       		.uleb128 0x17
 1035 0699 FD020000 		.4byte	.LASF101
 1036 069d 0D       		.byte	0xd
 1037 069e 1501     		.2byte	0x115
 1038 06a0 65040000 		.4byte	0x465
 1039 06a4 2002     		.2byte	0x220
 1040 06a6 17       		.uleb128 0x17
 1041 06a7 5F080000 		.4byte	.LASF102
 1042 06ab 0D       		.byte	0xd
 1043 06ac 1601     		.2byte	0x116
 1044 06ae F5060000 		.4byte	0x6f5
 1045 06b2 4002     		.2byte	0x240
 1046 06b4 00       		.byte	0
 1047 06b5 11       		.uleb128 0x11
 1048 06b6 E4000000 		.4byte	0xe4
 1049 06ba C5060000 		.4byte	0x6c5
 1050 06be 12       		.uleb128 0x12
 1051 06bf 37000000 		.4byte	0x37
 1052 06c3 57       		.byte	0x57
 1053 06c4 00       		.byte	0
 1054 06c5 11       		.uleb128 0x11
 1055 06c6 05050000 		.4byte	0x505
 1056 06ca D5060000 		.4byte	0x6d5
 1057 06ce 12       		.uleb128 0x12
 1058 06cf 37000000 		.4byte	0x37
 1059 06d3 02       		.byte	0x2
 1060 06d4 00       		.byte	0
 1061 06d5 11       		.uleb128 0x11
 1062 06d6 49050000 		.4byte	0x549
 1063 06da E5060000 		.4byte	0x6e5
 1064 06de 12       		.uleb128 0x12
 1065 06df 37000000 		.4byte	0x37
 1066 06e3 01       		.byte	0x1
 1067 06e4 00       		.byte	0
 1068 06e5 11       		.uleb128 0x11
 1069 06e6 E4000000 		.4byte	0xe4
 1070 06ea F5060000 		.4byte	0x6f5
 1071 06ee 12       		.uleb128 0x12
 1072 06ef 37000000 		.4byte	0x37
 1073 06f3 0B       		.byte	0xb
 1074 06f4 00       		.byte	0
 1075 06f5 11       		.uleb128 0x11
 1076 06f6 75050000 		.4byte	0x575
 1077 06fa 05070000 		.4byte	0x705
 1078 06fe 12       		.uleb128 0x12
 1079 06ff 37000000 		.4byte	0x37
 1080 0703 0D       		.byte	0xd
 1081 0704 00       		.byte	0
 1082 0705 19       		.uleb128 0x19
 1083 0706 7E070000 		.4byte	.LASF103
ARM GAS  C:\Users\14122\AppData\Local\Temp\ccMqnaqC.s 			page 20


 1084 070a 0D       		.byte	0xd
 1085 070b 1701     		.2byte	0x117
 1086 070d 80050000 		.4byte	0x580
 1087 0711 1A       		.uleb128 0x1a
 1088 0712 08       		.byte	0x8
 1089 0713 0D       		.byte	0xd
 1090 0714 2B01     		.2byte	0x12b
 1091 0716 34070000 		.4byte	0x734
 1092 071a 0B       		.uleb128 0xb
 1093 071b B5060000 		.4byte	.LASF104
 1094 071f 0D       		.byte	0xd
 1095 0720 2D01     		.2byte	0x12d
 1096 0722 EF000000 		.4byte	0xef
 1097 0726 00       		.byte	0
 1098 0727 0A       		.uleb128 0xa
 1099 0728 435200   		.ascii	"CR\000"
 1100 072b 0D       		.byte	0xd
 1101 072c 2E01     		.2byte	0x12e
 1102 072e EF000000 		.4byte	0xef
 1103 0732 04       		.byte	0x4
 1104 0733 00       		.byte	0
 1105 0734 19       		.uleb128 0x19
 1106 0735 42040000 		.4byte	.LASF105
 1107 0739 0D       		.byte	0xd
 1108 073a 2F01     		.2byte	0x12f
 1109 073c 11070000 		.4byte	0x711
 1110 0740 1A       		.uleb128 0x1a
 1111 0741 10       		.byte	0x10
 1112 0742 0D       		.byte	0xd
 1113 0743 3501     		.2byte	0x135
 1114 0745 7E070000 		.4byte	0x77e
 1115 0749 0A       		.uleb128 0xa
 1116 074a 43435200 		.ascii	"CCR\000"
 1117 074e 0D       		.byte	0xd
 1118 074f 3701     		.2byte	0x137
 1119 0751 EF000000 		.4byte	0xef
 1120 0755 00       		.byte	0
 1121 0756 0B       		.uleb128 0xb
 1122 0757 E5000000 		.4byte	.LASF106
 1123 075b 0D       		.byte	0xd
 1124 075c 3801     		.2byte	0x138
 1125 075e EF000000 		.4byte	0xef
 1126 0762 04       		.byte	0x4
 1127 0763 0B       		.uleb128 0xb
 1128 0764 25020000 		.4byte	.LASF107
 1129 0768 0D       		.byte	0xd
 1130 0769 3901     		.2byte	0x139
 1131 076b EF000000 		.4byte	0xef
 1132 076f 08       		.byte	0x8
 1133 0770 0B       		.uleb128 0xb
 1134 0771 4D070000 		.4byte	.LASF108
 1135 0775 0D       		.byte	0xd
 1136 0776 3A01     		.2byte	0x13a
 1137 0778 EF000000 		.4byte	0xef
 1138 077c 0C       		.byte	0xc
 1139 077d 00       		.byte	0
 1140 077e 19       		.uleb128 0x19
ARM GAS  C:\Users\14122\AppData\Local\Temp\ccMqnaqC.s 			page 21


 1141 077f F4080000 		.4byte	.LASF109
 1142 0783 0D       		.byte	0xd
 1143 0784 3B01     		.2byte	0x13b
 1144 0786 40070000 		.4byte	0x740
 1145 078a 1A       		.uleb128 0x1a
 1146 078b 08       		.byte	0x8
 1147 078c 0D       		.byte	0xd
 1148 078d 3D01     		.2byte	0x13d
 1149 078f AE070000 		.4byte	0x7ae
 1150 0793 0A       		.uleb128 0xa
 1151 0794 49535200 		.ascii	"ISR\000"
 1152 0798 0D       		.byte	0xd
 1153 0799 3F01     		.2byte	0x13f
 1154 079b EF000000 		.4byte	0xef
 1155 079f 00       		.byte	0
 1156 07a0 0B       		.uleb128 0xb
 1157 07a1 81030000 		.4byte	.LASF110
 1158 07a5 0D       		.byte	0xd
 1159 07a6 4001     		.2byte	0x140
 1160 07a8 EF000000 		.4byte	0xef
 1161 07ac 04       		.byte	0x4
 1162 07ad 00       		.byte	0
 1163 07ae 19       		.uleb128 0x19
 1164 07af 17030000 		.4byte	.LASF111
 1165 07b3 0D       		.byte	0xd
 1166 07b4 4101     		.2byte	0x141
 1167 07b6 8A070000 		.4byte	0x78a
 1168 07ba 11       		.uleb128 0x11
 1169 07bb EF000000 		.4byte	0xef
 1170 07bf CA070000 		.4byte	0x7ca
 1171 07c3 12       		.uleb128 0x12
 1172 07c4 37000000 		.4byte	0x37
 1173 07c8 03       		.byte	0x3
 1174 07c9 00       		.byte	0
 1175 07ca 06       		.uleb128 0x6
 1176 07cb BA070000 		.4byte	0x7ba
 1177 07cf 1A       		.uleb128 0x1a
 1178 07d0 28       		.byte	0x28
 1179 07d1 0D       		.byte	0xd
 1180 07d2 BA01     		.2byte	0x1ba
 1181 07d4 5A080000 		.4byte	0x85a
 1182 07d8 0A       		.uleb128 0xa
 1183 07d9 435200   		.ascii	"CR\000"
 1184 07dc 0D       		.byte	0xd
 1185 07dd BC01     		.2byte	0x1bc
 1186 07df EF000000 		.4byte	0xef
 1187 07e3 00       		.byte	0
 1188 07e4 0B       		.uleb128 0xb
 1189 07e5 75040000 		.4byte	.LASF112
 1190 07e9 0D       		.byte	0xd
 1191 07ea BD01     		.2byte	0x1bd
 1192 07ec EF000000 		.4byte	0xef
 1193 07f0 04       		.byte	0x4
 1194 07f1 0A       		.uleb128 0xa
 1195 07f2 43495200 		.ascii	"CIR\000"
 1196 07f6 0D       		.byte	0xd
 1197 07f7 BE01     		.2byte	0x1be
ARM GAS  C:\Users\14122\AppData\Local\Temp\ccMqnaqC.s 			page 22


 1198 07f9 EF000000 		.4byte	0xef
 1199 07fd 08       		.byte	0x8
 1200 07fe 0B       		.uleb128 0xb
 1201 07ff 70060000 		.4byte	.LASF113
 1202 0803 0D       		.byte	0xd
 1203 0804 BF01     		.2byte	0x1bf
 1204 0806 EF000000 		.4byte	0xef
 1205 080a 0C       		.byte	0xc
 1206 080b 0B       		.uleb128 0xb
 1207 080c 920C0000 		.4byte	.LASF114
 1208 0810 0D       		.byte	0xd
 1209 0811 C001     		.2byte	0x1c0
 1210 0813 EF000000 		.4byte	0xef
 1211 0817 10       		.byte	0x10
 1212 0818 0B       		.uleb128 0xb
 1213 0819 580B0000 		.4byte	.LASF115
 1214 081d 0D       		.byte	0xd
 1215 081e C101     		.2byte	0x1c1
 1216 0820 EF000000 		.4byte	0xef
 1217 0824 14       		.byte	0x14
 1218 0825 0B       		.uleb128 0xb
 1219 0826 D9010000 		.4byte	.LASF116
 1220 082a 0D       		.byte	0xd
 1221 082b C201     		.2byte	0x1c2
 1222 082d EF000000 		.4byte	0xef
 1223 0831 18       		.byte	0x18
 1224 0832 0B       		.uleb128 0xb
 1225 0833 27090000 		.4byte	.LASF117
 1226 0837 0D       		.byte	0xd
 1227 0838 C301     		.2byte	0x1c3
 1228 083a EF000000 		.4byte	0xef
 1229 083e 1C       		.byte	0x1c
 1230 083f 0B       		.uleb128 0xb
 1231 0840 0D040000 		.4byte	.LASF118
 1232 0844 0D       		.byte	0xd
 1233 0845 C401     		.2byte	0x1c4
 1234 0847 EF000000 		.4byte	0xef
 1235 084b 20       		.byte	0x20
 1236 084c 0A       		.uleb128 0xa
 1237 084d 43535200 		.ascii	"CSR\000"
 1238 0851 0D       		.byte	0xd
 1239 0852 C501     		.2byte	0x1c5
 1240 0854 EF000000 		.4byte	0xef
 1241 0858 24       		.byte	0x24
 1242 0859 00       		.byte	0
 1243 085a 19       		.uleb128 0x19
 1244 085b AC0A0000 		.4byte	.LASF119
 1245 085f 0D       		.byte	0xd
 1246 0860 C801     		.2byte	0x1c8
 1247 0862 CF070000 		.4byte	0x7cf
 1248 0866 1A       		.uleb128 0x1a
 1249 0867 1C       		.byte	0x1c
 1250 0868 0D       		.byte	0xd
 1251 0869 2902     		.2byte	0x229
 1252 086b C9080000 		.4byte	0x8c9
 1253 086f 0A       		.uleb128 0xa
 1254 0870 535200   		.ascii	"SR\000"
ARM GAS  C:\Users\14122\AppData\Local\Temp\ccMqnaqC.s 			page 23


 1255 0873 0D       		.byte	0xd
 1256 0874 2B02     		.2byte	0x22b
 1257 0876 EF000000 		.4byte	0xef
 1258 087a 00       		.byte	0
 1259 087b 0A       		.uleb128 0xa
 1260 087c 445200   		.ascii	"DR\000"
 1261 087f 0D       		.byte	0xd
 1262 0880 2C02     		.2byte	0x22c
 1263 0882 EF000000 		.4byte	0xef
 1264 0886 04       		.byte	0x4
 1265 0887 0A       		.uleb128 0xa
 1266 0888 42525200 		.ascii	"BRR\000"
 1267 088c 0D       		.byte	0xd
 1268 088d 2D02     		.2byte	0x22d
 1269 088f EF000000 		.4byte	0xef
 1270 0893 08       		.byte	0x8
 1271 0894 0A       		.uleb128 0xa
 1272 0895 43523100 		.ascii	"CR1\000"
 1273 0899 0D       		.byte	0xd
 1274 089a 2E02     		.2byte	0x22e
 1275 089c EF000000 		.4byte	0xef
 1276 08a0 0C       		.byte	0xc
 1277 08a1 0A       		.uleb128 0xa
 1278 08a2 43523200 		.ascii	"CR2\000"
 1279 08a6 0D       		.byte	0xd
 1280 08a7 2F02     		.2byte	0x22f
 1281 08a9 EF000000 		.4byte	0xef
 1282 08ad 10       		.byte	0x10
 1283 08ae 0A       		.uleb128 0xa
 1284 08af 43523300 		.ascii	"CR3\000"
 1285 08b3 0D       		.byte	0xd
 1286 08b4 3002     		.2byte	0x230
 1287 08b6 EF000000 		.4byte	0xef
 1288 08ba 14       		.byte	0x14
 1289 08bb 0B       		.uleb128 0xb
 1290 08bc 6B060000 		.4byte	.LASF120
 1291 08c0 0D       		.byte	0xd
 1292 08c1 3102     		.2byte	0x231
 1293 08c3 EF000000 		.4byte	0xef
 1294 08c7 18       		.byte	0x18
 1295 08c8 00       		.byte	0
 1296 08c9 19       		.uleb128 0x19
 1297 08ca C6030000 		.4byte	.LASF121
 1298 08ce 0D       		.byte	0xd
 1299 08cf 3202     		.2byte	0x232
 1300 08d1 66080000 		.4byte	0x866
 1301 08d5 03       		.uleb128 0x3
 1302 08d6 C8010000 		.4byte	.LASF122
 1303 08da 0E       		.byte	0xe
 1304 08db 65       		.byte	0x65
 1305 08dc 33030000 		.4byte	0x333
 1306 08e0 03       		.uleb128 0x3
 1307 08e1 BB030000 		.4byte	.LASF123
 1308 08e5 0E       		.byte	0xe
 1309 08e6 6D       		.byte	0x6d
 1310 08e7 F4000000 		.4byte	0xf4
 1311 08eb 07       		.uleb128 0x7
ARM GAS  C:\Users\14122\AppData\Local\Temp\ccMqnaqC.s 			page 24


 1312 08ec 9E0B0000 		.4byte	.LASF124
 1313 08f0 04       		.byte	0x4
 1314 08f1 0E       		.byte	0xe
 1315 08f2 89       		.byte	0x89
 1316 08f3 03090000 		.4byte	0x903
 1317 08f7 09       		.uleb128 0x9
 1318 08f8 737000   		.ascii	"sp\000"
 1319 08fb 0E       		.byte	0xe
 1320 08fc 8A       		.byte	0x8a
 1321 08fd 7F090000 		.4byte	0x97f
 1322 0901 00       		.byte	0
 1323 0902 00       		.byte	0
 1324 0903 0D       		.uleb128 0xd
 1325 0904 B2080000 		.4byte	.LASF125
 1326 0908 24       		.byte	0x24
 1327 0909 0F       		.byte	0xf
 1328 090a 5901     		.2byte	0x159
 1329 090c 7F090000 		.4byte	0x97f
 1330 0910 0A       		.uleb128 0xa
 1331 0911 723400   		.ascii	"r4\000"
 1332 0914 0F       		.byte	0xf
 1333 0915 6C01     		.2byte	0x16c
 1334 0917 D5080000 		.4byte	0x8d5
 1335 091b 00       		.byte	0
 1336 091c 0A       		.uleb128 0xa
 1337 091d 723500   		.ascii	"r5\000"
 1338 0920 0F       		.byte	0xf
 1339 0921 6D01     		.2byte	0x16d
 1340 0923 D5080000 		.4byte	0x8d5
 1341 0927 04       		.byte	0x4
 1342 0928 0A       		.uleb128 0xa
 1343 0929 723600   		.ascii	"r6\000"
 1344 092c 0F       		.byte	0xf
 1345 092d 6E01     		.2byte	0x16e
 1346 092f D5080000 		.4byte	0x8d5
 1347 0933 08       		.byte	0x8
 1348 0934 0A       		.uleb128 0xa
 1349 0935 723700   		.ascii	"r7\000"
 1350 0938 0F       		.byte	0xf
 1351 0939 6F01     		.2byte	0x16f
 1352 093b D5080000 		.4byte	0x8d5
 1353 093f 0C       		.byte	0xc
 1354 0940 0A       		.uleb128 0xa
 1355 0941 723800   		.ascii	"r8\000"
 1356 0944 0F       		.byte	0xf
 1357 0945 7001     		.2byte	0x170
 1358 0947 D5080000 		.4byte	0x8d5
 1359 094b 10       		.byte	0x10
 1360 094c 0A       		.uleb128 0xa
 1361 094d 723900   		.ascii	"r9\000"
 1362 0950 0F       		.byte	0xf
 1363 0951 7101     		.2byte	0x171
 1364 0953 D5080000 		.4byte	0x8d5
 1365 0957 14       		.byte	0x14
 1366 0958 0A       		.uleb128 0xa
 1367 0959 72313000 		.ascii	"r10\000"
 1368 095d 0F       		.byte	0xf
ARM GAS  C:\Users\14122\AppData\Local\Temp\ccMqnaqC.s 			page 25


 1369 095e 7201     		.2byte	0x172
 1370 0960 D5080000 		.4byte	0x8d5
 1371 0964 18       		.byte	0x18
 1372 0965 0A       		.uleb128 0xa
 1373 0966 72313100 		.ascii	"r11\000"
 1374 096a 0F       		.byte	0xf
 1375 096b 7301     		.2byte	0x173
 1376 096d D5080000 		.4byte	0x8d5
 1377 0971 1C       		.byte	0x1c
 1378 0972 0A       		.uleb128 0xa
 1379 0973 6C7200   		.ascii	"lr\000"
 1380 0976 0F       		.byte	0xf
 1381 0977 7401     		.2byte	0x174
 1382 0979 D5080000 		.4byte	0x8d5
 1383 097d 20       		.byte	0x20
 1384 097e 00       		.byte	0
 1385 097f 0C       		.uleb128 0xc
 1386 0980 04       		.byte	0x4
 1387 0981 03090000 		.4byte	0x903
 1388 0985 1A       		.uleb128 0x1a
 1389 0986 60       		.byte	0x60
 1390 0987 10       		.byte	0x10
 1391 0988 F501     		.2byte	0x1f5
 1392 098a 910A0000 		.4byte	0xa91
 1393 098e 0A       		.uleb128 0xa
 1394 098f 43523100 		.ascii	"CR1\000"
 1395 0993 10       		.byte	0x10
 1396 0994 F601     		.2byte	0x1f6
 1397 0996 EF000000 		.4byte	0xef
 1398 099a 00       		.byte	0
 1399 099b 0A       		.uleb128 0xa
 1400 099c 43523200 		.ascii	"CR2\000"
 1401 09a0 10       		.byte	0x10
 1402 09a1 F701     		.2byte	0x1f7
 1403 09a3 EF000000 		.4byte	0xef
 1404 09a7 04       		.byte	0x4
 1405 09a8 0B       		.uleb128 0xb
 1406 09a9 FD090000 		.4byte	.LASF126
 1407 09ad 10       		.byte	0x10
 1408 09ae F801     		.2byte	0x1f8
 1409 09b0 EF000000 		.4byte	0xef
 1410 09b4 08       		.byte	0x8
 1411 09b5 0B       		.uleb128 0xb
 1412 09b6 E5040000 		.4byte	.LASF127
 1413 09ba 10       		.byte	0x10
 1414 09bb F901     		.2byte	0x1f9
 1415 09bd EF000000 		.4byte	0xef
 1416 09c1 0C       		.byte	0xc
 1417 09c2 0A       		.uleb128 0xa
 1418 09c3 535200   		.ascii	"SR\000"
 1419 09c6 10       		.byte	0x10
 1420 09c7 FA01     		.2byte	0x1fa
 1421 09c9 EF000000 		.4byte	0xef
 1422 09cd 10       		.byte	0x10
 1423 09ce 0A       		.uleb128 0xa
 1424 09cf 45475200 		.ascii	"EGR\000"
 1425 09d3 10       		.byte	0x10
ARM GAS  C:\Users\14122\AppData\Local\Temp\ccMqnaqC.s 			page 26


 1426 09d4 FB01     		.2byte	0x1fb
 1427 09d6 EF000000 		.4byte	0xef
 1428 09da 14       		.byte	0x14
 1429 09db 0B       		.uleb128 0xb
 1430 09dc 5E030000 		.4byte	.LASF128
 1431 09e0 10       		.byte	0x10
 1432 09e1 FC01     		.2byte	0x1fc
 1433 09e3 EF000000 		.4byte	0xef
 1434 09e7 18       		.byte	0x18
 1435 09e8 0B       		.uleb128 0xb
 1436 09e9 64030000 		.4byte	.LASF129
 1437 09ed 10       		.byte	0x10
 1438 09ee FD01     		.2byte	0x1fd
 1439 09f0 EF000000 		.4byte	0xef
 1440 09f4 1C       		.byte	0x1c
 1441 09f5 0B       		.uleb128 0xb
 1442 09f6 97090000 		.4byte	.LASF130
 1443 09fa 10       		.byte	0x10
 1444 09fb FE01     		.2byte	0x1fe
 1445 09fd EF000000 		.4byte	0xef
 1446 0a01 20       		.byte	0x20
 1447 0a02 0A       		.uleb128 0xa
 1448 0a03 434E5400 		.ascii	"CNT\000"
 1449 0a07 10       		.byte	0x10
 1450 0a08 FF01     		.2byte	0x1ff
 1451 0a0a EF000000 		.4byte	0xef
 1452 0a0e 24       		.byte	0x24
 1453 0a0f 0A       		.uleb128 0xa
 1454 0a10 50534300 		.ascii	"PSC\000"
 1455 0a14 10       		.byte	0x10
 1456 0a15 0002     		.2byte	0x200
 1457 0a17 EF000000 		.4byte	0xef
 1458 0a1b 28       		.byte	0x28
 1459 0a1c 0A       		.uleb128 0xa
 1460 0a1d 41525200 		.ascii	"ARR\000"
 1461 0a21 10       		.byte	0x10
 1462 0a22 0102     		.2byte	0x201
 1463 0a24 EF000000 		.4byte	0xef
 1464 0a28 2C       		.byte	0x2c
 1465 0a29 0A       		.uleb128 0xa
 1466 0a2a 52435200 		.ascii	"RCR\000"
 1467 0a2e 10       		.byte	0x10
 1468 0a2f 0202     		.2byte	0x202
 1469 0a31 EF000000 		.4byte	0xef
 1470 0a35 30       		.byte	0x30
 1471 0a36 0A       		.uleb128 0xa
 1472 0a37 43435200 		.ascii	"CCR\000"
 1473 0a3b 10       		.byte	0x10
 1474 0a3c 0302     		.2byte	0x203
 1475 0a3e CA070000 		.4byte	0x7ca
 1476 0a42 34       		.byte	0x34
 1477 0a43 0B       		.uleb128 0xb
 1478 0a44 E00B0000 		.4byte	.LASF131
 1479 0a48 10       		.byte	0x10
 1480 0a49 0402     		.2byte	0x204
 1481 0a4b EF000000 		.4byte	0xef
 1482 0a4f 44       		.byte	0x44
ARM GAS  C:\Users\14122\AppData\Local\Temp\ccMqnaqC.s 			page 27


 1483 0a50 0A       		.uleb128 0xa
 1484 0a51 44435200 		.ascii	"DCR\000"
 1485 0a55 10       		.byte	0x10
 1486 0a56 0502     		.2byte	0x205
 1487 0a58 EF000000 		.4byte	0xef
 1488 0a5c 48       		.byte	0x48
 1489 0a5d 0B       		.uleb128 0xb
 1490 0a5e FC000000 		.4byte	.LASF132
 1491 0a62 10       		.byte	0x10
 1492 0a63 0602     		.2byte	0x206
 1493 0a65 EF000000 		.4byte	0xef
 1494 0a69 4C       		.byte	0x4c
 1495 0a6a 0A       		.uleb128 0xa
 1496 0a6b 4F5200   		.ascii	"OR\000"
 1497 0a6e 10       		.byte	0x10
 1498 0a6f 0702     		.2byte	0x207
 1499 0a71 EF000000 		.4byte	0xef
 1500 0a75 50       		.byte	0x50
 1501 0a76 0B       		.uleb128 0xb
 1502 0a77 6A030000 		.4byte	.LASF133
 1503 0a7b 10       		.byte	0x10
 1504 0a7c 0802     		.2byte	0x208
 1505 0a7e EF000000 		.4byte	0xef
 1506 0a82 54       		.byte	0x54
 1507 0a83 0B       		.uleb128 0xb
 1508 0a84 F3030000 		.4byte	.LASF134
 1509 0a88 10       		.byte	0x10
 1510 0a89 0902     		.2byte	0x209
 1511 0a8b A10A0000 		.4byte	0xaa1
 1512 0a8f 58       		.byte	0x58
 1513 0a90 00       		.byte	0
 1514 0a91 11       		.uleb128 0x11
 1515 0a92 EF000000 		.4byte	0xef
 1516 0a96 A10A0000 		.4byte	0xaa1
 1517 0a9a 12       		.uleb128 0x12
 1518 0a9b 37000000 		.4byte	0x37
 1519 0a9f 01       		.byte	0x1
 1520 0aa0 00       		.byte	0
 1521 0aa1 06       		.uleb128 0x6
 1522 0aa2 910A0000 		.4byte	0xa91
 1523 0aa6 19       		.uleb128 0x19
 1524 0aa7 A4050000 		.4byte	.LASF135
 1525 0aab 10       		.byte	0x10
 1526 0aac 0A02     		.2byte	0x20a
 1527 0aae 85090000 		.4byte	0x985
 1528 0ab2 1B       		.uleb128 0x1b
 1529 0ab3 04       		.byte	0x4
 1530 0ab4 09       		.byte	0x9
 1531 0ab5 C6       		.byte	0xc6
 1532 0ab6 140B0000 		.4byte	0xb14
 1533 0aba 1C       		.uleb128 0x1c
 1534 0abb 0E0C0000 		.4byte	.LASF136
 1535 0abf 09       		.byte	0x9
 1536 0ac0 CD       		.byte	0xcd
 1537 0ac1 2B010000 		.4byte	0x12b
 1538 0ac5 1C       		.uleb128 0x1c
 1539 0ac6 3F010000 		.4byte	.LASF137
ARM GAS  C:\Users\14122\AppData\Local\Temp\ccMqnaqC.s 			page 28


 1540 0aca 09       		.byte	0x9
 1541 0acb D4       		.byte	0xd4
 1542 0acc 2B010000 		.4byte	0x12b
 1543 0ad0 1C       		.uleb128 0x1c
 1544 0ad1 9A030000 		.4byte	.LASF138
 1545 0ad5 09       		.byte	0x9
 1546 0ad6 DB       		.byte	0xdb
 1547 0ad7 33030000 		.4byte	0x333
 1548 0adb 1C       		.uleb128 0x1c
 1549 0adc AE020000 		.4byte	.LASF139
 1550 0ae0 09       		.byte	0x9
 1551 0ae1 E2       		.byte	0xe2
 1552 0ae2 140B0000 		.4byte	0xb14
 1553 0ae6 1C       		.uleb128 0x1c
 1554 0ae7 AA080000 		.4byte	.LASF140
 1555 0aeb 09       		.byte	0x9
 1556 0aec E7       		.byte	0xe7
 1557 0aed 2B010000 		.4byte	0x12b
 1558 0af1 1C       		.uleb128 0x1c
 1559 0af2 32000000 		.4byte	.LASF141
 1560 0af6 09       		.byte	0x9
 1561 0af7 F0       		.byte	0xf0
 1562 0af8 3F0B0000 		.4byte	0xb3f
 1563 0afc 1C       		.uleb128 0x1c
 1564 0afd 57040000 		.4byte	.LASF142
 1565 0b01 09       		.byte	0x9
 1566 0b02 F9       		.byte	0xf9
 1567 0b03 760B0000 		.4byte	0xb76
 1568 0b07 1D       		.uleb128 0x1d
 1569 0b08 5E020000 		.4byte	.LASF143
 1570 0b0c 09       		.byte	0x9
 1571 0b0d 0101     		.2byte	0x101
 1572 0b0f 36010000 		.4byte	0x136
 1573 0b13 00       		.byte	0
 1574 0b14 0C       		.uleb128 0xc
 1575 0b15 04       		.byte	0x4
 1576 0b16 4B020000 		.4byte	0x24b
 1577 0b1a 07       		.uleb128 0x7
 1578 0b1b FA040000 		.4byte	.LASF144
 1579 0b1f 0C       		.byte	0xc
 1580 0b20 11       		.byte	0x11
 1581 0b21 34       		.byte	0x34
 1582 0b22 3F0B0000 		.4byte	0xb3f
 1583 0b26 08       		.uleb128 0x8
 1584 0b27 C4090000 		.4byte	.LASF31
 1585 0b2b 11       		.byte	0x11
 1586 0b2c 35       		.byte	0x35
 1587 0b2d 80020000 		.4byte	0x280
 1588 0b31 00       		.byte	0
 1589 0b32 09       		.uleb128 0x9
 1590 0b33 636E7400 		.ascii	"cnt\000"
 1591 0b37 11       		.byte	0x11
 1592 0b38 37       		.byte	0x37
 1593 0b39 4C010000 		.4byte	0x14c
 1594 0b3d 08       		.byte	0x8
 1595 0b3e 00       		.byte	0
 1596 0b3f 0C       		.uleb128 0xc
ARM GAS  C:\Users\14122\AppData\Local\Temp\ccMqnaqC.s 			page 29


 1597 0b40 04       		.byte	0x4
 1598 0b41 1A0B0000 		.4byte	0xb1a
 1599 0b45 07       		.uleb128 0x7
 1600 0b46 080B0000 		.4byte	.LASF145
 1601 0b4a 10       		.byte	0x10
 1602 0b4b 12       		.byte	0x12
 1603 0b4c 39       		.byte	0x39
 1604 0b4d 760B0000 		.4byte	0xb76
 1605 0b51 08       		.uleb128 0x8
 1606 0b52 C4090000 		.4byte	.LASF31
 1607 0b56 12       		.byte	0x12
 1608 0b57 3A       		.byte	0x3a
 1609 0b58 80020000 		.4byte	0x280
 1610 0b5c 00       		.byte	0
 1611 0b5d 08       		.uleb128 0x8
 1612 0b5e 4F000000 		.4byte	.LASF146
 1613 0b62 12       		.byte	0x12
 1614 0b63 3C       		.byte	0x3c
 1615 0b64 56020000 		.4byte	0x256
 1616 0b68 08       		.byte	0x8
 1617 0b69 08       		.uleb128 0x8
 1618 0b6a 880C0000 		.4byte	.LASF50
 1619 0b6e 12       		.byte	0x12
 1620 0b6f 3E       		.byte	0x3e
 1621 0b70 D80C0000 		.4byte	0xcd8
 1622 0b74 0C       		.byte	0xc
 1623 0b75 00       		.byte	0
 1624 0b76 0C       		.uleb128 0xc
 1625 0b77 04       		.byte	0x4
 1626 0b78 450B0000 		.4byte	0xb45
 1627 0b7c 0C       		.uleb128 0xc
 1628 0b7d 04       		.byte	0x4
 1629 0b7e 8E0B0000 		.4byte	0xb8e
 1630 0b82 06       		.uleb128 0x6
 1631 0b83 7C0B0000 		.4byte	0xb7c
 1632 0b87 04       		.uleb128 0x4
 1633 0b88 01       		.byte	0x1
 1634 0b89 08       		.byte	0x8
 1635 0b8a 7C030000 		.4byte	.LASF147
 1636 0b8e 05       		.uleb128 0x5
 1637 0b8f 870B0000 		.4byte	0xb87
 1638 0b93 0C       		.uleb128 0xc
 1639 0b94 04       		.byte	0x4
 1640 0b95 E0080000 		.4byte	0x8e0
 1641 0b99 0C       		.uleb128 0xc
 1642 0b9a 04       		.byte	0x4
 1643 0b9b 35030000 		.4byte	0x335
 1644 0b9f 1E       		.uleb128 0x1e
 1645 0ba0 636800   		.ascii	"ch\000"
 1646 0ba3 09       		.byte	0x9
 1647 0ba4 C701     		.2byte	0x1c7
 1648 0ba6 02040000 		.4byte	0x402
 1649 0baa 11       		.uleb128 0x11
 1650 0bab E0080000 		.4byte	0x8e0
 1651 0baf B50B0000 		.4byte	0xbb5
 1652 0bb3 1F       		.uleb128 0x1f
 1653 0bb4 00       		.byte	0
ARM GAS  C:\Users\14122\AppData\Local\Temp\ccMqnaqC.s 			page 30


 1654 0bb5 13       		.uleb128 0x13
 1655 0bb6 35050000 		.4byte	.LASF148
 1656 0bba 13       		.byte	0x13
 1657 0bbb 1701     		.2byte	0x117
 1658 0bbd AA0B0000 		.4byte	0xbaa
 1659 0bc1 15       		.uleb128 0x15
 1660 0bc2 16       		.byte	0x16
 1661 0bc3 14       		.byte	0x14
 1662 0bc4 34       		.byte	0x34
 1663 0bc5 A20C0000 		.4byte	0xca2
 1664 0bc9 08       		.uleb128 0x8
 1665 0bca AC0C0000 		.4byte	.LASF149
 1666 0bce 14       		.byte	0x14
 1667 0bcf 35       		.byte	0x35
 1668 0bd0 A20C0000 		.4byte	0xca2
 1669 0bd4 00       		.byte	0
 1670 0bd5 08       		.uleb128 0x8
 1671 0bd6 8B010000 		.4byte	.LASF150
 1672 0bda 14       		.byte	0x14
 1673 0bdb 36       		.byte	0x36
 1674 0bdc B4000000 		.4byte	0xb4
 1675 0be0 04       		.byte	0x4
 1676 0be1 08       		.uleb128 0x8
 1677 0be2 2F090000 		.4byte	.LASF151
 1678 0be6 14       		.byte	0x14
 1679 0be7 37       		.byte	0x37
 1680 0be8 B4000000 		.4byte	0xb4
 1681 0bec 05       		.byte	0x5
 1682 0bed 08       		.uleb128 0x8
 1683 0bee 020A0000 		.4byte	.LASF152
 1684 0bf2 14       		.byte	0x14
 1685 0bf3 38       		.byte	0x38
 1686 0bf4 C4000000 		.4byte	0xc4
 1687 0bf8 06       		.byte	0x6
 1688 0bf9 08       		.uleb128 0x8
 1689 0bfa EB030000 		.4byte	.LASF153
 1690 0bfe 14       		.byte	0x14
 1691 0bff 39       		.byte	0x39
 1692 0c00 B4000000 		.4byte	0xb4
 1693 0c04 08       		.byte	0x8
 1694 0c05 08       		.uleb128 0x8
 1695 0c06 490C0000 		.4byte	.LASF154
 1696 0c0a 14       		.byte	0x14
 1697 0c0b 3A       		.byte	0x3a
 1698 0c0c B4000000 		.4byte	0xb4
 1699 0c10 09       		.byte	0x9
 1700 0c11 08       		.uleb128 0x8
 1701 0c12 CF040000 		.4byte	.LASF155
 1702 0c16 14       		.byte	0x14
 1703 0c17 3B       		.byte	0x3b
 1704 0c18 B4000000 		.4byte	0xb4
 1705 0c1c 0A       		.byte	0xa
 1706 0c1d 08       		.uleb128 0x8
 1707 0c1e 22000000 		.4byte	.LASF156
 1708 0c22 14       		.byte	0x14
 1709 0c23 3C       		.byte	0x3c
 1710 0c24 B4000000 		.4byte	0xb4
ARM GAS  C:\Users\14122\AppData\Local\Temp\ccMqnaqC.s 			page 31


 1711 0c28 0B       		.byte	0xb
 1712 0c29 08       		.uleb128 0x8
 1713 0c2a 00000000 		.4byte	.LASF157
 1714 0c2e 14       		.byte	0x14
 1715 0c2f 3D       		.byte	0x3d
 1716 0c30 B4000000 		.4byte	0xb4
 1717 0c34 0C       		.byte	0xc
 1718 0c35 08       		.uleb128 0x8
 1719 0c36 D8060000 		.4byte	.LASF158
 1720 0c3a 14       		.byte	0x14
 1721 0c3b 3E       		.byte	0x3e
 1722 0c3c B4000000 		.4byte	0xb4
 1723 0c40 0D       		.byte	0xd
 1724 0c41 08       		.uleb128 0x8
 1725 0c42 1D010000 		.4byte	.LASF159
 1726 0c46 14       		.byte	0x14
 1727 0c47 3F       		.byte	0x3f
 1728 0c48 B4000000 		.4byte	0xb4
 1729 0c4c 0E       		.byte	0xe
 1730 0c4d 08       		.uleb128 0x8
 1731 0c4e 6A090000 		.4byte	.LASF160
 1732 0c52 14       		.byte	0x14
 1733 0c53 40       		.byte	0x40
 1734 0c54 B4000000 		.4byte	0xb4
 1735 0c58 0F       		.byte	0xf
 1736 0c59 08       		.uleb128 0x8
 1737 0c5a B7050000 		.4byte	.LASF161
 1738 0c5e 14       		.byte	0x14
 1739 0c5f 41       		.byte	0x41
 1740 0c60 B4000000 		.4byte	0xb4
 1741 0c64 10       		.byte	0x10
 1742 0c65 08       		.uleb128 0x8
 1743 0c66 B3040000 		.4byte	.LASF162
 1744 0c6a 14       		.byte	0x14
 1745 0c6b 42       		.byte	0x42
 1746 0c6c B4000000 		.4byte	0xb4
 1747 0c70 11       		.byte	0x11
 1748 0c71 08       		.uleb128 0x8
 1749 0c72 6E0C0000 		.4byte	.LASF163
 1750 0c76 14       		.byte	0x14
 1751 0c77 43       		.byte	0x43
 1752 0c78 B4000000 		.4byte	0xb4
 1753 0c7c 12       		.byte	0x12
 1754 0c7d 08       		.uleb128 0x8
 1755 0c7e AC030000 		.4byte	.LASF164
 1756 0c82 14       		.byte	0x14
 1757 0c83 44       		.byte	0x44
 1758 0c84 B4000000 		.4byte	0xb4
 1759 0c88 13       		.byte	0x13
 1760 0c89 08       		.uleb128 0x8
 1761 0c8a 43000000 		.4byte	.LASF165
 1762 0c8e 14       		.byte	0x14
 1763 0c8f 45       		.byte	0x45
 1764 0c90 B4000000 		.4byte	0xb4
 1765 0c94 14       		.byte	0x14
 1766 0c95 08       		.uleb128 0x8
 1767 0c96 12040000 		.4byte	.LASF166
ARM GAS  C:\Users\14122\AppData\Local\Temp\ccMqnaqC.s 			page 32


 1768 0c9a 14       		.byte	0x14
 1769 0c9b 46       		.byte	0x46
 1770 0c9c B4000000 		.4byte	0xb4
 1771 0ca0 15       		.byte	0x15
 1772 0ca1 00       		.byte	0
 1773 0ca2 11       		.uleb128 0x11
 1774 0ca3 870B0000 		.4byte	0xb87
 1775 0ca7 B20C0000 		.4byte	0xcb2
 1776 0cab 12       		.uleb128 0x12
 1777 0cac 37000000 		.4byte	0x37
 1778 0cb0 03       		.byte	0x3
 1779 0cb1 00       		.byte	0
 1780 0cb2 03       		.uleb128 0x3
 1781 0cb3 340C0000 		.4byte	.LASF167
 1782 0cb7 14       		.byte	0x14
 1783 0cb8 47       		.byte	0x47
 1784 0cb9 C10B0000 		.4byte	0xbc1
 1785 0cbd 05       		.uleb128 0x5
 1786 0cbe B20C0000 		.4byte	0xcb2
 1787 0cc2 14       		.uleb128 0x14
 1788 0cc3 5D000000 		.4byte	.LASF168
 1789 0cc7 14       		.byte	0x14
 1790 0cc8 6C       		.byte	0x6c
 1791 0cc9 BD0C0000 		.4byte	0xcbd
 1792 0ccd 03       		.uleb128 0x3
 1793 0cce 8E0B0000 		.4byte	.LASF169
 1794 0cd2 12       		.byte	0x12
 1795 0cd3 34       		.byte	0x34
 1796 0cd4 450B0000 		.4byte	0xb45
 1797 0cd8 0C       		.uleb128 0xc
 1798 0cd9 04       		.byte	0x4
 1799 0cda CD0C0000 		.4byte	0xccd
 1800 0cde 03       		.uleb128 0x3
 1801 0cdf DA030000 		.4byte	.LASF170
 1802 0ce3 15       		.byte	0x15
 1803 0ce4 34       		.byte	0x34
 1804 0ce5 E90C0000 		.4byte	0xce9
 1805 0ce9 07       		.uleb128 0x7
 1806 0cea FF0B0000 		.4byte	.LASF171
 1807 0cee 14       		.byte	0x14
 1808 0cef 15       		.byte	0x15
 1809 0cf0 39       		.byte	0x39
 1810 0cf1 320D0000 		.4byte	0xd32
 1811 0cf5 08       		.uleb128 0x8
 1812 0cf6 880C0000 		.4byte	.LASF50
 1813 0cfa 15       		.byte	0x15
 1814 0cfb 3A       		.byte	0x3a
 1815 0cfc 320D0000 		.4byte	0xd32
 1816 0d00 00       		.byte	0
 1817 0d01 08       		.uleb128 0x8
 1818 0d02 950A0000 		.4byte	.LASF172
 1819 0d06 15       		.byte	0x15
 1820 0d07 3D       		.byte	0x3d
 1821 0d08 56020000 		.4byte	0x256
 1822 0d0c 04       		.byte	0x4
 1823 0d0d 08       		.uleb128 0x8
 1824 0d0e 810C0000 		.4byte	.LASF173
ARM GAS  C:\Users\14122\AppData\Local\Temp\ccMqnaqC.s 			page 33


 1825 0d12 15       		.byte	0x15
 1826 0d13 3F       		.byte	0x3f
 1827 0d14 36010000 		.4byte	0x136
 1828 0d18 08       		.byte	0x8
 1829 0d19 08       		.uleb128 0x8
 1830 0d1a B5030000 		.4byte	.LASF38
 1831 0d1e 15       		.byte	0x15
 1832 0d1f 41       		.byte	0x41
 1833 0d20 41010000 		.4byte	0x141
 1834 0d24 0C       		.byte	0xc
 1835 0d25 08       		.uleb128 0x8
 1836 0d26 90080000 		.4byte	.LASF174
 1837 0d2a 15       		.byte	0x15
 1838 0d2b 43       		.byte	0x43
 1839 0d2c 41010000 		.4byte	0x141
 1840 0d30 10       		.byte	0x10
 1841 0d31 00       		.byte	0
 1842 0d32 0C       		.uleb128 0xc
 1843 0d33 04       		.byte	0x4
 1844 0d34 DE0C0000 		.4byte	0xcde
 1845 0d38 07       		.uleb128 0x7
 1846 0d39 ED0A0000 		.4byte	.LASF175
 1847 0d3d 04       		.byte	0x4
 1848 0d3e 15       		.byte	0x15
 1849 0d3f 4A       		.byte	0x4a
 1850 0d40 510D0000 		.4byte	0xd51
 1851 0d44 08       		.uleb128 0x8
 1852 0d45 880C0000 		.4byte	.LASF50
 1853 0d49 15       		.byte	0x15
 1854 0d4a 4B       		.byte	0x4b
 1855 0d4b 320D0000 		.4byte	0xd32
 1856 0d4f 00       		.byte	0
 1857 0d50 00       		.byte	0
 1858 0d51 03       		.uleb128 0x3
 1859 0d52 79060000 		.4byte	.LASF176
 1860 0d56 15       		.byte	0x15
 1861 0d57 4E       		.byte	0x4e
 1862 0d58 380D0000 		.4byte	0xd38
 1863 0d5c 04       		.uleb128 0x4
 1864 0d5d 01       		.byte	0x1
 1865 0d5e 02       		.byte	0x2
 1866 0d5f 41030000 		.4byte	.LASF177
 1867 0d63 03       		.uleb128 0x3
 1868 0d64 47030000 		.4byte	.LASF178
 1869 0d68 16       		.byte	0x16
 1870 0d69 47       		.byte	0x47
 1871 0d6a 6E0D0000 		.4byte	0xd6e
 1872 0d6e 0C       		.uleb128 0xc
 1873 0d6f 04       		.byte	0x4
 1874 0d70 740D0000 		.4byte	0xd74
 1875 0d74 20       		.uleb128 0x20
 1876 0d75 33030000 		.4byte	0x333
 1877 0d79 880D0000 		.4byte	0xd88
 1878 0d7d 0F       		.uleb128 0xf
 1879 0d7e 2C000000 		.4byte	0x2c
 1880 0d82 0F       		.uleb128 0xf
 1881 0d83 37000000 		.4byte	0x37
ARM GAS  C:\Users\14122\AppData\Local\Temp\ccMqnaqC.s 			page 34


 1882 0d87 00       		.byte	0
 1883 0d88 15       		.uleb128 0x15
 1884 0d89 08       		.byte	0x8
 1885 0d8a 16       		.byte	0x16
 1886 0d8b 51       		.byte	0x51
 1887 0d8c A90D0000 		.4byte	0xda9
 1888 0d90 08       		.uleb128 0x8
 1889 0d91 A0040000 		.4byte	.LASF179
 1890 0d95 16       		.byte	0x16
 1891 0d96 55       		.byte	0x55
 1892 0d97 A90D0000 		.4byte	0xda9
 1893 0d9b 00       		.byte	0
 1894 0d9c 08       		.uleb128 0x8
 1895 0d9d 2B000000 		.4byte	.LASF180
 1896 0da1 16       		.byte	0x16
 1897 0da2 59       		.byte	0x59
 1898 0da3 A90D0000 		.4byte	0xda9
 1899 0da7 04       		.byte	0x4
 1900 0da8 00       		.byte	0
 1901 0da9 0C       		.uleb128 0xc
 1902 0daa 04       		.byte	0x4
 1903 0dab B4000000 		.4byte	0xb4
 1904 0daf 03       		.uleb128 0x3
 1905 0db0 48020000 		.4byte	.LASF181
 1906 0db4 16       		.byte	0x16
 1907 0db5 5A       		.byte	0x5a
 1908 0db6 880D0000 		.4byte	0xd88
 1909 0dba 14       		.uleb128 0x14
 1910 0dbb 630C0000 		.4byte	.LASF182
 1911 0dbf 16       		.byte	0x16
 1912 0dc0 65       		.byte	0x65
 1913 0dc1 AF0D0000 		.4byte	0xdaf
 1914 0dc5 07       		.uleb128 0x7
 1915 0dc6 C4050000 		.4byte	.LASF183
 1916 0dca 04       		.byte	0x4
 1917 0dcb 17       		.byte	0x17
 1918 0dcc 38       		.byte	0x38
 1919 0dcd DE0D0000 		.4byte	0xdde
 1920 0dd1 08       		.uleb128 0x8
 1921 0dd2 880C0000 		.4byte	.LASF50
 1922 0dd6 17       		.byte	0x17
 1923 0dd7 39       		.byte	0x39
 1924 0dd8 DE0D0000 		.4byte	0xdde
 1925 0ddc 00       		.byte	0
 1926 0ddd 00       		.byte	0
 1927 0dde 0C       		.uleb128 0xc
 1928 0ddf 04       		.byte	0x4
 1929 0de0 C50D0000 		.4byte	0xdc5
 1930 0de4 15       		.uleb128 0x15
 1931 0de5 10       		.byte	0x10
 1932 0de6 17       		.byte	0x17
 1933 0de7 40       		.byte	0x40
 1934 0de8 1D0E0000 		.4byte	0xe1d
 1935 0dec 08       		.uleb128 0x8
 1936 0ded 880C0000 		.4byte	.LASF50
 1937 0df1 17       		.byte	0x17
 1938 0df2 41       		.byte	0x41
ARM GAS  C:\Users\14122\AppData\Local\Temp\ccMqnaqC.s 			page 35


 1939 0df3 DE0D0000 		.4byte	0xdde
 1940 0df7 00       		.byte	0
 1941 0df8 08       		.uleb128 0x8
 1942 0df9 730B0000 		.4byte	.LASF184
 1943 0dfd 17       		.byte	0x17
 1944 0dfe 42       		.byte	0x42
 1945 0dff 2C000000 		.4byte	0x2c
 1946 0e03 04       		.byte	0x4
 1947 0e04 08       		.uleb128 0x8
 1948 0e05 88060000 		.4byte	.LASF185
 1949 0e09 17       		.byte	0x17
 1950 0e0a 44       		.byte	0x44
 1951 0e0b 37000000 		.4byte	0x37
 1952 0e0f 08       		.byte	0x8
 1953 0e10 08       		.uleb128 0x8
 1954 0e11 66000000 		.4byte	.LASF186
 1955 0e15 17       		.byte	0x17
 1956 0e16 45       		.byte	0x45
 1957 0e17 630D0000 		.4byte	0xd63
 1958 0e1b 0C       		.byte	0xc
 1959 0e1c 00       		.byte	0
 1960 0e1d 03       		.uleb128 0x3
 1961 0e1e 480A0000 		.4byte	.LASF187
 1962 0e22 17       		.byte	0x17
 1963 0e23 47       		.byte	0x47
 1964 0e24 E40D0000 		.4byte	0xde4
 1965 0e28 07       		.uleb128 0x7
 1966 0e29 AD000000 		.4byte	.LASF188
 1967 0e2d 10       		.byte	0x10
 1968 0e2e 18       		.byte	0x18
 1969 0e2f 93       		.byte	0x93
 1970 0e30 590E0000 		.4byte	0xe59
 1971 0e34 08       		.uleb128 0x8
 1972 0e35 880C0000 		.4byte	.LASF50
 1973 0e39 18       		.byte	0x18
 1974 0e3a 97       		.byte	0x97
 1975 0e3b 590E0000 		.4byte	0xe59
 1976 0e3f 00       		.byte	0
 1977 0e40 08       		.uleb128 0x8
 1978 0e41 BF090000 		.4byte	.LASF39
 1979 0e45 18       		.byte	0x18
 1980 0e46 9B       		.byte	0x9b
 1981 0e47 57010000 		.4byte	0x157
 1982 0e4b 04       		.byte	0x4
 1983 0e4c 08       		.uleb128 0x8
 1984 0e4d 860A0000 		.4byte	.LASF35
 1985 0e51 18       		.byte	0x18
 1986 0e52 9D       		.byte	0x9d
 1987 0e53 5F0E0000 		.4byte	0xe5f
 1988 0e57 08       		.byte	0x8
 1989 0e58 00       		.byte	0
 1990 0e59 0C       		.uleb128 0xc
 1991 0e5a 04       		.byte	0x4
 1992 0e5b 280E0000 		.4byte	0xe28
 1993 0e5f 11       		.uleb128 0x11
 1994 0e60 870B0000 		.4byte	0xb87
 1995 0e64 6F0E0000 		.4byte	0xe6f
ARM GAS  C:\Users\14122\AppData\Local\Temp\ccMqnaqC.s 			page 36


 1996 0e68 12       		.uleb128 0x12
 1997 0e69 37000000 		.4byte	0x37
 1998 0e6d 07       		.byte	0x7
 1999 0e6e 00       		.byte	0
 2000 0e6f 03       		.uleb128 0x3
 2001 0e70 34040000 		.4byte	.LASF189
 2002 0e74 18       		.byte	0x18
 2003 0e75 A1       		.byte	0xa1
 2004 0e76 280E0000 		.4byte	0xe28
 2005 0e7a 07       		.uleb128 0x7
 2006 0e7b A00C0000 		.4byte	.LASF190
 2007 0e7f 04       		.byte	0x4
 2008 0e80 18       		.byte	0x18
 2009 0e81 A6       		.byte	0xa6
 2010 0e82 930E0000 		.4byte	0xe93
 2011 0e86 08       		.uleb128 0x8
 2012 0e87 880C0000 		.4byte	.LASF50
 2013 0e8b 18       		.byte	0x18
 2014 0e8c A7       		.byte	0xa7
 2015 0e8d 930E0000 		.4byte	0xe93
 2016 0e91 00       		.byte	0
 2017 0e92 00       		.byte	0
 2018 0e93 0C       		.uleb128 0xc
 2019 0e94 04       		.byte	0x4
 2020 0e95 6F0E0000 		.4byte	0xe6f
 2021 0e99 03       		.uleb128 0x3
 2022 0e9a 4D0B0000 		.4byte	.LASF191
 2023 0e9e 18       		.byte	0x18
 2024 0e9f A8       		.byte	0xa8
 2025 0ea0 7A0E0000 		.4byte	0xe7a
 2026 0ea4 0D       		.uleb128 0xd
 2027 0ea5 58060000 		.4byte	.LASF192
 2028 0ea9 44       		.byte	0x44
 2029 0eaa 18       		.byte	0x18
 2030 0eab 1101     		.2byte	0x111
 2031 0ead 1A0F0000 		.4byte	0xf1a
 2032 0eb1 0A       		.uleb128 0xa
 2033 0eb2 6D747800 		.ascii	"mtx\000"
 2034 0eb6 18       		.byte	0x18
 2035 0eb7 1601     		.2byte	0x116
 2036 0eb9 CD0C0000 		.4byte	0xccd
 2037 0ebd 00       		.byte	0
 2038 0ebe 0B       		.uleb128 0xb
 2039 0ebf F3000000 		.4byte	.LASF193
 2040 0ec3 18       		.byte	0x18
 2041 0ec4 1D01     		.2byte	0x11d
 2042 0ec6 990E0000 		.4byte	0xe99
 2043 0eca 10       		.byte	0x10
 2044 0ecb 0B       		.uleb128 0xb
 2045 0ecc E1010000 		.4byte	.LASF194
 2046 0ed0 18       		.byte	0x18
 2047 0ed1 2101     		.2byte	0x121
 2048 0ed3 1D0E0000 		.4byte	0xe1d
 2049 0ed7 14       		.byte	0x14
 2050 0ed8 0B       		.uleb128 0xb
 2051 0ed9 D0080000 		.4byte	.LASF195
 2052 0edd 18       		.byte	0x18
ARM GAS  C:\Users\14122\AppData\Local\Temp\ccMqnaqC.s 			page 37


 2053 0ede 2601     		.2byte	0x126
 2054 0ee0 990E0000 		.4byte	0xe99
 2055 0ee4 24       		.byte	0x24
 2056 0ee5 0B       		.uleb128 0xb
 2057 0ee6 86030000 		.4byte	.LASF196
 2058 0eea 18       		.byte	0x18
 2059 0eeb 2C01     		.2byte	0x12c
 2060 0eed 990E0000 		.4byte	0xe99
 2061 0ef1 28       		.byte	0x28
 2062 0ef2 0B       		.uleb128 0xb
 2063 0ef3 6C040000 		.4byte	.LASF197
 2064 0ef7 18       		.byte	0x18
 2065 0ef8 3001     		.2byte	0x130
 2066 0efa 1D0E0000 		.4byte	0xe1d
 2067 0efe 2C       		.byte	0x2c
 2068 0eff 0B       		.uleb128 0xb
 2069 0f00 E9090000 		.4byte	.LASF198
 2070 0f04 18       		.byte	0x18
 2071 0f05 3601     		.2byte	0x136
 2072 0f07 990E0000 		.4byte	0xe99
 2073 0f0b 3C       		.byte	0x3c
 2074 0f0c 0B       		.uleb128 0xb
 2075 0f0d 64050000 		.4byte	.LASF199
 2076 0f11 18       		.byte	0x18
 2077 0f12 3C01     		.2byte	0x13c
 2078 0f14 990E0000 		.4byte	0xe99
 2079 0f18 40       		.byte	0x40
 2080 0f19 00       		.byte	0
 2081 0f1a 19       		.uleb128 0x19
 2082 0f1b BE080000 		.4byte	.LASF200
 2083 0f1f 18       		.byte	0x18
 2084 0f20 3E01     		.2byte	0x13e
 2085 0f22 A40E0000 		.4byte	0xea4
 2086 0f26 13       		.uleb128 0x13
 2087 0f27 D6090000 		.4byte	.LASF201
 2088 0f2b 18       		.byte	0x18
 2089 0f2c 4901     		.2byte	0x149
 2090 0f2e 1A0F0000 		.4byte	0xf1a
 2091 0f32 15       		.uleb128 0x15
 2092 0f33 10       		.byte	0x10
 2093 0f34 19       		.byte	0x19
 2094 0f35 F0       		.byte	0xf0
 2095 0f36 8F0F0000 		.4byte	0xf8f
 2096 0f3a 09       		.uleb128 0x9
 2097 0f3b 646D6100 		.ascii	"dma\000"
 2098 0f3f 19       		.byte	0x19
 2099 0f40 F1       		.byte	0xf1
 2100 0f41 8F0F0000 		.4byte	0xf8f
 2101 0f45 00       		.byte	0
 2102 0f46 08       		.uleb128 0x8
 2103 0f47 0D050000 		.4byte	.LASF202
 2104 0f4b 19       		.byte	0x19
 2105 0f4c F2       		.byte	0xf2
 2106 0f4d 950F0000 		.4byte	0xf95
 2107 0f51 04       		.byte	0x4
 2108 0f52 08       		.uleb128 0x8
 2109 0f53 EE080000 		.4byte	.LASF203
ARM GAS  C:\Users\14122\AppData\Local\Temp\ccMqnaqC.s 			page 38


 2110 0f57 19       		.byte	0x19
 2111 0f58 F3       		.byte	0xf3
 2112 0f59 E4000000 		.4byte	0xe4
 2113 0f5d 08       		.byte	0x8
 2114 0f5e 08       		.uleb128 0x8
 2115 0f5f 640A0000 		.4byte	.LASF204
 2116 0f63 19       		.byte	0x19
 2117 0f64 FA       		.byte	0xfa
 2118 0f65 B4000000 		.4byte	0xb4
 2119 0f69 0C       		.byte	0xc
 2120 0f6a 08       		.uleb128 0x8
 2121 0f6b 07050000 		.4byte	.LASF205
 2122 0f6f 19       		.byte	0x19
 2123 0f70 FC       		.byte	0xfc
 2124 0f71 B4000000 		.4byte	0xb4
 2125 0f75 0D       		.byte	0xd
 2126 0f76 08       		.uleb128 0x8
 2127 0f77 E2060000 		.4byte	.LASF206
 2128 0f7b 19       		.byte	0x19
 2129 0f7c FE       		.byte	0xfe
 2130 0f7d B4000000 		.4byte	0xb4
 2131 0f81 0E       		.byte	0xe
 2132 0f82 08       		.uleb128 0x8
 2133 0f83 CF090000 		.4byte	.LASF207
 2134 0f87 19       		.byte	0x19
 2135 0f88 FF       		.byte	0xff
 2136 0f89 B4000000 		.4byte	0xb4
 2137 0f8d 0F       		.byte	0xf
 2138 0f8e 00       		.byte	0
 2139 0f8f 0C       		.uleb128 0xc
 2140 0f90 04       		.byte	0x4
 2141 0f91 AE070000 		.4byte	0x7ae
 2142 0f95 0C       		.uleb128 0xc
 2143 0f96 04       		.byte	0x4
 2144 0f97 7E070000 		.4byte	0x77e
 2145 0f9b 19       		.uleb128 0x19
 2146 0f9c 08000000 		.4byte	.LASF208
 2147 0fa0 19       		.byte	0x19
 2148 0fa1 0001     		.2byte	0x100
 2149 0fa3 320F0000 		.4byte	0xf32
 2150 0fa7 05       		.uleb128 0x5
 2151 0fa8 9B0F0000 		.4byte	0xf9b
 2152 0fac 19       		.uleb128 0x19
 2153 0fad 20070000 		.4byte	.LASF209
 2154 0fb1 19       		.byte	0x19
 2155 0fb2 0901     		.2byte	0x109
 2156 0fb4 B80F0000 		.4byte	0xfb8
 2157 0fb8 0C       		.uleb128 0xc
 2158 0fb9 04       		.byte	0x4
 2159 0fba BE0F0000 		.4byte	0xfbe
 2160 0fbe 0E       		.uleb128 0xe
 2161 0fbf CE0F0000 		.4byte	0xfce
 2162 0fc3 0F       		.uleb128 0xf
 2163 0fc4 33030000 		.4byte	0x333
 2164 0fc8 0F       		.uleb128 0xf
 2165 0fc9 E4000000 		.4byte	0xe4
 2166 0fcd 00       		.byte	0
ARM GAS  C:\Users\14122\AppData\Local\Temp\ccMqnaqC.s 			page 39


 2167 0fce 1A       		.uleb128 0x1a
 2168 0fcf 08       		.byte	0x8
 2169 0fd0 19       		.byte	0x19
 2170 0fd1 0E01     		.2byte	0x10e
 2171 0fd3 F20F0000 		.4byte	0xff2
 2172 0fd7 0B       		.uleb128 0xb
 2173 0fd8 1B040000 		.4byte	.LASF210
 2174 0fdc 19       		.byte	0x19
 2175 0fdd 0F01     		.2byte	0x10f
 2176 0fdf AC0F0000 		.4byte	0xfac
 2177 0fe3 00       		.byte	0
 2178 0fe4 0B       		.uleb128 0xb
 2179 0fe5 690B0000 		.4byte	.LASF211
 2180 0fe9 19       		.byte	0x19
 2181 0fea 1001     		.2byte	0x110
 2182 0fec 33030000 		.4byte	0x333
 2183 0ff0 04       		.byte	0x4
 2184 0ff1 00       		.byte	0
 2185 0ff2 19       		.uleb128 0x19
 2186 0ff3 8A070000 		.4byte	.LASF212
 2187 0ff7 19       		.byte	0x19
 2188 0ff8 1101     		.2byte	0x111
 2189 0ffa CE0F0000 		.4byte	0xfce
 2190 0ffe 11       		.uleb128 0x11
 2191 0fff A70F0000 		.4byte	0xfa7
 2192 1003 0E100000 		.4byte	0x100e
 2193 1007 12       		.uleb128 0x12
 2194 1008 37000000 		.4byte	0x37
 2195 100c 06       		.byte	0x6
 2196 100d 00       		.byte	0
 2197 100e 05       		.uleb128 0x5
 2198 100f FE0F0000 		.4byte	0xffe
 2199 1013 13       		.uleb128 0x13
 2200 1014 47050000 		.4byte	.LASF213
 2201 1018 19       		.byte	0x19
 2202 1019 DF01     		.2byte	0x1df
 2203 101b 0E100000 		.4byte	0x100e
 2204 101f 11       		.uleb128 0x11
 2205 1020 F20F0000 		.4byte	0xff2
 2206 1024 2F100000 		.4byte	0x102f
 2207 1028 12       		.uleb128 0x12
 2208 1029 37000000 		.4byte	0x37
 2209 102d 06       		.byte	0x6
 2210 102e 00       		.byte	0
 2211 102f 13       		.uleb128 0x13
 2212 1030 CE0A0000 		.4byte	.LASF214
 2213 1034 19       		.byte	0x19
 2214 1035 E001     		.2byte	0x1e0
 2215 1037 1F100000 		.4byte	0x101f
 2216 103b 21       		.uleb128 0x21
 2217 103c 00       		.byte	0
 2218 103d 1A       		.byte	0x1a
 2219 103e 99       		.byte	0x99
 2220 103f 03       		.uleb128 0x3
 2221 1040 A1030000 		.4byte	.LASF215
 2222 1044 1A       		.byte	0x1a
 2223 1045 AA       		.byte	0xaa
ARM GAS  C:\Users\14122\AppData\Local\Temp\ccMqnaqC.s 			page 40


 2224 1046 3B100000 		.4byte	0x103b
 2225 104a 15       		.uleb128 0x15
 2226 104b 0C       		.byte	0xc
 2227 104c 1B       		.byte	0x1b
 2228 104d 68       		.byte	0x68
 2229 104e 77100000 		.4byte	0x1077
 2230 1052 09       		.uleb128 0x9
 2231 1053 6F647200 		.ascii	"odr\000"
 2232 1057 1B       		.byte	0x1b
 2233 1058 6A       		.byte	0x6a
 2234 1059 E4000000 		.4byte	0xe4
 2235 105d 00       		.byte	0
 2236 105e 09       		.uleb128 0x9
 2237 105f 63726C00 		.ascii	"crl\000"
 2238 1063 1B       		.byte	0x1b
 2239 1064 6C       		.byte	0x6c
 2240 1065 E4000000 		.4byte	0xe4
 2241 1069 04       		.byte	0x4
 2242 106a 09       		.uleb128 0x9
 2243 106b 63726800 		.ascii	"crh\000"
 2244 106f 1B       		.byte	0x1b
 2245 1070 6E       		.byte	0x6e
 2246 1071 E4000000 		.4byte	0xe4
 2247 1075 08       		.byte	0x8
 2248 1076 00       		.byte	0
 2249 1077 03       		.uleb128 0x3
 2250 1078 2C010000 		.4byte	.LASF216
 2251 107c 1B       		.byte	0x1b
 2252 107d 6F       		.byte	0x6f
 2253 107e 4A100000 		.4byte	0x104a
 2254 1082 15       		.uleb128 0x15
 2255 1083 3C       		.byte	0x3c
 2256 1084 1B       		.byte	0x1b
 2257 1085 78       		.byte	0x78
 2258 1086 C7100000 		.4byte	0x10c7
 2259 108a 08       		.uleb128 0x8
 2260 108b 4B090000 		.4byte	.LASF217
 2261 108f 1B       		.byte	0x1b
 2262 1090 7A       		.byte	0x7a
 2263 1091 77100000 		.4byte	0x1077
 2264 1095 00       		.byte	0
 2265 1096 08       		.uleb128 0x8
 2266 1097 9B060000 		.4byte	.LASF218
 2267 109b 1B       		.byte	0x1b
 2268 109c 7C       		.byte	0x7c
 2269 109d 77100000 		.4byte	0x1077
 2270 10a1 0C       		.byte	0xc
 2271 10a2 08       		.uleb128 0x8
 2272 10a3 7A040000 		.4byte	.LASF219
 2273 10a7 1B       		.byte	0x1b
 2274 10a8 7E       		.byte	0x7e
 2275 10a9 77100000 		.4byte	0x1077
 2276 10ad 18       		.byte	0x18
 2277 10ae 08       		.uleb128 0x8
 2278 10af 10030000 		.4byte	.LASF220
 2279 10b3 1B       		.byte	0x1b
 2280 10b4 80       		.byte	0x80
ARM GAS  C:\Users\14122\AppData\Local\Temp\ccMqnaqC.s 			page 41


 2281 10b5 77100000 		.4byte	0x1077
 2282 10b9 24       		.byte	0x24
 2283 10ba 08       		.uleb128 0x8
 2284 10bb D6000000 		.4byte	.LASF221
 2285 10bf 1B       		.byte	0x1b
 2286 10c0 83       		.byte	0x83
 2287 10c1 77100000 		.4byte	0x1077
 2288 10c5 30       		.byte	0x30
 2289 10c6 00       		.byte	0
 2290 10c7 03       		.uleb128 0x3
 2291 10c8 5F0B0000 		.4byte	.LASF222
 2292 10cc 1B       		.byte	0x1b
 2293 10cd 8D       		.byte	0x8d
 2294 10ce 82100000 		.4byte	0x1082
 2295 10d2 05       		.uleb128 0x5
 2296 10d3 C7100000 		.4byte	0x10c7
 2297 10d7 13       		.uleb128 0x13
 2298 10d8 30020000 		.4byte	.LASF223
 2299 10dc 1B       		.byte	0x1b
 2300 10dd A001     		.2byte	0x1a0
 2301 10df D2100000 		.4byte	0x10d2
 2302 10e3 11       		.uleb128 0x11
 2303 10e4 3F100000 		.4byte	0x103f
 2304 10e8 F3100000 		.4byte	0x10f3
 2305 10ec 12       		.uleb128 0x12
 2306 10ed 37000000 		.4byte	0x37
 2307 10f1 0F       		.byte	0xf
 2308 10f2 00       		.byte	0
 2309 10f3 13       		.uleb128 0x13
 2310 10f4 6F080000 		.4byte	.LASF224
 2311 10f8 1B       		.byte	0x1b
 2312 10f9 A101     		.2byte	0x1a1
 2313 10fb E3100000 		.4byte	0x10e3
 2314 10ff 22       		.uleb128 0x22
 2315 1100 07       		.byte	0x7
 2316 1101 01       		.byte	0x1
 2317 1102 5E000000 		.4byte	0x5e
 2318 1106 1C       		.byte	0x1c
 2319 1107 66       		.byte	0x66
 2320 1108 2B110000 		.4byte	0x112b
 2321 110c 23       		.uleb128 0x23
 2322 110d AA060000 		.4byte	.LASF225
 2323 1111 00       		.byte	0
 2324 1112 23       		.uleb128 0x23
 2325 1113 780C0000 		.4byte	.LASF226
 2326 1117 01       		.byte	0x1
 2327 1118 23       		.uleb128 0x23
 2328 1119 2A060000 		.4byte	.LASF227
 2329 111d 02       		.byte	0x2
 2330 111e 23       		.uleb128 0x23
 2331 111f 03040000 		.4byte	.LASF228
 2332 1123 03       		.byte	0x3
 2333 1124 23       		.uleb128 0x23
 2334 1125 CE060000 		.4byte	.LASF229
 2335 1129 04       		.byte	0x4
 2336 112a 00       		.byte	0
 2337 112b 03       		.uleb128 0x3
ARM GAS  C:\Users\14122\AppData\Local\Temp\ccMqnaqC.s 			page 42


 2338 112c F8030000 		.4byte	.LASF230
 2339 1130 1C       		.byte	0x1c
 2340 1131 6C       		.byte	0x6c
 2341 1132 FF100000 		.4byte	0x10ff
 2342 1136 03       		.uleb128 0x3
 2343 1137 52010000 		.4byte	.LASF231
 2344 113b 1D       		.byte	0x1d
 2345 113c C2       		.byte	0xc2
 2346 113d 41110000 		.4byte	0x1141
 2347 1141 0D       		.uleb128 0xd
 2348 1142 52010000 		.4byte	.LASF231
 2349 1146 30       		.byte	0x30
 2350 1147 1D       		.byte	0x1d
 2351 1148 4801     		.2byte	0x148
 2352 114a D1110000 		.4byte	0x11d1
 2353 114e 0B       		.uleb128 0xb
 2354 114f D0000000 		.4byte	.LASF37
 2355 1153 1D       		.byte	0x1d
 2356 1154 4C01     		.2byte	0x14c
 2357 1156 2B110000 		.4byte	0x112b
 2358 115a 00       		.byte	0
 2359 115b 0B       		.uleb128 0xb
 2360 115c C9000000 		.4byte	.LASF232
 2361 1160 1D       		.byte	0x1d
 2362 1161 5001     		.2byte	0x150
 2363 1163 06120000 		.4byte	0x1206
 2364 1167 04       		.byte	0x4
 2365 1168 0B       		.uleb128 0xb
 2366 1169 200B0000 		.4byte	.LASF233
 2367 116d 1D       		.byte	0x1d
 2368 116e 5401     		.2byte	0x154
 2369 1170 80020000 		.4byte	0x280
 2370 1174 08       		.byte	0x8
 2371 1175 0B       		.uleb128 0xb
 2372 1176 E1090000 		.4byte	.LASF234
 2373 117a 1D       		.byte	0x1d
 2374 117b 5801     		.2byte	0x158
 2375 117d 80020000 		.4byte	0x280
 2376 1181 10       		.byte	0x10
 2377 1182 0B       		.uleb128 0xb
 2378 1183 A1020000 		.4byte	.LASF235
 2379 1187 1D       		.byte	0x1d
 2380 1188 6601     		.2byte	0x166
 2381 118a 510D0000 		.4byte	0xd51
 2382 118e 18       		.byte	0x18
 2383 118f 0B       		.uleb128 0xb
 2384 1190 C20C0000 		.4byte	.LASF236
 2385 1194 1D       		.byte	0x1d
 2386 1195 6E01     		.2byte	0x16e
 2387 1197 510D0000 		.4byte	0xd51
 2388 119b 1C       		.byte	0x1c
 2389 119c 0B       		.uleb128 0xb
 2390 119d 72070000 		.4byte	.LASF237
 2391 11a1 1D       		.byte	0x1d
 2392 11a2 7601     		.2byte	0x176
 2393 11a4 510D0000 		.4byte	0xd51
 2394 11a8 20       		.byte	0x20
ARM GAS  C:\Users\14122\AppData\Local\Temp\ccMqnaqC.s 			page 43


 2395 11a9 0B       		.uleb128 0xb
 2396 11aa 80000000 		.4byte	.LASF238
 2397 11ae 1D       		.byte	0x1d
 2398 11af 7B01     		.2byte	0x17b
 2399 11b1 510D0000 		.4byte	0xd51
 2400 11b5 24       		.byte	0x24
 2401 11b6 0B       		.uleb128 0xb
 2402 11b7 BC000000 		.4byte	.LASF239
 2403 11bb 1D       		.byte	0x1d
 2404 11bc 7F01     		.2byte	0x17f
 2405 11be 510D0000 		.4byte	0xd51
 2406 11c2 28       		.byte	0x28
 2407 11c3 0A       		.uleb128 0xa
 2408 11c4 63616E00 		.ascii	"can\000"
 2409 11c8 1D       		.byte	0x1d
 2410 11c9 A201     		.2byte	0x1a2
 2411 11cb 0C120000 		.4byte	0x120c
 2412 11cf 2C       		.byte	0x2c
 2413 11d0 00       		.byte	0
 2414 11d1 1A       		.uleb128 0x1a
 2415 11d2 08       		.byte	0x8
 2416 11d3 1D       		.byte	0x1d
 2417 11d4 3601     		.2byte	0x136
 2418 11d6 F5110000 		.4byte	0x11f5
 2419 11da 0A       		.uleb128 0xa
 2420 11db 6D637200 		.ascii	"mcr\000"
 2421 11df 1D       		.byte	0x1d
 2422 11e0 3C01     		.2byte	0x13c
 2423 11e2 E4000000 		.4byte	0xe4
 2424 11e6 00       		.byte	0
 2425 11e7 0A       		.uleb128 0xa
 2426 11e8 62747200 		.ascii	"btr\000"
 2427 11ec 1D       		.byte	0x1d
 2428 11ed 4201     		.2byte	0x142
 2429 11ef E4000000 		.4byte	0xe4
 2430 11f3 04       		.byte	0x4
 2431 11f4 00       		.byte	0
 2432 11f5 19       		.uleb128 0x19
 2433 11f6 81040000 		.4byte	.LASF240
 2434 11fa 1D       		.byte	0x1d
 2435 11fb 4301     		.2byte	0x143
 2436 11fd D1110000 		.4byte	0x11d1
 2437 1201 05       		.uleb128 0x5
 2438 1202 F5110000 		.4byte	0x11f5
 2439 1206 0C       		.uleb128 0xc
 2440 1207 04       		.byte	0x4
 2441 1208 01120000 		.4byte	0x1201
 2442 120c 0C       		.uleb128 0xc
 2443 120d 04       		.byte	0x4
 2444 120e 05070000 		.4byte	0x705
 2445 1212 13       		.uleb128 0x13
 2446 1213 BC0C0000 		.4byte	.LASF241
 2447 1217 1D       		.byte	0x1d
 2448 1218 AE01     		.2byte	0x1ae
 2449 121a 36110000 		.4byte	0x1136
 2450 121e 22       		.uleb128 0x22
 2451 121f 07       		.byte	0x7
ARM GAS  C:\Users\14122\AppData\Local\Temp\ccMqnaqC.s 			page 44


 2452 1220 01       		.byte	0x1
 2453 1221 5E000000 		.4byte	0x5e
 2454 1225 1E       		.byte	0x1e
 2455 1226 59       		.byte	0x59
 2456 1227 3E120000 		.4byte	0x123e
 2457 122b 23       		.uleb128 0x23
 2458 122c D0050000 		.4byte	.LASF242
 2459 1230 00       		.byte	0
 2460 1231 23       		.uleb128 0x23
 2461 1232 A3000000 		.4byte	.LASF243
 2462 1236 01       		.byte	0x1
 2463 1237 23       		.uleb128 0x23
 2464 1238 02070000 		.4byte	.LASF244
 2465 123c 02       		.byte	0x2
 2466 123d 00       		.byte	0
 2467 123e 03       		.uleb128 0x3
 2468 123f 280B0000 		.4byte	.LASF245
 2469 1243 1E       		.byte	0x1e
 2470 1244 5D       		.byte	0x5d
 2471 1245 1E120000 		.4byte	0x121e
 2472 1249 22       		.uleb128 0x22
 2473 124a 07       		.byte	0x7
 2474 124b 01       		.byte	0x1
 2475 124c 5E000000 		.4byte	0x5e
 2476 1250 1E       		.byte	0x1e
 2477 1251 62       		.byte	0x62
 2478 1252 69120000 		.4byte	0x1269
 2479 1256 23       		.uleb128 0x23
 2480 1257 BA0B0000 		.4byte	.LASF246
 2481 125b 00       		.byte	0
 2482 125c 23       		.uleb128 0x23
 2483 125d 5C010000 		.4byte	.LASF247
 2484 1261 01       		.byte	0x1
 2485 1262 23       		.uleb128 0x23
 2486 1263 180A0000 		.4byte	.LASF248
 2487 1267 02       		.byte	0x2
 2488 1268 00       		.byte	0
 2489 1269 03       		.uleb128 0x3
 2490 126a 17020000 		.4byte	.LASF249
 2491 126e 1E       		.byte	0x1e
 2492 126f 66       		.byte	0x66
 2493 1270 49120000 		.4byte	0x1249
 2494 1274 22       		.uleb128 0x22
 2495 1275 07       		.byte	0x7
 2496 1276 01       		.byte	0x1
 2497 1277 5E000000 		.4byte	0x5e
 2498 127b 1E       		.byte	0x1e
 2499 127c 6B       		.byte	0x6b
 2500 127d 94120000 		.4byte	0x1294
 2501 1281 23       		.uleb128 0x23
 2502 1282 740A0000 		.4byte	.LASF250
 2503 1286 00       		.byte	0
 2504 1287 23       		.uleb128 0x23
 2505 1288 5B090000 		.4byte	.LASF251
 2506 128c 01       		.byte	0x1
 2507 128d 23       		.uleb128 0x23
 2508 128e EC050000 		.4byte	.LASF252
ARM GAS  C:\Users\14122\AppData\Local\Temp\ccMqnaqC.s 			page 45


 2509 1292 02       		.byte	0x2
 2510 1293 00       		.byte	0
 2511 1294 03       		.uleb128 0x3
 2512 1295 290A0000 		.4byte	.LASF253
 2513 1299 1E       		.byte	0x1e
 2514 129a 6F       		.byte	0x6f
 2515 129b 74120000 		.4byte	0x1274
 2516 129f 19       		.uleb128 0x19
 2517 12a0 BC060000 		.4byte	.LASF254
 2518 12a4 1F       		.byte	0x1f
 2519 12a5 B301     		.2byte	0x1b3
 2520 12a7 E4000000 		.4byte	0xe4
 2521 12ab 19       		.uleb128 0x19
 2522 12ac 6B010000 		.4byte	.LASF255
 2523 12b0 1F       		.byte	0x1f
 2524 12b1 B801     		.2byte	0x1b8
 2525 12b3 B7120000 		.4byte	0x12b7
 2526 12b7 0D       		.uleb128 0xd
 2527 12b8 6B010000 		.4byte	.LASF255
 2528 12bc 1C       		.byte	0x1c
 2529 12bd 1F       		.byte	0x1f
 2530 12be 0002     		.2byte	0x200
 2531 12c0 3A130000 		.4byte	0x133a
 2532 12c4 0B       		.uleb128 0xb
 2533 12c5 D0000000 		.4byte	.LASF37
 2534 12c9 1F       		.byte	0x1f
 2535 12ca 0402     		.2byte	0x204
 2536 12cc 3E120000 		.4byte	0x123e
 2537 12d0 00       		.byte	0
 2538 12d1 0B       		.uleb128 0xb
 2539 12d2 D1010000 		.4byte	.LASF256
 2540 12d6 1F       		.byte	0x1f
 2541 12d7 0802     		.2byte	0x208
 2542 12d9 69120000 		.4byte	0x1269
 2543 12dd 01       		.byte	0x1
 2544 12de 0B       		.uleb128 0xb
 2545 12df DD000000 		.4byte	.LASF257
 2546 12e3 1F       		.byte	0x1f
 2547 12e4 0C02     		.2byte	0x20c
 2548 12e6 94120000 		.4byte	0x1294
 2549 12ea 02       		.byte	0x2
 2550 12eb 0B       		.uleb128 0xb
 2551 12ec C9000000 		.4byte	.LASF232
 2552 12f0 1F       		.byte	0x1f
 2553 12f1 1002     		.2byte	0x210
 2554 12f3 31140000 		.4byte	0x1431
 2555 12f7 04       		.byte	0x4
 2556 12f8 0B       		.uleb128 0xb
 2557 12f9 2A020000 		.4byte	.LASF258
 2558 12fd 1F       		.byte	0x1f
 2559 12fe 2C02     		.2byte	0x22c
 2560 1300 37140000 		.4byte	0x1437
 2561 1304 08       		.byte	0x8
 2562 1305 0B       		.uleb128 0xb
 2563 1306 A2060000 		.4byte	.LASF259
 2564 130a 1F       		.byte	0x1f
 2565 130b 3002     		.2byte	0x230
ARM GAS  C:\Users\14122\AppData\Local\Temp\ccMqnaqC.s 			page 46


 2566 130d E4000000 		.4byte	0xe4
 2567 1311 0C       		.byte	0xc
 2568 1312 0B       		.uleb128 0xb
 2569 1313 03060000 		.4byte	.LASF260
 2570 1317 1F       		.byte	0x1f
 2571 1318 3402     		.2byte	0x234
 2572 131a 3D140000 		.4byte	0x143d
 2573 131e 10       		.byte	0x10
 2574 131f 0B       		.uleb128 0xb
 2575 1320 C8060000 		.4byte	.LASF261
 2576 1324 1F       		.byte	0x1f
 2577 1325 3802     		.2byte	0x238
 2578 1327 3D140000 		.4byte	0x143d
 2579 132b 14       		.byte	0x14
 2580 132c 0B       		.uleb128 0xb
 2581 132d FD050000 		.4byte	.LASF262
 2582 1331 1F       		.byte	0x1f
 2583 1332 3C02     		.2byte	0x23c
 2584 1334 CF000000 		.4byte	0xcf
 2585 1338 18       		.byte	0x18
 2586 1339 00       		.byte	0
 2587 133a 19       		.uleb128 0x19
 2588 133b C70B0000 		.4byte	.LASF263
 2589 133f 1F       		.byte	0x1f
 2590 1340 BF01     		.2byte	0x1bf
 2591 1342 46130000 		.4byte	0x1346
 2592 1346 0C       		.uleb128 0xc
 2593 1347 04       		.byte	0x4
 2594 1348 4C130000 		.4byte	0x134c
 2595 134c 0E       		.uleb128 0xe
 2596 134d 57130000 		.4byte	0x1357
 2597 1351 0F       		.uleb128 0xf
 2598 1352 57130000 		.4byte	0x1357
 2599 1356 00       		.byte	0
 2600 1357 0C       		.uleb128 0xc
 2601 1358 04       		.byte	0x4
 2602 1359 AB120000 		.4byte	0x12ab
 2603 135d 19       		.uleb128 0x19
 2604 135e 3E0A0000 		.4byte	.LASF264
 2605 1362 1F       		.byte	0x1f
 2606 1363 C701     		.2byte	0x1c7
 2607 1365 69130000 		.4byte	0x1369
 2608 1369 0C       		.uleb128 0xc
 2609 136a 04       		.byte	0x4
 2610 136b 6F130000 		.4byte	0x136f
 2611 136f 0E       		.uleb128 0xe
 2612 1370 7F130000 		.4byte	0x137f
 2613 1374 0F       		.uleb128 0xf
 2614 1375 57130000 		.4byte	0x1357
 2615 1379 0F       		.uleb128 0xf
 2616 137a C4000000 		.4byte	0xc4
 2617 137e 00       		.byte	0
 2618 137f 19       		.uleb128 0x19
 2619 1380 91050000 		.4byte	.LASF265
 2620 1384 1F       		.byte	0x1f
 2621 1385 CF01     		.2byte	0x1cf
 2622 1387 8B130000 		.4byte	0x138b
ARM GAS  C:\Users\14122\AppData\Local\Temp\ccMqnaqC.s 			page 47


 2623 138b 0C       		.uleb128 0xc
 2624 138c 04       		.byte	0x4
 2625 138d 91130000 		.4byte	0x1391
 2626 1391 0E       		.uleb128 0xe
 2627 1392 A1130000 		.4byte	0x13a1
 2628 1396 0F       		.uleb128 0xf
 2629 1397 57130000 		.4byte	0x1357
 2630 139b 0F       		.uleb128 0xf
 2631 139c 9F120000 		.4byte	0x129f
 2632 13a0 00       		.byte	0
 2633 13a1 1A       		.uleb128 0x1a
 2634 13a2 20       		.byte	0x20
 2635 13a3 1F       		.byte	0x1f
 2636 13a4 D501     		.2byte	0x1d5
 2637 13a6 20140000 		.4byte	0x1420
 2638 13aa 0B       		.uleb128 0xb
 2639 13ab 6A0A0000 		.4byte	.LASF266
 2640 13af 1F       		.byte	0x1f
 2641 13b0 D901     		.2byte	0x1d9
 2642 13b2 3A130000 		.4byte	0x133a
 2643 13b6 00       		.byte	0
 2644 13b7 0B       		.uleb128 0xb
 2645 13b8 5A050000 		.4byte	.LASF267
 2646 13bc 1F       		.byte	0x1f
 2647 13bd DD01     		.2byte	0x1dd
 2648 13bf 3A130000 		.4byte	0x133a
 2649 13c3 04       		.byte	0x4
 2650 13c4 0B       		.uleb128 0xb
 2651 13c5 14010000 		.4byte	.LASF268
 2652 13c9 1F       		.byte	0x1f
 2653 13ca E101     		.2byte	0x1e1
 2654 13cc 3A130000 		.4byte	0x133a
 2655 13d0 08       		.byte	0x8
 2656 13d1 0B       		.uleb128 0xb
 2657 13d2 2A040000 		.4byte	.LASF269
 2658 13d6 1F       		.byte	0x1f
 2659 13d7 E501     		.2byte	0x1e5
 2660 13d9 5D130000 		.4byte	0x135d
 2661 13dd 0C       		.byte	0xc
 2662 13de 0B       		.uleb128 0xb
 2663 13df EC060000 		.4byte	.LASF270
 2664 13e3 1F       		.byte	0x1f
 2665 13e4 E901     		.2byte	0x1e9
 2666 13e6 7F130000 		.4byte	0x137f
 2667 13ea 10       		.byte	0x10
 2668 13eb 0B       		.uleb128 0xb
 2669 13ec 51040000 		.4byte	.LASF271
 2670 13f0 1F       		.byte	0x1f
 2671 13f1 EE01     		.2byte	0x1ee
 2672 13f3 E4000000 		.4byte	0xe4
 2673 13f7 14       		.byte	0x14
 2674 13f8 0A       		.uleb128 0xa
 2675 13f9 63723100 		.ascii	"cr1\000"
 2676 13fd 1F       		.byte	0x1f
 2677 13fe F201     		.2byte	0x1f2
 2678 1400 C4000000 		.4byte	0xc4
 2679 1404 18       		.byte	0x18
ARM GAS  C:\Users\14122\AppData\Local\Temp\ccMqnaqC.s 			page 48


 2680 1405 0A       		.uleb128 0xa
 2681 1406 63723200 		.ascii	"cr2\000"
 2682 140a 1F       		.byte	0x1f
 2683 140b F601     		.2byte	0x1f6
 2684 140d C4000000 		.4byte	0xc4
 2685 1411 1A       		.byte	0x1a
 2686 1412 0A       		.uleb128 0xa
 2687 1413 63723300 		.ascii	"cr3\000"
 2688 1417 1F       		.byte	0x1f
 2689 1418 FA01     		.2byte	0x1fa
 2690 141a C4000000 		.4byte	0xc4
 2691 141e 1C       		.byte	0x1c
 2692 141f 00       		.byte	0
 2693 1420 19       		.uleb128 0x19
 2694 1421 DA040000 		.4byte	.LASF272
 2695 1425 1F       		.byte	0x1f
 2696 1426 FB01     		.2byte	0x1fb
 2697 1428 A1130000 		.4byte	0x13a1
 2698 142c 05       		.uleb128 0x5
 2699 142d 20140000 		.4byte	0x1420
 2700 1431 0C       		.uleb128 0xc
 2701 1432 04       		.byte	0x4
 2702 1433 2C140000 		.4byte	0x142c
 2703 1437 0C       		.uleb128 0xc
 2704 1438 04       		.byte	0x4
 2705 1439 C9080000 		.4byte	0x8c9
 2706 143d 0C       		.uleb128 0xc
 2707 143e 04       		.byte	0x4
 2708 143f A70F0000 		.4byte	0xfa7
 2709 1443 13       		.uleb128 0x13
 2710 1444 520C0000 		.4byte	.LASF273
 2711 1448 1F       		.byte	0x1f
 2712 1449 4C02     		.2byte	0x24c
 2713 144b AB120000 		.4byte	0x12ab
 2714 144f 24       		.uleb128 0x24
 2715 1450 70030000 		.4byte	.LASF274
 2716 1454 01       		.byte	0x1
 2717 1455 1901     		.2byte	0x119
 2718 1457 00000000 		.4byte	.LFB254
 2719 145b 48000000 		.4byte	.LFE254-.LFB254
 2720 145f 01       		.uleb128 0x1
 2721 1460 9C       		.byte	0x9c
 2722 1461 7A140000 		.4byte	0x147a
 2723 1465 25       		.uleb128 0x25
 2724 1466 40000000 		.4byte	.LVL6
 2725 146a EF150000 		.4byte	0x15ef
 2726 146e 26       		.uleb128 0x26
 2727 146f 01       		.uleb128 0x1
 2728 1470 50       		.byte	0x50
 2729 1471 01       		.uleb128 0x1
 2730 1472 4C       		.byte	0x4c
 2731 1473 26       		.uleb128 0x26
 2732 1474 01       		.uleb128 0x1
 2733 1475 51       		.byte	0x51
 2734 1476 01       		.uleb128 0x1
 2735 1477 38       		.byte	0x38
 2736 1478 00       		.byte	0
ARM GAS  C:\Users\14122\AppData\Local\Temp\ccMqnaqC.s 			page 49


 2737 1479 00       		.byte	0
 2738 147a 27       		.uleb128 0x27
 2739 147b 340B0000 		.4byte	.LASF275
 2740 147f 01       		.byte	0x1
 2741 1480 FD       		.byte	0xfd
 2742 1481 00000000 		.4byte	.LFB253
 2743 1485 2A000000 		.4byte	.LFE253-.LFB253
 2744 1489 01       		.uleb128 0x1
 2745 148a 9C       		.byte	0x9c
 2746 148b 84150000 		.4byte	0x1584
 2747 148f 28       		.uleb128 0x28
 2748 1490 96150000 		.4byte	0x1596
 2749 1494 12000000 		.4byte	.LBB52
 2750 1498 00000000 		.4byte	.Ldebug_ranges0+0
 2751 149c 01       		.byte	0x1
 2752 149d 0701     		.2byte	0x107
 2753 149f F1140000 		.4byte	0x14f1
 2754 14a3 29       		.uleb128 0x29
 2755 14a4 A8150000 		.4byte	0x15a8
 2756 14a8 12000000 		.4byte	.LBB53
 2757 14ac 00000000 		.4byte	.Ldebug_ranges0+0
 2758 14b0 03       		.byte	0x3
 2759 14b1 1502     		.2byte	0x215
 2760 14b3 29       		.uleb128 0x29
 2761 14b4 BA150000 		.4byte	0x15ba
 2762 14b8 12000000 		.4byte	.LBB54
 2763 14bc 00000000 		.4byte	.Ldebug_ranges0+0
 2764 14c0 13       		.byte	0x13
 2765 14c1 8B01     		.2byte	0x18b
 2766 14c3 29       		.uleb128 0x29
 2767 14c4 CC150000 		.4byte	0x15cc
 2768 14c8 12000000 		.4byte	.LBB55
 2769 14cc 00000000 		.4byte	.Ldebug_ranges0+0
 2770 14d0 0F       		.byte	0xf
 2771 14d1 7B02     		.2byte	0x27b
 2772 14d3 29       		.uleb128 0x29
 2773 14d4 D5150000 		.4byte	0x15d5
 2774 14d8 12000000 		.4byte	.LBB56
 2775 14dc 00000000 		.4byte	.Ldebug_ranges0+0
 2776 14e0 0F       		.byte	0xf
 2777 14e1 5A02     		.2byte	0x25a
 2778 14e3 2A       		.uleb128 0x2a
 2779 14e4 E2150000 		.4byte	0x15e2
 2780 14e8 00000000 		.4byte	.LLST0
 2781 14ec 00       		.byte	0
 2782 14ed 00       		.byte	0
 2783 14ee 00       		.byte	0
 2784 14ef 00       		.byte	0
 2785 14f0 00       		.byte	0
 2786 14f1 2B       		.uleb128 0x2b
 2787 14f2 84150000 		.4byte	0x1584
 2788 14f6 1A000000 		.4byte	.LBB64
 2789 14fa 04000000 		.4byte	.LBE64-.LBB64
 2790 14fe 01       		.byte	0x1
 2791 14ff 0801     		.2byte	0x108
 2792 1501 0F150000 		.4byte	0x150f
 2793 1505 2C       		.uleb128 0x2c
ARM GAS  C:\Users\14122\AppData\Local\Temp\ccMqnaqC.s 			page 50


 2794 1506 1E000000 		.4byte	.LVL3
 2795 150a FA150000 		.4byte	0x15fa
 2796 150e 00       		.byte	0
 2797 150f 2B       		.uleb128 0x2b
 2798 1510 8D150000 		.4byte	0x158d
 2799 1514 1E000000 		.4byte	.LBB66
 2800 1518 04000000 		.4byte	.LBE66-.LBB66
 2801 151c 01       		.byte	0x1
 2802 151d 0901     		.2byte	0x109
 2803 151f 71150000 		.4byte	0x1571
 2804 1523 2D       		.uleb128 0x2d
 2805 1524 9F150000 		.4byte	0x159f
 2806 1528 1E000000 		.4byte	.LBB67
 2807 152c 04000000 		.4byte	.LBE67-.LBB67
 2808 1530 03       		.byte	0x3
 2809 1531 2002     		.2byte	0x220
 2810 1533 2D       		.uleb128 0x2d
 2811 1534 B1150000 		.4byte	0x15b1
 2812 1538 1E000000 		.4byte	.LBB68
 2813 153c 04000000 		.4byte	.LBE68-.LBB68
 2814 1540 13       		.byte	0x13
 2815 1541 A101     		.2byte	0x1a1
 2816 1543 2D       		.uleb128 0x2d
 2817 1544 C3150000 		.4byte	0x15c3
 2818 1548 1E000000 		.4byte	.LBB69
 2819 154c 04000000 		.4byte	.LBE69-.LBB69
 2820 1550 0F       		.byte	0xf
 2821 1551 8602     		.2byte	0x286
 2822 1553 2D       		.uleb128 0x2d
 2823 1554 D5150000 		.4byte	0x15d5
 2824 1558 1E000000 		.4byte	.LBB70
 2825 155c 04000000 		.4byte	.LBE70-.LBB70
 2826 1560 0F       		.byte	0xf
 2827 1561 6D02     		.2byte	0x26d
 2828 1563 2A       		.uleb128 0x2a
 2829 1564 E2150000 		.4byte	0x15e2
 2830 1568 15000000 		.4byte	.LLST1
 2831 156c 00       		.byte	0
 2832 156d 00       		.byte	0
 2833 156e 00       		.byte	0
 2834 156f 00       		.byte	0
 2835 1570 00       		.byte	0
 2836 1571 2E       		.uleb128 0x2e
 2837 1572 0E000000 		.4byte	.LVL0
 2838 1576 06160000 		.4byte	0x1606
 2839 157a 2E       		.uleb128 0x2e
 2840 157b 2A000000 		.4byte	.LVL5
 2841 157f 06160000 		.4byte	0x1606
 2842 1583 00       		.byte	0
 2843 1584 2F       		.uleb128 0x2f
 2844 1585 34070000 		.4byte	.LASF276
 2845 1589 03       		.byte	0x3
 2846 158a 5902     		.2byte	0x259
 2847 158c 03       		.byte	0x3
 2848 158d 2F       		.uleb128 0x2f
 2849 158e 8B040000 		.4byte	.LASF277
 2850 1592 03       		.byte	0x3
ARM GAS  C:\Users\14122\AppData\Local\Temp\ccMqnaqC.s 			page 51


 2851 1593 1E02     		.2byte	0x21e
 2852 1595 03       		.byte	0x3
 2853 1596 2F       		.uleb128 0x2f
 2854 1597 01010000 		.4byte	.LASF278
 2855 159b 03       		.byte	0x3
 2856 159c 1302     		.2byte	0x213
 2857 159e 03       		.byte	0x3
 2858 159f 2F       		.uleb128 0x2f
 2859 15a0 B4020000 		.4byte	.LASF279
 2860 15a4 13       		.byte	0x13
 2861 15a5 9D01     		.2byte	0x19d
 2862 15a7 03       		.byte	0x3
 2863 15a8 2F       		.uleb128 0x2f
 2864 15a9 90010000 		.4byte	.LASF280
 2865 15ad 13       		.byte	0x13
 2866 15ae 8901     		.2byte	0x189
 2867 15b0 03       		.byte	0x3
 2868 15b1 2F       		.uleb128 0x2f
 2869 15b2 D9080000 		.4byte	.LASF281
 2870 15b6 0F       		.byte	0xf
 2871 15b7 8402     		.2byte	0x284
 2872 15b9 03       		.byte	0x3
 2873 15ba 2F       		.uleb128 0x2f
 2874 15bb 45060000 		.4byte	.LASF282
 2875 15bf 0F       		.byte	0xf
 2876 15c0 7902     		.2byte	0x279
 2877 15c2 03       		.byte	0x3
 2878 15c3 2F       		.uleb128 0x2f
 2879 15c4 7F010000 		.4byte	.LASF283
 2880 15c8 0F       		.byte	0xf
 2881 15c9 6A02     		.2byte	0x26a
 2882 15cb 03       		.byte	0x3
 2883 15cc 2F       		.uleb128 0x2f
 2884 15cd 8B0A0000 		.4byte	.LASF284
 2885 15d1 0F       		.byte	0xf
 2886 15d2 5202     		.2byte	0x252
 2887 15d4 03       		.byte	0x3
 2888 15d5 30       		.uleb128 0x30
 2889 15d6 0A0A0000 		.4byte	.LASF291
 2890 15da 02       		.byte	0x2
 2891 15db EB01     		.2byte	0x1eb
 2892 15dd 03       		.byte	0x3
 2893 15de EF150000 		.4byte	0x15ef
 2894 15e2 31       		.uleb128 0x31
 2895 15e3 EB000000 		.4byte	.LASF292
 2896 15e7 02       		.byte	0x2
 2897 15e8 EB01     		.2byte	0x1eb
 2898 15ea E4000000 		.4byte	0xe4
 2899 15ee 00       		.byte	0
 2900 15ef 32       		.uleb128 0x32
 2901 15f0 E50B0000 		.4byte	.LASF285
 2902 15f4 E50B0000 		.4byte	.LASF285
 2903 15f8 20       		.byte	0x20
 2904 15f9 4E       		.byte	0x4e
 2905 15fa 33       		.uleb128 0x33
 2906 15fb 0D070000 		.4byte	.LASF286
 2907 15ff 0D070000 		.4byte	.LASF286
ARM GAS  C:\Users\14122\AppData\Local\Temp\ccMqnaqC.s 			page 52


 2908 1603 13       		.byte	0x13
 2909 1604 1F01     		.2byte	0x11f
 2910 1606 33       		.uleb128 0x33
 2911 1607 52070000 		.4byte	.LASF287
 2912 160b 52070000 		.4byte	.LASF287
 2913 160f 0F       		.byte	0xf
 2914 1610 EA01     		.2byte	0x1ea
 2915 1612 00       		.byte	0
 2916              		.section	.debug_abbrev,"",%progbits
 2917              	.Ldebug_abbrev0:
 2918 0000 01       		.uleb128 0x1
 2919 0001 11       		.uleb128 0x11
 2920 0002 01       		.byte	0x1
 2921 0003 25       		.uleb128 0x25
 2922 0004 0E       		.uleb128 0xe
 2923 0005 13       		.uleb128 0x13
 2924 0006 0B       		.uleb128 0xb
 2925 0007 03       		.uleb128 0x3
 2926 0008 0E       		.uleb128 0xe
 2927 0009 1B       		.uleb128 0x1b
 2928 000a 0E       		.uleb128 0xe
 2929 000b 55       		.uleb128 0x55
 2930 000c 17       		.uleb128 0x17
 2931 000d 11       		.uleb128 0x11
 2932 000e 01       		.uleb128 0x1
 2933 000f 10       		.uleb128 0x10
 2934 0010 17       		.uleb128 0x17
 2935 0011 00       		.byte	0
 2936 0012 00       		.byte	0
 2937 0013 02       		.uleb128 0x2
 2938 0014 24       		.uleb128 0x24
 2939 0015 00       		.byte	0
 2940 0016 0B       		.uleb128 0xb
 2941 0017 0B       		.uleb128 0xb
 2942 0018 3E       		.uleb128 0x3e
 2943 0019 0B       		.uleb128 0xb
 2944 001a 03       		.uleb128 0x3
 2945 001b 08       		.uleb128 0x8
 2946 001c 00       		.byte	0
 2947 001d 00       		.byte	0
 2948 001e 03       		.uleb128 0x3
 2949 001f 16       		.uleb128 0x16
 2950 0020 00       		.byte	0
 2951 0021 03       		.uleb128 0x3
 2952 0022 0E       		.uleb128 0xe
 2953 0023 3A       		.uleb128 0x3a
 2954 0024 0B       		.uleb128 0xb
 2955 0025 3B       		.uleb128 0x3b
 2956 0026 0B       		.uleb128 0xb
 2957 0027 49       		.uleb128 0x49
 2958 0028 13       		.uleb128 0x13
 2959 0029 00       		.byte	0
 2960 002a 00       		.byte	0
 2961 002b 04       		.uleb128 0x4
 2962 002c 24       		.uleb128 0x24
 2963 002d 00       		.byte	0
 2964 002e 0B       		.uleb128 0xb
ARM GAS  C:\Users\14122\AppData\Local\Temp\ccMqnaqC.s 			page 53


 2965 002f 0B       		.uleb128 0xb
 2966 0030 3E       		.uleb128 0x3e
 2967 0031 0B       		.uleb128 0xb
 2968 0032 03       		.uleb128 0x3
 2969 0033 0E       		.uleb128 0xe
 2970 0034 00       		.byte	0
 2971 0035 00       		.byte	0
 2972 0036 05       		.uleb128 0x5
 2973 0037 26       		.uleb128 0x26
 2974 0038 00       		.byte	0
 2975 0039 49       		.uleb128 0x49
 2976 003a 13       		.uleb128 0x13
 2977 003b 00       		.byte	0
 2978 003c 00       		.byte	0
 2979 003d 06       		.uleb128 0x6
 2980 003e 35       		.uleb128 0x35
 2981 003f 00       		.byte	0
 2982 0040 49       		.uleb128 0x49
 2983 0041 13       		.uleb128 0x13
 2984 0042 00       		.byte	0
 2985 0043 00       		.byte	0
 2986 0044 07       		.uleb128 0x7
 2987 0045 13       		.uleb128 0x13
 2988 0046 01       		.byte	0x1
 2989 0047 03       		.uleb128 0x3
 2990 0048 0E       		.uleb128 0xe
 2991 0049 0B       		.uleb128 0xb
 2992 004a 0B       		.uleb128 0xb
 2993 004b 3A       		.uleb128 0x3a
 2994 004c 0B       		.uleb128 0xb
 2995 004d 3B       		.uleb128 0x3b
 2996 004e 0B       		.uleb128 0xb
 2997 004f 01       		.uleb128 0x1
 2998 0050 13       		.uleb128 0x13
 2999 0051 00       		.byte	0
 3000 0052 00       		.byte	0
 3001 0053 08       		.uleb128 0x8
 3002 0054 0D       		.uleb128 0xd
 3003 0055 00       		.byte	0
 3004 0056 03       		.uleb128 0x3
 3005 0057 0E       		.uleb128 0xe
 3006 0058 3A       		.uleb128 0x3a
 3007 0059 0B       		.uleb128 0xb
 3008 005a 3B       		.uleb128 0x3b
 3009 005b 0B       		.uleb128 0xb
 3010 005c 49       		.uleb128 0x49
 3011 005d 13       		.uleb128 0x13
 3012 005e 38       		.uleb128 0x38
 3013 005f 0B       		.uleb128 0xb
 3014 0060 00       		.byte	0
 3015 0061 00       		.byte	0
 3016 0062 09       		.uleb128 0x9
 3017 0063 0D       		.uleb128 0xd
 3018 0064 00       		.byte	0
 3019 0065 03       		.uleb128 0x3
 3020 0066 08       		.uleb128 0x8
 3021 0067 3A       		.uleb128 0x3a
ARM GAS  C:\Users\14122\AppData\Local\Temp\ccMqnaqC.s 			page 54


 3022 0068 0B       		.uleb128 0xb
 3023 0069 3B       		.uleb128 0x3b
 3024 006a 0B       		.uleb128 0xb
 3025 006b 49       		.uleb128 0x49
 3026 006c 13       		.uleb128 0x13
 3027 006d 38       		.uleb128 0x38
 3028 006e 0B       		.uleb128 0xb
 3029 006f 00       		.byte	0
 3030 0070 00       		.byte	0
 3031 0071 0A       		.uleb128 0xa
 3032 0072 0D       		.uleb128 0xd
 3033 0073 00       		.byte	0
 3034 0074 03       		.uleb128 0x3
 3035 0075 08       		.uleb128 0x8
 3036 0076 3A       		.uleb128 0x3a
 3037 0077 0B       		.uleb128 0xb
 3038 0078 3B       		.uleb128 0x3b
 3039 0079 05       		.uleb128 0x5
 3040 007a 49       		.uleb128 0x49
 3041 007b 13       		.uleb128 0x13
 3042 007c 38       		.uleb128 0x38
 3043 007d 0B       		.uleb128 0xb
 3044 007e 00       		.byte	0
 3045 007f 00       		.byte	0
 3046 0080 0B       		.uleb128 0xb
 3047 0081 0D       		.uleb128 0xd
 3048 0082 00       		.byte	0
 3049 0083 03       		.uleb128 0x3
 3050 0084 0E       		.uleb128 0xe
 3051 0085 3A       		.uleb128 0x3a
 3052 0086 0B       		.uleb128 0xb
 3053 0087 3B       		.uleb128 0x3b
 3054 0088 05       		.uleb128 0x5
 3055 0089 49       		.uleb128 0x49
 3056 008a 13       		.uleb128 0x13
 3057 008b 38       		.uleb128 0x38
 3058 008c 0B       		.uleb128 0xb
 3059 008d 00       		.byte	0
 3060 008e 00       		.byte	0
 3061 008f 0C       		.uleb128 0xc
 3062 0090 0F       		.uleb128 0xf
 3063 0091 00       		.byte	0
 3064 0092 0B       		.uleb128 0xb
 3065 0093 0B       		.uleb128 0xb
 3066 0094 49       		.uleb128 0x49
 3067 0095 13       		.uleb128 0x13
 3068 0096 00       		.byte	0
 3069 0097 00       		.byte	0
 3070 0098 0D       		.uleb128 0xd
 3071 0099 13       		.uleb128 0x13
 3072 009a 01       		.byte	0x1
 3073 009b 03       		.uleb128 0x3
 3074 009c 0E       		.uleb128 0xe
 3075 009d 0B       		.uleb128 0xb
 3076 009e 0B       		.uleb128 0xb
 3077 009f 3A       		.uleb128 0x3a
 3078 00a0 0B       		.uleb128 0xb
ARM GAS  C:\Users\14122\AppData\Local\Temp\ccMqnaqC.s 			page 55


 3079 00a1 3B       		.uleb128 0x3b
 3080 00a2 05       		.uleb128 0x5
 3081 00a3 01       		.uleb128 0x1
 3082 00a4 13       		.uleb128 0x13
 3083 00a5 00       		.byte	0
 3084 00a6 00       		.byte	0
 3085 00a7 0E       		.uleb128 0xe
 3086 00a8 15       		.uleb128 0x15
 3087 00a9 01       		.byte	0x1
 3088 00aa 27       		.uleb128 0x27
 3089 00ab 19       		.uleb128 0x19
 3090 00ac 01       		.uleb128 0x1
 3091 00ad 13       		.uleb128 0x13
 3092 00ae 00       		.byte	0
 3093 00af 00       		.byte	0
 3094 00b0 0F       		.uleb128 0xf
 3095 00b1 05       		.uleb128 0x5
 3096 00b2 00       		.byte	0
 3097 00b3 49       		.uleb128 0x49
 3098 00b4 13       		.uleb128 0x13
 3099 00b5 00       		.byte	0
 3100 00b6 00       		.byte	0
 3101 00b7 10       		.uleb128 0x10
 3102 00b8 0F       		.uleb128 0xf
 3103 00b9 00       		.byte	0
 3104 00ba 0B       		.uleb128 0xb
 3105 00bb 0B       		.uleb128 0xb
 3106 00bc 00       		.byte	0
 3107 00bd 00       		.byte	0
 3108 00be 11       		.uleb128 0x11
 3109 00bf 01       		.uleb128 0x1
 3110 00c0 01       		.byte	0x1
 3111 00c1 49       		.uleb128 0x49
 3112 00c2 13       		.uleb128 0x13
 3113 00c3 01       		.uleb128 0x1
 3114 00c4 13       		.uleb128 0x13
 3115 00c5 00       		.byte	0
 3116 00c6 00       		.byte	0
 3117 00c7 12       		.uleb128 0x12
 3118 00c8 21       		.uleb128 0x21
 3119 00c9 00       		.byte	0
 3120 00ca 49       		.uleb128 0x49
 3121 00cb 13       		.uleb128 0x13
 3122 00cc 2F       		.uleb128 0x2f
 3123 00cd 0B       		.uleb128 0xb
 3124 00ce 00       		.byte	0
 3125 00cf 00       		.byte	0
 3126 00d0 13       		.uleb128 0x13
 3127 00d1 34       		.uleb128 0x34
 3128 00d2 00       		.byte	0
 3129 00d3 03       		.uleb128 0x3
 3130 00d4 0E       		.uleb128 0xe
 3131 00d5 3A       		.uleb128 0x3a
 3132 00d6 0B       		.uleb128 0xb
 3133 00d7 3B       		.uleb128 0x3b
 3134 00d8 05       		.uleb128 0x5
 3135 00d9 49       		.uleb128 0x49
ARM GAS  C:\Users\14122\AppData\Local\Temp\ccMqnaqC.s 			page 56


 3136 00da 13       		.uleb128 0x13
 3137 00db 3F       		.uleb128 0x3f
 3138 00dc 19       		.uleb128 0x19
 3139 00dd 3C       		.uleb128 0x3c
 3140 00de 19       		.uleb128 0x19
 3141 00df 00       		.byte	0
 3142 00e0 00       		.byte	0
 3143 00e1 14       		.uleb128 0x14
 3144 00e2 34       		.uleb128 0x34
 3145 00e3 00       		.byte	0
 3146 00e4 03       		.uleb128 0x3
 3147 00e5 0E       		.uleb128 0xe
 3148 00e6 3A       		.uleb128 0x3a
 3149 00e7 0B       		.uleb128 0xb
 3150 00e8 3B       		.uleb128 0x3b
 3151 00e9 0B       		.uleb128 0xb
 3152 00ea 49       		.uleb128 0x49
 3153 00eb 13       		.uleb128 0x13
 3154 00ec 3F       		.uleb128 0x3f
 3155 00ed 19       		.uleb128 0x19
 3156 00ee 3C       		.uleb128 0x3c
 3157 00ef 19       		.uleb128 0x19
 3158 00f0 00       		.byte	0
 3159 00f1 00       		.byte	0
 3160 00f2 15       		.uleb128 0x15
 3161 00f3 13       		.uleb128 0x13
 3162 00f4 01       		.byte	0x1
 3163 00f5 0B       		.uleb128 0xb
 3164 00f6 0B       		.uleb128 0xb
 3165 00f7 3A       		.uleb128 0x3a
 3166 00f8 0B       		.uleb128 0xb
 3167 00f9 3B       		.uleb128 0x3b
 3168 00fa 0B       		.uleb128 0xb
 3169 00fb 01       		.uleb128 0x1
 3170 00fc 13       		.uleb128 0x13
 3171 00fd 00       		.byte	0
 3172 00fe 00       		.byte	0
 3173 00ff 16       		.uleb128 0x16
 3174 0100 13       		.uleb128 0x13
 3175 0101 01       		.byte	0x1
 3176 0102 0B       		.uleb128 0xb
 3177 0103 05       		.uleb128 0x5
 3178 0104 3A       		.uleb128 0x3a
 3179 0105 0B       		.uleb128 0xb
 3180 0106 3B       		.uleb128 0x3b
 3181 0107 0B       		.uleb128 0xb
 3182 0108 01       		.uleb128 0x1
 3183 0109 13       		.uleb128 0x13
 3184 010a 00       		.byte	0
 3185 010b 00       		.byte	0
 3186 010c 17       		.uleb128 0x17
 3187 010d 0D       		.uleb128 0xd
 3188 010e 00       		.byte	0
 3189 010f 03       		.uleb128 0x3
 3190 0110 0E       		.uleb128 0xe
 3191 0111 3A       		.uleb128 0x3a
 3192 0112 0B       		.uleb128 0xb
ARM GAS  C:\Users\14122\AppData\Local\Temp\ccMqnaqC.s 			page 57


 3193 0113 3B       		.uleb128 0x3b
 3194 0114 05       		.uleb128 0x5
 3195 0115 49       		.uleb128 0x49
 3196 0116 13       		.uleb128 0x13
 3197 0117 38       		.uleb128 0x38
 3198 0118 05       		.uleb128 0x5
 3199 0119 00       		.byte	0
 3200 011a 00       		.byte	0
 3201 011b 18       		.uleb128 0x18
 3202 011c 0D       		.uleb128 0xd
 3203 011d 00       		.byte	0
 3204 011e 03       		.uleb128 0x3
 3205 011f 08       		.uleb128 0x8
 3206 0120 3A       		.uleb128 0x3a
 3207 0121 0B       		.uleb128 0xb
 3208 0122 3B       		.uleb128 0x3b
 3209 0123 05       		.uleb128 0x5
 3210 0124 49       		.uleb128 0x49
 3211 0125 13       		.uleb128 0x13
 3212 0126 38       		.uleb128 0x38
 3213 0127 05       		.uleb128 0x5
 3214 0128 00       		.byte	0
 3215 0129 00       		.byte	0
 3216 012a 19       		.uleb128 0x19
 3217 012b 16       		.uleb128 0x16
 3218 012c 00       		.byte	0
 3219 012d 03       		.uleb128 0x3
 3220 012e 0E       		.uleb128 0xe
 3221 012f 3A       		.uleb128 0x3a
 3222 0130 0B       		.uleb128 0xb
 3223 0131 3B       		.uleb128 0x3b
 3224 0132 05       		.uleb128 0x5
 3225 0133 49       		.uleb128 0x49
 3226 0134 13       		.uleb128 0x13
 3227 0135 00       		.byte	0
 3228 0136 00       		.byte	0
 3229 0137 1A       		.uleb128 0x1a
 3230 0138 13       		.uleb128 0x13
 3231 0139 01       		.byte	0x1
 3232 013a 0B       		.uleb128 0xb
 3233 013b 0B       		.uleb128 0xb
 3234 013c 3A       		.uleb128 0x3a
 3235 013d 0B       		.uleb128 0xb
 3236 013e 3B       		.uleb128 0x3b
 3237 013f 05       		.uleb128 0x5
 3238 0140 01       		.uleb128 0x1
 3239 0141 13       		.uleb128 0x13
 3240 0142 00       		.byte	0
 3241 0143 00       		.byte	0
 3242 0144 1B       		.uleb128 0x1b
 3243 0145 17       		.uleb128 0x17
 3244 0146 01       		.byte	0x1
 3245 0147 0B       		.uleb128 0xb
 3246 0148 0B       		.uleb128 0xb
 3247 0149 3A       		.uleb128 0x3a
 3248 014a 0B       		.uleb128 0xb
 3249 014b 3B       		.uleb128 0x3b
ARM GAS  C:\Users\14122\AppData\Local\Temp\ccMqnaqC.s 			page 58


 3250 014c 0B       		.uleb128 0xb
 3251 014d 01       		.uleb128 0x1
 3252 014e 13       		.uleb128 0x13
 3253 014f 00       		.byte	0
 3254 0150 00       		.byte	0
 3255 0151 1C       		.uleb128 0x1c
 3256 0152 0D       		.uleb128 0xd
 3257 0153 00       		.byte	0
 3258 0154 03       		.uleb128 0x3
 3259 0155 0E       		.uleb128 0xe
 3260 0156 3A       		.uleb128 0x3a
 3261 0157 0B       		.uleb128 0xb
 3262 0158 3B       		.uleb128 0x3b
 3263 0159 0B       		.uleb128 0xb
 3264 015a 49       		.uleb128 0x49
 3265 015b 13       		.uleb128 0x13
 3266 015c 00       		.byte	0
 3267 015d 00       		.byte	0
 3268 015e 1D       		.uleb128 0x1d
 3269 015f 0D       		.uleb128 0xd
 3270 0160 00       		.byte	0
 3271 0161 03       		.uleb128 0x3
 3272 0162 0E       		.uleb128 0xe
 3273 0163 3A       		.uleb128 0x3a
 3274 0164 0B       		.uleb128 0xb
 3275 0165 3B       		.uleb128 0x3b
 3276 0166 05       		.uleb128 0x5
 3277 0167 49       		.uleb128 0x49
 3278 0168 13       		.uleb128 0x13
 3279 0169 00       		.byte	0
 3280 016a 00       		.byte	0
 3281 016b 1E       		.uleb128 0x1e
 3282 016c 34       		.uleb128 0x34
 3283 016d 00       		.byte	0
 3284 016e 03       		.uleb128 0x3
 3285 016f 08       		.uleb128 0x8
 3286 0170 3A       		.uleb128 0x3a
 3287 0171 0B       		.uleb128 0xb
 3288 0172 3B       		.uleb128 0x3b
 3289 0173 05       		.uleb128 0x5
 3290 0174 49       		.uleb128 0x49
 3291 0175 13       		.uleb128 0x13
 3292 0176 3F       		.uleb128 0x3f
 3293 0177 19       		.uleb128 0x19
 3294 0178 3C       		.uleb128 0x3c
 3295 0179 19       		.uleb128 0x19
 3296 017a 00       		.byte	0
 3297 017b 00       		.byte	0
 3298 017c 1F       		.uleb128 0x1f
 3299 017d 21       		.uleb128 0x21
 3300 017e 00       		.byte	0
 3301 017f 00       		.byte	0
 3302 0180 00       		.byte	0
 3303 0181 20       		.uleb128 0x20
 3304 0182 15       		.uleb128 0x15
 3305 0183 01       		.byte	0x1
 3306 0184 27       		.uleb128 0x27
ARM GAS  C:\Users\14122\AppData\Local\Temp\ccMqnaqC.s 			page 59


 3307 0185 19       		.uleb128 0x19
 3308 0186 49       		.uleb128 0x49
 3309 0187 13       		.uleb128 0x13
 3310 0188 01       		.uleb128 0x1
 3311 0189 13       		.uleb128 0x13
 3312 018a 00       		.byte	0
 3313 018b 00       		.byte	0
 3314 018c 21       		.uleb128 0x21
 3315 018d 13       		.uleb128 0x13
 3316 018e 00       		.byte	0
 3317 018f 0B       		.uleb128 0xb
 3318 0190 0B       		.uleb128 0xb
 3319 0191 3A       		.uleb128 0x3a
 3320 0192 0B       		.uleb128 0xb
 3321 0193 3B       		.uleb128 0x3b
 3322 0194 0B       		.uleb128 0xb
 3323 0195 00       		.byte	0
 3324 0196 00       		.byte	0
 3325 0197 22       		.uleb128 0x22
 3326 0198 04       		.uleb128 0x4
 3327 0199 01       		.byte	0x1
 3328 019a 3E       		.uleb128 0x3e
 3329 019b 0B       		.uleb128 0xb
 3330 019c 0B       		.uleb128 0xb
 3331 019d 0B       		.uleb128 0xb
 3332 019e 49       		.uleb128 0x49
 3333 019f 13       		.uleb128 0x13
 3334 01a0 3A       		.uleb128 0x3a
 3335 01a1 0B       		.uleb128 0xb
 3336 01a2 3B       		.uleb128 0x3b
 3337 01a3 0B       		.uleb128 0xb
 3338 01a4 01       		.uleb128 0x1
 3339 01a5 13       		.uleb128 0x13
 3340 01a6 00       		.byte	0
 3341 01a7 00       		.byte	0
 3342 01a8 23       		.uleb128 0x23
 3343 01a9 28       		.uleb128 0x28
 3344 01aa 00       		.byte	0
 3345 01ab 03       		.uleb128 0x3
 3346 01ac 0E       		.uleb128 0xe
 3347 01ad 1C       		.uleb128 0x1c
 3348 01ae 0B       		.uleb128 0xb
 3349 01af 00       		.byte	0
 3350 01b0 00       		.byte	0
 3351 01b1 24       		.uleb128 0x24
 3352 01b2 2E       		.uleb128 0x2e
 3353 01b3 01       		.byte	0x1
 3354 01b4 3F       		.uleb128 0x3f
 3355 01b5 19       		.uleb128 0x19
 3356 01b6 03       		.uleb128 0x3
 3357 01b7 0E       		.uleb128 0xe
 3358 01b8 3A       		.uleb128 0x3a
 3359 01b9 0B       		.uleb128 0xb
 3360 01ba 3B       		.uleb128 0x3b
 3361 01bb 05       		.uleb128 0x5
 3362 01bc 27       		.uleb128 0x27
 3363 01bd 19       		.uleb128 0x19
ARM GAS  C:\Users\14122\AppData\Local\Temp\ccMqnaqC.s 			page 60


 3364 01be 11       		.uleb128 0x11
 3365 01bf 01       		.uleb128 0x1
 3366 01c0 12       		.uleb128 0x12
 3367 01c1 06       		.uleb128 0x6
 3368 01c2 40       		.uleb128 0x40
 3369 01c3 18       		.uleb128 0x18
 3370 01c4 9742     		.uleb128 0x2117
 3371 01c6 19       		.uleb128 0x19
 3372 01c7 01       		.uleb128 0x1
 3373 01c8 13       		.uleb128 0x13
 3374 01c9 00       		.byte	0
 3375 01ca 00       		.byte	0
 3376 01cb 25       		.uleb128 0x25
 3377 01cc 898201   		.uleb128 0x4109
 3378 01cf 01       		.byte	0x1
 3379 01d0 11       		.uleb128 0x11
 3380 01d1 01       		.uleb128 0x1
 3381 01d2 9542     		.uleb128 0x2115
 3382 01d4 19       		.uleb128 0x19
 3383 01d5 31       		.uleb128 0x31
 3384 01d6 13       		.uleb128 0x13
 3385 01d7 00       		.byte	0
 3386 01d8 00       		.byte	0
 3387 01d9 26       		.uleb128 0x26
 3388 01da 8A8201   		.uleb128 0x410a
 3389 01dd 00       		.byte	0
 3390 01de 02       		.uleb128 0x2
 3391 01df 18       		.uleb128 0x18
 3392 01e0 9142     		.uleb128 0x2111
 3393 01e2 18       		.uleb128 0x18
 3394 01e3 00       		.byte	0
 3395 01e4 00       		.byte	0
 3396 01e5 27       		.uleb128 0x27
 3397 01e6 2E       		.uleb128 0x2e
 3398 01e7 01       		.byte	0x1
 3399 01e8 3F       		.uleb128 0x3f
 3400 01e9 19       		.uleb128 0x19
 3401 01ea 03       		.uleb128 0x3
 3402 01eb 0E       		.uleb128 0xe
 3403 01ec 3A       		.uleb128 0x3a
 3404 01ed 0B       		.uleb128 0xb
 3405 01ee 3B       		.uleb128 0x3b
 3406 01ef 0B       		.uleb128 0xb
 3407 01f0 27       		.uleb128 0x27
 3408 01f1 19       		.uleb128 0x19
 3409 01f2 11       		.uleb128 0x11
 3410 01f3 01       		.uleb128 0x1
 3411 01f4 12       		.uleb128 0x12
 3412 01f5 06       		.uleb128 0x6
 3413 01f6 40       		.uleb128 0x40
 3414 01f7 18       		.uleb128 0x18
 3415 01f8 9742     		.uleb128 0x2117
 3416 01fa 19       		.uleb128 0x19
 3417 01fb 01       		.uleb128 0x1
 3418 01fc 13       		.uleb128 0x13
 3419 01fd 00       		.byte	0
 3420 01fe 00       		.byte	0
ARM GAS  C:\Users\14122\AppData\Local\Temp\ccMqnaqC.s 			page 61


 3421 01ff 28       		.uleb128 0x28
 3422 0200 1D       		.uleb128 0x1d
 3423 0201 01       		.byte	0x1
 3424 0202 31       		.uleb128 0x31
 3425 0203 13       		.uleb128 0x13
 3426 0204 52       		.uleb128 0x52
 3427 0205 01       		.uleb128 0x1
 3428 0206 55       		.uleb128 0x55
 3429 0207 17       		.uleb128 0x17
 3430 0208 58       		.uleb128 0x58
 3431 0209 0B       		.uleb128 0xb
 3432 020a 59       		.uleb128 0x59
 3433 020b 05       		.uleb128 0x5
 3434 020c 01       		.uleb128 0x1
 3435 020d 13       		.uleb128 0x13
 3436 020e 00       		.byte	0
 3437 020f 00       		.byte	0
 3438 0210 29       		.uleb128 0x29
 3439 0211 1D       		.uleb128 0x1d
 3440 0212 01       		.byte	0x1
 3441 0213 31       		.uleb128 0x31
 3442 0214 13       		.uleb128 0x13
 3443 0215 52       		.uleb128 0x52
 3444 0216 01       		.uleb128 0x1
 3445 0217 55       		.uleb128 0x55
 3446 0218 17       		.uleb128 0x17
 3447 0219 58       		.uleb128 0x58
 3448 021a 0B       		.uleb128 0xb
 3449 021b 59       		.uleb128 0x59
 3450 021c 05       		.uleb128 0x5
 3451 021d 00       		.byte	0
 3452 021e 00       		.byte	0
 3453 021f 2A       		.uleb128 0x2a
 3454 0220 05       		.uleb128 0x5
 3455 0221 00       		.byte	0
 3456 0222 31       		.uleb128 0x31
 3457 0223 13       		.uleb128 0x13
 3458 0224 02       		.uleb128 0x2
 3459 0225 17       		.uleb128 0x17
 3460 0226 00       		.byte	0
 3461 0227 00       		.byte	0
 3462 0228 2B       		.uleb128 0x2b
 3463 0229 1D       		.uleb128 0x1d
 3464 022a 01       		.byte	0x1
 3465 022b 31       		.uleb128 0x31
 3466 022c 13       		.uleb128 0x13
 3467 022d 11       		.uleb128 0x11
 3468 022e 01       		.uleb128 0x1
 3469 022f 12       		.uleb128 0x12
 3470 0230 06       		.uleb128 0x6
 3471 0231 58       		.uleb128 0x58
 3472 0232 0B       		.uleb128 0xb
 3473 0233 59       		.uleb128 0x59
 3474 0234 05       		.uleb128 0x5
 3475 0235 01       		.uleb128 0x1
 3476 0236 13       		.uleb128 0x13
 3477 0237 00       		.byte	0
ARM GAS  C:\Users\14122\AppData\Local\Temp\ccMqnaqC.s 			page 62


 3478 0238 00       		.byte	0
 3479 0239 2C       		.uleb128 0x2c
 3480 023a 898201   		.uleb128 0x4109
 3481 023d 00       		.byte	0
 3482 023e 11       		.uleb128 0x11
 3483 023f 01       		.uleb128 0x1
 3484 0240 31       		.uleb128 0x31
 3485 0241 13       		.uleb128 0x13
 3486 0242 00       		.byte	0
 3487 0243 00       		.byte	0
 3488 0244 2D       		.uleb128 0x2d
 3489 0245 1D       		.uleb128 0x1d
 3490 0246 01       		.byte	0x1
 3491 0247 31       		.uleb128 0x31
 3492 0248 13       		.uleb128 0x13
 3493 0249 11       		.uleb128 0x11
 3494 024a 01       		.uleb128 0x1
 3495 024b 12       		.uleb128 0x12
 3496 024c 06       		.uleb128 0x6
 3497 024d 58       		.uleb128 0x58
 3498 024e 0B       		.uleb128 0xb
 3499 024f 59       		.uleb128 0x59
 3500 0250 05       		.uleb128 0x5
 3501 0251 00       		.byte	0
 3502 0252 00       		.byte	0
 3503 0253 2E       		.uleb128 0x2e
 3504 0254 898201   		.uleb128 0x4109
 3505 0257 00       		.byte	0
 3506 0258 11       		.uleb128 0x11
 3507 0259 01       		.uleb128 0x1
 3508 025a 9542     		.uleb128 0x2115
 3509 025c 19       		.uleb128 0x19
 3510 025d 31       		.uleb128 0x31
 3511 025e 13       		.uleb128 0x13
 3512 025f 00       		.byte	0
 3513 0260 00       		.byte	0
 3514 0261 2F       		.uleb128 0x2f
 3515 0262 2E       		.uleb128 0x2e
 3516 0263 00       		.byte	0
 3517 0264 03       		.uleb128 0x3
 3518 0265 0E       		.uleb128 0xe
 3519 0266 3A       		.uleb128 0x3a
 3520 0267 0B       		.uleb128 0xb
 3521 0268 3B       		.uleb128 0x3b
 3522 0269 05       		.uleb128 0x5
 3523 026a 27       		.uleb128 0x27
 3524 026b 19       		.uleb128 0x19
 3525 026c 20       		.uleb128 0x20
 3526 026d 0B       		.uleb128 0xb
 3527 026e 00       		.byte	0
 3528 026f 00       		.byte	0
 3529 0270 30       		.uleb128 0x30
 3530 0271 2E       		.uleb128 0x2e
 3531 0272 01       		.byte	0x1
 3532 0273 03       		.uleb128 0x3
 3533 0274 0E       		.uleb128 0xe
 3534 0275 3A       		.uleb128 0x3a
ARM GAS  C:\Users\14122\AppData\Local\Temp\ccMqnaqC.s 			page 63


 3535 0276 0B       		.uleb128 0xb
 3536 0277 3B       		.uleb128 0x3b
 3537 0278 05       		.uleb128 0x5
 3538 0279 27       		.uleb128 0x27
 3539 027a 19       		.uleb128 0x19
 3540 027b 20       		.uleb128 0x20
 3541 027c 0B       		.uleb128 0xb
 3542 027d 01       		.uleb128 0x1
 3543 027e 13       		.uleb128 0x13
 3544 027f 00       		.byte	0
 3545 0280 00       		.byte	0
 3546 0281 31       		.uleb128 0x31
 3547 0282 05       		.uleb128 0x5
 3548 0283 00       		.byte	0
 3549 0284 03       		.uleb128 0x3
 3550 0285 0E       		.uleb128 0xe
 3551 0286 3A       		.uleb128 0x3a
 3552 0287 0B       		.uleb128 0xb
 3553 0288 3B       		.uleb128 0x3b
 3554 0289 05       		.uleb128 0x5
 3555 028a 49       		.uleb128 0x49
 3556 028b 13       		.uleb128 0x13
 3557 028c 00       		.byte	0
 3558 028d 00       		.byte	0
 3559 028e 32       		.uleb128 0x32
 3560 028f 2E       		.uleb128 0x2e
 3561 0290 00       		.byte	0
 3562 0291 3F       		.uleb128 0x3f
 3563 0292 19       		.uleb128 0x19
 3564 0293 3C       		.uleb128 0x3c
 3565 0294 19       		.uleb128 0x19
 3566 0295 6E       		.uleb128 0x6e
 3567 0296 0E       		.uleb128 0xe
 3568 0297 03       		.uleb128 0x3
 3569 0298 0E       		.uleb128 0xe
 3570 0299 3A       		.uleb128 0x3a
 3571 029a 0B       		.uleb128 0xb
 3572 029b 3B       		.uleb128 0x3b
 3573 029c 0B       		.uleb128 0xb
 3574 029d 00       		.byte	0
 3575 029e 00       		.byte	0
 3576 029f 33       		.uleb128 0x33
 3577 02a0 2E       		.uleb128 0x2e
 3578 02a1 00       		.byte	0
 3579 02a2 3F       		.uleb128 0x3f
 3580 02a3 19       		.uleb128 0x19
 3581 02a4 3C       		.uleb128 0x3c
 3582 02a5 19       		.uleb128 0x19
 3583 02a6 6E       		.uleb128 0x6e
 3584 02a7 0E       		.uleb128 0xe
 3585 02a8 03       		.uleb128 0x3
 3586 02a9 0E       		.uleb128 0xe
 3587 02aa 3A       		.uleb128 0x3a
 3588 02ab 0B       		.uleb128 0xb
 3589 02ac 3B       		.uleb128 0x3b
 3590 02ad 05       		.uleb128 0x5
 3591 02ae 00       		.byte	0
ARM GAS  C:\Users\14122\AppData\Local\Temp\ccMqnaqC.s 			page 64


 3592 02af 00       		.byte	0
 3593 02b0 00       		.byte	0
 3594              		.section	.debug_loc,"",%progbits
 3595              	.Ldebug_loc0:
 3596              	.LLST0:
 3597 0000 16000000 		.4byte	.LVL1
 3598 0004 1A000000 		.4byte	.LVL2
 3599 0008 0300     		.2byte	0x3
 3600 000a 08       		.byte	0x8
 3601 000b 20       		.byte	0x20
 3602 000c 9F       		.byte	0x9f
 3603 000d 00000000 		.4byte	0
 3604 0011 00000000 		.4byte	0
 3605              	.LLST1:
 3606 0015 1E000000 		.4byte	.LVL3
 3607 0019 22000000 		.4byte	.LVL4
 3608 001d 0200     		.2byte	0x2
 3609 001f 30       		.byte	0x30
 3610 0020 9F       		.byte	0x9f
 3611 0021 00000000 		.4byte	0
 3612 0025 00000000 		.4byte	0
 3613              		.section	.debug_aranges,"",%progbits
 3614 0000 24000000 		.4byte	0x24
 3615 0004 0200     		.2byte	0x2
 3616 0006 00000000 		.4byte	.Ldebug_info0
 3617 000a 04       		.byte	0x4
 3618 000b 00       		.byte	0
 3619 000c 0000     		.2byte	0
 3620 000e 0000     		.2byte	0
 3621 0010 00000000 		.4byte	.LFB253
 3622 0014 2A000000 		.4byte	.LFE253-.LFB253
 3623 0018 00000000 		.4byte	.LFB254
 3624 001c 48000000 		.4byte	.LFE254-.LFB254
 3625 0020 00000000 		.4byte	0
 3626 0024 00000000 		.4byte	0
 3627              		.section	.debug_ranges,"",%progbits
 3628              	.Ldebug_ranges0:
 3629 0000 12000000 		.4byte	.LBB52
 3630 0004 14000000 		.4byte	.LBE52
 3631 0008 16000000 		.4byte	.LBB63
 3632 000c 1A000000 		.4byte	.LBE63
 3633 0010 00000000 		.4byte	0
 3634 0014 00000000 		.4byte	0
 3635 0018 00000000 		.4byte	.LFB253
 3636 001c 2A000000 		.4byte	.LFE253
 3637 0020 00000000 		.4byte	.LFB254
 3638 0024 48000000 		.4byte	.LFE254
 3639 0028 00000000 		.4byte	0
 3640 002c 00000000 		.4byte	0
 3641              		.section	.debug_line,"",%progbits
 3642              	.Ldebug_line0:
 3643 0000 E9040000 		.section	.debug_str,"MS",%progbits,1
 3643      02007104 
 3643      00000201 
 3643      FB0E0D00 
 3643      01010101 
 3644              	.LASF157:
ARM GAS  C:\Users\14122\AppData\Local\Temp\ccMqnaqC.s 			page 65


 3645 0000 6F66665F 		.ascii	"off_ctx\000"
 3645      63747800 
 3646              	.LASF208:
 3647 0008 73746D33 		.ascii	"stm32_dma_stream_t\000"
 3647      325F646D 
 3647      615F7374 
 3647      7265616D 
 3647      5F7400
 3648              	.LASF4:
 3649 001b 73697A65 		.ascii	"size_t\000"
 3649      5F7400
 3650              	.LASF156:
 3651 0022 6F66665F 		.ascii	"off_prio\000"
 3651      7072696F 
 3651      00
 3652              	.LASF180:
 3653 002b 656E646D 		.ascii	"endmem\000"
 3653      656D00
 3654              	.LASF141:
 3655 0032 77747365 		.ascii	"wtsemp\000"
 3655      6D7000
 3656              	.LASF73:
 3657 0039 73797374 		.ascii	"systime_t\000"
 3657      696D655F 
 3657      7400
 3658              	.LASF165:
 3659 0043 6F66665F 		.ascii	"off_preempt\000"
 3659      70726565 
 3659      6D707400 
 3660              	.LASF146:
 3661 004f 6F776E65 		.ascii	"owner\000"
 3661      7200
 3662              	.LASF24:
 3663 0055 74707269 		.ascii	"tprio_t\000"
 3663      6F5F7400 
 3664              	.LASF168:
 3665 005d 63685F64 		.ascii	"ch_debug\000"
 3665      65627567 
 3665      00
 3666              	.LASF186:
 3667 0066 70726F76 		.ascii	"provider\000"
 3667      69646572 
 3667      00
 3668              	.LASF18:
 3669 006f 696E7433 		.ascii	"int32_t\000"
 3669      325F7400 
 3670              	.LASF57:
 3671 0077 76746675 		.ascii	"vtfunc_t\000"
 3671      6E635F74 
 3671      00
 3672              	.LASF238:
 3673 0080 736C6565 		.ascii	"sleep_event\000"
 3673      705F6576 
 3673      656E7400 
 3674              	.LASF63:
 3675 008c 63685F76 		.ascii	"ch_virtual_timers_list\000"
 3675      69727475 
ARM GAS  C:\Users\14122\AppData\Local\Temp\ccMqnaqC.s 			page 66


 3675      616C5F74 
 3675      696D6572 
 3675      735F6C69 
 3676              	.LASF243:
 3677 00a3 55415254 		.ascii	"UART_STOP\000"
 3677      5F53544F 
 3677      5000
 3678              	.LASF188:
 3679 00ad 63685F64 		.ascii	"ch_dyn_element\000"
 3679      796E5F65 
 3679      6C656D65 
 3679      6E7400
 3680              	.LASF239:
 3681 00bc 77616B65 		.ascii	"wakeup_event\000"
 3681      75705F65 
 3681      76656E74 
 3681      00
 3682              	.LASF232:
 3683 00c9 636F6E66 		.ascii	"config\000"
 3683      696700
 3684              	.LASF37:
 3685 00d0 73746174 		.ascii	"state\000"
 3685      6500
 3686              	.LASF221:
 3687 00d6 50454461 		.ascii	"PEData\000"
 3687      746100
 3688              	.LASF257:
 3689 00dd 72787374 		.ascii	"rxstate\000"
 3689      61746500 
 3690              	.LASF106:
 3691 00e5 434E4454 		.ascii	"CNDTR\000"
 3691      5200
 3692              	.LASF292:
 3693 00eb 62617365 		.ascii	"basePri\000"
 3693      50726900 
 3694              	.LASF193:
 3695 00f3 6F626A5F 		.ascii	"obj_list\000"
 3695      6C697374 
 3695      00
 3696              	.LASF132:
 3697 00fc 444D4152 		.ascii	"DMAR\000"
 3697      00
 3698              	.LASF278:
 3699 0101 6F73616C 		.ascii	"osalSysLockFromISR\000"
 3699      5379734C 
 3699      6F636B46 
 3699      726F6D49 
 3699      535200
 3700              	.LASF268:
 3701 0114 7278656E 		.ascii	"rxend_cb\000"
 3701      645F6362 
 3701      00
 3702              	.LASF159:
 3703 011d 6F66665F 		.ascii	"off_older\000"
 3703      6F6C6465 
 3703      7200
 3704              	.LASF32:
ARM GAS  C:\Users\14122\AppData\Local\Temp\ccMqnaqC.s 			page 67


 3705 0127 7072696F 		.ascii	"prio\000"
 3705      00
 3706              	.LASF216:
 3707 012c 73746D33 		.ascii	"stm32_gpio_setup_t\000"
 3707      325F6770 
 3707      696F5F73 
 3707      65747570 
 3707      5F7400
 3708              	.LASF137:
 3709 013f 65786974 		.ascii	"exitcode\000"
 3709      636F6465 
 3709      00
 3710              	.LASF5:
 3711 0148 5F5F7569 		.ascii	"__uint8_t\000"
 3711      6E74385F 
 3711      7400
 3712              	.LASF231:
 3713 0152 43414E44 		.ascii	"CANDriver\000"
 3713      72697665 
 3713      7200
 3714              	.LASF247:
 3715 015c 55415254 		.ascii	"UART_TX_ACTIVE\000"
 3715      5F54585F 
 3715      41435449 
 3715      564500
 3716              	.LASF255:
 3717 016b 55415254 		.ascii	"UARTDriver\000"
 3717      44726976 
 3717      657200
 3718              	.LASF11:
 3719 0176 6C6F6E67 		.ascii	"long int\000"
 3719      20696E74 
 3719      00
 3720              	.LASF283:
 3721 017f 706F7274 		.ascii	"port_unlock\000"
 3721      5F756E6C 
 3721      6F636B00 
 3722              	.LASF150:
 3723 018b 7A65726F 		.ascii	"zero\000"
 3723      00
 3724              	.LASF280:
 3725 0190 63685379 		.ascii	"chSysLockFromISR\000"
 3725      734C6F63 
 3725      6B46726F 
 3725      6D495352 
 3725      00
 3726              	.LASF100:
 3727 01a1 46413152 		.ascii	"FA1R\000"
 3727      00
 3728              	.LASF22:
 3729 01a6 74737461 		.ascii	"tstate_t\000"
 3729      74655F74 
 3729      00
 3730              	.LASF42:
 3731 01af 6570656E 		.ascii	"epending\000"
 3731      64696E67 
 3731      00
ARM GAS  C:\Users\14122\AppData\Local\Temp\ccMqnaqC.s 			page 68


 3732              	.LASF51:
 3733 01b8 74687265 		.ascii	"threads_queue_t\000"
 3733      6164735F 
 3733      71756575 
 3733      655F7400 
 3734              	.LASF122:
 3735 01c8 72656761 		.ascii	"regarm_t\000"
 3735      726D5F74 
 3735      00
 3736              	.LASF256:
 3737 01d1 74787374 		.ascii	"txstate\000"
 3737      61746500 
 3738              	.LASF116:
 3739 01d9 41504232 		.ascii	"APB2ENR\000"
 3739      454E5200 
 3740              	.LASF194:
 3741 01e1 6F626A5F 		.ascii	"obj_pool\000"
 3741      706F6F6C 
 3741      00
 3742              	.LASF289:
 3743 01ea 2E2F2F6F 		.ascii	".//os/hal/ports/STM32/LLD/TIMv1/hal_st_lld.c\000"
 3743      732F6861 
 3743      6C2F706F 
 3743      7274732F 
 3743      53544D33 
 3744              	.LASF249:
 3745 0217 75617274 		.ascii	"uarttxstate_t\000"
 3745      74787374 
 3745      6174655F 
 3745      7400
 3746              	.LASF107:
 3747 0225 43504152 		.ascii	"CPAR\000"
 3747      00
 3748              	.LASF258:
 3749 022a 75736172 		.ascii	"usart\000"
 3749      7400
 3750              	.LASF223:
 3751 0230 70616C5F 		.ascii	"pal_default_config\000"
 3751      64656661 
 3751      756C745F 
 3751      636F6E66 
 3751      696700
 3752              	.LASF88:
 3753 0243 52463052 		.ascii	"RF0R\000"
 3753      00
 3754              	.LASF181:
 3755 0248 6D656D63 		.ascii	"memcore_t\000"
 3755      6F72655F 
 3755      7400
 3756              	.LASF3:
 3757 0252 7369676E 		.ascii	"signed char\000"
 3757      65642063 
 3757      68617200 
 3758              	.LASF143:
 3759 025e 65776D61 		.ascii	"ewmask\000"
 3759      736B00
 3760              	.LASF16:
ARM GAS  C:\Users\14122\AppData\Local\Temp\ccMqnaqC.s 			page 69


 3761 0265 75696E74 		.ascii	"uint8_t\000"
 3761      385F7400 
 3762              	.LASF26:
 3763 026d 6576656E 		.ascii	"eventmask_t\000"
 3763      746D6173 
 3763      6B5F7400 
 3764              	.LASF87:
 3765 0279 43414E5F 		.ascii	"CAN_FilterRegister_TypeDef\000"
 3765      46696C74 
 3765      65725265 
 3765      67697374 
 3765      65725F54 
 3766              	.LASF92:
 3767 0294 73464946 		.ascii	"sFIFOMailBox\000"
 3767      4F4D6169 
 3767      6C426F78 
 3767      00
 3768              	.LASF235:
 3769 02a1 72786675 		.ascii	"rxfull_event\000"
 3769      6C6C5F65 
 3769      76656E74 
 3769      00
 3770              	.LASF139:
 3771 02ae 77747472 		.ascii	"wttrp\000"
 3771      7000
 3772              	.LASF279:
 3773 02b4 63685379 		.ascii	"chSysUnlockFromISR\000"
 3773      73556E6C 
 3773      6F636B46 
 3773      726F6D49 
 3773      535200
 3774              	.LASF90:
 3775 02c7 52455345 		.ascii	"RESERVED0\000"
 3775      52564544 
 3775      3000
 3776              	.LASF93:
 3777 02d1 52455345 		.ascii	"RESERVED1\000"
 3777      52564544 
 3777      3100
 3778              	.LASF6:
 3779 02db 756E7369 		.ascii	"unsigned char\000"
 3779      676E6564 
 3779      20636861 
 3779      7200
 3780              	.LASF97:
 3781 02e9 52455345 		.ascii	"RESERVED3\000"
 3781      52564544 
 3781      3300
 3782              	.LASF99:
 3783 02f3 52455345 		.ascii	"RESERVED4\000"
 3783      52564544 
 3783      3400
 3784              	.LASF101:
 3785 02fd 52455345 		.ascii	"RESERVED5\000"
 3785      52564544 
 3785      3500
 3786              	.LASF64:
ARM GAS  C:\Users\14122\AppData\Local\Temp\ccMqnaqC.s 			page 70


 3787 0307 6C617374 		.ascii	"lasttime\000"
 3787      74696D65 
 3787      00
 3788              	.LASF220:
 3789 0310 50444461 		.ascii	"PDData\000"
 3789      746100
 3790              	.LASF111:
 3791 0317 444D415F 		.ascii	"DMA_TypeDef\000"
 3791      54797065 
 3791      44656600 
 3792              	.LASF89:
 3793 0323 52463152 		.ascii	"RF1R\000"
 3793      00
 3794              	.LASF67:
 3795 0328 70616E69 		.ascii	"panic_msg\000"
 3795      635F6D73 
 3795      6700
 3796              	.LASF65:
 3797 0332 73797374 		.ascii	"system_debug_t\000"
 3797      656D5F64 
 3797      65627567 
 3797      5F7400
 3798              	.LASF177:
 3799 0341 5F426F6F 		.ascii	"_Bool\000"
 3799      6C00
 3800              	.LASF178:
 3801 0347 6D656D67 		.ascii	"memgetfunc_t\000"
 3801      65746675 
 3801      6E635F74 
 3801      00
 3802              	.LASF95:
 3803 0354 52455345 		.ascii	"RESERVED2\000"
 3803      52564544 
 3803      3200
 3804              	.LASF128:
 3805 035e 43434D52 		.ascii	"CCMR1\000"
 3805      3100
 3806              	.LASF129:
 3807 0364 43434D52 		.ascii	"CCMR2\000"
 3807      3200
 3808              	.LASF133:
 3809 036a 43434D52 		.ascii	"CCMR3\000"
 3809      3300
 3810              	.LASF274:
 3811 0370 73745F6C 		.ascii	"st_lld_init\000"
 3811      6C645F69 
 3811      6E697400 
 3812              	.LASF147:
 3813 037c 63686172 		.ascii	"char\000"
 3813      00
 3814              	.LASF110:
 3815 0381 49464352 		.ascii	"IFCR\000"
 3815      00
 3816              	.LASF196:
 3817 0386 73656D5F 		.ascii	"sem_list\000"
 3817      6C697374 
 3817      00
ARM GAS  C:\Users\14122\AppData\Local\Temp\ccMqnaqC.s 			page 71


 3818              	.LASF8:
 3819 038f 5F5F7569 		.ascii	"__uint16_t\000"
 3819      6E743136 
 3819      5F7400
 3820              	.LASF138:
 3821 039a 77746F62 		.ascii	"wtobjp\000"
 3821      6A7000
 3822              	.LASF215:
 3823 03a1 70616C65 		.ascii	"palevent_t\000"
 3823      76656E74 
 3823      5F7400
 3824              	.LASF164:
 3825 03ac 6F66665F 		.ascii	"off_refs\000"
 3825      72656673 
 3825      00
 3826              	.LASF38:
 3827 03b5 666C6167 		.ascii	"flags\000"
 3827      7300
 3828              	.LASF123:
 3829 03bb 73746B61 		.ascii	"stkalign_t\000"
 3829      6C69676E 
 3829      5F7400
 3830              	.LASF121:
 3831 03c6 55534152 		.ascii	"USART_TypeDef\000"
 3831      545F5479 
 3831      70654465 
 3831      6600
 3832              	.LASF45:
 3833 03d4 6D706F6F 		.ascii	"mpool\000"
 3833      6C00
 3834              	.LASF170:
 3835 03da 6576656E 		.ascii	"event_listener_t\000"
 3835      745F6C69 
 3835      7374656E 
 3835      65725F74 
 3835      00
 3836              	.LASF153:
 3837 03eb 70747273 		.ascii	"ptrsize\000"
 3837      697A6500 
 3838              	.LASF134:
 3839 03f3 43435852 		.ascii	"CCXR\000"
 3839      00
 3840              	.LASF230:
 3841 03f8 63616E73 		.ascii	"canstate_t\000"
 3841      74617465 
 3841      5F7400
 3842              	.LASF228:
 3843 0403 43414E5F 		.ascii	"CAN_READY\000"
 3843      52454144 
 3843      5900
 3844              	.LASF118:
 3845 040d 42444352 		.ascii	"BDCR\000"
 3845      00
 3846              	.LASF166:
 3847 0412 6F66665F 		.ascii	"off_time\000"
 3847      74696D65 
 3847      00
ARM GAS  C:\Users\14122\AppData\Local\Temp\ccMqnaqC.s 			page 72


 3848              	.LASF210:
 3849 041b 646D615F 		.ascii	"dma_func\000"
 3849      66756E63 
 3849      00
 3850              	.LASF28:
 3851 0424 636E745F 		.ascii	"cnt_t\000"
 3851      7400
 3852              	.LASF269:
 3853 042a 72786368 		.ascii	"rxchar_cb\000"
 3853      61725F63 
 3853      6200
 3854              	.LASF189:
 3855 0434 64796E5F 		.ascii	"dyn_element_t\000"
 3855      656C656D 
 3855      656E745F 
 3855      7400
 3856              	.LASF105:
 3857 0442 4442474D 		.ascii	"DBGMCU_TypeDef\000"
 3857      43555F54 
 3857      79706544 
 3857      656600
 3858              	.LASF271:
 3859 0451 73706565 		.ascii	"speed\000"
 3859      6400
 3860              	.LASF142:
 3861 0457 77746D74 		.ascii	"wtmtxp\000"
 3861      787000
 3862              	.LASF55:
 3863 045e 63685F72 		.ascii	"ch_ready_list\000"
 3863      65616479 
 3863      5F6C6973 
 3863      7400
 3864              	.LASF197:
 3865 046c 73656D5F 		.ascii	"sem_pool\000"
 3865      706F6F6C 
 3865      00
 3866              	.LASF112:
 3867 0475 43464752 		.ascii	"CFGR\000"
 3867      00
 3868              	.LASF219:
 3869 047a 50434461 		.ascii	"PCData\000"
 3869      746100
 3870              	.LASF240:
 3871 0481 43414E43 		.ascii	"CANConfig\000"
 3871      6F6E6669 
 3871      6700
 3872              	.LASF277:
 3873 048b 6F73616C 		.ascii	"osalSysUnlockFromISR\000"
 3873      53797355 
 3873      6E6C6F63 
 3873      6B46726F 
 3873      6D495352 
 3874              	.LASF179:
 3875 04a0 6E657874 		.ascii	"nextmem\000"
 3875      6D656D00 
 3876              	.LASF14:
 3877 04a8 5F5F7569 		.ascii	"__uint64_t\000"
ARM GAS  C:\Users\14122\AppData\Local\Temp\ccMqnaqC.s 			page 73


 3877      6E743634 
 3877      5F7400
 3878              	.LASF162:
 3879 04b3 6F66665F 		.ascii	"off_state\000"
 3879      73746174 
 3879      6500
 3880              	.LASF13:
 3881 04bd 6C6F6E67 		.ascii	"long unsigned int\000"
 3881      20756E73 
 3881      69676E65 
 3881      6420696E 
 3881      7400
 3882              	.LASF155:
 3883 04cf 74687265 		.ascii	"threadsize\000"
 3883      61647369 
 3883      7A6500
 3884              	.LASF272:
 3885 04da 55415254 		.ascii	"UARTConfig\000"
 3885      436F6E66 
 3885      696700
 3886              	.LASF127:
 3887 04e5 44494552 		.ascii	"DIER\000"
 3887      00
 3888              	.LASF76:
 3889 04ea 53797374 		.ascii	"SystemCoreClock\000"
 3889      656D436F 
 3889      7265436C 
 3889      6F636B00 
 3890              	.LASF144:
 3891 04fa 63685F73 		.ascii	"ch_semaphore\000"
 3891      656D6170 
 3891      686F7265 
 3891      00
 3892              	.LASF205:
 3893 0507 73686966 		.ascii	"shift\000"
 3893      7400
 3894              	.LASF202:
 3895 050d 6368616E 		.ascii	"channel\000"
 3895      6E656C00 
 3896              	.LASF48:
 3897 0515 63685F74 		.ascii	"ch_thread\000"
 3897      68726561 
 3897      6400
 3898              	.LASF62:
 3899 051f 76697274 		.ascii	"virtual_timers_list_t\000"
 3899      75616C5F 
 3899      74696D65 
 3899      72735F6C 
 3899      6973745F 
 3900              	.LASF148:
 3901 0535 63685F69 		.ascii	"ch_idle_thread_wa\000"
 3901      646C655F 
 3901      74687265 
 3901      61645F77 
 3901      6100
 3902              	.LASF213:
 3903 0547 5F73746D 		.ascii	"_stm32_dma_streams\000"
ARM GAS  C:\Users\14122\AppData\Local\Temp\ccMqnaqC.s 			page 74


 3903      33325F64 
 3903      6D615F73 
 3903      74726561 
 3903      6D7300
 3904              	.LASF267:
 3905 055a 7478656E 		.ascii	"txend2_cb\000"
 3905      64325F63 
 3905      6200
 3906              	.LASF199:
 3907 0564 6669666F 		.ascii	"fifo_list\000"
 3907      5F6C6973 
 3907      7400
 3908              	.LASF58:
 3909 056e 76697274 		.ascii	"virtual_timer_t\000"
 3909      75616C5F 
 3909      74696D65 
 3909      725F7400 
 3910              	.LASF54:
 3911 057e 72656164 		.ascii	"ready_list_t\000"
 3911      795F6C69 
 3911      73745F74 
 3911      00
 3912              	.LASF34:
 3913 058b 6F6C6465 		.ascii	"older\000"
 3913      7200
 3914              	.LASF265:
 3915 0591 75617274 		.ascii	"uartecb_t\000"
 3915      6563625F 
 3915      7400
 3916              	.LASF44:
 3917 059b 7265616C 		.ascii	"realprio\000"
 3917      7072696F 
 3917      00
 3918              	.LASF135:
 3919 05a4 73746D33 		.ascii	"stm32_tim_t\000"
 3919      325F7469 
 3919      6D5F7400 
 3920              	.LASF29:
 3921 05b0 75636E74 		.ascii	"ucnt_t\000"
 3921      5F7400
 3922              	.LASF161:
 3923 05b7 6F66665F 		.ascii	"off_stklimit\000"
 3923      73746B6C 
 3923      696D6974 
 3923      00
 3924              	.LASF183:
 3925 05c4 706F6F6C 		.ascii	"pool_header\000"
 3925      5F686561 
 3925      64657200 
 3926              	.LASF242:
 3927 05d0 55415254 		.ascii	"UART_UNINIT\000"
 3927      5F554E49 
 3927      4E495400 
 3928              	.LASF49:
 3929 05dc 63685F74 		.ascii	"ch_threads_list\000"
 3929      68726561 
 3929      64735F6C 
ARM GAS  C:\Users\14122\AppData\Local\Temp\ccMqnaqC.s 			page 75


 3929      69737400 
 3930              	.LASF252:
 3931 05ec 55415254 		.ascii	"UART_RX_COMPLETE\000"
 3931      5F52585F 
 3931      434F4D50 
 3931      4C455445 
 3931      00
 3932              	.LASF262:
 3933 05fd 72786275 		.ascii	"rxbuf\000"
 3933      6600
 3934              	.LASF260:
 3935 0603 646D6172 		.ascii	"dmarx\000"
 3935      7800
 3936              	.LASF12:
 3937 0609 5F5F7569 		.ascii	"__uint32_t\000"
 3937      6E743332 
 3937      5F7400
 3938              	.LASF43:
 3939 0614 6D74786C 		.ascii	"mtxlist\000"
 3939      69737400 
 3940              	.LASF1:
 3941 061c 6C6F6E67 		.ascii	"long long int\000"
 3941      206C6F6E 
 3941      6720696E 
 3941      7400
 3942              	.LASF227:
 3943 062a 43414E5F 		.ascii	"CAN_STARTING\000"
 3943      53544152 
 3943      54494E47 
 3943      00
 3944              	.LASF74:
 3945 0637 73797369 		.ascii	"sysinterval_t\000"
 3945      6E746572 
 3945      76616C5F 
 3945      7400
 3946              	.LASF282:
 3947 0645 706F7274 		.ascii	"port_lock_from_isr\000"
 3947      5F6C6F63 
 3947      6B5F6672 
 3947      6F6D5F69 
 3947      737200
 3948              	.LASF192:
 3949 0658 63685F6F 		.ascii	"ch_objects_factory\000"
 3949      626A6563 
 3949      74735F66 
 3949      6163746F 
 3949      727900
 3950              	.LASF120:
 3951 066b 47545052 		.ascii	"GTPR\000"
 3951      00
 3952              	.LASF113:
 3953 0670 41504232 		.ascii	"APB2RSTR\000"
 3953      52535452 
 3953      00
 3954              	.LASF176:
 3955 0679 6576656E 		.ascii	"event_source_t\000"
 3955      745F736F 
ARM GAS  C:\Users\14122\AppData\Local\Temp\ccMqnaqC.s 			page 76


 3955      75726365 
 3955      5F7400
 3956              	.LASF185:
 3957 0688 616C6967 		.ascii	"align\000"
 3957      6E00
 3958              	.LASF75:
 3959 068e 49544D5F 		.ascii	"ITM_RxBuffer\000"
 3959      52784275 
 3959      66666572 
 3959      00
 3960              	.LASF218:
 3961 069b 50424461 		.ascii	"PBData\000"
 3961      746100
 3962              	.LASF259:
 3963 06a2 646D616D 		.ascii	"dmamode\000"
 3963      6F646500 
 3964              	.LASF225:
 3965 06aa 43414E5F 		.ascii	"CAN_UNINIT\000"
 3965      554E494E 
 3965      495400
 3966              	.LASF104:
 3967 06b5 4944434F 		.ascii	"IDCODE\000"
 3967      444500
 3968              	.LASF254:
 3969 06bc 75617274 		.ascii	"uartflags_t\000"
 3969      666C6167 
 3969      735F7400 
 3970              	.LASF261:
 3971 06c8 646D6174 		.ascii	"dmatx\000"
 3971      7800
 3972              	.LASF229:
 3973 06ce 43414E5F 		.ascii	"CAN_SLEEP\000"
 3973      534C4545 
 3973      5000
 3974              	.LASF158:
 3975 06d8 6F66665F 		.ascii	"off_newer\000"
 3975      6E657765 
 3975      7200
 3976              	.LASF206:
 3977 06e2 73656C66 		.ascii	"selfindex\000"
 3977      696E6465 
 3977      7800
 3978              	.LASF270:
 3979 06ec 72786572 		.ascii	"rxerr_cb\000"
 3979      725F6362 
 3979      00
 3980              	.LASF0:
 3981 06f5 756E7369 		.ascii	"unsigned int\000"
 3981      676E6564 
 3981      20696E74 
 3981      00
 3982              	.LASF244:
 3983 0702 55415254 		.ascii	"UART_READY\000"
 3983      5F524541 
 3983      445900
 3984              	.LASF286:
 3985 070d 63685379 		.ascii	"chSysTimerHandlerI\000"
ARM GAS  C:\Users\14122\AppData\Local\Temp\ccMqnaqC.s 			page 77


 3985      7354696D 
 3985      65724861 
 3985      6E646C65 
 3985      724900
 3986              	.LASF209:
 3987 0720 73746D33 		.ascii	"stm32_dmaisr_t\000"
 3987      325F646D 
 3987      61697372 
 3987      5F7400
 3988              	.LASF94:
 3989 072f 464D3152 		.ascii	"FM1R\000"
 3989      00
 3990              	.LASF276:
 3991 0734 6F73616C 		.ascii	"osalOsTimerHandlerI\000"
 3991      4F735469 
 3991      6D657248 
 3991      616E646C 
 3991      65724900 
 3992              	.LASF85:
 3993 0748 52444852 		.ascii	"RDHR\000"
 3993      00
 3994              	.LASF108:
 3995 074d 434D4152 		.ascii	"CMAR\000"
 3995      00
 3996              	.LASF287:
 3997 0752 5F706F72 		.ascii	"_port_irq_epilogue\000"
 3997      745F6972 
 3997      715F6570 
 3997      696C6F67 
 3997      756500
 3998              	.LASF81:
 3999 0765 54444852 		.ascii	"TDHR\000"
 3999      00
 4000              	.LASF56:
 4001 076a 63757272 		.ascii	"current\000"
 4001      656E7400 
 4002              	.LASF237:
 4003 0772 6572726F 		.ascii	"error_event\000"
 4003      725F6576 
 4003      656E7400 
 4004              	.LASF103:
 4005 077e 43414E5F 		.ascii	"CAN_TypeDef\000"
 4005      54797065 
 4005      44656600 
 4006              	.LASF212:
 4007 078a 646D615F 		.ascii	"dma_isr_redir_t\000"
 4007      6973725F 
 4007      72656469 
 4007      725F7400 
 4008              	.LASF288:
 4009 079a 474E5520 		.ascii	"GNU C11 7.2.1 20170904 (release) [ARM/embedded-7-br"
 4009      43313120 
 4009      372E322E 
 4009      31203230 
 4009      31373039 
 4010 07cd 616E6368 		.ascii	"anch revision 255204] -mcpu=cortex-m3 -mthumb -ggdb"
 4010      20726576 
ARM GAS  C:\Users\14122\AppData\Local\Temp\ccMqnaqC.s 			page 78


 4010      6973696F 
 4010      6E203235 
 4010      35323034 
 4011 0800 202D4F32 		.ascii	" -O2 -fomit-frame-pointer -falign-functions=16 -ffu"
 4011      202D666F 
 4011      6D69742D 
 4011      6672616D 
 4011      652D706F 
 4012 0833 6E637469 		.ascii	"nction-sections -fdata-sections -fno-common\000"
 4012      6F6E2D73 
 4012      65637469 
 4012      6F6E7320 
 4012      2D666461 
 4013              	.LASF102:
 4014 085f 7346696C 		.ascii	"sFilterRegister\000"
 4014      74657252 
 4014      65676973 
 4014      74657200 
 4015              	.LASF224:
 4016 086f 5F70616C 		.ascii	"_pal_events\000"
 4016      5F657665 
 4016      6E747300 
 4017              	.LASF30:
 4018 087b 74687265 		.ascii	"thread_t\000"
 4018      61645F74 
 4018      00
 4019              	.LASF2:
 4020 0884 6C6F6E67 		.ascii	"long double\000"
 4020      20646F75 
 4020      626C6500 
 4021              	.LASF174:
 4022 0890 77666C61 		.ascii	"wflags\000"
 4022      677300
 4023              	.LASF46:
 4024 0897 74687265 		.ascii	"thread_reference_t\000"
 4024      61645F72 
 4024      65666572 
 4024      656E6365 
 4024      5F7400
 4025              	.LASF140:
 4026 08aa 73656E74 		.ascii	"sentmsg\000"
 4026      6D736700 
 4027              	.LASF125:
 4028 08b2 706F7274 		.ascii	"port_intctx\000"
 4028      5F696E74 
 4028      63747800 
 4029              	.LASF200:
 4030 08be 6F626A65 		.ascii	"objects_factory_t\000"
 4030      6374735F 
 4030      66616374 
 4030      6F72795F 
 4030      7400
 4031              	.LASF195:
 4032 08d0 6275665F 		.ascii	"buf_list\000"
 4032      6C697374 
 4032      00
 4033              	.LASF281:
ARM GAS  C:\Users\14122\AppData\Local\Temp\ccMqnaqC.s 			page 79


 4034 08d9 706F7274 		.ascii	"port_unlock_from_isr\000"
 4034      5F756E6C 
 4034      6F636B5F 
 4034      66726F6D 
 4034      5F697372 
 4035              	.LASF203:
 4036 08ee 636D6173 		.ascii	"cmask\000"
 4036      6B00
 4037              	.LASF109:
 4038 08f4 444D415F 		.ascii	"DMA_Channel_TypeDef\000"
 4038      4368616E 
 4038      6E656C5F 
 4038      54797065 
 4038      44656600 
 4039              	.LASF77:
 4040 0908 41484250 		.ascii	"AHBPrescTable\000"
 4040      72657363 
 4040      5461626C 
 4040      6500
 4041              	.LASF59:
 4042 0916 63685F76 		.ascii	"ch_virtual_timer\000"
 4042      69727475 
 4042      616C5F74 
 4042      696D6572 
 4042      00
 4043              	.LASF117:
 4044 0927 41504231 		.ascii	"APB1ENR\000"
 4044      454E5200 
 4045              	.LASF151:
 4046 092f 73697A65 		.ascii	"size\000"
 4046      00
 4047              	.LASF15:
 4048 0934 6C6F6E67 		.ascii	"long long unsigned int\000"
 4048      206C6F6E 
 4048      6720756E 
 4048      7369676E 
 4048      65642069 
 4049              	.LASF217:
 4050 094b 50414461 		.ascii	"PAData\000"
 4050      746100
 4051              	.LASF17:
 4052 0952 75696E74 		.ascii	"uint16_t\000"
 4052      31365F74 
 4052      00
 4053              	.LASF251:
 4054 095b 55415254 		.ascii	"UART_RX_ACTIVE\000"
 4054      5F52585F 
 4054      41435449 
 4054      564500
 4055              	.LASF160:
 4056 096a 6F66665F 		.ascii	"off_name\000"
 4056      6E616D65 
 4056      00
 4057              	.LASF25:
 4058 0973 6D73675F 		.ascii	"msg_t\000"
 4058      7400
 4059              	.LASF52:
ARM GAS  C:\Users\14122\AppData\Local\Temp\ccMqnaqC.s 			page 80


 4060 0979 63685F74 		.ascii	"ch_threads_queue\000"
 4060      68726561 
 4060      64735F71 
 4060      75657565 
 4060      00
 4061              	.LASF27:
 4062 098a 6576656E 		.ascii	"eventflags_t\000"
 4062      74666C61 
 4062      67735F74 
 4062      00
 4063              	.LASF130:
 4064 0997 43434552 		.ascii	"CCER\000"
 4064      00
 4065              	.LASF60:
 4066 099c 64656C74 		.ascii	"delta\000"
 4066      6100
 4067              	.LASF84:
 4068 09a2 52444C52 		.ascii	"RDLR\000"
 4068      00
 4069              	.LASF86:
 4070 09a7 43414E5F 		.ascii	"CAN_FIFOMailBox_TypeDef\000"
 4070      4649464F 
 4070      4D61696C 
 4070      426F785F 
 4070      54797065 
 4071              	.LASF39:
 4072 09bf 72656673 		.ascii	"refs\000"
 4072      00
 4073              	.LASF31:
 4074 09c4 71756575 		.ascii	"queue\000"
 4074      6500
 4075              	.LASF80:
 4076 09ca 54444C52 		.ascii	"TDLR\000"
 4076      00
 4077              	.LASF207:
 4078 09cf 76656374 		.ascii	"vector\000"
 4078      6F7200
 4079              	.LASF201:
 4080 09d6 63685F66 		.ascii	"ch_factory\000"
 4080      6163746F 
 4080      727900
 4081              	.LASF234:
 4082 09e1 72787175 		.ascii	"rxqueue\000"
 4082      65756500 
 4083              	.LASF198:
 4084 09e9 6D62785F 		.ascii	"mbx_list\000"
 4084      6C697374 
 4084      00
 4085              	.LASF72:
 4086 09f2 6D61696E 		.ascii	"mainthread\000"
 4086      74687265 
 4086      616400
 4087              	.LASF126:
 4088 09fd 534D4352 		.ascii	"SMCR\000"
 4088      00
 4089              	.LASF152:
 4090 0a02 76657273 		.ascii	"version\000"
ARM GAS  C:\Users\14122\AppData\Local\Temp\ccMqnaqC.s 			page 81


 4090      696F6E00 
 4091              	.LASF291:
 4092 0a0a 5F5F7365 		.ascii	"__set_BASEPRI\000"
 4092      745F4241 
 4092      53455052 
 4092      4900
 4093              	.LASF248:
 4094 0a18 55415254 		.ascii	"UART_TX_COMPLETE\000"
 4094      5F54585F 
 4094      434F4D50 
 4094      4C455445 
 4094      00
 4095              	.LASF253:
 4096 0a29 75617274 		.ascii	"uartrxstate_t\000"
 4096      72787374 
 4096      6174655F 
 4096      7400
 4097              	.LASF36:
 4098 0a37 77616261 		.ascii	"wabase\000"
 4098      736500
 4099              	.LASF264:
 4100 0a3e 75617274 		.ascii	"uartccb_t\000"
 4100      6363625F 
 4100      7400
 4101              	.LASF187:
 4102 0a48 6D656D6F 		.ascii	"memory_pool_t\000"
 4102      72795F70 
 4102      6F6F6C5F 
 4102      7400
 4103              	.LASF70:
 4104 0a56 726C6973 		.ascii	"rlist\000"
 4104      7400
 4105              	.LASF21:
 4106 0a5c 746D6F64 		.ascii	"tmode_t\000"
 4106      655F7400 
 4107              	.LASF204:
 4108 0a64 64756D6D 		.ascii	"dummy\000"
 4108      7900
 4109              	.LASF266:
 4110 0a6a 7478656E 		.ascii	"txend1_cb\000"
 4110      64315F63 
 4110      6200
 4111              	.LASF250:
 4112 0a74 55415254 		.ascii	"UART_RX_IDLE\000"
 4112      5F52585F 
 4112      49444C45 
 4112      00
 4113              	.LASF96:
 4114 0a81 46533152 		.ascii	"FS1R\000"
 4114      00
 4115              	.LASF35:
 4116 0a86 6E616D65 		.ascii	"name\000"
 4116      00
 4117              	.LASF284:
 4118 0a8b 706F7274 		.ascii	"port_lock\000"
 4118      5F6C6F63 
 4118      6B00
ARM GAS  C:\Users\14122\AppData\Local\Temp\ccMqnaqC.s 			page 82


 4119              	.LASF172:
 4120 0a95 6C697374 		.ascii	"listener\000"
 4120      656E6572 
 4120      00
 4121              	.LASF78:
 4122 0a9e 41504250 		.ascii	"APBPrescTable\000"
 4122      72657363 
 4122      5461626C 
 4122      6500
 4123              	.LASF119:
 4124 0aac 5243435F 		.ascii	"RCC_TypeDef\000"
 4124      54797065 
 4124      44656600 
 4125              	.LASF82:
 4126 0ab8 43414E5F 		.ascii	"CAN_TxMailBox_TypeDef\000"
 4126      54784D61 
 4126      696C426F 
 4126      785F5479 
 4126      70654465 
 4127              	.LASF214:
 4128 0ace 5F73746D 		.ascii	"_stm32_dma_isr_redir\000"
 4128      33325F64 
 4128      6D615F69 
 4128      73725F72 
 4128      65646972 
 4129              	.LASF7:
 4130 0ae3 73686F72 		.ascii	"short int\000"
 4130      7420696E 
 4130      7400
 4131              	.LASF175:
 4132 0aed 6576656E 		.ascii	"event_source\000"
 4132      745F736F 
 4132      75726365 
 4132      00
 4133              	.LASF20:
 4134 0afa 75696E74 		.ascii	"uint64_t\000"
 4134      36345F74 
 4134      00
 4135              	.LASF61:
 4136 0b03 66756E63 		.ascii	"func\000"
 4136      00
 4137              	.LASF145:
 4138 0b08 63685F6D 		.ascii	"ch_mutex\000"
 4138      75746578 
 4138      00
 4139              	.LASF98:
 4140 0b11 46464131 		.ascii	"FFA1R\000"
 4140      5200
 4141              	.LASF41:
 4142 0b17 6D736771 		.ascii	"msgqueue\000"
 4142      75657565 
 4142      00
 4143              	.LASF233:
 4144 0b20 74787175 		.ascii	"txqueue\000"
 4144      65756500 
 4145              	.LASF245:
 4146 0b28 75617274 		.ascii	"uartstate_t\000"
ARM GAS  C:\Users\14122\AppData\Local\Temp\ccMqnaqC.s 			page 83


 4146      73746174 
 4146      655F7400 
 4147              	.LASF275:
 4148 0b34 56656374 		.ascii	"VectorB0\000"
 4148      6F724230 
 4148      00
 4149              	.LASF66:
 4150 0b3d 63685F73 		.ascii	"ch_system_debug\000"
 4150      79737465 
 4150      6D5F6465 
 4150      62756700 
 4151              	.LASF191:
 4152 0b4d 64796E5F 		.ascii	"dyn_list_t\000"
 4152      6C697374 
 4152      5F7400
 4153              	.LASF115:
 4154 0b58 41484245 		.ascii	"AHBENR\000"
 4154      4E5200
 4155              	.LASF222:
 4156 0b5f 50414C43 		.ascii	"PALConfig\000"
 4156      6F6E6669 
 4156      6700
 4157              	.LASF211:
 4158 0b69 646D615F 		.ascii	"dma_param\000"
 4158      70617261 
 4158      6D00
 4159              	.LASF184:
 4160 0b73 6F626A65 		.ascii	"object_size\000"
 4160      63745F73 
 4160      697A6500 
 4161              	.LASF71:
 4162 0b7f 76746C69 		.ascii	"vtlist\000"
 4162      737400
 4163              	.LASF40:
 4164 0b86 77616974 		.ascii	"waiting\000"
 4164      696E6700 
 4165              	.LASF169:
 4166 0b8e 6D757465 		.ascii	"mutex_t\000"
 4166      785F7400 
 4167              	.LASF23:
 4168 0b96 74726566 		.ascii	"trefs_t\000"
 4168      735F7400 
 4169              	.LASF124:
 4170 0b9e 706F7274 		.ascii	"port_context\000"
 4170      5F636F6E 
 4170      74657874 
 4170      00
 4171              	.LASF47:
 4172 0bab 74687265 		.ascii	"threads_list_t\000"
 4172      6164735F 
 4172      6C697374 
 4172      5F7400
 4173              	.LASF246:
 4174 0bba 55415254 		.ascii	"UART_TX_IDLE\000"
 4174      5F54585F 
 4174      49444C45 
 4174      00
ARM GAS  C:\Users\14122\AppData\Local\Temp\ccMqnaqC.s 			page 84


 4175              	.LASF263:
 4176 0bc7 75617274 		.ascii	"uartcb_t\000"
 4176      63625F74 
 4176      00
 4177              	.LASF69:
 4178 0bd0 63685F73 		.ascii	"ch_system\000"
 4178      79737465 
 4178      6D00
 4179              	.LASF33:
 4180 0bda 6E657765 		.ascii	"newer\000"
 4180      7200
 4181              	.LASF131:
 4182 0be0 42445452 		.ascii	"BDTR\000"
 4182      00
 4183              	.LASF285:
 4184 0be5 6E766963 		.ascii	"nvicEnableVector\000"
 4184      456E6162 
 4184      6C655665 
 4184      63746F72 
 4184      00
 4185              	.LASF19:
 4186 0bf6 75696E74 		.ascii	"uint32_t\000"
 4186      33325F74 
 4186      00
 4187              	.LASF171:
 4188 0bff 6576656E 		.ascii	"event_listener\000"
 4188      745F6C69 
 4188      7374656E 
 4188      657200
 4189              	.LASF136:
 4190 0c0e 7264796D 		.ascii	"rdymsg\000"
 4190      736700
 4191              	.LASF9:
 4192 0c15 73686F72 		.ascii	"short unsigned int\000"
 4192      7420756E 
 4192      7369676E 
 4192      65642069 
 4192      6E7400
 4193              	.LASF68:
 4194 0c28 63685F73 		.ascii	"ch_system_t\000"
 4194      79737465 
 4194      6D5F7400 
 4195              	.LASF167:
 4196 0c34 63686465 		.ascii	"chdebug_t\000"
 4196      6275675F 
 4196      7400
 4197              	.LASF91:
 4198 0c3e 7354784D 		.ascii	"sTxMailBox\000"
 4198      61696C42 
 4198      6F7800
 4199              	.LASF154:
 4200 0c49 74696D65 		.ascii	"timesize\000"
 4200      73697A65 
 4200      00
 4201              	.LASF273:
 4202 0c52 55415254 		.ascii	"UARTD2\000"
 4202      443200
ARM GAS  C:\Users\14122\AppData\Local\Temp\ccMqnaqC.s 			page 85


 4203              	.LASF10:
 4204 0c59 5F5F696E 		.ascii	"__int32_t\000"
 4204      7433325F 
 4204      7400
 4205              	.LASF182:
 4206 0c63 63685F6D 		.ascii	"ch_memcore\000"
 4206      656D636F 
 4206      726500
 4207              	.LASF163:
 4208 0c6e 6F66665F 		.ascii	"off_flags\000"
 4208      666C6167 
 4208      7300
 4209              	.LASF226:
 4210 0c78 43414E5F 		.ascii	"CAN_STOP\000"
 4210      53544F50 
 4210      00
 4211              	.LASF173:
 4212 0c81 6576656E 		.ascii	"events\000"
 4212      747300
 4213              	.LASF50:
 4214 0c88 6E657874 		.ascii	"next\000"
 4214      00
 4215              	.LASF83:
 4216 0c8d 52445452 		.ascii	"RDTR\000"
 4216      00
 4217              	.LASF114:
 4218 0c92 41504231 		.ascii	"APB1RSTR\000"
 4218      52535452 
 4218      00
 4219              	.LASF53:
 4220 0c9b 70726576 		.ascii	"prev\000"
 4220      00
 4221              	.LASF190:
 4222 0ca0 63685F64 		.ascii	"ch_dyn_list\000"
 4222      796E5F6C 
 4222      69737400 
 4223              	.LASF149:
 4224 0cac 6964656E 		.ascii	"identifier\000"
 4224      74696669 
 4224      657200
 4225              	.LASF79:
 4226 0cb7 54445452 		.ascii	"TDTR\000"
 4226      00
 4227              	.LASF241:
 4228 0cbc 43414E44 		.ascii	"CAND1\000"
 4228      3100
 4229              	.LASF236:
 4230 0cc2 7478656D 		.ascii	"txempty_event\000"
 4230      7074795F 
 4230      6576656E 
 4230      7400
 4231              	.LASF290:
 4232 0cd0 443A5C68 		.ascii	"D:\\hkust\\robomaster\\eclipse___files\\cundang\\as"
 4232      6B757374 
 4232      5C726F62 
 4232      6F6D6173 
 4232      7465725C 
ARM GAS  C:\Users\14122\AppData\Local\Temp\ccMqnaqC.s 			page 86


 4233 0cfe 7369676E 		.ascii	"signment2-master_10.20_turret_2\000"
 4233      6D656E74 
 4233      322D6D61 
 4233      73746572 
 4233      5F31302E 
 4234              		.ident	"GCC: (GNU Tools for Arm Embedded Processors 7-2017-q4-major) 7.2.1 20170904 (release) [ARM
ARM GAS  C:\Users\14122\AppData\Local\Temp\ccMqnaqC.s 			page 87


DEFINED SYMBOLS
                            *ABS*:00000000 hal_st_lld.c
C:\Users\14122\AppData\Local\Temp\ccMqnaqC.s:16     .text.VectorB0:00000000 $t
C:\Users\14122\AppData\Local\Temp\ccMqnaqC.s:24     .text.VectorB0:00000000 VectorB0
C:\Users\14122\AppData\Local\Temp\ccMqnaqC.s:125    .text.st_lld_init:00000000 $t
C:\Users\14122\AppData\Local\Temp\ccMqnaqC.s:133    .text.st_lld_init:00000000 st_lld_init
C:\Users\14122\AppData\Local\Temp\ccMqnaqC.s:200    .text.st_lld_init:00000040 $d

UNDEFINED SYMBOLS
_port_irq_epilogue
chSysTimerHandlerI
nvicEnableVector
