ARM GAS  C:\Users\14122\AppData\Local\Temp\ccYwHGHv.s 			page 1


   1              		.cpu cortex-m3
   2              		.eabi_attribute 20, 1
   3              		.eabi_attribute 21, 1
   4              		.eabi_attribute 23, 3
   5              		.eabi_attribute 24, 1
   6              		.eabi_attribute 25, 1
   7              		.eabi_attribute 26, 1
   8              		.eabi_attribute 30, 2
   9              		.eabi_attribute 34, 1
  10              		.eabi_attribute 18, 4
  11              		.file	"hal_pal_lld.c"
  12              		.text
  13              	.Ltext0:
  14              		.cfi_sections	.debug_frame
  15              		.section	.text._pal_lld_init,"ax",%progbits
  16              		.align	1
  17              		.p2align 4,,15
  18              		.global	_pal_lld_init
  19              		.syntax unified
  20              		.thumb
  21              		.thumb_func
  22              		.fpu softvfp
  23              		.type	_pal_lld_init, %function
  24              	_pal_lld_init:
  25              	.LFB253:
  26              		.file 1 ".//os/hal/ports/STM32/LLD/GPIOv1/hal_pal_lld.c"
  27              		.loc 1 81 0
  28              		.cfi_startproc
  29              		@ args = 0, pretend = 0, frame = 0
  30              		@ frame_needed = 0, uses_anonymous_args = 0
  31              		@ link register save eliminated.
  32              	.LVL0:
  33              		.loc 1 94 0
  34 0000 164A     		ldr	r2, .L4
  35              		.loc 1 81 0
  36 0002 30B4     		push	{r4, r5}
  37              		.cfi_def_cfa_offset 8
  38              		.cfi_offset 4, -8
  39              		.cfi_offset 5, -4
  40              		.loc 1 94 0
  41 0004 9169     		ldr	r1, [r2, #24]
  42              		.loc 1 99 0
  43 0006 164B     		ldr	r3, .L4+4
  44              		.loc 1 94 0
  45 0008 41F07D01 		orr	r1, r1, #125
  46 000c 9161     		str	r1, [r2, #24]
  47              		.loc 1 99 0
  48 000e 0168     		ldr	r1, [r0]
  49              		.loc 1 94 0
  50 0010 9269     		ldr	r2, [r2, #24]
  51              		.loc 1 99 0
  52 0012 D960     		str	r1, [r3, #12]
  53              		.loc 1 100 0
  54 0014 8268     		ldr	r2, [r0, #8]
  55              		.loc 1 102 0
  56 0016 134C     		ldr	r4, .L4+8
  57              		.loc 1 100 0
ARM GAS  C:\Users\14122\AppData\Local\Temp\ccYwHGHv.s 			page 2


  58 0018 5A60     		str	r2, [r3, #4]
  59              		.loc 1 101 0
  60 001a 4568     		ldr	r5, [r0, #4]
  61              		.loc 1 105 0
  62 001c 1249     		ldr	r1, .L4+12
  63              		.loc 1 101 0
  64 001e 1D60     		str	r5, [r3]
  65              		.loc 1 102 0
  66 0020 C568     		ldr	r5, [r0, #12]
  67              		.loc 1 108 0
  68 0022 124A     		ldr	r2, .L4+16
  69              		.loc 1 102 0
  70 0024 E560     		str	r5, [r4, #12]
  71              		.loc 1 103 0
  72 0026 4569     		ldr	r5, [r0, #20]
  73              		.loc 1 112 0
  74 0028 03F58053 		add	r3, r3, #4096
  75              		.loc 1 103 0
  76 002c 6560     		str	r5, [r4, #4]
  77              		.loc 1 104 0
  78 002e 0569     		ldr	r5, [r0, #16]
  79 0030 2560     		str	r5, [r4]
  80              		.loc 1 105 0
  81 0032 8469     		ldr	r4, [r0, #24]
  82 0034 CC60     		str	r4, [r1, #12]
  83              		.loc 1 106 0
  84 0036 046A     		ldr	r4, [r0, #32]
  85 0038 4C60     		str	r4, [r1, #4]
  86              		.loc 1 107 0
  87 003a C469     		ldr	r4, [r0, #28]
  88 003c 0C60     		str	r4, [r1]
  89              		.loc 1 108 0
  90 003e 416A     		ldr	r1, [r0, #36]
  91 0040 D160     		str	r1, [r2, #12]
  92              		.loc 1 109 0
  93 0042 C16A     		ldr	r1, [r0, #44]
  94 0044 5160     		str	r1, [r2, #4]
  95              		.loc 1 110 0
  96 0046 816A     		ldr	r1, [r0, #40]
  97 0048 1160     		str	r1, [r2]
  98              		.loc 1 112 0
  99 004a 026B     		ldr	r2, [r0, #48]
 100 004c DA60     		str	r2, [r3, #12]
 101              		.loc 1 113 0
 102 004e 826B     		ldr	r2, [r0, #56]
 103 0050 5A60     		str	r2, [r3, #4]
 104              		.loc 1 114 0
 105 0052 426B     		ldr	r2, [r0, #52]
 106              		.loc 1 126 0
 107 0054 30BC     		pop	{r4, r5}
 108              		.cfi_restore 5
 109              		.cfi_restore 4
 110              		.cfi_def_cfa_offset 0
 111              		.loc 1 114 0
 112 0056 1A60     		str	r2, [r3]
 113              		.loc 1 126 0
 114 0058 7047     		bx	lr
ARM GAS  C:\Users\14122\AppData\Local\Temp\ccYwHGHv.s 			page 3


 115              	.L5:
 116 005a 00BF     		.align	2
 117              	.L4:
 118 005c 00100240 		.word	1073876992
 119 0060 00080140 		.word	1073809408
 120 0064 000C0140 		.word	1073810432
 121 0068 00100140 		.word	1073811456
 122 006c 00140140 		.word	1073812480
 123              		.cfi_endproc
 124              	.LFE253:
 125              		.size	_pal_lld_init, .-_pal_lld_init
 126              		.section	.text._pal_lld_setgroupmode,"ax",%progbits
 127              		.align	1
 128              		.p2align 4,,15
 129              		.global	_pal_lld_setgroupmode
 130              		.syntax unified
 131              		.thumb
 132              		.thumb_func
 133              		.fpu softvfp
 134              		.type	_pal_lld_setgroupmode, %function
 135              	_pal_lld_setgroupmode:
 136              	.LFB254:
 137              		.loc 1 145 0
 138              		.cfi_startproc
 139              		@ args = 0, pretend = 0, frame = 0
 140              		@ frame_needed = 0, uses_anonymous_args = 0
 141              		@ link register save eliminated.
 142              	.LVL1:
 143              		.loc 1 169 0
 144 0000 032A     		cmp	r2, #3
 145              		.loc 1 145 0
 146 0002 F0B4     		push	{r4, r5, r6, r7}
 147              		.cfi_def_cfa_offset 16
 148              		.cfi_offset 4, -16
 149              		.cfi_offset 5, -12
 150              		.cfi_offset 6, -8
 151              		.cfi_offset 7, -4
 152              		.loc 1 169 0
 153 0004 2DD0     		beq	.L16
 154              		.loc 1 171 0
 155 0006 042A     		cmp	r2, #4
 156              		.loc 1 172 0
 157 0008 08BF     		it	eq
 158 000a 4161     		streq	r1, [r0, #20]
 159              	.L8:
 160              		.loc 1 174 0
 161 000c 0023     		movs	r3, #0
 162              		.loc 1 173 0
 163 000e 0827     		movs	r7, #8
 164              		.loc 1 174 0
 165 0010 1D46     		mov	r5, r3
 166 0012 1C46     		mov	r4, r3
 167 0014 1E46     		mov	r6, r3
 168              		.loc 1 173 0
 169 0016 DFF850C0 		ldr	ip, .L17
 170 001a 1CF80220 		ldrb	r2, [ip, r2]	@ zero_extendqisi2
 171              	.LVL2:
ARM GAS  C:\Users\14122\AppData\Local\Temp\ccYwHGHv.s 			page 4


 172              	.L13:
 173              		.loc 1 180 0
 174 001e 11F0800F 		tst	r1, #128
 175              		.loc 1 176 0
 176 0022 4FEA0414 		lsl	r4, r4, #4
 177              	.LVL3:
 178              		.loc 1 178 0
 179 0026 4FEA0313 		lsl	r3, r3, #4
 180              	.LVL4:
 181              		.loc 1 177 0
 182 002a 4FEA0616 		lsl	r6, r6, #4
 183              	.LVL5:
 184              		.loc 1 179 0
 185 002e 4FEA0515 		lsl	r5, r5, #4
 186              	.LVL6:
 187              		.loc 1 181 0
 188 0032 0CBF     		ite	eq
 189 0034 44F00F04 		orreq	r4, r4, #15
 190              	.LVL7:
 191              		.loc 1 183 0
 192 0038 1343     		orrne	r3, r3, r2
 193              	.LVL8:
 194              		.loc 1 184 0
 195 003a 11F4004F 		tst	r1, #32768
 196              		.loc 1 185 0
 197 003e 0CBF     		ite	eq
 198 0040 46F00F06 		orreq	r6, r6, #15
 199              	.LVL9:
 200              		.loc 1 187 0
 201 0044 1543     		orrne	r5, r5, r2
 202              	.LVL10:
 203              		.loc 1 175 0
 204 0046 013F     		subs	r7, r7, #1
 205              	.LVL11:
 206              		.loc 1 188 0
 207 0048 4FEA4101 		lsl	r1, r1, #1
 208              	.LVL12:
 209              		.loc 1 175 0
 210 004c E7D1     		bne	.L13
 211              		.loc 1 190 0
 212 004e 4268     		ldr	r2, [r0, #4]
 213              	.LVL13:
 214 0050 1640     		ands	r6, r6, r2
 215              	.LVL14:
 216 0052 3543     		orrs	r5, r5, r6
 217              	.LVL15:
 218 0054 4560     		str	r5, [r0, #4]
 219              		.loc 1 191 0
 220 0056 0268     		ldr	r2, [r0]
 221 0058 1440     		ands	r4, r4, r2
 222              	.LVL16:
 223 005a 2343     		orrs	r3, r3, r4
 224              	.LVL17:
 225 005c 0360     		str	r3, [r0]
 226              		.loc 1 192 0
 227 005e F0BC     		pop	{r4, r5, r6, r7}
 228              		.cfi_remember_state
ARM GAS  C:\Users\14122\AppData\Local\Temp\ccYwHGHv.s 			page 5


 229              		.cfi_restore 7
 230              		.cfi_restore 6
 231              		.cfi_restore 5
 232              		.cfi_restore 4
 233              		.cfi_def_cfa_offset 0
 234 0060 7047     		bx	lr
 235              	.LVL18:
 236              	.L16:
 237              		.cfi_restore_state
 238              		.loc 1 170 0
 239 0062 0161     		str	r1, [r0, #16]
 240 0064 D2E7     		b	.L8
 241              	.L18:
 242 0066 00BF     		.align	2
 243              	.L17:
 244 0068 00000000 		.word	.LANCHOR0
 245              		.cfi_endproc
 246              	.LFE254:
 247              		.size	_pal_lld_setgroupmode, .-_pal_lld_setgroupmode
 248              		.global	_pal_events
 249              		.section	.bss._pal_events,"aw",%nobits
 250              		.align	2
 251              		.type	_pal_events, %object
 252              		.size	_pal_events, 0
 253              	_pal_events:
 254              		.section	.rodata.cfgtab.7063,"a",%progbits
 255              		.align	2
 256              		.set	.LANCHOR0,. + 0
 257              		.type	cfgtab.7063, %object
 258              		.size	cfgtab.7063, 18
 259              	cfgtab.7063:
 260 0000 04       		.byte	4
 261 0001 02       		.byte	2
 262 0002 04       		.byte	4
 263 0003 08       		.byte	8
 264 0004 08       		.byte	8
 265 0005 00       		.byte	0
 266 0006 03       		.byte	3
 267 0007 07       		.byte	7
 268 0008 08       		.byte	8
 269 0009 08       		.byte	8
 270 000a 08       		.byte	8
 271 000b 08       		.byte	8
 272 000c 08       		.byte	8
 273 000d 08       		.byte	8
 274 000e 08       		.byte	8
 275 000f 08       		.byte	8
 276 0010 0B       		.byte	11
 277 0011 0F       		.byte	15
 278              		.text
 279              	.Letext0:
 280              		.file 2 "c:\\chibistudio\\tools\\gnu tools arm embedded\\7.0 2017q4\\lib\\gcc\\arm-none-eabi\\7.2.
 281              		.file 3 "c:\\chibistudio\\tools\\gnu tools arm embedded\\7.0 2017q4\\arm-none-eabi\\include\\machi
 282              		.file 4 "c:\\chibistudio\\tools\\gnu tools arm embedded\\7.0 2017q4\\arm-none-eabi\\include\\sys\\
 283              		.file 5 ".//os/common/ports/ARMCMx/compilers/GCC/chtypes.h"
 284              		.file 6 ".//os/rt/include/chsystypes.h"
 285              		.file 7 ".//os/rt/include/chschd.h"
ARM GAS  C:\Users\14122\AppData\Local\Temp\ccYwHGHv.s 			page 6


 286              		.file 8 ".//os/rt/include/chtime.h"
 287              		.file 9 ".//os/common/ext/ARM/CMSIS/Core/Include/core_cm3.h"
 288              		.file 10 ".//os/common/ext/ST/STM32F1xx/system_stm32f1xx.h"
 289              		.file 11 ".//os/common/ext/ST/STM32F1xx/stm32f103xb.h"
 290              		.file 12 ".//os/common/ports/ARMCMx/chcore.h"
 291              		.file 13 ".//os/common/ports/ARMCMx/chcore_v7m.h"
 292              		.file 14 ".//os/rt/include/chsem.h"
 293              		.file 15 ".//os/rt/include/chmtx.h"
 294              		.file 16 ".//os/rt/include/chsys.h"
 295              		.file 17 ".//os/rt/include/chregistry.h"
 296              		.file 18 ".//os/rt/include/chevents.h"
 297              		.file 19 ".//os/lib/include/chmemcore.h"
 298              		.file 20 ".//os/lib/include/chmempools.h"
 299              		.file 21 ".//os/lib/include/chfactory.h"
 300              		.file 22 ".//os/hal/ports/STM32/LLD/DMAv1/stm32_dma.h"
 301              		.file 23 ".//os/hal/include/hal_pal.h"
 302              		.file 24 ".//os/hal/ports/STM32/LLD/GPIOv1/hal_pal_lld.h"
 303              		.file 25 ".//os/hal/include/hal_can.h"
 304              		.file 26 ".//os/hal/ports/STM32/LLD/CANv1/hal_can_lld.h"
 305              		.file 27 ".//os/hal/include/hal_uart.h"
 306              		.file 28 ".//os/hal/ports/STM32/LLD/USARTv1/hal_uart_lld.h"
 307              		.section	.debug_info,"",%progbits
 308              	.Ldebug_info0:
 309 0000 66140000 		.4byte	0x1466
 310 0004 0400     		.2byte	0x4
 311 0006 00000000 		.4byte	.Ldebug_abbrev0
 312 000a 04       		.byte	0x4
 313 000b 01       		.uleb128 0x1
 314 000c F6060000 		.4byte	.LASF274
 315 0010 0C       		.byte	0xc
 316 0011 D3040000 		.4byte	.LASF275
 317 0015 F20B0000 		.4byte	.LASF276
 318 0019 00000000 		.4byte	.Ldebug_ranges0+0
 319 001d 00000000 		.4byte	0
 320 0021 00000000 		.4byte	.Ldebug_line0
 321 0025 02       		.uleb128 0x2
 322 0026 04       		.byte	0x4
 323 0027 05       		.byte	0x5
 324 0028 696E7400 		.ascii	"int\000"
 325 002c 03       		.uleb128 0x3
 326 002d 1B000000 		.4byte	.LASF4
 327 0031 02       		.byte	0x2
 328 0032 D8       		.byte	0xd8
 329 0033 37000000 		.4byte	0x37
 330 0037 04       		.uleb128 0x4
 331 0038 04       		.byte	0x4
 332 0039 07       		.byte	0x7
 333 003a 88060000 		.4byte	.LASF0
 334 003e 04       		.uleb128 0x4
 335 003f 08       		.byte	0x8
 336 0040 05       		.byte	0x5
 337 0041 C4050000 		.4byte	.LASF1
 338 0045 04       		.uleb128 0x4
 339 0046 08       		.byte	0x8
 340 0047 04       		.byte	0x4
 341 0048 E0070000 		.4byte	.LASF2
 342 004c 04       		.uleb128 0x4
ARM GAS  C:\Users\14122\AppData\Local\Temp\ccYwHGHv.s 			page 7


 343 004d 01       		.byte	0x1
 344 004e 06       		.byte	0x6
 345 004f 1C020000 		.4byte	.LASF3
 346 0053 03       		.uleb128 0x3
 347 0054 51010000 		.4byte	.LASF5
 348 0058 03       		.byte	0x3
 349 0059 2B       		.byte	0x2b
 350 005a 5E000000 		.4byte	0x5e
 351 005e 04       		.uleb128 0x4
 352 005f 01       		.byte	0x1
 353 0060 08       		.byte	0x8
 354 0061 92020000 		.4byte	.LASF6
 355 0065 04       		.uleb128 0x4
 356 0066 02       		.byte	0x2
 357 0067 05       		.byte	0x5
 358 0068 0D0A0000 		.4byte	.LASF7
 359 006c 03       		.uleb128 0x3
 360 006d 33030000 		.4byte	.LASF8
 361 0071 03       		.byte	0x3
 362 0072 39       		.byte	0x39
 363 0073 77000000 		.4byte	0x77
 364 0077 04       		.uleb128 0x4
 365 0078 02       		.byte	0x2
 366 0079 07       		.byte	0x7
 367 007a 370B0000 		.4byte	.LASF9
 368 007e 03       		.uleb128 0x3
 369 007f 7B0B0000 		.4byte	.LASF10
 370 0083 03       		.byte	0x3
 371 0084 4D       		.byte	0x4d
 372 0085 89000000 		.4byte	0x89
 373 0089 04       		.uleb128 0x4
 374 008a 04       		.byte	0x4
 375 008b 05       		.byte	0x5
 376 008c 7F010000 		.4byte	.LASF11
 377 0090 03       		.uleb128 0x3
 378 0091 B1050000 		.4byte	.LASF12
 379 0095 03       		.byte	0x3
 380 0096 4F       		.byte	0x4f
 381 0097 9B000000 		.4byte	0x9b
 382 009b 04       		.uleb128 0x4
 383 009c 04       		.byte	0x4
 384 009d 07       		.byte	0x7
 385 009e 3B040000 		.4byte	.LASF13
 386 00a2 03       		.uleb128 0x3
 387 00a3 26040000 		.4byte	.LASF14
 388 00a7 03       		.byte	0x3
 389 00a8 69       		.byte	0x69
 390 00a9 AD000000 		.4byte	0xad
 391 00ad 04       		.uleb128 0x4
 392 00ae 08       		.byte	0x8
 393 00af 07       		.byte	0x7
 394 00b0 7B080000 		.4byte	.LASF15
 395 00b4 03       		.uleb128 0x3
 396 00b5 2F020000 		.4byte	.LASF16
 397 00b9 04       		.byte	0x4
 398 00ba 18       		.byte	0x18
 399 00bb 53000000 		.4byte	0x53
ARM GAS  C:\Users\14122\AppData\Local\Temp\ccYwHGHv.s 			page 8


 400 00bf 05       		.uleb128 0x5
 401 00c0 B4000000 		.4byte	0xb4
 402 00c4 03       		.uleb128 0x3
 403 00c5 99080000 		.4byte	.LASF17
 404 00c9 04       		.byte	0x4
 405 00ca 24       		.byte	0x24
 406 00cb 6C000000 		.4byte	0x6c
 407 00cf 06       		.uleb128 0x6
 408 00d0 C4000000 		.4byte	0xc4
 409 00d4 03       		.uleb128 0x3
 410 00d5 6F000000 		.4byte	.LASF18
 411 00d9 04       		.byte	0x4
 412 00da 2C       		.byte	0x2c
 413 00db 7E000000 		.4byte	0x7e
 414 00df 06       		.uleb128 0x6
 415 00e0 D4000000 		.4byte	0xd4
 416 00e4 03       		.uleb128 0x3
 417 00e5 180B0000 		.4byte	.LASF19
 418 00e9 04       		.byte	0x4
 419 00ea 30       		.byte	0x30
 420 00eb 90000000 		.4byte	0x90
 421 00ef 06       		.uleb128 0x6
 422 00f0 E4000000 		.4byte	0xe4
 423 00f4 03       		.uleb128 0x3
 424 00f5 240A0000 		.4byte	.LASF20
 425 00f9 04       		.byte	0x4
 426 00fa 3C       		.byte	0x3c
 427 00fb A2000000 		.4byte	0xa2
 428 00ff 03       		.uleb128 0x3
 429 0100 8B090000 		.4byte	.LASF21
 430 0104 05       		.byte	0x5
 431 0105 2A       		.byte	0x2a
 432 0106 B4000000 		.4byte	0xb4
 433 010a 03       		.uleb128 0x3
 434 010b 9D010000 		.4byte	.LASF22
 435 010f 05       		.byte	0x5
 436 0110 2B       		.byte	0x2b
 437 0111 B4000000 		.4byte	0xb4
 438 0115 03       		.uleb128 0x3
 439 0116 CE0A0000 		.4byte	.LASF23
 440 011a 05       		.byte	0x5
 441 011b 2C       		.byte	0x2c
 442 011c B4000000 		.4byte	0xb4
 443 0120 03       		.uleb128 0x3
 444 0121 55000000 		.4byte	.LASF24
 445 0125 05       		.byte	0x5
 446 0126 2E       		.byte	0x2e
 447 0127 E4000000 		.4byte	0xe4
 448 012b 03       		.uleb128 0x3
 449 012c BA080000 		.4byte	.LASF25
 450 0130 05       		.byte	0x5
 451 0131 2F       		.byte	0x2f
 452 0132 D4000000 		.4byte	0xd4
 453 0136 03       		.uleb128 0x3
 454 0137 37020000 		.4byte	.LASF26
 455 013b 05       		.byte	0x5
 456 013c 31       		.byte	0x31
ARM GAS  C:\Users\14122\AppData\Local\Temp\ccYwHGHv.s 			page 9


 457 013d E4000000 		.4byte	0xe4
 458 0141 03       		.uleb128 0x3
 459 0142 D1080000 		.4byte	.LASF27
 460 0146 05       		.byte	0x5
 461 0147 32       		.byte	0x32
 462 0148 E4000000 		.4byte	0xe4
 463 014c 03       		.uleb128 0x3
 464 014d D0030000 		.4byte	.LASF28
 465 0151 05       		.byte	0x5
 466 0152 33       		.byte	0x33
 467 0153 D4000000 		.4byte	0xd4
 468 0157 03       		.uleb128 0x3
 469 0158 51050000 		.4byte	.LASF29
 470 015c 05       		.byte	0x5
 471 015d 34       		.byte	0x34
 472 015e E4000000 		.4byte	0xe4
 473 0162 03       		.uleb128 0x3
 474 0163 D7070000 		.4byte	.LASF30
 475 0167 06       		.byte	0x6
 476 0168 34       		.byte	0x34
 477 0169 6D010000 		.4byte	0x16d
 478 016d 07       		.uleb128 0x7
 479 016e 8E040000 		.4byte	.LASF48
 480 0172 44       		.byte	0x44
 481 0173 07       		.byte	0x7
 482 0174 8E       		.byte	0x8e
 483 0175 4B020000 		.4byte	0x24b
 484 0179 08       		.uleb128 0x8
 485 017a 06090000 		.4byte	.LASF31
 486 017e 07       		.byte	0x7
 487 017f 8F       		.byte	0x8f
 488 0180 80020000 		.4byte	0x280
 489 0184 00       		.byte	0
 490 0185 08       		.uleb128 0x8
 491 0186 11010000 		.4byte	.LASF32
 492 018a 07       		.byte	0x7
 493 018b 90       		.byte	0x90
 494 018c 20010000 		.4byte	0x120
 495 0190 08       		.byte	0x8
 496 0191 09       		.uleb128 0x9
 497 0192 63747800 		.ascii	"ctx\000"
 498 0196 07       		.byte	0x7
 499 0197 91       		.byte	0x91
 500 0198 18090000 		.4byte	0x918
 501 019c 0C       		.byte	0xc
 502 019d 08       		.uleb128 0x8
 503 019e 120B0000 		.4byte	.LASF33
 504 01a2 07       		.byte	0x7
 505 01a3 93       		.byte	0x93
 506 01a4 56020000 		.4byte	0x256
 507 01a8 10       		.byte	0x10
 508 01a9 08       		.uleb128 0x8
 509 01aa 33050000 		.4byte	.LASF34
 510 01ae 07       		.byte	0x7
 511 01af 94       		.byte	0x94
 512 01b0 56020000 		.4byte	0x256
 513 01b4 14       		.byte	0x14
ARM GAS  C:\Users\14122\AppData\Local\Temp\ccYwHGHv.s 			page 10


 514 01b5 08       		.uleb128 0x8
 515 01b6 B5090000 		.4byte	.LASF35
 516 01ba 07       		.byte	0x7
 517 01bb 9B       		.byte	0x9b
 518 01bc 7C0A0000 		.4byte	0xa7c
 519 01c0 18       		.byte	0x18
 520 01c1 08       		.uleb128 0x8
 521 01c2 66090000 		.4byte	.LASF36
 522 01c6 07       		.byte	0x7
 523 01c7 A4       		.byte	0xa4
 524 01c8 930A0000 		.4byte	0xa93
 525 01cc 1C       		.byte	0x1c
 526 01cd 08       		.uleb128 0x8
 527 01ce D0000000 		.4byte	.LASF37
 528 01d2 07       		.byte	0x7
 529 01d3 A9       		.byte	0xa9
 530 01d4 0A010000 		.4byte	0x10a
 531 01d8 20       		.byte	0x20
 532 01d9 08       		.uleb128 0x8
 533 01da 59030000 		.4byte	.LASF38
 534 01de 07       		.byte	0x7
 535 01df AD       		.byte	0xad
 536 01e0 FF000000 		.4byte	0xff
 537 01e4 21       		.byte	0x21
 538 01e5 08       		.uleb128 0x8
 539 01e6 01090000 		.4byte	.LASF39
 540 01ea 07       		.byte	0x7
 541 01eb B2       		.byte	0xb2
 542 01ec 15010000 		.4byte	0x115
 543 01f0 22       		.byte	0x22
 544 01f1 0A       		.uleb128 0xa
 545 01f2 7500     		.ascii	"u\000"
 546 01f4 07       		.byte	0x7
 547 01f5 0301     		.2byte	0x103
 548 01f7 B2090000 		.4byte	0x9b2
 549 01fb 24       		.byte	0x24
 550 01fc 0B       		.uleb128 0xb
 551 01fd BE0A0000 		.4byte	.LASF40
 552 0201 07       		.byte	0x7
 553 0202 0801     		.2byte	0x108
 554 0204 5C020000 		.4byte	0x25c
 555 0208 28       		.byte	0x28
 556 0209 0B       		.uleb128 0xb
 557 020a 460A0000 		.4byte	.LASF41
 558 020e 07       		.byte	0x7
 559 020f 0E01     		.2byte	0x10e
 560 0211 80020000 		.4byte	0x280
 561 0215 2C       		.byte	0x2c
 562 0216 0B       		.uleb128 0xb
 563 0217 A6010000 		.4byte	.LASF42
 564 021b 07       		.byte	0x7
 565 021c 1401     		.2byte	0x114
 566 021e 36010000 		.4byte	0x136
 567 0222 34       		.byte	0x34
 568 0223 0B       		.uleb128 0xb
 569 0224 BC050000 		.4byte	.LASF43
 570 0228 07       		.byte	0x7
ARM GAS  C:\Users\14122\AppData\Local\Temp\ccYwHGHv.s 			page 11


 571 0229 1B01     		.2byte	0x11b
 572 022b 760A0000 		.4byte	0xa76
 573 022f 38       		.byte	0x38
 574 0230 0B       		.uleb128 0xb
 575 0231 48050000 		.4byte	.LASF44
 576 0235 07       		.byte	0x7
 577 0236 1F01     		.2byte	0x11f
 578 0238 20010000 		.4byte	0x120
 579 023c 3C       		.byte	0x3c
 580 023d 0B       		.uleb128 0xb
 581 023e 78030000 		.4byte	.LASF45
 582 0242 07       		.byte	0x7
 583 0243 2601     		.2byte	0x126
 584 0245 33030000 		.4byte	0x333
 585 0249 40       		.byte	0x40
 586 024a 00       		.byte	0
 587 024b 03       		.uleb128 0x3
 588 024c F3070000 		.4byte	.LASF46
 589 0250 06       		.byte	0x6
 590 0251 39       		.byte	0x39
 591 0252 56020000 		.4byte	0x256
 592 0256 0C       		.uleb128 0xc
 593 0257 04       		.byte	0x4
 594 0258 62010000 		.4byte	0x162
 595 025c 03       		.uleb128 0x3
 596 025d E30A0000 		.4byte	.LASF47
 597 0261 06       		.byte	0x6
 598 0262 3E       		.byte	0x3e
 599 0263 67020000 		.4byte	0x267
 600 0267 07       		.uleb128 0x7
 601 0268 7D050000 		.4byte	.LASF49
 602 026c 04       		.byte	0x4
 603 026d 07       		.byte	0x7
 604 026e 7C       		.byte	0x7c
 605 026f 80020000 		.4byte	0x280
 606 0273 08       		.uleb128 0x8
 607 0274 AA0B0000 		.4byte	.LASF50
 608 0278 07       		.byte	0x7
 609 0279 7D       		.byte	0x7d
 610 027a 56020000 		.4byte	0x256
 611 027e 00       		.byte	0
 612 027f 00       		.byte	0
 613 0280 03       		.uleb128 0x3
 614 0281 AF010000 		.4byte	.LASF51
 615 0285 06       		.byte	0x6
 616 0286 45       		.byte	0x45
 617 0287 8B020000 		.4byte	0x28b
 618 028b 07       		.uleb128 0x7
 619 028c C0080000 		.4byte	.LASF52
 620 0290 08       		.byte	0x8
 621 0291 07       		.byte	0x7
 622 0292 83       		.byte	0x83
 623 0293 B0020000 		.4byte	0x2b0
 624 0297 08       		.uleb128 0x8
 625 0298 AA0B0000 		.4byte	.LASF50
 626 029c 07       		.byte	0x7
 627 029d 84       		.byte	0x84
ARM GAS  C:\Users\14122\AppData\Local\Temp\ccYwHGHv.s 			page 12


 628 029e 56020000 		.4byte	0x256
 629 02a2 00       		.byte	0
 630 02a3 08       		.uleb128 0x8
 631 02a4 BD0B0000 		.4byte	.LASF53
 632 02a8 07       		.byte	0x7
 633 02a9 85       		.byte	0x85
 634 02aa 56020000 		.4byte	0x256
 635 02ae 04       		.byte	0x4
 636 02af 00       		.byte	0
 637 02b0 03       		.uleb128 0x3
 638 02b1 26050000 		.4byte	.LASF54
 639 02b5 06       		.byte	0x6
 640 02b6 4C       		.byte	0x4c
 641 02b7 BB020000 		.4byte	0x2bb
 642 02bb 0D       		.uleb128 0xd
 643 02bc FB030000 		.4byte	.LASF55
 644 02c0 1C       		.byte	0x1c
 645 02c1 07       		.byte	0x7
 646 02c2 5E01     		.2byte	0x15e
 647 02c4 17030000 		.4byte	0x317
 648 02c8 0B       		.uleb128 0xb
 649 02c9 06090000 		.4byte	.LASF31
 650 02cd 07       		.byte	0x7
 651 02ce 5F01     		.2byte	0x15f
 652 02d0 80020000 		.4byte	0x280
 653 02d4 00       		.byte	0
 654 02d5 0B       		.uleb128 0xb
 655 02d6 11010000 		.4byte	.LASF32
 656 02da 07       		.byte	0x7
 657 02db 6001     		.2byte	0x160
 658 02dd 20010000 		.4byte	0x120
 659 02e1 08       		.byte	0x8
 660 02e2 0A       		.uleb128 0xa
 661 02e3 63747800 		.ascii	"ctx\000"
 662 02e7 07       		.byte	0x7
 663 02e8 6201     		.2byte	0x162
 664 02ea 18090000 		.4byte	0x918
 665 02ee 0C       		.byte	0xc
 666 02ef 0B       		.uleb128 0xb
 667 02f0 120B0000 		.4byte	.LASF33
 668 02f4 07       		.byte	0x7
 669 02f5 6501     		.2byte	0x165
 670 02f7 56020000 		.4byte	0x256
 671 02fb 10       		.byte	0x10
 672 02fc 0B       		.uleb128 0xb
 673 02fd 33050000 		.4byte	.LASF34
 674 0301 07       		.byte	0x7
 675 0302 6601     		.2byte	0x166
 676 0304 56020000 		.4byte	0x256
 677 0308 14       		.byte	0x14
 678 0309 0B       		.uleb128 0xb
 679 030a C6060000 		.4byte	.LASF56
 680 030e 07       		.byte	0x7
 681 030f 6901     		.2byte	0x169
 682 0311 56020000 		.4byte	0x256
 683 0315 18       		.byte	0x18
 684 0316 00       		.byte	0
ARM GAS  C:\Users\14122\AppData\Local\Temp\ccYwHGHv.s 			page 13


 685 0317 03       		.uleb128 0x3
 686 0318 77000000 		.4byte	.LASF57
 687 031c 06       		.byte	0x6
 688 031d 51       		.byte	0x51
 689 031e 22030000 		.4byte	0x322
 690 0322 0C       		.uleb128 0xc
 691 0323 04       		.byte	0x4
 692 0324 28030000 		.4byte	0x328
 693 0328 0E       		.uleb128 0xe
 694 0329 33030000 		.4byte	0x333
 695 032d 0F       		.uleb128 0xf
 696 032e 33030000 		.4byte	0x333
 697 0332 00       		.byte	0
 698 0333 10       		.uleb128 0x10
 699 0334 04       		.byte	0x4
 700 0335 03       		.uleb128 0x3
 701 0336 16050000 		.4byte	.LASF58
 702 033a 06       		.byte	0x6
 703 033b 56       		.byte	0x56
 704 033c 40030000 		.4byte	0x340
 705 0340 0D       		.uleb128 0xd
 706 0341 5D080000 		.4byte	.LASF59
 707 0345 14       		.byte	0x14
 708 0346 07       		.byte	0x7
 709 0347 3901     		.2byte	0x139
 710 0349 8F030000 		.4byte	0x38f
 711 034d 0B       		.uleb128 0xb
 712 034e AA0B0000 		.4byte	.LASF50
 713 0352 07       		.byte	0x7
 714 0353 3A01     		.2byte	0x13a
 715 0355 990A0000 		.4byte	0xa99
 716 0359 00       		.byte	0
 717 035a 0B       		.uleb128 0xb
 718 035b BD0B0000 		.4byte	.LASF53
 719 035f 07       		.byte	0x7
 720 0360 3B01     		.2byte	0x13b
 721 0362 990A0000 		.4byte	0xa99
 722 0366 04       		.byte	0x4
 723 0367 0B       		.uleb128 0xb
 724 0368 DE080000 		.4byte	.LASF60
 725 036c 07       		.byte	0x7
 726 036d 3C01     		.2byte	0x13c
 727 036f 5A040000 		.4byte	0x45a
 728 0373 08       		.byte	0x8
 729 0374 0B       		.uleb128 0xb
 730 0375 320A0000 		.4byte	.LASF61
 731 0379 07       		.byte	0x7
 732 037a 3D01     		.2byte	0x13d
 733 037c 17030000 		.4byte	0x317
 734 0380 0C       		.byte	0xc
 735 0381 0A       		.uleb128 0xa
 736 0382 70617200 		.ascii	"par\000"
 737 0386 07       		.byte	0x7
 738 0387 3F01     		.2byte	0x13f
 739 0389 33030000 		.4byte	0x333
 740 038d 10       		.byte	0x10
 741 038e 00       		.byte	0
ARM GAS  C:\Users\14122\AppData\Local\Temp\ccYwHGHv.s 			page 14


 742 038f 03       		.uleb128 0x3
 743 0390 98040000 		.4byte	.LASF62
 744 0394 06       		.byte	0x6
 745 0395 5B       		.byte	0x5b
 746 0396 9A030000 		.4byte	0x39a
 747 039a 0D       		.uleb128 0xd
 748 039b 8C000000 		.4byte	.LASF63
 749 039f 10       		.byte	0x10
 750 03a0 07       		.byte	0x7
 751 03a1 4901     		.2byte	0x149
 752 03a3 DC030000 		.4byte	0x3dc
 753 03a7 0B       		.uleb128 0xb
 754 03a8 AA0B0000 		.4byte	.LASF50
 755 03ac 07       		.byte	0x7
 756 03ad 4A01     		.2byte	0x14a
 757 03af 990A0000 		.4byte	0xa99
 758 03b3 00       		.byte	0
 759 03b4 0B       		.uleb128 0xb
 760 03b5 BD0B0000 		.4byte	.LASF53
 761 03b9 07       		.byte	0x7
 762 03ba 4C01     		.2byte	0x14c
 763 03bc 990A0000 		.4byte	0xa99
 764 03c0 04       		.byte	0x4
 765 03c1 0B       		.uleb128 0xb
 766 03c2 DE080000 		.4byte	.LASF60
 767 03c6 07       		.byte	0x7
 768 03c7 4E01     		.2byte	0x14e
 769 03c9 5A040000 		.4byte	0x45a
 770 03cd 08       		.byte	0x8
 771 03ce 0B       		.uleb128 0xb
 772 03cf BE020000 		.4byte	.LASF64
 773 03d3 07       		.byte	0x7
 774 03d4 5601     		.2byte	0x156
 775 03d6 4F040000 		.4byte	0x44f
 776 03da 0C       		.byte	0xc
 777 03db 00       		.byte	0
 778 03dc 03       		.uleb128 0x3
 779 03dd E9020000 		.4byte	.LASF65
 780 03e1 06       		.byte	0x6
 781 03e2 60       		.byte	0x60
 782 03e3 E7030000 		.4byte	0x3e7
 783 03e7 0D       		.uleb128 0xd
 784 03e8 630A0000 		.4byte	.LASF66
 785 03ec 04       		.byte	0x4
 786 03ed 07       		.byte	0x7
 787 03ee 7001     		.2byte	0x170
 788 03f0 02040000 		.4byte	0x402
 789 03f4 0B       		.uleb128 0xb
 790 03f5 DF020000 		.4byte	.LASF67
 791 03f9 07       		.byte	0x7
 792 03fa 7801     		.2byte	0x178
 793 03fc 820A0000 		.4byte	0xa82
 794 0400 00       		.byte	0
 795 0401 00       		.byte	0
 796 0402 03       		.uleb128 0x3
 797 0403 4A0B0000 		.4byte	.LASF68
 798 0407 06       		.byte	0x6
ARM GAS  C:\Users\14122\AppData\Local\Temp\ccYwHGHv.s 			page 15


 799 0408 65       		.byte	0x65
 800 0409 0D040000 		.4byte	0x40d
 801 040d 0D       		.uleb128 0xd
 802 040e 080B0000 		.4byte	.LASF69
 803 0412 74       		.byte	0x74
 804 0413 07       		.byte	0x7
 805 0414 9001     		.2byte	0x190
 806 0416 4F040000 		.4byte	0x44f
 807 041a 0B       		.uleb128 0xb
 808 041b 85090000 		.4byte	.LASF70
 809 041f 07       		.byte	0x7
 810 0420 9401     		.2byte	0x194
 811 0422 B0020000 		.4byte	0x2b0
 812 0426 00       		.byte	0
 813 0427 0B       		.uleb128 0xb
 814 0428 B70A0000 		.4byte	.LASF71
 815 042c 07       		.byte	0x7
 816 042d 9801     		.2byte	0x198
 817 042f 8F030000 		.4byte	0x38f
 818 0433 1C       		.byte	0x1c
 819 0434 0A       		.uleb128 0xa
 820 0435 64626700 		.ascii	"dbg\000"
 821 0439 07       		.byte	0x7
 822 043a 9C01     		.2byte	0x19c
 823 043c DC030000 		.4byte	0x3dc
 824 0440 2C       		.byte	0x2c
 825 0441 0B       		.uleb128 0xb
 826 0442 34090000 		.4byte	.LASF72
 827 0446 07       		.byte	0x7
 828 0447 A001     		.2byte	0x1a0
 829 0449 62010000 		.4byte	0x162
 830 044d 30       		.byte	0x30
 831 044e 00       		.byte	0
 832 044f 03       		.uleb128 0x3
 833 0450 39000000 		.4byte	.LASF73
 834 0454 08       		.byte	0x8
 835 0455 6F       		.byte	0x6f
 836 0456 C4000000 		.4byte	0xc4
 837 045a 03       		.uleb128 0x3
 838 045b DF050000 		.4byte	.LASF74
 839 045f 08       		.byte	0x8
 840 0460 79       		.byte	0x79
 841 0461 E4000000 		.4byte	0xe4
 842 0465 11       		.uleb128 0x11
 843 0466 E4000000 		.4byte	0xe4
 844 046a 75040000 		.4byte	0x475
 845 046e 12       		.uleb128 0x12
 846 046f 37000000 		.4byte	0x37
 847 0473 07       		.byte	0x7
 848 0474 00       		.byte	0
 849 0475 13       		.uleb128 0x13
 850 0476 28060000 		.4byte	.LASF75
 851 047a 09       		.byte	0x9
 852 047b 4007     		.2byte	0x740
 853 047d DF000000 		.4byte	0xdf
 854 0481 14       		.uleb128 0x14
 855 0482 63040000 		.4byte	.LASF76
ARM GAS  C:\Users\14122\AppData\Local\Temp\ccYwHGHv.s 			page 16


 856 0486 0A       		.byte	0xa
 857 0487 45       		.byte	0x45
 858 0488 E4000000 		.4byte	0xe4
 859 048c 11       		.uleb128 0x11
 860 048d BF000000 		.4byte	0xbf
 861 0491 9C040000 		.4byte	0x49c
 862 0495 12       		.uleb128 0x12
 863 0496 37000000 		.4byte	0x37
 864 049a 0F       		.byte	0xf
 865 049b 00       		.byte	0
 866 049c 05       		.uleb128 0x5
 867 049d 8C040000 		.4byte	0x48c
 868 04a1 14       		.uleb128 0x14
 869 04a2 4F080000 		.4byte	.LASF77
 870 04a6 0A       		.byte	0xa
 871 04a7 46       		.byte	0x46
 872 04a8 9C040000 		.4byte	0x49c
 873 04ac 11       		.uleb128 0x11
 874 04ad BF000000 		.4byte	0xbf
 875 04b1 BC040000 		.4byte	0x4bc
 876 04b5 12       		.uleb128 0x12
 877 04b6 37000000 		.4byte	0x37
 878 04ba 07       		.byte	0x7
 879 04bb 00       		.byte	0
 880 04bc 05       		.uleb128 0x5
 881 04bd AC040000 		.4byte	0x4ac
 882 04c1 14       		.uleb128 0x14
 883 04c2 C8090000 		.4byte	.LASF78
 884 04c6 0A       		.byte	0xa
 885 04c7 47       		.byte	0x47
 886 04c8 BC040000 		.4byte	0x4bc
 887 04cc 15       		.uleb128 0x15
 888 04cd 10       		.byte	0x10
 889 04ce 0B       		.byte	0xb
 890 04cf DD       		.byte	0xdd
 891 04d0 05050000 		.4byte	0x505
 892 04d4 09       		.uleb128 0x9
 893 04d5 54495200 		.ascii	"TIR\000"
 894 04d9 0B       		.byte	0xb
 895 04da DF       		.byte	0xdf
 896 04db EF000000 		.4byte	0xef
 897 04df 00       		.byte	0
 898 04e0 08       		.uleb128 0x8
 899 04e1 D90B0000 		.4byte	.LASF79
 900 04e5 0B       		.byte	0xb
 901 04e6 E0       		.byte	0xe0
 902 04e7 EF000000 		.4byte	0xef
 903 04eb 04       		.byte	0x4
 904 04ec 08       		.uleb128 0x8
 905 04ed 0C090000 		.4byte	.LASF80
 906 04f1 0B       		.byte	0xb
 907 04f2 E1       		.byte	0xe1
 908 04f3 EF000000 		.4byte	0xef
 909 04f7 08       		.byte	0x8
 910 04f8 08       		.uleb128 0x8
 911 04f9 C1060000 		.4byte	.LASF81
 912 04fd 0B       		.byte	0xb
ARM GAS  C:\Users\14122\AppData\Local\Temp\ccYwHGHv.s 			page 17


 913 04fe E2       		.byte	0xe2
 914 04ff EF000000 		.4byte	0xef
 915 0503 0C       		.byte	0xc
 916 0504 00       		.byte	0
 917 0505 03       		.uleb128 0x3
 918 0506 E2090000 		.4byte	.LASF82
 919 050a 0B       		.byte	0xb
 920 050b E3       		.byte	0xe3
 921 050c CC040000 		.4byte	0x4cc
 922 0510 15       		.uleb128 0x15
 923 0511 10       		.byte	0x10
 924 0512 0B       		.byte	0xb
 925 0513 E9       		.byte	0xe9
 926 0514 49050000 		.4byte	0x549
 927 0518 09       		.uleb128 0x9
 928 0519 52495200 		.ascii	"RIR\000"
 929 051d 0B       		.byte	0xb
 930 051e EB       		.byte	0xeb
 931 051f EF000000 		.4byte	0xef
 932 0523 00       		.byte	0
 933 0524 08       		.uleb128 0x8
 934 0525 AF0B0000 		.4byte	.LASF83
 935 0529 0B       		.byte	0xb
 936 052a EC       		.byte	0xec
 937 052b EF000000 		.4byte	0xef
 938 052f 04       		.byte	0x4
 939 0530 08       		.uleb128 0x8
 940 0531 E4080000 		.4byte	.LASF84
 941 0535 0B       		.byte	0xb
 942 0536 ED       		.byte	0xed
 943 0537 EF000000 		.4byte	0xef
 944 053b 08       		.byte	0x8
 945 053c 08       		.uleb128 0x8
 946 053d B7060000 		.4byte	.LASF85
 947 0541 0B       		.byte	0xb
 948 0542 EE       		.byte	0xee
 949 0543 EF000000 		.4byte	0xef
 950 0547 0C       		.byte	0xc
 951 0548 00       		.byte	0
 952 0549 03       		.uleb128 0x3
 953 054a E9080000 		.4byte	.LASF86
 954 054e 0B       		.byte	0xb
 955 054f EF       		.byte	0xef
 956 0550 10050000 		.4byte	0x510
 957 0554 15       		.uleb128 0x15
 958 0555 08       		.byte	0x8
 959 0556 0B       		.byte	0xb
 960 0557 F5       		.byte	0xf5
 961 0558 75050000 		.4byte	0x575
 962 055c 09       		.uleb128 0x9
 963 055d 46523100 		.ascii	"FR1\000"
 964 0561 0B       		.byte	0xb
 965 0562 F7       		.byte	0xf7
 966 0563 EF000000 		.4byte	0xef
 967 0567 00       		.byte	0
 968 0568 09       		.uleb128 0x9
 969 0569 46523200 		.ascii	"FR2\000"
ARM GAS  C:\Users\14122\AppData\Local\Temp\ccYwHGHv.s 			page 18


 970 056d 0B       		.byte	0xb
 971 056e F8       		.byte	0xf8
 972 056f EF000000 		.4byte	0xef
 973 0573 04       		.byte	0x4
 974 0574 00       		.byte	0
 975 0575 03       		.uleb128 0x3
 976 0576 43020000 		.4byte	.LASF87
 977 057a 0B       		.byte	0xb
 978 057b F9       		.byte	0xf9
 979 057c 54050000 		.4byte	0x554
 980 0580 16       		.uleb128 0x16
 981 0581 B002     		.2byte	0x2b0
 982 0583 0B       		.byte	0xb
 983 0584 FF       		.byte	0xff
 984 0585 B5060000 		.4byte	0x6b5
 985 0589 0A       		.uleb128 0xa
 986 058a 4D435200 		.ascii	"MCR\000"
 987 058e 0B       		.byte	0xb
 988 058f 0101     		.2byte	0x101
 989 0591 EF000000 		.4byte	0xef
 990 0595 00       		.byte	0
 991 0596 0A       		.uleb128 0xa
 992 0597 4D535200 		.ascii	"MSR\000"
 993 059b 0B       		.byte	0xb
 994 059c 0201     		.2byte	0x102
 995 059e EF000000 		.4byte	0xef
 996 05a2 04       		.byte	0x4
 997 05a3 0A       		.uleb128 0xa
 998 05a4 54535200 		.ascii	"TSR\000"
 999 05a8 0B       		.byte	0xb
 1000 05a9 0301     		.2byte	0x103
 1001 05ab EF000000 		.4byte	0xef
 1002 05af 08       		.byte	0x8
 1003 05b0 0B       		.uleb128 0xb
 1004 05b1 0D020000 		.4byte	.LASF88
 1005 05b5 0B       		.byte	0xb
 1006 05b6 0401     		.2byte	0x104
 1007 05b8 EF000000 		.4byte	0xef
 1008 05bc 0C       		.byte	0xc
 1009 05bd 0B       		.uleb128 0xb
 1010 05be DA020000 		.4byte	.LASF89
 1011 05c2 0B       		.byte	0xb
 1012 05c3 0501     		.2byte	0x105
 1013 05c5 EF000000 		.4byte	0xef
 1014 05c9 10       		.byte	0x10
 1015 05ca 0A       		.uleb128 0xa
 1016 05cb 49455200 		.ascii	"IER\000"
 1017 05cf 0B       		.byte	0xb
 1018 05d0 0601     		.2byte	0x106
 1019 05d2 EF000000 		.4byte	0xef
 1020 05d6 14       		.byte	0x14
 1021 05d7 0A       		.uleb128 0xa
 1022 05d8 45535200 		.ascii	"ESR\000"
 1023 05dc 0B       		.byte	0xb
 1024 05dd 0701     		.2byte	0x107
 1025 05df EF000000 		.4byte	0xef
 1026 05e3 18       		.byte	0x18
ARM GAS  C:\Users\14122\AppData\Local\Temp\ccYwHGHv.s 			page 19


 1027 05e4 0A       		.uleb128 0xa
 1028 05e5 42545200 		.ascii	"BTR\000"
 1029 05e9 0B       		.byte	0xb
 1030 05ea 0801     		.2byte	0x108
 1031 05ec EF000000 		.4byte	0xef
 1032 05f0 1C       		.byte	0x1c
 1033 05f1 0B       		.uleb128 0xb
 1034 05f2 7E020000 		.4byte	.LASF90
 1035 05f6 0B       		.byte	0xb
 1036 05f7 0901     		.2byte	0x109
 1037 05f9 B5060000 		.4byte	0x6b5
 1038 05fd 20       		.byte	0x20
 1039 05fe 17       		.uleb128 0x17
 1040 05ff 600B0000 		.4byte	.LASF91
 1041 0603 0B       		.byte	0xb
 1042 0604 0A01     		.2byte	0x10a
 1043 0606 C5060000 		.4byte	0x6c5
 1044 060a 8001     		.2byte	0x180
 1045 060c 17       		.uleb128 0x17
 1046 060d 5E020000 		.4byte	.LASF92
 1047 0611 0B       		.byte	0xb
 1048 0612 0B01     		.2byte	0x10b
 1049 0614 D5060000 		.4byte	0x6d5
 1050 0618 B001     		.2byte	0x1b0
 1051 061a 17       		.uleb128 0x17
 1052 061b 88020000 		.4byte	.LASF93
 1053 061f 0B       		.byte	0xb
 1054 0620 0C01     		.2byte	0x10c
 1055 0622 E5060000 		.4byte	0x6e5
 1056 0626 D001     		.2byte	0x1d0
 1057 0628 18       		.uleb128 0x18
 1058 0629 464D5200 		.ascii	"FMR\000"
 1059 062d 0B       		.byte	0xb
 1060 062e 0D01     		.2byte	0x10d
 1061 0630 EF000000 		.4byte	0xef
 1062 0634 0002     		.2byte	0x200
 1063 0636 17       		.uleb128 0x17
 1064 0637 B2060000 		.4byte	.LASF94
 1065 063b 0B       		.byte	0xb
 1066 063c 0E01     		.2byte	0x10e
 1067 063e EF000000 		.4byte	0xef
 1068 0642 0402     		.2byte	0x204
 1069 0644 17       		.uleb128 0x17
 1070 0645 0B030000 		.4byte	.LASF95
 1071 0649 0B       		.byte	0xb
 1072 064a 0F01     		.2byte	0x10f
 1073 064c E4000000 		.4byte	0xe4
 1074 0650 0802     		.2byte	0x208
 1075 0652 17       		.uleb128 0x17
 1076 0653 B0090000 		.4byte	.LASF96
 1077 0657 0B       		.byte	0xb
 1078 0658 1001     		.2byte	0x110
 1079 065a EF000000 		.4byte	0xef
 1080 065e 0C02     		.2byte	0x20c
 1081 0660 17       		.uleb128 0x17
 1082 0661 A0020000 		.4byte	.LASF97
 1083 0665 0B       		.byte	0xb
ARM GAS  C:\Users\14122\AppData\Local\Temp\ccYwHGHv.s 			page 20


 1084 0666 1101     		.2byte	0x111
 1085 0668 E4000000 		.4byte	0xe4
 1086 066c 1002     		.2byte	0x210
 1087 066e 17       		.uleb128 0x17
 1088 066f 400A0000 		.4byte	.LASF98
 1089 0673 0B       		.byte	0xb
 1090 0674 1201     		.2byte	0x112
 1091 0676 EF000000 		.4byte	0xef
 1092 067a 1402     		.2byte	0x214
 1093 067c 17       		.uleb128 0x17
 1094 067d AA020000 		.4byte	.LASF99
 1095 0681 0B       		.byte	0xb
 1096 0682 1301     		.2byte	0x113
 1097 0684 E4000000 		.4byte	0xe4
 1098 0688 1802     		.2byte	0x218
 1099 068a 17       		.uleb128 0x17
 1100 068b 8D010000 		.4byte	.LASF100
 1101 068f 0B       		.byte	0xb
 1102 0690 1401     		.2byte	0x114
 1103 0692 EF000000 		.4byte	0xef
 1104 0696 1C02     		.2byte	0x21c
 1105 0698 17       		.uleb128 0x17
 1106 0699 B4020000 		.4byte	.LASF101
 1107 069d 0B       		.byte	0xb
 1108 069e 1501     		.2byte	0x115
 1109 06a0 65040000 		.4byte	0x465
 1110 06a4 2002     		.2byte	0x220
 1111 06a6 17       		.uleb128 0x17
 1112 06a7 BB070000 		.4byte	.LASF102
 1113 06ab 0B       		.byte	0xb
 1114 06ac 1601     		.2byte	0x116
 1115 06ae F5060000 		.4byte	0x6f5
 1116 06b2 4002     		.2byte	0x240
 1117 06b4 00       		.byte	0
 1118 06b5 11       		.uleb128 0x11
 1119 06b6 E4000000 		.4byte	0xe4
 1120 06ba C5060000 		.4byte	0x6c5
 1121 06be 12       		.uleb128 0x12
 1122 06bf 37000000 		.4byte	0x37
 1123 06c3 57       		.byte	0x57
 1124 06c4 00       		.byte	0
 1125 06c5 11       		.uleb128 0x11
 1126 06c6 05050000 		.4byte	0x505
 1127 06ca D5060000 		.4byte	0x6d5
 1128 06ce 12       		.uleb128 0x12
 1129 06cf 37000000 		.4byte	0x37
 1130 06d3 02       		.byte	0x2
 1131 06d4 00       		.byte	0
 1132 06d5 11       		.uleb128 0x11
 1133 06d6 49050000 		.4byte	0x549
 1134 06da E5060000 		.4byte	0x6e5
 1135 06de 12       		.uleb128 0x12
 1136 06df 37000000 		.4byte	0x37
 1137 06e3 01       		.byte	0x1
 1138 06e4 00       		.byte	0
 1139 06e5 11       		.uleb128 0x11
 1140 06e6 E4000000 		.4byte	0xe4
ARM GAS  C:\Users\14122\AppData\Local\Temp\ccYwHGHv.s 			page 21


 1141 06ea F5060000 		.4byte	0x6f5
 1142 06ee 12       		.uleb128 0x12
 1143 06ef 37000000 		.4byte	0x37
 1144 06f3 0B       		.byte	0xb
 1145 06f4 00       		.byte	0
 1146 06f5 11       		.uleb128 0x11
 1147 06f6 75050000 		.4byte	0x575
 1148 06fa 05070000 		.4byte	0x705
 1149 06fe 12       		.uleb128 0x12
 1150 06ff 37000000 		.4byte	0x37
 1151 0703 0D       		.byte	0xd
 1152 0704 00       		.byte	0
 1153 0705 19       		.uleb128 0x19
 1154 0706 DA060000 		.4byte	.LASF103
 1155 070a 0B       		.byte	0xb
 1156 070b 1701     		.2byte	0x117
 1157 070d 80050000 		.4byte	0x580
 1158 0711 1A       		.uleb128 0x1a
 1159 0712 10       		.byte	0x10
 1160 0713 0B       		.byte	0xb
 1161 0714 3501     		.2byte	0x135
 1162 0716 4F070000 		.4byte	0x74f
 1163 071a 0A       		.uleb128 0xa
 1164 071b 43435200 		.ascii	"CCR\000"
 1165 071f 0B       		.byte	0xb
 1166 0720 3701     		.2byte	0x137
 1167 0722 EF000000 		.4byte	0xef
 1168 0726 00       		.byte	0
 1169 0727 0B       		.uleb128 0xb
 1170 0728 EF000000 		.4byte	.LASF104
 1171 072c 0B       		.byte	0xb
 1172 072d 3801     		.2byte	0x138
 1173 072f EF000000 		.4byte	0xef
 1174 0733 04       		.byte	0x4
 1175 0734 0B       		.uleb128 0xb
 1176 0735 EF010000 		.4byte	.LASF105
 1177 0739 0B       		.byte	0xb
 1178 073a 3901     		.2byte	0x139
 1179 073c EF000000 		.4byte	0xef
 1180 0740 08       		.byte	0x8
 1181 0741 0B       		.uleb128 0xb
 1182 0742 BC060000 		.4byte	.LASF106
 1183 0746 0B       		.byte	0xb
 1184 0747 3A01     		.2byte	0x13a
 1185 0749 EF000000 		.4byte	0xef
 1186 074d 0C       		.byte	0xc
 1187 074e 00       		.byte	0
 1188 074f 19       		.uleb128 0x19
 1189 0750 3B080000 		.4byte	.LASF107
 1190 0754 0B       		.byte	0xb
 1191 0755 3B01     		.2byte	0x13b
 1192 0757 11070000 		.4byte	0x711
 1193 075b 1A       		.uleb128 0x1a
 1194 075c 08       		.byte	0x8
 1195 075d 0B       		.byte	0xb
 1196 075e 3D01     		.2byte	0x13d
 1197 0760 7F070000 		.4byte	0x77f
ARM GAS  C:\Users\14122\AppData\Local\Temp\ccYwHGHv.s 			page 22


 1198 0764 0A       		.uleb128 0xa
 1199 0765 49535200 		.ascii	"ISR\000"
 1200 0769 0B       		.byte	0xb
 1201 076a 3F01     		.2byte	0x13f
 1202 076c EF000000 		.4byte	0xef
 1203 0770 00       		.byte	0
 1204 0771 0B       		.uleb128 0xb
 1205 0772 25030000 		.4byte	.LASF108
 1206 0776 0B       		.byte	0xb
 1207 0777 4001     		.2byte	0x140
 1208 0779 EF000000 		.4byte	0xef
 1209 077d 04       		.byte	0x4
 1210 077e 00       		.byte	0
 1211 077f 19       		.uleb128 0x19
 1212 0780 CE020000 		.4byte	.LASF109
 1213 0784 0B       		.byte	0xb
 1214 0785 4101     		.2byte	0x141
 1215 0787 5B070000 		.4byte	0x75b
 1216 078b 1A       		.uleb128 0x1a
 1217 078c 1C       		.byte	0x1c
 1218 078d 0B       		.byte	0xb
 1219 078e 7801     		.2byte	0x178
 1220 0790 F0070000 		.4byte	0x7f0
 1221 0794 0A       		.uleb128 0xa
 1222 0795 43524C00 		.ascii	"CRL\000"
 1223 0799 0B       		.byte	0xb
 1224 079a 7A01     		.2byte	0x17a
 1225 079c EF000000 		.4byte	0xef
 1226 07a0 00       		.byte	0
 1227 07a1 0A       		.uleb128 0xa
 1228 07a2 43524800 		.ascii	"CRH\000"
 1229 07a6 0B       		.byte	0xb
 1230 07a7 7B01     		.2byte	0x17b
 1231 07a9 EF000000 		.4byte	0xef
 1232 07ad 04       		.byte	0x4
 1233 07ae 0A       		.uleb128 0xa
 1234 07af 49445200 		.ascii	"IDR\000"
 1235 07b3 0B       		.byte	0xb
 1236 07b4 7C01     		.2byte	0x17c
 1237 07b6 EF000000 		.4byte	0xef
 1238 07ba 08       		.byte	0x8
 1239 07bb 0A       		.uleb128 0xa
 1240 07bc 4F445200 		.ascii	"ODR\000"
 1241 07c0 0B       		.byte	0xb
 1242 07c1 7D01     		.2byte	0x17d
 1243 07c3 EF000000 		.4byte	0xef
 1244 07c7 0C       		.byte	0xc
 1245 07c8 0B       		.uleb128 0xb
 1246 07c9 850A0000 		.4byte	.LASF110
 1247 07cd 0B       		.byte	0xb
 1248 07ce 7E01     		.2byte	0x17e
 1249 07d0 EF000000 		.4byte	0xef
 1250 07d4 10       		.byte	0x10
 1251 07d5 0A       		.uleb128 0xa
 1252 07d6 42525200 		.ascii	"BRR\000"
 1253 07da 0B       		.byte	0xb
 1254 07db 7F01     		.2byte	0x17f
ARM GAS  C:\Users\14122\AppData\Local\Temp\ccYwHGHv.s 			page 23


 1255 07dd EF000000 		.4byte	0xef
 1256 07e1 14       		.byte	0x14
 1257 07e2 0B       		.uleb128 0xb
 1258 07e3 43050000 		.4byte	.LASF111
 1259 07e7 0B       		.byte	0xb
 1260 07e8 8001     		.2byte	0x180
 1261 07ea EF000000 		.4byte	0xef
 1262 07ee 18       		.byte	0x18
 1263 07ef 00       		.byte	0
 1264 07f0 19       		.uleb128 0x19
 1265 07f1 AA0A0000 		.4byte	.LASF112
 1266 07f5 0B       		.byte	0xb
 1267 07f6 8101     		.2byte	0x181
 1268 07f8 8B070000 		.4byte	0x78b
 1269 07fc 1A       		.uleb128 0x1a
 1270 07fd 28       		.byte	0x28
 1271 07fe 0B       		.byte	0xb
 1272 07ff BA01     		.2byte	0x1ba
 1273 0801 87080000 		.4byte	0x887
 1274 0805 0A       		.uleb128 0xa
 1275 0806 435200   		.ascii	"CR\000"
 1276 0809 0B       		.byte	0xb
 1277 080a BC01     		.2byte	0x1bc
 1278 080c EF000000 		.4byte	0xef
 1279 0810 00       		.byte	0
 1280 0811 0B       		.uleb128 0xb
 1281 0812 12040000 		.4byte	.LASF113
 1282 0816 0B       		.byte	0xb
 1283 0817 BD01     		.2byte	0x1bd
 1284 0819 EF000000 		.4byte	0xef
 1285 081d 04       		.byte	0x4
 1286 081e 0A       		.uleb128 0xa
 1287 081f 43495200 		.ascii	"CIR\000"
 1288 0823 0B       		.byte	0xb
 1289 0824 BE01     		.2byte	0x1be
 1290 0826 EF000000 		.4byte	0xef
 1291 082a 08       		.byte	0x8
 1292 082b 0B       		.uleb128 0xb
 1293 082c 05060000 		.4byte	.LASF114
 1294 0830 0B       		.byte	0xb
 1295 0831 BF01     		.2byte	0x1bf
 1296 0833 EF000000 		.4byte	0xef
 1297 0837 0C       		.byte	0xc
 1298 0838 0B       		.uleb128 0xb
 1299 0839 B40B0000 		.4byte	.LASF115
 1300 083d 0B       		.byte	0xb
 1301 083e C001     		.2byte	0x1c0
 1302 0840 EF000000 		.4byte	0xef
 1303 0844 10       		.byte	0x10
 1304 0845 0B       		.uleb128 0xb
 1305 0846 7E0A0000 		.4byte	.LASF116
 1306 084a 0B       		.byte	0xb
 1307 084b C101     		.2byte	0x1c1
 1308 084d EF000000 		.4byte	0xef
 1309 0851 14       		.byte	0x14
 1310 0852 0B       		.uleb128 0xb
 1311 0853 D0010000 		.4byte	.LASF117
ARM GAS  C:\Users\14122\AppData\Local\Temp\ccYwHGHv.s 			page 24


 1312 0857 0B       		.byte	0xb
 1313 0858 C201     		.2byte	0x1c2
 1314 085a EF000000 		.4byte	0xef
 1315 085e 18       		.byte	0x18
 1316 085f 0B       		.uleb128 0xb
 1317 0860 6E080000 		.4byte	.LASF118
 1318 0864 0B       		.byte	0xb
 1319 0865 C301     		.2byte	0x1c3
 1320 0867 EF000000 		.4byte	0xef
 1321 086b 1C       		.byte	0x1c
 1322 086c 0B       		.uleb128 0xb
 1323 086d B9030000 		.4byte	.LASF119
 1324 0871 0B       		.byte	0xb
 1325 0872 C401     		.2byte	0x1c4
 1326 0874 EF000000 		.4byte	0xef
 1327 0878 20       		.byte	0x20
 1328 0879 0A       		.uleb128 0xa
 1329 087a 43535200 		.ascii	"CSR\000"
 1330 087e 0B       		.byte	0xb
 1331 087f C501     		.2byte	0x1c5
 1332 0881 EF000000 		.4byte	0xef
 1333 0885 24       		.byte	0x24
 1334 0886 00       		.byte	0
 1335 0887 19       		.uleb128 0x19
 1336 0888 D6090000 		.4byte	.LASF120
 1337 088c 0B       		.byte	0xb
 1338 088d C801     		.2byte	0x1c8
 1339 088f FC070000 		.4byte	0x7fc
 1340 0893 1A       		.uleb128 0x1a
 1341 0894 1C       		.byte	0x1c
 1342 0895 0B       		.byte	0xb
 1343 0896 2902     		.2byte	0x229
 1344 0898 F6080000 		.4byte	0x8f6
 1345 089c 0A       		.uleb128 0xa
 1346 089d 535200   		.ascii	"SR\000"
 1347 08a0 0B       		.byte	0xb
 1348 08a1 2B02     		.2byte	0x22b
 1349 08a3 EF000000 		.4byte	0xef
 1350 08a7 00       		.byte	0
 1351 08a8 0A       		.uleb128 0xa
 1352 08a9 445200   		.ascii	"DR\000"
 1353 08ac 0B       		.byte	0xb
 1354 08ad 2C02     		.2byte	0x22c
 1355 08af EF000000 		.4byte	0xef
 1356 08b3 04       		.byte	0x4
 1357 08b4 0A       		.uleb128 0xa
 1358 08b5 42525200 		.ascii	"BRR\000"
 1359 08b9 0B       		.byte	0xb
 1360 08ba 2D02     		.2byte	0x22d
 1361 08bc EF000000 		.4byte	0xef
 1362 08c0 08       		.byte	0x8
 1363 08c1 0A       		.uleb128 0xa
 1364 08c2 43523100 		.ascii	"CR1\000"
 1365 08c6 0B       		.byte	0xb
 1366 08c7 2E02     		.2byte	0x22e
 1367 08c9 EF000000 		.4byte	0xef
 1368 08cd 0C       		.byte	0xc
ARM GAS  C:\Users\14122\AppData\Local\Temp\ccYwHGHv.s 			page 25


 1369 08ce 0A       		.uleb128 0xa
 1370 08cf 43523200 		.ascii	"CR2\000"
 1371 08d3 0B       		.byte	0xb
 1372 08d4 2F02     		.2byte	0x22f
 1373 08d6 EF000000 		.4byte	0xef
 1374 08da 10       		.byte	0x10
 1375 08db 0A       		.uleb128 0xa
 1376 08dc 43523300 		.ascii	"CR3\000"
 1377 08e0 0B       		.byte	0xb
 1378 08e1 3002     		.2byte	0x230
 1379 08e3 EF000000 		.4byte	0xef
 1380 08e7 14       		.byte	0x14
 1381 08e8 0B       		.uleb128 0xb
 1382 08e9 00060000 		.4byte	.LASF121
 1383 08ed 0B       		.byte	0xb
 1384 08ee 3102     		.2byte	0x231
 1385 08f0 EF000000 		.4byte	0xef
 1386 08f4 18       		.byte	0x18
 1387 08f5 00       		.byte	0
 1388 08f6 19       		.uleb128 0x19
 1389 08f7 6A030000 		.4byte	.LASF122
 1390 08fb 0B       		.byte	0xb
 1391 08fc 3202     		.2byte	0x232
 1392 08fe 93080000 		.4byte	0x893
 1393 0902 03       		.uleb128 0x3
 1394 0903 BF010000 		.4byte	.LASF123
 1395 0907 0C       		.byte	0xc
 1396 0908 65       		.byte	0x65
 1397 0909 33030000 		.4byte	0x333
 1398 090d 03       		.uleb128 0x3
 1399 090e 5F030000 		.4byte	.LASF124
 1400 0912 0C       		.byte	0xc
 1401 0913 6D       		.byte	0x6d
 1402 0914 F4000000 		.4byte	0xf4
 1403 0918 07       		.uleb128 0x7
 1404 0919 D60A0000 		.4byte	.LASF125
 1405 091d 04       		.byte	0x4
 1406 091e 0C       		.byte	0xc
 1407 091f 89       		.byte	0x89
 1408 0920 30090000 		.4byte	0x930
 1409 0924 09       		.uleb128 0x9
 1410 0925 737000   		.ascii	"sp\000"
 1411 0928 0C       		.byte	0xc
 1412 0929 8A       		.byte	0x8a
 1413 092a AC090000 		.4byte	0x9ac
 1414 092e 00       		.byte	0
 1415 092f 00       		.byte	0
 1416 0930 0D       		.uleb128 0xd
 1417 0931 0E080000 		.4byte	.LASF126
 1418 0935 24       		.byte	0x24
 1419 0936 0D       		.byte	0xd
 1420 0937 5901     		.2byte	0x159
 1421 0939 AC090000 		.4byte	0x9ac
 1422 093d 0A       		.uleb128 0xa
 1423 093e 723400   		.ascii	"r4\000"
 1424 0941 0D       		.byte	0xd
 1425 0942 6C01     		.2byte	0x16c
ARM GAS  C:\Users\14122\AppData\Local\Temp\ccYwHGHv.s 			page 26


 1426 0944 02090000 		.4byte	0x902
 1427 0948 00       		.byte	0
 1428 0949 0A       		.uleb128 0xa
 1429 094a 723500   		.ascii	"r5\000"
 1430 094d 0D       		.byte	0xd
 1431 094e 6D01     		.2byte	0x16d
 1432 0950 02090000 		.4byte	0x902
 1433 0954 04       		.byte	0x4
 1434 0955 0A       		.uleb128 0xa
 1435 0956 723600   		.ascii	"r6\000"
 1436 0959 0D       		.byte	0xd
 1437 095a 6E01     		.2byte	0x16e
 1438 095c 02090000 		.4byte	0x902
 1439 0960 08       		.byte	0x8
 1440 0961 0A       		.uleb128 0xa
 1441 0962 723700   		.ascii	"r7\000"
 1442 0965 0D       		.byte	0xd
 1443 0966 6F01     		.2byte	0x16f
 1444 0968 02090000 		.4byte	0x902
 1445 096c 0C       		.byte	0xc
 1446 096d 0A       		.uleb128 0xa
 1447 096e 723800   		.ascii	"r8\000"
 1448 0971 0D       		.byte	0xd
 1449 0972 7001     		.2byte	0x170
 1450 0974 02090000 		.4byte	0x902
 1451 0978 10       		.byte	0x10
 1452 0979 0A       		.uleb128 0xa
 1453 097a 723900   		.ascii	"r9\000"
 1454 097d 0D       		.byte	0xd
 1455 097e 7101     		.2byte	0x171
 1456 0980 02090000 		.4byte	0x902
 1457 0984 14       		.byte	0x14
 1458 0985 0A       		.uleb128 0xa
 1459 0986 72313000 		.ascii	"r10\000"
 1460 098a 0D       		.byte	0xd
 1461 098b 7201     		.2byte	0x172
 1462 098d 02090000 		.4byte	0x902
 1463 0991 18       		.byte	0x18
 1464 0992 0A       		.uleb128 0xa
 1465 0993 72313100 		.ascii	"r11\000"
 1466 0997 0D       		.byte	0xd
 1467 0998 7301     		.2byte	0x173
 1468 099a 02090000 		.4byte	0x902
 1469 099e 1C       		.byte	0x1c
 1470 099f 0A       		.uleb128 0xa
 1471 09a0 6C7200   		.ascii	"lr\000"
 1472 09a3 0D       		.byte	0xd
 1473 09a4 7401     		.2byte	0x174
 1474 09a6 02090000 		.4byte	0x902
 1475 09aa 20       		.byte	0x20
 1476 09ab 00       		.byte	0
 1477 09ac 0C       		.uleb128 0xc
 1478 09ad 04       		.byte	0x4
 1479 09ae 30090000 		.4byte	0x930
 1480 09b2 1B       		.uleb128 0x1b
 1481 09b3 04       		.byte	0x4
 1482 09b4 07       		.byte	0x7
ARM GAS  C:\Users\14122\AppData\Local\Temp\ccYwHGHv.s 			page 27


 1483 09b5 C6       		.byte	0xc6
 1484 09b6 140A0000 		.4byte	0xa14
 1485 09ba 1C       		.uleb128 0x1c
 1486 09bb 300B0000 		.4byte	.LASF127
 1487 09bf 07       		.byte	0x7
 1488 09c0 CD       		.byte	0xcd
 1489 09c1 2B010000 		.4byte	0x12b
 1490 09c5 1C       		.uleb128 0x1c
 1491 09c6 48010000 		.4byte	.LASF128
 1492 09ca 07       		.byte	0x7
 1493 09cb D4       		.byte	0xd4
 1494 09cc 2B010000 		.4byte	0x12b
 1495 09d0 1C       		.uleb128 0x1c
 1496 09d1 3E030000 		.4byte	.LASF129
 1497 09d5 07       		.byte	0x7
 1498 09d6 DB       		.byte	0xdb
 1499 09d7 33030000 		.4byte	0x333
 1500 09db 1C       		.uleb128 0x1c
 1501 09dc 78020000 		.4byte	.LASF130
 1502 09e0 07       		.byte	0x7
 1503 09e1 E2       		.byte	0xe2
 1504 09e2 140A0000 		.4byte	0xa14
 1505 09e6 1C       		.uleb128 0x1c
 1506 09e7 06080000 		.4byte	.LASF131
 1507 09eb 07       		.byte	0x7
 1508 09ec E7       		.byte	0xe7
 1509 09ed 2B010000 		.4byte	0x12b
 1510 09f1 1C       		.uleb128 0x1c
 1511 09f2 32000000 		.4byte	.LASF132
 1512 09f6 07       		.byte	0x7
 1513 09f7 F0       		.byte	0xf0
 1514 09f8 3F0A0000 		.4byte	0xa3f
 1515 09fc 1C       		.uleb128 0x1c
 1516 09fd F4030000 		.4byte	.LASF133
 1517 0a01 07       		.byte	0x7
 1518 0a02 F9       		.byte	0xf9
 1519 0a03 760A0000 		.4byte	0xa76
 1520 0a07 1D       		.uleb128 0x1d
 1521 0a08 28020000 		.4byte	.LASF134
 1522 0a0c 07       		.byte	0x7
 1523 0a0d 0101     		.2byte	0x101
 1524 0a0f 36010000 		.4byte	0x136
 1525 0a13 00       		.byte	0
 1526 0a14 0C       		.uleb128 0xc
 1527 0a15 04       		.byte	0x4
 1528 0a16 4B020000 		.4byte	0x24b
 1529 0a1a 07       		.uleb128 0x7
 1530 0a1b 73040000 		.4byte	.LASF135
 1531 0a1f 0C       		.byte	0xc
 1532 0a20 0E       		.byte	0xe
 1533 0a21 34       		.byte	0x34
 1534 0a22 3F0A0000 		.4byte	0xa3f
 1535 0a26 08       		.uleb128 0x8
 1536 0a27 06090000 		.4byte	.LASF31
 1537 0a2b 0E       		.byte	0xe
 1538 0a2c 35       		.byte	0x35
 1539 0a2d 80020000 		.4byte	0x280
ARM GAS  C:\Users\14122\AppData\Local\Temp\ccYwHGHv.s 			page 28


 1540 0a31 00       		.byte	0
 1541 0a32 09       		.uleb128 0x9
 1542 0a33 636E7400 		.ascii	"cnt\000"
 1543 0a37 0E       		.byte	0xe
 1544 0a38 37       		.byte	0x37
 1545 0a39 4C010000 		.4byte	0x14c
 1546 0a3d 08       		.byte	0x8
 1547 0a3e 00       		.byte	0
 1548 0a3f 0C       		.uleb128 0xc
 1549 0a40 04       		.byte	0x4
 1550 0a41 1A0A0000 		.4byte	0xa1a
 1551 0a45 07       		.uleb128 0x7
 1552 0a46 370A0000 		.4byte	.LASF136
 1553 0a4a 10       		.byte	0x10
 1554 0a4b 0F       		.byte	0xf
 1555 0a4c 39       		.byte	0x39
 1556 0a4d 760A0000 		.4byte	0xa76
 1557 0a51 08       		.uleb128 0x8
 1558 0a52 06090000 		.4byte	.LASF31
 1559 0a56 0F       		.byte	0xf
 1560 0a57 3A       		.byte	0x3a
 1561 0a58 80020000 		.4byte	0x280
 1562 0a5c 00       		.byte	0
 1563 0a5d 08       		.uleb128 0x8
 1564 0a5e 4F000000 		.4byte	.LASF137
 1565 0a62 0F       		.byte	0xf
 1566 0a63 3C       		.byte	0x3c
 1567 0a64 56020000 		.4byte	0x256
 1568 0a68 08       		.byte	0x8
 1569 0a69 08       		.uleb128 0x8
 1570 0a6a AA0B0000 		.4byte	.LASF50
 1571 0a6e 0F       		.byte	0xf
 1572 0a6f 3E       		.byte	0x3e
 1573 0a70 D80B0000 		.4byte	0xbd8
 1574 0a74 0C       		.byte	0xc
 1575 0a75 00       		.byte	0
 1576 0a76 0C       		.uleb128 0xc
 1577 0a77 04       		.byte	0x4
 1578 0a78 450A0000 		.4byte	0xa45
 1579 0a7c 0C       		.uleb128 0xc
 1580 0a7d 04       		.byte	0x4
 1581 0a7e 8E0A0000 		.4byte	0xa8e
 1582 0a82 06       		.uleb128 0x6
 1583 0a83 7C0A0000 		.4byte	0xa7c
 1584 0a87 04       		.uleb128 0x4
 1585 0a88 01       		.byte	0x1
 1586 0a89 08       		.byte	0x8
 1587 0a8a 20030000 		.4byte	.LASF138
 1588 0a8e 05       		.uleb128 0x5
 1589 0a8f 870A0000 		.4byte	0xa87
 1590 0a93 0C       		.uleb128 0xc
 1591 0a94 04       		.byte	0x4
 1592 0a95 0D090000 		.4byte	0x90d
 1593 0a99 0C       		.uleb128 0xc
 1594 0a9a 04       		.byte	0x4
 1595 0a9b 35030000 		.4byte	0x335
 1596 0a9f 1E       		.uleb128 0x1e
ARM GAS  C:\Users\14122\AppData\Local\Temp\ccYwHGHv.s 			page 29


 1597 0aa0 636800   		.ascii	"ch\000"
 1598 0aa3 07       		.byte	0x7
 1599 0aa4 C701     		.2byte	0x1c7
 1600 0aa6 02040000 		.4byte	0x402
 1601 0aaa 11       		.uleb128 0x11
 1602 0aab 0D090000 		.4byte	0x90d
 1603 0aaf B50A0000 		.4byte	0xab5
 1604 0ab3 1F       		.uleb128 0x1f
 1605 0ab4 00       		.byte	0
 1606 0ab5 13       		.uleb128 0x13
 1607 0ab6 AE040000 		.4byte	.LASF139
 1608 0aba 10       		.byte	0x10
 1609 0abb 1701     		.2byte	0x117
 1610 0abd AA0A0000 		.4byte	0xaaa
 1611 0ac1 15       		.uleb128 0x15
 1612 0ac2 16       		.byte	0x16
 1613 0ac3 11       		.byte	0x11
 1614 0ac4 34       		.byte	0x34
 1615 0ac5 A20B0000 		.4byte	0xba2
 1616 0ac9 08       		.uleb128 0x8
 1617 0aca CE0B0000 		.4byte	.LASF140
 1618 0ace 11       		.byte	0x11
 1619 0acf 35       		.byte	0x35
 1620 0ad0 A20B0000 		.4byte	0xba2
 1621 0ad4 00       		.byte	0
 1622 0ad5 08       		.uleb128 0x8
 1623 0ad6 88010000 		.4byte	.LASF141
 1624 0ada 11       		.byte	0x11
 1625 0adb 36       		.byte	0x36
 1626 0adc B4000000 		.4byte	0xb4
 1627 0ae0 04       		.byte	0x4
 1628 0ae1 08       		.uleb128 0x8
 1629 0ae2 76080000 		.4byte	.LASF142
 1630 0ae6 11       		.byte	0x11
 1631 0ae7 37       		.byte	0x37
 1632 0ae8 B4000000 		.4byte	0xb4
 1633 0aec 05       		.byte	0x5
 1634 0aed 08       		.uleb128 0x8
 1635 0aee 3F090000 		.4byte	.LASF143
 1636 0af2 11       		.byte	0x11
 1637 0af3 38       		.byte	0x38
 1638 0af4 C4000000 		.4byte	0xc4
 1639 0af8 06       		.byte	0x6
 1640 0af9 08       		.uleb128 0x8
 1641 0afa 8F030000 		.4byte	.LASF144
 1642 0afe 11       		.byte	0x11
 1643 0aff 39       		.byte	0x39
 1644 0b00 B4000000 		.4byte	0xb4
 1645 0b04 08       		.byte	0x8
 1646 0b05 08       		.uleb128 0x8
 1647 0b06 6B0B0000 		.4byte	.LASF145
 1648 0b0a 11       		.byte	0x11
 1649 0b0b 3A       		.byte	0x3a
 1650 0b0c B4000000 		.4byte	0xb4
 1651 0b10 09       		.byte	0x9
 1652 0b11 08       		.uleb128 0x8
 1653 0b12 4D040000 		.4byte	.LASF146
ARM GAS  C:\Users\14122\AppData\Local\Temp\ccYwHGHv.s 			page 30


 1654 0b16 11       		.byte	0x11
 1655 0b17 3B       		.byte	0x3b
 1656 0b18 B4000000 		.4byte	0xb4
 1657 0b1c 0A       		.byte	0xa
 1658 0b1d 08       		.uleb128 0x8
 1659 0b1e 22000000 		.4byte	.LASF147
 1660 0b22 11       		.byte	0x11
 1661 0b23 3C       		.byte	0x3c
 1662 0b24 B4000000 		.4byte	0xb4
 1663 0b28 0B       		.byte	0xb
 1664 0b29 08       		.uleb128 0x8
 1665 0b2a 00000000 		.4byte	.LASF148
 1666 0b2e 11       		.byte	0x11
 1667 0b2f 3D       		.byte	0x3d
 1668 0b30 B4000000 		.4byte	0xb4
 1669 0b34 0C       		.byte	0xc
 1670 0b35 08       		.uleb128 0x8
 1671 0b36 6B060000 		.4byte	.LASF149
 1672 0b3a 11       		.byte	0x11
 1673 0b3b 3E       		.byte	0x3e
 1674 0b3c B4000000 		.4byte	0xb4
 1675 0b40 0D       		.byte	0xd
 1676 0b41 08       		.uleb128 0x8
 1677 0b42 07010000 		.4byte	.LASF150
 1678 0b46 11       		.byte	0x11
 1679 0b47 3F       		.byte	0x3f
 1680 0b48 B4000000 		.4byte	0xb4
 1681 0b4c 0E       		.byte	0xe
 1682 0b4d 08       		.uleb128 0x8
 1683 0b4e B1080000 		.4byte	.LASF151
 1684 0b52 11       		.byte	0x11
 1685 0b53 40       		.byte	0x40
 1686 0b54 B4000000 		.4byte	0xb4
 1687 0b58 0F       		.byte	0xf
 1688 0b59 08       		.uleb128 0x8
 1689 0b5a 58050000 		.4byte	.LASF152
 1690 0b5e 11       		.byte	0x11
 1691 0b5f 41       		.byte	0x41
 1692 0b60 B4000000 		.4byte	0xb4
 1693 0b64 10       		.byte	0x10
 1694 0b65 08       		.uleb128 0x8
 1695 0b66 31040000 		.4byte	.LASF153
 1696 0b6a 11       		.byte	0x11
 1697 0b6b 42       		.byte	0x42
 1698 0b6c B4000000 		.4byte	0xb4
 1699 0b70 11       		.byte	0x11
 1700 0b71 08       		.uleb128 0x8
 1701 0b72 900B0000 		.4byte	.LASF154
 1702 0b76 11       		.byte	0x11
 1703 0b77 43       		.byte	0x43
 1704 0b78 B4000000 		.4byte	0xb4
 1705 0b7c 12       		.byte	0x12
 1706 0b7d 08       		.uleb128 0x8
 1707 0b7e 50030000 		.4byte	.LASF155
 1708 0b82 11       		.byte	0x11
 1709 0b83 44       		.byte	0x44
 1710 0b84 B4000000 		.4byte	0xb4
ARM GAS  C:\Users\14122\AppData\Local\Temp\ccYwHGHv.s 			page 31


 1711 0b88 13       		.byte	0x13
 1712 0b89 08       		.uleb128 0x8
 1713 0b8a 43000000 		.4byte	.LASF156
 1714 0b8e 11       		.byte	0x11
 1715 0b8f 45       		.byte	0x45
 1716 0b90 B4000000 		.4byte	0xb4
 1717 0b94 14       		.byte	0x14
 1718 0b95 08       		.uleb128 0x8
 1719 0b96 BE030000 		.4byte	.LASF157
 1720 0b9a 11       		.byte	0x11
 1721 0b9b 46       		.byte	0x46
 1722 0b9c B4000000 		.4byte	0xb4
 1723 0ba0 15       		.byte	0x15
 1724 0ba1 00       		.byte	0
 1725 0ba2 11       		.uleb128 0x11
 1726 0ba3 870A0000 		.4byte	0xa87
 1727 0ba7 B20B0000 		.4byte	0xbb2
 1728 0bab 12       		.uleb128 0x12
 1729 0bac 37000000 		.4byte	0x37
 1730 0bb0 03       		.byte	0x3
 1731 0bb1 00       		.byte	0
 1732 0bb2 03       		.uleb128 0x3
 1733 0bb3 560B0000 		.4byte	.LASF158
 1734 0bb7 11       		.byte	0x11
 1735 0bb8 47       		.byte	0x47
 1736 0bb9 C10A0000 		.4byte	0xac1
 1737 0bbd 05       		.uleb128 0x5
 1738 0bbe B20B0000 		.4byte	0xbb2
 1739 0bc2 14       		.uleb128 0x14
 1740 0bc3 5D000000 		.4byte	.LASF159
 1741 0bc7 11       		.byte	0x11
 1742 0bc8 6C       		.byte	0x6c
 1743 0bc9 BD0B0000 		.4byte	0xbbd
 1744 0bcd 03       		.uleb128 0x3
 1745 0bce C60A0000 		.4byte	.LASF160
 1746 0bd2 0F       		.byte	0xf
 1747 0bd3 34       		.byte	0x34
 1748 0bd4 450A0000 		.4byte	0xa45
 1749 0bd8 0C       		.uleb128 0xc
 1750 0bd9 04       		.byte	0x4
 1751 0bda CD0B0000 		.4byte	0xbcd
 1752 0bde 03       		.uleb128 0x3
 1753 0bdf 7E030000 		.4byte	.LASF161
 1754 0be3 12       		.byte	0x12
 1755 0be4 34       		.byte	0x34
 1756 0be5 E90B0000 		.4byte	0xbe9
 1757 0be9 07       		.uleb128 0x7
 1758 0bea 210B0000 		.4byte	.LASF162
 1759 0bee 14       		.byte	0x14
 1760 0bef 12       		.byte	0x12
 1761 0bf0 39       		.byte	0x39
 1762 0bf1 320C0000 		.4byte	0xc32
 1763 0bf5 08       		.uleb128 0x8
 1764 0bf6 AA0B0000 		.4byte	.LASF50
 1765 0bfa 12       		.byte	0x12
 1766 0bfb 3A       		.byte	0x3a
 1767 0bfc 320C0000 		.4byte	0xc32
ARM GAS  C:\Users\14122\AppData\Local\Temp\ccYwHGHv.s 			page 32


 1768 0c00 00       		.byte	0
 1769 0c01 08       		.uleb128 0x8
 1770 0c02 BA090000 		.4byte	.LASF163
 1771 0c06 12       		.byte	0x12
 1772 0c07 3D       		.byte	0x3d
 1773 0c08 56020000 		.4byte	0x256
 1774 0c0c 04       		.byte	0x4
 1775 0c0d 08       		.uleb128 0x8
 1776 0c0e A30B0000 		.4byte	.LASF164
 1777 0c12 12       		.byte	0x12
 1778 0c13 3F       		.byte	0x3f
 1779 0c14 36010000 		.4byte	0x136
 1780 0c18 08       		.byte	0x8
 1781 0c19 08       		.uleb128 0x8
 1782 0c1a 59030000 		.4byte	.LASF38
 1783 0c1e 12       		.byte	0x12
 1784 0c1f 41       		.byte	0x41
 1785 0c20 41010000 		.4byte	0x141
 1786 0c24 0C       		.byte	0xc
 1787 0c25 08       		.uleb128 0x8
 1788 0c26 EC070000 		.4byte	.LASF165
 1789 0c2a 12       		.byte	0x12
 1790 0c2b 43       		.byte	0x43
 1791 0c2c 41010000 		.4byte	0x141
 1792 0c30 10       		.byte	0x10
 1793 0c31 00       		.byte	0
 1794 0c32 0C       		.uleb128 0xc
 1795 0c33 04       		.byte	0x4
 1796 0c34 DE0B0000 		.4byte	0xbde
 1797 0c38 07       		.uleb128 0x7
 1798 0c39 170A0000 		.4byte	.LASF166
 1799 0c3d 04       		.byte	0x4
 1800 0c3e 12       		.byte	0x12
 1801 0c3f 4A       		.byte	0x4a
 1802 0c40 510C0000 		.4byte	0xc51
 1803 0c44 08       		.uleb128 0x8
 1804 0c45 AA0B0000 		.4byte	.LASF50
 1805 0c49 12       		.byte	0x12
 1806 0c4a 4B       		.byte	0x4b
 1807 0c4b 320C0000 		.4byte	0xc32
 1808 0c4f 00       		.byte	0
 1809 0c50 00       		.byte	0
 1810 0c51 03       		.uleb128 0x3
 1811 0c52 0E060000 		.4byte	.LASF167
 1812 0c56 12       		.byte	0x12
 1813 0c57 4E       		.byte	0x4e
 1814 0c58 380C0000 		.4byte	0xc38
 1815 0c5c 04       		.uleb128 0x4
 1816 0c5d 01       		.byte	0x1
 1817 0c5e 02       		.byte	0x2
 1818 0c5f F8020000 		.4byte	.LASF168
 1819 0c63 03       		.uleb128 0x3
 1820 0c64 FE020000 		.4byte	.LASF169
 1821 0c68 13       		.byte	0x13
 1822 0c69 47       		.byte	0x47
 1823 0c6a 6E0C0000 		.4byte	0xc6e
 1824 0c6e 0C       		.uleb128 0xc
ARM GAS  C:\Users\14122\AppData\Local\Temp\ccYwHGHv.s 			page 33


 1825 0c6f 04       		.byte	0x4
 1826 0c70 740C0000 		.4byte	0xc74
 1827 0c74 20       		.uleb128 0x20
 1828 0c75 33030000 		.4byte	0x333
 1829 0c79 880C0000 		.4byte	0xc88
 1830 0c7d 0F       		.uleb128 0xf
 1831 0c7e 2C000000 		.4byte	0x2c
 1832 0c82 0F       		.uleb128 0xf
 1833 0c83 37000000 		.4byte	0x37
 1834 0c87 00       		.byte	0
 1835 0c88 15       		.uleb128 0x15
 1836 0c89 08       		.byte	0x8
 1837 0c8a 13       		.byte	0x13
 1838 0c8b 51       		.byte	0x51
 1839 0c8c A90C0000 		.4byte	0xca9
 1840 0c90 08       		.uleb128 0x8
 1841 0c91 1E040000 		.4byte	.LASF170
 1842 0c95 13       		.byte	0x13
 1843 0c96 55       		.byte	0x55
 1844 0c97 A90C0000 		.4byte	0xca9
 1845 0c9b 00       		.byte	0
 1846 0c9c 08       		.uleb128 0x8
 1847 0c9d 2B000000 		.4byte	.LASF171
 1848 0ca1 13       		.byte	0x13
 1849 0ca2 59       		.byte	0x59
 1850 0ca3 A90C0000 		.4byte	0xca9
 1851 0ca7 04       		.byte	0x4
 1852 0ca8 00       		.byte	0
 1853 0ca9 0C       		.uleb128 0xc
 1854 0caa 04       		.byte	0x4
 1855 0cab B4000000 		.4byte	0xb4
 1856 0caf 03       		.uleb128 0x3
 1857 0cb0 12020000 		.4byte	.LASF172
 1858 0cb4 13       		.byte	0x13
 1859 0cb5 5A       		.byte	0x5a
 1860 0cb6 880C0000 		.4byte	0xc88
 1861 0cba 14       		.uleb128 0x14
 1862 0cbb 850B0000 		.4byte	.LASF173
 1863 0cbf 13       		.byte	0x13
 1864 0cc0 65       		.byte	0x65
 1865 0cc1 AF0C0000 		.4byte	0xcaf
 1866 0cc5 07       		.uleb128 0x7
 1867 0cc6 65050000 		.4byte	.LASF174
 1868 0cca 04       		.byte	0x4
 1869 0ccb 14       		.byte	0x14
 1870 0ccc 38       		.byte	0x38
 1871 0ccd DE0C0000 		.4byte	0xcde
 1872 0cd1 08       		.uleb128 0x8
 1873 0cd2 AA0B0000 		.4byte	.LASF50
 1874 0cd6 14       		.byte	0x14
 1875 0cd7 39       		.byte	0x39
 1876 0cd8 DE0C0000 		.4byte	0xcde
 1877 0cdc 00       		.byte	0
 1878 0cdd 00       		.byte	0
 1879 0cde 0C       		.uleb128 0xc
 1880 0cdf 04       		.byte	0x4
 1881 0ce0 C50C0000 		.4byte	0xcc5
ARM GAS  C:\Users\14122\AppData\Local\Temp\ccYwHGHv.s 			page 34


 1882 0ce4 15       		.uleb128 0x15
 1883 0ce5 10       		.byte	0x10
 1884 0ce6 14       		.byte	0x14
 1885 0ce7 40       		.byte	0x40
 1886 0ce8 1D0D0000 		.4byte	0xd1d
 1887 0cec 08       		.uleb128 0x8
 1888 0ced AA0B0000 		.4byte	.LASF50
 1889 0cf1 14       		.byte	0x14
 1890 0cf2 41       		.byte	0x41
 1891 0cf3 DE0C0000 		.4byte	0xcde
 1892 0cf7 00       		.byte	0
 1893 0cf8 08       		.uleb128 0x8
 1894 0cf9 9E0A0000 		.4byte	.LASF175
 1895 0cfd 14       		.byte	0x14
 1896 0cfe 42       		.byte	0x42
 1897 0cff 2C000000 		.4byte	0x2c
 1898 0d03 04       		.byte	0x4
 1899 0d04 08       		.uleb128 0x8
 1900 0d05 22060000 		.4byte	.LASF176
 1901 0d09 14       		.byte	0x14
 1902 0d0a 44       		.byte	0x44
 1903 0d0b 37000000 		.4byte	0x37
 1904 0d0f 08       		.byte	0x8
 1905 0d10 08       		.uleb128 0x8
 1906 0d11 66000000 		.4byte	.LASF177
 1907 0d15 14       		.byte	0x14
 1908 0d16 45       		.byte	0x45
 1909 0d17 630C0000 		.4byte	0xc63
 1910 0d1b 0C       		.byte	0xc
 1911 0d1c 00       		.byte	0
 1912 0d1d 03       		.uleb128 0x3
 1913 0d1e 77090000 		.4byte	.LASF178
 1914 0d22 14       		.byte	0x14
 1915 0d23 47       		.byte	0x47
 1916 0d24 E40C0000 		.4byte	0xce4
 1917 0d28 07       		.uleb128 0x7
 1918 0d29 AD000000 		.4byte	.LASF179
 1919 0d2d 10       		.byte	0x10
 1920 0d2e 15       		.byte	0x15
 1921 0d2f 93       		.byte	0x93
 1922 0d30 590D0000 		.4byte	0xd59
 1923 0d34 08       		.uleb128 0x8
 1924 0d35 AA0B0000 		.4byte	.LASF50
 1925 0d39 15       		.byte	0x15
 1926 0d3a 97       		.byte	0x97
 1927 0d3b 590D0000 		.4byte	0xd59
 1928 0d3f 00       		.byte	0
 1929 0d40 08       		.uleb128 0x8
 1930 0d41 01090000 		.4byte	.LASF39
 1931 0d45 15       		.byte	0x15
 1932 0d46 9B       		.byte	0x9b
 1933 0d47 57010000 		.4byte	0x157
 1934 0d4b 04       		.byte	0x4
 1935 0d4c 08       		.uleb128 0x8
 1936 0d4d B5090000 		.4byte	.LASF35
 1937 0d51 15       		.byte	0x15
 1938 0d52 9D       		.byte	0x9d
ARM GAS  C:\Users\14122\AppData\Local\Temp\ccYwHGHv.s 			page 35


 1939 0d53 5F0D0000 		.4byte	0xd5f
 1940 0d57 08       		.byte	0x8
 1941 0d58 00       		.byte	0
 1942 0d59 0C       		.uleb128 0xc
 1943 0d5a 04       		.byte	0x4
 1944 0d5b 280D0000 		.4byte	0xd28
 1945 0d5f 11       		.uleb128 0x11
 1946 0d60 870A0000 		.4byte	0xa87
 1947 0d64 6F0D0000 		.4byte	0xd6f
 1948 0d68 12       		.uleb128 0x12
 1949 0d69 37000000 		.4byte	0x37
 1950 0d6d 07       		.byte	0x7
 1951 0d6e 00       		.byte	0
 1952 0d6f 03       		.uleb128 0x3
 1953 0d70 E0030000 		.4byte	.LASF180
 1954 0d74 15       		.byte	0x15
 1955 0d75 A1       		.byte	0xa1
 1956 0d76 280D0000 		.4byte	0xd28
 1957 0d7a 07       		.uleb128 0x7
 1958 0d7b C20B0000 		.4byte	.LASF181
 1959 0d7f 04       		.byte	0x4
 1960 0d80 15       		.byte	0x15
 1961 0d81 A6       		.byte	0xa6
 1962 0d82 930D0000 		.4byte	0xd93
 1963 0d86 08       		.uleb128 0x8
 1964 0d87 AA0B0000 		.4byte	.LASF50
 1965 0d8b 15       		.byte	0x15
 1966 0d8c A7       		.byte	0xa7
 1967 0d8d 930D0000 		.4byte	0xd93
 1968 0d91 00       		.byte	0
 1969 0d92 00       		.byte	0
 1970 0d93 0C       		.uleb128 0xc
 1971 0d94 04       		.byte	0x4
 1972 0d95 6F0D0000 		.4byte	0xd6f
 1973 0d99 03       		.uleb128 0x3
 1974 0d9a 730A0000 		.4byte	.LASF182
 1975 0d9e 15       		.byte	0x15
 1976 0d9f A8       		.byte	0xa8
 1977 0da0 7A0D0000 		.4byte	0xd7a
 1978 0da4 0D       		.uleb128 0xd
 1979 0da5 ED050000 		.4byte	.LASF183
 1980 0da9 44       		.byte	0x44
 1981 0daa 15       		.byte	0x15
 1982 0dab 1101     		.2byte	0x111
 1983 0dad 1A0E0000 		.4byte	0xe1a
 1984 0db1 0A       		.uleb128 0xa
 1985 0db2 6D747800 		.ascii	"mtx\000"
 1986 0db6 15       		.byte	0x15
 1987 0db7 1601     		.2byte	0x116
 1988 0db9 CD0B0000 		.4byte	0xbcd
 1989 0dbd 00       		.byte	0
 1990 0dbe 0B       		.uleb128 0xb
 1991 0dbf F5000000 		.4byte	.LASF184
 1992 0dc3 15       		.byte	0x15
 1993 0dc4 1D01     		.2byte	0x11d
 1994 0dc6 990D0000 		.4byte	0xd99
 1995 0dca 10       		.byte	0x10
ARM GAS  C:\Users\14122\AppData\Local\Temp\ccYwHGHv.s 			page 36


 1996 0dcb 0B       		.uleb128 0xb
 1997 0dcc D8010000 		.4byte	.LASF185
 1998 0dd0 15       		.byte	0x15
 1999 0dd1 2101     		.2byte	0x121
 2000 0dd3 1D0D0000 		.4byte	0xd1d
 2001 0dd7 14       		.byte	0x14
 2002 0dd8 0B       		.uleb128 0xb
 2003 0dd9 2C080000 		.4byte	.LASF186
 2004 0ddd 15       		.byte	0x15
 2005 0dde 2601     		.2byte	0x126
 2006 0de0 990D0000 		.4byte	0xd99
 2007 0de4 24       		.byte	0x24
 2008 0de5 0B       		.uleb128 0xb
 2009 0de6 2A030000 		.4byte	.LASF187
 2010 0dea 15       		.byte	0x15
 2011 0deb 2C01     		.2byte	0x12c
 2012 0ded 990D0000 		.4byte	0xd99
 2013 0df1 28       		.byte	0x28
 2014 0df2 0B       		.uleb128 0xb
 2015 0df3 09040000 		.4byte	.LASF188
 2016 0df7 15       		.byte	0x15
 2017 0df8 3001     		.2byte	0x130
 2018 0dfa 1D0D0000 		.4byte	0xd1d
 2019 0dfe 2C       		.byte	0x2c
 2020 0dff 0B       		.uleb128 0xb
 2021 0e00 2B090000 		.4byte	.LASF189
 2022 0e04 15       		.byte	0x15
 2023 0e05 3601     		.2byte	0x136
 2024 0e07 990D0000 		.4byte	0xd99
 2025 0e0b 3C       		.byte	0x3c
 2026 0e0c 0B       		.uleb128 0xb
 2027 0e0d 0C050000 		.4byte	.LASF190
 2028 0e11 15       		.byte	0x15
 2029 0e12 3C01     		.2byte	0x13c
 2030 0e14 990D0000 		.4byte	0xd99
 2031 0e18 40       		.byte	0x40
 2032 0e19 00       		.byte	0
 2033 0e1a 19       		.uleb128 0x19
 2034 0e1b 1A080000 		.4byte	.LASF191
 2035 0e1f 15       		.byte	0x15
 2036 0e20 3E01     		.2byte	0x13e
 2037 0e22 A40D0000 		.4byte	0xda4
 2038 0e26 13       		.uleb128 0x13
 2039 0e27 18090000 		.4byte	.LASF192
 2040 0e2b 15       		.byte	0x15
 2041 0e2c 4901     		.2byte	0x149
 2042 0e2e 1A0E0000 		.4byte	0xe1a
 2043 0e32 15       		.uleb128 0x15
 2044 0e33 10       		.byte	0x10
 2045 0e34 16       		.byte	0x16
 2046 0e35 F0       		.byte	0xf0
 2047 0e36 8F0E0000 		.4byte	0xe8f
 2048 0e3a 09       		.uleb128 0x9
 2049 0e3b 646D6100 		.ascii	"dma\000"
 2050 0e3f 16       		.byte	0x16
 2051 0e40 F1       		.byte	0xf1
 2052 0e41 8F0E0000 		.4byte	0xe8f
ARM GAS  C:\Users\14122\AppData\Local\Temp\ccYwHGHv.s 			page 37


 2053 0e45 00       		.byte	0
 2054 0e46 08       		.uleb128 0x8
 2055 0e47 86040000 		.4byte	.LASF193
 2056 0e4b 16       		.byte	0x16
 2057 0e4c F2       		.byte	0xf2
 2058 0e4d 950E0000 		.4byte	0xe95
 2059 0e51 04       		.byte	0x4
 2060 0e52 08       		.uleb128 0x8
 2061 0e53 35080000 		.4byte	.LASF194
 2062 0e57 16       		.byte	0x16
 2063 0e58 F3       		.byte	0xf3
 2064 0e59 E4000000 		.4byte	0xe4
 2065 0e5d 08       		.byte	0x8
 2066 0e5e 08       		.uleb128 0x8
 2067 0e5f 93090000 		.4byte	.LASF195
 2068 0e63 16       		.byte	0x16
 2069 0e64 FA       		.byte	0xfa
 2070 0e65 B4000000 		.4byte	0xb4
 2071 0e69 0C       		.byte	0xc
 2072 0e6a 08       		.uleb128 0x8
 2073 0e6b 80040000 		.4byte	.LASF196
 2074 0e6f 16       		.byte	0x16
 2075 0e70 FC       		.byte	0xfc
 2076 0e71 B4000000 		.4byte	0xb4
 2077 0e75 0D       		.byte	0xd
 2078 0e76 08       		.uleb128 0x8
 2079 0e77 75060000 		.4byte	.LASF197
 2080 0e7b 16       		.byte	0x16
 2081 0e7c FE       		.byte	0xfe
 2082 0e7d B4000000 		.4byte	0xb4
 2083 0e81 0E       		.byte	0xe
 2084 0e82 08       		.uleb128 0x8
 2085 0e83 11090000 		.4byte	.LASF198
 2086 0e87 16       		.byte	0x16
 2087 0e88 FF       		.byte	0xff
 2088 0e89 B4000000 		.4byte	0xb4
 2089 0e8d 0F       		.byte	0xf
 2090 0e8e 00       		.byte	0
 2091 0e8f 0C       		.uleb128 0xc
 2092 0e90 04       		.byte	0x4
 2093 0e91 7F070000 		.4byte	0x77f
 2094 0e95 0C       		.uleb128 0xc
 2095 0e96 04       		.byte	0x4
 2096 0e97 4F070000 		.4byte	0x74f
 2097 0e9b 19       		.uleb128 0x19
 2098 0e9c 08000000 		.4byte	.LASF199
 2099 0ea0 16       		.byte	0x16
 2100 0ea1 0001     		.2byte	0x100
 2101 0ea3 320E0000 		.4byte	0xe32
 2102 0ea7 05       		.uleb128 0x5
 2103 0ea8 9B0E0000 		.4byte	0xe9b
 2104 0eac 19       		.uleb128 0x19
 2105 0ead A3060000 		.4byte	.LASF200
 2106 0eb1 16       		.byte	0x16
 2107 0eb2 0901     		.2byte	0x109
 2108 0eb4 B80E0000 		.4byte	0xeb8
 2109 0eb8 0C       		.uleb128 0xc
ARM GAS  C:\Users\14122\AppData\Local\Temp\ccYwHGHv.s 			page 38


 2110 0eb9 04       		.byte	0x4
 2111 0eba BE0E0000 		.4byte	0xebe
 2112 0ebe 0E       		.uleb128 0xe
 2113 0ebf CE0E0000 		.4byte	0xece
 2114 0ec3 0F       		.uleb128 0xf
 2115 0ec4 33030000 		.4byte	0x333
 2116 0ec8 0F       		.uleb128 0xf
 2117 0ec9 E4000000 		.4byte	0xe4
 2118 0ecd 00       		.byte	0
 2119 0ece 1A       		.uleb128 0x1a
 2120 0ecf 08       		.byte	0x8
 2121 0ed0 16       		.byte	0x16
 2122 0ed1 0E01     		.2byte	0x10e
 2123 0ed3 F20E0000 		.4byte	0xef2
 2124 0ed7 0B       		.uleb128 0xb
 2125 0ed8 C7030000 		.4byte	.LASF201
 2126 0edc 16       		.byte	0x16
 2127 0edd 0F01     		.2byte	0x10f
 2128 0edf AC0E0000 		.4byte	0xeac
 2129 0ee3 00       		.byte	0
 2130 0ee4 0B       		.uleb128 0xb
 2131 0ee5 940A0000 		.4byte	.LASF202
 2132 0ee9 16       		.byte	0x16
 2133 0eea 1001     		.2byte	0x110
 2134 0eec 33030000 		.4byte	0x333
 2135 0ef0 04       		.byte	0x4
 2136 0ef1 00       		.byte	0
 2137 0ef2 19       		.uleb128 0x19
 2138 0ef3 E6060000 		.4byte	.LASF203
 2139 0ef7 16       		.byte	0x16
 2140 0ef8 1101     		.2byte	0x111
 2141 0efa CE0E0000 		.4byte	0xece
 2142 0efe 11       		.uleb128 0x11
 2143 0eff A70E0000 		.4byte	0xea7
 2144 0f03 0E0F0000 		.4byte	0xf0e
 2145 0f07 12       		.uleb128 0x12
 2146 0f08 37000000 		.4byte	0x37
 2147 0f0c 06       		.byte	0x6
 2148 0f0d 00       		.byte	0
 2149 0f0e 05       		.uleb128 0x5
 2150 0f0f FE0E0000 		.4byte	0xefe
 2151 0f13 13       		.uleb128 0x13
 2152 0f14 C0040000 		.4byte	.LASF204
 2153 0f18 16       		.byte	0x16
 2154 0f19 DF01     		.2byte	0x1df
 2155 0f1b 0E0F0000 		.4byte	0xf0e
 2156 0f1f 11       		.uleb128 0x11
 2157 0f20 F20E0000 		.4byte	0xef2
 2158 0f24 2F0F0000 		.4byte	0xf2f
 2159 0f28 12       		.uleb128 0x12
 2160 0f29 37000000 		.4byte	0x37
 2161 0f2d 06       		.byte	0x6
 2162 0f2e 00       		.byte	0
 2163 0f2f 13       		.uleb128 0x13
 2164 0f30 F8090000 		.4byte	.LASF205
 2165 0f34 16       		.byte	0x16
 2166 0f35 E001     		.2byte	0x1e0
ARM GAS  C:\Users\14122\AppData\Local\Temp\ccYwHGHv.s 			page 39


 2167 0f37 1F0F0000 		.4byte	0xf1f
 2168 0f3b 21       		.uleb128 0x21
 2169 0f3c 00       		.byte	0
 2170 0f3d 17       		.byte	0x17
 2171 0f3e 99       		.byte	0x99
 2172 0f3f 03       		.uleb128 0x3
 2173 0f40 45030000 		.4byte	.LASF206
 2174 0f44 17       		.byte	0x17
 2175 0f45 AA       		.byte	0xaa
 2176 0f46 3B0F0000 		.4byte	0xf3b
 2177 0f4a 15       		.uleb128 0x15
 2178 0f4b 0C       		.byte	0xc
 2179 0f4c 18       		.byte	0x18
 2180 0f4d 68       		.byte	0x68
 2181 0f4e 770F0000 		.4byte	0xf77
 2182 0f52 09       		.uleb128 0x9
 2183 0f53 6F647200 		.ascii	"odr\000"
 2184 0f57 18       		.byte	0x18
 2185 0f58 6A       		.byte	0x6a
 2186 0f59 E4000000 		.4byte	0xe4
 2187 0f5d 00       		.byte	0
 2188 0f5e 09       		.uleb128 0x9
 2189 0f5f 63726C00 		.ascii	"crl\000"
 2190 0f63 18       		.byte	0x18
 2191 0f64 6C       		.byte	0x6c
 2192 0f65 E4000000 		.4byte	0xe4
 2193 0f69 04       		.byte	0x4
 2194 0f6a 09       		.uleb128 0x9
 2195 0f6b 63726800 		.ascii	"crh\000"
 2196 0f6f 18       		.byte	0x18
 2197 0f70 6E       		.byte	0x6e
 2198 0f71 E4000000 		.4byte	0xe4
 2199 0f75 08       		.byte	0x8
 2200 0f76 00       		.byte	0
 2201 0f77 03       		.uleb128 0x3
 2202 0f78 35010000 		.4byte	.LASF207
 2203 0f7c 18       		.byte	0x18
 2204 0f7d 6F       		.byte	0x6f
 2205 0f7e 4A0F0000 		.4byte	0xf4a
 2206 0f82 15       		.uleb128 0x15
 2207 0f83 3C       		.byte	0x3c
 2208 0f84 18       		.byte	0x18
 2209 0f85 78       		.byte	0x78
 2210 0f86 C70F0000 		.4byte	0xfc7
 2211 0f8a 08       		.uleb128 0x8
 2212 0f8b 92080000 		.4byte	.LASF208
 2213 0f8f 18       		.byte	0x18
 2214 0f90 7A       		.byte	0x7a
 2215 0f91 770F0000 		.4byte	0xf77
 2216 0f95 00       		.byte	0
 2217 0f96 08       		.uleb128 0x8
 2218 0f97 35060000 		.4byte	.LASF209
 2219 0f9b 18       		.byte	0x18
 2220 0f9c 7C       		.byte	0x7c
 2221 0f9d 770F0000 		.4byte	0xf77
 2222 0fa1 0C       		.byte	0xc
 2223 0fa2 08       		.uleb128 0x8
ARM GAS  C:\Users\14122\AppData\Local\Temp\ccYwHGHv.s 			page 40


 2224 0fa3 17040000 		.4byte	.LASF210
 2225 0fa7 18       		.byte	0x18
 2226 0fa8 7E       		.byte	0x7e
 2227 0fa9 770F0000 		.4byte	0xf77
 2228 0fad 18       		.byte	0x18
 2229 0fae 08       		.uleb128 0x8
 2230 0faf C7020000 		.4byte	.LASF211
 2231 0fb3 18       		.byte	0x18
 2232 0fb4 80       		.byte	0x80
 2233 0fb5 770F0000 		.4byte	0xf77
 2234 0fb9 24       		.byte	0x24
 2235 0fba 08       		.uleb128 0x8
 2236 0fbb D6000000 		.4byte	.LASF212
 2237 0fbf 18       		.byte	0x18
 2238 0fc0 83       		.byte	0x83
 2239 0fc1 770F0000 		.4byte	0xf77
 2240 0fc5 30       		.byte	0x30
 2241 0fc6 00       		.byte	0
 2242 0fc7 03       		.uleb128 0x3
 2243 0fc8 8A0A0000 		.4byte	.LASF213
 2244 0fcc 18       		.byte	0x18
 2245 0fcd 8D       		.byte	0x8d
 2246 0fce 820F0000 		.4byte	0xf82
 2247 0fd2 05       		.uleb128 0x5
 2248 0fd3 C70F0000 		.4byte	0xfc7
 2249 0fd7 03       		.uleb128 0x3
 2250 0fd8 A2030000 		.4byte	.LASF214
 2251 0fdc 18       		.byte	0x18
 2252 0fdd 92       		.byte	0x92
 2253 0fde E4000000 		.4byte	0xe4
 2254 0fe2 03       		.uleb128 0x3
 2255 0fe3 16010000 		.4byte	.LASF215
 2256 0fe7 18       		.byte	0x18
 2257 0fe8 97       		.byte	0x97
 2258 0fe9 E4000000 		.4byte	0xe4
 2259 0fed 03       		.uleb128 0x3
 2260 0fee 92010000 		.4byte	.LASF216
 2261 0ff2 18       		.byte	0x18
 2262 0ff3 A9       		.byte	0xa9
 2263 0ff4 F80F0000 		.4byte	0xff8
 2264 0ff8 0C       		.uleb128 0xc
 2265 0ff9 04       		.byte	0x4
 2266 0ffa F0070000 		.4byte	0x7f0
 2267 0ffe 13       		.uleb128 0x13
 2268 0fff FA010000 		.4byte	.LASF217
 2269 1003 18       		.byte	0x18
 2270 1004 A001     		.2byte	0x1a0
 2271 1006 D20F0000 		.4byte	0xfd2
 2272 100a 11       		.uleb128 0x11
 2273 100b 3F0F0000 		.4byte	0xf3f
 2274 100f 1A100000 		.4byte	0x101a
 2275 1013 12       		.uleb128 0x12
 2276 1014 37000000 		.4byte	0x37
 2277 1018 0F       		.byte	0xf
 2278 1019 00       		.byte	0
 2279 101a 13       		.uleb128 0x13
 2280 101b CB070000 		.4byte	.LASF218
ARM GAS  C:\Users\14122\AppData\Local\Temp\ccYwHGHv.s 			page 41


 2281 101f 18       		.byte	0x18
 2282 1020 A101     		.2byte	0x1a1
 2283 1022 0A100000 		.4byte	0x100a
 2284 1026 22       		.uleb128 0x22
 2285 1027 07       		.byte	0x7
 2286 1028 01       		.byte	0x1
 2287 1029 5E000000 		.4byte	0x5e
 2288 102d 19       		.byte	0x19
 2289 102e 66       		.byte	0x66
 2290 102f 52100000 		.4byte	0x1052
 2291 1033 23       		.uleb128 0x23
 2292 1034 44060000 		.4byte	.LASF219
 2293 1038 00       		.byte	0
 2294 1039 23       		.uleb128 0x23
 2295 103a 9A0B0000 		.4byte	.LASF220
 2296 103e 01       		.byte	0x1
 2297 103f 23       		.uleb128 0x23
 2298 1040 D2050000 		.4byte	.LASF221
 2299 1044 02       		.byte	0x2
 2300 1045 23       		.uleb128 0x23
 2301 1046 AF030000 		.4byte	.LASF222
 2302 104a 03       		.byte	0x3
 2303 104b 23       		.uleb128 0x23
 2304 104c 61060000 		.4byte	.LASF223
 2305 1050 04       		.byte	0x4
 2306 1051 00       		.byte	0
 2307 1052 03       		.uleb128 0x3
 2308 1053 97030000 		.4byte	.LASF224
 2309 1057 19       		.byte	0x19
 2310 1058 6C       		.byte	0x6c
 2311 1059 26100000 		.4byte	0x1026
 2312 105d 03       		.uleb128 0x3
 2313 105e 5B010000 		.4byte	.LASF225
 2314 1062 1A       		.byte	0x1a
 2315 1063 C2       		.byte	0xc2
 2316 1064 68100000 		.4byte	0x1068
 2317 1068 0D       		.uleb128 0xd
 2318 1069 5B010000 		.4byte	.LASF225
 2319 106d 30       		.byte	0x30
 2320 106e 1A       		.byte	0x1a
 2321 106f 4801     		.2byte	0x148
 2322 1071 F8100000 		.4byte	0x10f8
 2323 1075 0B       		.uleb128 0xb
 2324 1076 D0000000 		.4byte	.LASF37
 2325 107a 1A       		.byte	0x1a
 2326 107b 4C01     		.2byte	0x14c
 2327 107d 52100000 		.4byte	0x1052
 2328 1081 00       		.byte	0
 2329 1082 0B       		.uleb128 0xb
 2330 1083 C9000000 		.4byte	.LASF226
 2331 1087 1A       		.byte	0x1a
 2332 1088 5001     		.2byte	0x150
 2333 108a 2D110000 		.4byte	0x112d
 2334 108e 04       		.byte	0x4
 2335 108f 0B       		.uleb128 0xb
 2336 1090 4F0A0000 		.4byte	.LASF227
 2337 1094 1A       		.byte	0x1a
ARM GAS  C:\Users\14122\AppData\Local\Temp\ccYwHGHv.s 			page 42


 2338 1095 5401     		.2byte	0x154
 2339 1097 80020000 		.4byte	0x280
 2340 109b 08       		.byte	0x8
 2341 109c 0B       		.uleb128 0xb
 2342 109d 23090000 		.4byte	.LASF228
 2343 10a1 1A       		.byte	0x1a
 2344 10a2 5801     		.2byte	0x158
 2345 10a4 80020000 		.4byte	0x280
 2346 10a8 10       		.byte	0x10
 2347 10a9 0B       		.uleb128 0xb
 2348 10aa 6B020000 		.4byte	.LASF229
 2349 10ae 1A       		.byte	0x1a
 2350 10af 6601     		.2byte	0x166
 2351 10b1 510C0000 		.4byte	0xc51
 2352 10b5 18       		.byte	0x18
 2353 10b6 0B       		.uleb128 0xb
 2354 10b7 E40B0000 		.4byte	.LASF230
 2355 10bb 1A       		.byte	0x1a
 2356 10bc 6E01     		.2byte	0x16e
 2357 10be 510C0000 		.4byte	0xc51
 2358 10c2 1C       		.byte	0x1c
 2359 10c3 0B       		.uleb128 0xb
 2360 10c4 CE060000 		.4byte	.LASF231
 2361 10c8 1A       		.byte	0x1a
 2362 10c9 7601     		.2byte	0x176
 2363 10cb 510C0000 		.4byte	0xc51
 2364 10cf 20       		.byte	0x20
 2365 10d0 0B       		.uleb128 0xb
 2366 10d1 80000000 		.4byte	.LASF232
 2367 10d5 1A       		.byte	0x1a
 2368 10d6 7B01     		.2byte	0x17b
 2369 10d8 510C0000 		.4byte	0xc51
 2370 10dc 24       		.byte	0x24
 2371 10dd 0B       		.uleb128 0xb
 2372 10de BC000000 		.4byte	.LASF233
 2373 10e2 1A       		.byte	0x1a
 2374 10e3 7F01     		.2byte	0x17f
 2375 10e5 510C0000 		.4byte	0xc51
 2376 10e9 28       		.byte	0x28
 2377 10ea 0A       		.uleb128 0xa
 2378 10eb 63616E00 		.ascii	"can\000"
 2379 10ef 1A       		.byte	0x1a
 2380 10f0 A201     		.2byte	0x1a2
 2381 10f2 33110000 		.4byte	0x1133
 2382 10f6 2C       		.byte	0x2c
 2383 10f7 00       		.byte	0
 2384 10f8 1A       		.uleb128 0x1a
 2385 10f9 08       		.byte	0x8
 2386 10fa 1A       		.byte	0x1a
 2387 10fb 3601     		.2byte	0x136
 2388 10fd 1C110000 		.4byte	0x111c
 2389 1101 0A       		.uleb128 0xa
 2390 1102 6D637200 		.ascii	"mcr\000"
 2391 1106 1A       		.byte	0x1a
 2392 1107 3C01     		.2byte	0x13c
 2393 1109 E4000000 		.4byte	0xe4
 2394 110d 00       		.byte	0
ARM GAS  C:\Users\14122\AppData\Local\Temp\ccYwHGHv.s 			page 43


 2395 110e 0A       		.uleb128 0xa
 2396 110f 62747200 		.ascii	"btr\000"
 2397 1113 1A       		.byte	0x1a
 2398 1114 4201     		.2byte	0x142
 2399 1116 E4000000 		.4byte	0xe4
 2400 111a 04       		.byte	0x4
 2401 111b 00       		.byte	0
 2402 111c 19       		.uleb128 0x19
 2403 111d E5000000 		.4byte	.LASF234
 2404 1121 1A       		.byte	0x1a
 2405 1122 4301     		.2byte	0x143
 2406 1124 F8100000 		.4byte	0x10f8
 2407 1128 05       		.uleb128 0x5
 2408 1129 1C110000 		.4byte	0x111c
 2409 112d 0C       		.uleb128 0xc
 2410 112e 04       		.byte	0x4
 2411 112f 28110000 		.4byte	0x1128
 2412 1133 0C       		.uleb128 0xc
 2413 1134 04       		.byte	0x4
 2414 1135 05070000 		.4byte	0x705
 2415 1139 13       		.uleb128 0x13
 2416 113a DE0B0000 		.4byte	.LASF235
 2417 113e 1A       		.byte	0x1a
 2418 113f AE01     		.2byte	0x1ae
 2419 1141 5D100000 		.4byte	0x105d
 2420 1145 22       		.uleb128 0x22
 2421 1146 07       		.byte	0x7
 2422 1147 01       		.byte	0x1
 2423 1148 5E000000 		.4byte	0x5e
 2424 114c 1B       		.byte	0x1b
 2425 114d 59       		.byte	0x59
 2426 114e 65110000 		.4byte	0x1165
 2427 1152 23       		.uleb128 0x23
 2428 1153 71050000 		.4byte	.LASF236
 2429 1157 00       		.byte	0
 2430 1158 23       		.uleb128 0x23
 2431 1159 A3000000 		.4byte	.LASF237
 2432 115d 01       		.byte	0x1
 2433 115e 23       		.uleb128 0x23
 2434 115f 15030000 		.4byte	.LASF238
 2435 1163 02       		.byte	0x2
 2436 1164 00       		.byte	0
 2437 1165 03       		.uleb128 0x3
 2438 1166 570A0000 		.4byte	.LASF239
 2439 116a 1B       		.byte	0x1b
 2440 116b 5D       		.byte	0x5d
 2441 116c 45110000 		.4byte	0x1145
 2442 1170 22       		.uleb128 0x22
 2443 1171 07       		.byte	0x7
 2444 1172 01       		.byte	0x1
 2445 1173 5E000000 		.4byte	0x5e
 2446 1177 1B       		.byte	0x1b
 2447 1178 62       		.byte	0x62
 2448 1179 90110000 		.4byte	0x1190
 2449 117d 23       		.uleb128 0x23
 2450 117e F20A0000 		.4byte	.LASF240
 2451 1182 00       		.byte	0
ARM GAS  C:\Users\14122\AppData\Local\Temp\ccYwHGHv.s 			page 44


 2452 1183 23       		.uleb128 0x23
 2453 1184 65010000 		.4byte	.LASF241
 2454 1188 01       		.byte	0x1
 2455 1189 23       		.uleb128 0x23
 2456 118a 47090000 		.4byte	.LASF242
 2457 118e 02       		.byte	0x2
 2458 118f 00       		.byte	0
 2459 1190 03       		.uleb128 0x3
 2460 1191 E1010000 		.4byte	.LASF243
 2461 1195 1B       		.byte	0x1b
 2462 1196 66       		.byte	0x66
 2463 1197 70110000 		.4byte	0x1170
 2464 119b 22       		.uleb128 0x22
 2465 119c 07       		.byte	0x7
 2466 119d 01       		.byte	0x1
 2467 119e 5E000000 		.4byte	0x5e
 2468 11a2 1B       		.byte	0x1b
 2469 11a3 6B       		.byte	0x6b
 2470 11a4 BB110000 		.4byte	0x11bb
 2471 11a8 23       		.uleb128 0x23
 2472 11a9 A3090000 		.4byte	.LASF244
 2473 11ad 00       		.byte	0
 2474 11ae 23       		.uleb128 0x23
 2475 11af A2080000 		.4byte	.LASF245
 2476 11b3 01       		.byte	0x1
 2477 11b4 23       		.uleb128 0x23
 2478 11b5 8D050000 		.4byte	.LASF246
 2479 11b9 02       		.byte	0x2
 2480 11ba 00       		.byte	0
 2481 11bb 03       		.uleb128 0x3
 2482 11bc 58090000 		.4byte	.LASF247
 2483 11c0 1B       		.byte	0x1b
 2484 11c1 6F       		.byte	0x6f
 2485 11c2 9B110000 		.4byte	0x119b
 2486 11c6 19       		.uleb128 0x19
 2487 11c7 4F060000 		.4byte	.LASF248
 2488 11cb 1C       		.byte	0x1c
 2489 11cc B301     		.2byte	0x1b3
 2490 11ce E4000000 		.4byte	0xe4
 2491 11d2 19       		.uleb128 0x19
 2492 11d3 74010000 		.4byte	.LASF249
 2493 11d7 1C       		.byte	0x1c
 2494 11d8 B801     		.2byte	0x1b8
 2495 11da DE110000 		.4byte	0x11de
 2496 11de 0D       		.uleb128 0xd
 2497 11df 74010000 		.4byte	.LASF249
 2498 11e3 1C       		.byte	0x1c
 2499 11e4 1C       		.byte	0x1c
 2500 11e5 0002     		.2byte	0x200
 2501 11e7 61120000 		.4byte	0x1261
 2502 11eb 0B       		.uleb128 0xb
 2503 11ec D0000000 		.4byte	.LASF37
 2504 11f0 1C       		.byte	0x1c
 2505 11f1 0402     		.2byte	0x204
 2506 11f3 65110000 		.4byte	0x1165
 2507 11f7 00       		.byte	0
 2508 11f8 0B       		.uleb128 0xb
ARM GAS  C:\Users\14122\AppData\Local\Temp\ccYwHGHv.s 			page 45


 2509 11f9 C8010000 		.4byte	.LASF250
 2510 11fd 1C       		.byte	0x1c
 2511 11fe 0802     		.2byte	0x208
 2512 1200 90110000 		.4byte	0x1190
 2513 1204 01       		.byte	0x1
 2514 1205 0B       		.uleb128 0xb
 2515 1206 DD000000 		.4byte	.LASF251
 2516 120a 1C       		.byte	0x1c
 2517 120b 0C02     		.2byte	0x20c
 2518 120d BB110000 		.4byte	0x11bb
 2519 1211 02       		.byte	0x2
 2520 1212 0B       		.uleb128 0xb
 2521 1213 C9000000 		.4byte	.LASF226
 2522 1217 1C       		.byte	0x1c
 2523 1218 1002     		.2byte	0x210
 2524 121a 58130000 		.4byte	0x1358
 2525 121e 04       		.byte	0x4
 2526 121f 0B       		.uleb128 0xb
 2527 1220 F4010000 		.4byte	.LASF252
 2528 1224 1C       		.byte	0x1c
 2529 1225 2C02     		.2byte	0x22c
 2530 1227 5E130000 		.4byte	0x135e
 2531 122b 08       		.byte	0x8
 2532 122c 0B       		.uleb128 0xb
 2533 122d 3C060000 		.4byte	.LASF253
 2534 1231 1C       		.byte	0x1c
 2535 1232 3002     		.2byte	0x230
 2536 1234 E4000000 		.4byte	0xe4
 2537 1238 0C       		.byte	0xc
 2538 1239 0B       		.uleb128 0xb
 2539 123a A4050000 		.4byte	.LASF254
 2540 123e 1C       		.byte	0x1c
 2541 123f 3402     		.2byte	0x234
 2542 1241 64130000 		.4byte	0x1364
 2543 1245 10       		.byte	0x10
 2544 1246 0B       		.uleb128 0xb
 2545 1247 5B060000 		.4byte	.LASF255
 2546 124b 1C       		.byte	0x1c
 2547 124c 3802     		.2byte	0x238
 2548 124e 64130000 		.4byte	0x1364
 2549 1252 14       		.byte	0x14
 2550 1253 0B       		.uleb128 0xb
 2551 1254 9E050000 		.4byte	.LASF256
 2552 1258 1C       		.byte	0x1c
 2553 1259 3C02     		.2byte	0x23c
 2554 125b CF000000 		.4byte	0xcf
 2555 125f 18       		.byte	0x18
 2556 1260 00       		.byte	0
 2557 1261 19       		.uleb128 0x19
 2558 1262 FF0A0000 		.4byte	.LASF257
 2559 1266 1C       		.byte	0x1c
 2560 1267 BF01     		.2byte	0x1bf
 2561 1269 6D120000 		.4byte	0x126d
 2562 126d 0C       		.uleb128 0xc
 2563 126e 04       		.byte	0x4
 2564 126f 73120000 		.4byte	0x1273
 2565 1273 0E       		.uleb128 0xe
ARM GAS  C:\Users\14122\AppData\Local\Temp\ccYwHGHv.s 			page 46


 2566 1274 7E120000 		.4byte	0x127e
 2567 1278 0F       		.uleb128 0xf
 2568 1279 7E120000 		.4byte	0x127e
 2569 127d 00       		.byte	0
 2570 127e 0C       		.uleb128 0xc
 2571 127f 04       		.byte	0x4
 2572 1280 D2110000 		.4byte	0x11d2
 2573 1284 19       		.uleb128 0x19
 2574 1285 6D090000 		.4byte	.LASF258
 2575 1289 1C       		.byte	0x1c
 2576 128a C701     		.2byte	0x1c7
 2577 128c 90120000 		.4byte	0x1290
 2578 1290 0C       		.uleb128 0xc
 2579 1291 04       		.byte	0x4
 2580 1292 96120000 		.4byte	0x1296
 2581 1296 0E       		.uleb128 0xe
 2582 1297 A6120000 		.4byte	0x12a6
 2583 129b 0F       		.uleb128 0xf
 2584 129c 7E120000 		.4byte	0x127e
 2585 12a0 0F       		.uleb128 0xf
 2586 12a1 C4000000 		.4byte	0xc4
 2587 12a5 00       		.byte	0
 2588 12a6 19       		.uleb128 0x19
 2589 12a7 39050000 		.4byte	.LASF259
 2590 12ab 1C       		.byte	0x1c
 2591 12ac CF01     		.2byte	0x1cf
 2592 12ae B2120000 		.4byte	0x12b2
 2593 12b2 0C       		.uleb128 0xc
 2594 12b3 04       		.byte	0x4
 2595 12b4 B8120000 		.4byte	0x12b8
 2596 12b8 0E       		.uleb128 0xe
 2597 12b9 C8120000 		.4byte	0x12c8
 2598 12bd 0F       		.uleb128 0xf
 2599 12be 7E120000 		.4byte	0x127e
 2600 12c2 0F       		.uleb128 0xf
 2601 12c3 C6110000 		.4byte	0x11c6
 2602 12c7 00       		.byte	0
 2603 12c8 1A       		.uleb128 0x1a
 2604 12c9 20       		.byte	0x20
 2605 12ca 1C       		.byte	0x1c
 2606 12cb D501     		.2byte	0x1d5
 2607 12cd 47130000 		.4byte	0x1347
 2608 12d1 0B       		.uleb128 0xb
 2609 12d2 99090000 		.4byte	.LASF260
 2610 12d6 1C       		.byte	0x1c
 2611 12d7 D901     		.2byte	0x1d9
 2612 12d9 61120000 		.4byte	0x1261
 2613 12dd 00       		.byte	0
 2614 12de 0B       		.uleb128 0xb
 2615 12df 02050000 		.4byte	.LASF261
 2616 12e3 1C       		.byte	0x1c
 2617 12e4 DD01     		.2byte	0x1dd
 2618 12e6 61120000 		.4byte	0x1261
 2619 12ea 04       		.byte	0x4
 2620 12eb 0B       		.uleb128 0xb
 2621 12ec FE000000 		.4byte	.LASF262
 2622 12f0 1C       		.byte	0x1c
ARM GAS  C:\Users\14122\AppData\Local\Temp\ccYwHGHv.s 			page 47


 2623 12f1 E101     		.2byte	0x1e1
 2624 12f3 61120000 		.4byte	0x1261
 2625 12f7 08       		.byte	0x8
 2626 12f8 0B       		.uleb128 0xb
 2627 12f9 D6030000 		.4byte	.LASF263
 2628 12fd 1C       		.byte	0x1c
 2629 12fe E501     		.2byte	0x1e5
 2630 1300 84120000 		.4byte	0x1284
 2631 1304 0C       		.byte	0xc
 2632 1305 0B       		.uleb128 0xb
 2633 1306 7F060000 		.4byte	.LASF264
 2634 130a 1C       		.byte	0x1c
 2635 130b E901     		.2byte	0x1e9
 2636 130d A6120000 		.4byte	0x12a6
 2637 1311 10       		.byte	0x10
 2638 1312 0B       		.uleb128 0xb
 2639 1313 EE030000 		.4byte	.LASF265
 2640 1317 1C       		.byte	0x1c
 2641 1318 EE01     		.2byte	0x1ee
 2642 131a E4000000 		.4byte	0xe4
 2643 131e 14       		.byte	0x14
 2644 131f 0A       		.uleb128 0xa
 2645 1320 63723100 		.ascii	"cr1\000"
 2646 1324 1C       		.byte	0x1c
 2647 1325 F201     		.2byte	0x1f2
 2648 1327 C4000000 		.4byte	0xc4
 2649 132b 18       		.byte	0x18
 2650 132c 0A       		.uleb128 0xa
 2651 132d 63723200 		.ascii	"cr2\000"
 2652 1331 1C       		.byte	0x1c
 2653 1332 F601     		.2byte	0x1f6
 2654 1334 C4000000 		.4byte	0xc4
 2655 1338 1A       		.byte	0x1a
 2656 1339 0A       		.uleb128 0xa
 2657 133a 63723300 		.ascii	"cr3\000"
 2658 133e 1C       		.byte	0x1c
 2659 133f FA01     		.2byte	0x1fa
 2660 1341 C4000000 		.4byte	0xc4
 2661 1345 1C       		.byte	0x1c
 2662 1346 00       		.byte	0
 2663 1347 19       		.uleb128 0x19
 2664 1348 58040000 		.4byte	.LASF266
 2665 134c 1C       		.byte	0x1c
 2666 134d FB01     		.2byte	0x1fb
 2667 134f C8120000 		.4byte	0x12c8
 2668 1353 05       		.uleb128 0x5
 2669 1354 47130000 		.4byte	0x1347
 2670 1358 0C       		.uleb128 0xc
 2671 1359 04       		.byte	0x4
 2672 135a 53130000 		.4byte	0x1353
 2673 135e 0C       		.uleb128 0xc
 2674 135f 04       		.byte	0x4
 2675 1360 F6080000 		.4byte	0x8f6
 2676 1364 0C       		.uleb128 0xc
 2677 1365 04       		.byte	0x4
 2678 1366 A70E0000 		.4byte	0xea7
 2679 136a 13       		.uleb128 0x13
ARM GAS  C:\Users\14122\AppData\Local\Temp\ccYwHGHv.s 			page 48


 2680 136b 740B0000 		.4byte	.LASF267
 2681 136f 1C       		.byte	0x1c
 2682 1370 4C02     		.2byte	0x24c
 2683 1372 D2110000 		.4byte	0x11d2
 2684 1376 24       		.uleb128 0x24
 2685 1377 1A100000 		.4byte	0x101a
 2686 137b 01       		.byte	0x1
 2687 137c 37       		.byte	0x37
 2688 137d 05       		.uleb128 0x5
 2689 137e 03       		.byte	0x3
 2690 137f 00000000 		.4byte	_pal_events
 2691 1383 25       		.uleb128 0x25
 2692 1384 1F010000 		.4byte	.LASF272
 2693 1388 01       		.byte	0x1
 2694 1389 8F       		.byte	0x8f
 2695 138a 00000000 		.4byte	.LFB254
 2696 138e 6C000000 		.4byte	.LFE254-.LFB254
 2697 1392 01       		.uleb128 0x1
 2698 1393 9C       		.byte	0x9c
 2699 1394 2B140000 		.4byte	0x142b
 2700 1398 26       		.uleb128 0x26
 2701 1399 C3090000 		.4byte	.LASF268
 2702 139d 01       		.byte	0x1
 2703 139e 8F       		.byte	0x8f
 2704 139f ED0F0000 		.4byte	0xfed
 2705 13a3 01       		.uleb128 0x1
 2706 13a4 50       		.byte	0x50
 2707 13a5 27       		.uleb128 0x27
 2708 13a6 1D060000 		.4byte	.LASF269
 2709 13aa 01       		.byte	0x1
 2710 13ab 90       		.byte	0x90
 2711 13ac D70F0000 		.4byte	0xfd7
 2712 13b0 00000000 		.4byte	.LLST0
 2713 13b4 27       		.uleb128 0x27
 2714 13b5 2D0A0000 		.4byte	.LASF270
 2715 13b9 01       		.byte	0x1
 2716 13ba 91       		.byte	0x91
 2717 13bb E20F0000 		.4byte	0xfe2
 2718 13bf 1E000000 		.4byte	.LLST1
 2719 13c3 28       		.uleb128 0x28
 2720 13c4 AA050000 		.4byte	.LASF271
 2721 13c8 01       		.byte	0x1
 2722 13c9 92       		.byte	0x92
 2723 13ca 3B140000 		.4byte	0x143b
 2724 13ce 05       		.uleb128 0x5
 2725 13cf 03       		.byte	0x3
 2726 13d0 00000000 		.4byte	cfgtab.7063
 2727 13d4 29       		.uleb128 0x29
 2728 13d5 6D6800   		.ascii	"mh\000"
 2729 13d8 01       		.byte	0x1
 2730 13d9 A6       		.byte	0xa6
 2731 13da E4000000 		.4byte	0xe4
 2732 13de 4A000000 		.4byte	.LLST2
 2733 13e2 29       		.uleb128 0x29
 2734 13e3 6D6C00   		.ascii	"ml\000"
 2735 13e6 01       		.byte	0x1
 2736 13e7 A6       		.byte	0xa6
ARM GAS  C:\Users\14122\AppData\Local\Temp\ccYwHGHv.s 			page 49


 2737 13e8 E4000000 		.4byte	0xe4
 2738 13ec 5D000000 		.4byte	.LLST3
 2739 13f0 29       		.uleb128 0x29
 2740 13f1 63726800 		.ascii	"crh\000"
 2741 13f5 01       		.byte	0x1
 2742 13f6 A6       		.byte	0xa6
 2743 13f7 E4000000 		.4byte	0xe4
 2744 13fb 70000000 		.4byte	.LLST4
 2745 13ff 29       		.uleb128 0x29
 2746 1400 63726C00 		.ascii	"crl\000"
 2747 1404 01       		.byte	0x1
 2748 1405 A6       		.byte	0xa6
 2749 1406 E4000000 		.4byte	0xe4
 2750 140a 83000000 		.4byte	.LLST5
 2751 140e 29       		.uleb128 0x29
 2752 140f 63666700 		.ascii	"cfg\000"
 2753 1413 01       		.byte	0x1
 2754 1414 A6       		.byte	0xa6
 2755 1415 E4000000 		.4byte	0xe4
 2756 1419 A1000000 		.4byte	.LLST6
 2757 141d 29       		.uleb128 0x29
 2758 141e 6900     		.ascii	"i\000"
 2759 1420 01       		.byte	0x1
 2760 1421 A7       		.byte	0xa7
 2761 1422 37000000 		.4byte	0x37
 2762 1426 CA000000 		.4byte	.LLST7
 2763 142a 00       		.byte	0
 2764 142b 11       		.uleb128 0x11
 2765 142c BF000000 		.4byte	0xbf
 2766 1430 3B140000 		.4byte	0x143b
 2767 1434 12       		.uleb128 0x12
 2768 1435 37000000 		.4byte	0x37
 2769 1439 11       		.byte	0x11
 2770 143a 00       		.byte	0
 2771 143b 05       		.uleb128 0x5
 2772 143c 2B140000 		.4byte	0x142b
 2773 1440 25       		.uleb128 0x25
 2774 1441 95060000 		.4byte	.LASF273
 2775 1445 01       		.byte	0x1
 2776 1446 51       		.byte	0x51
 2777 1447 00000000 		.4byte	.LFB253
 2778 144b 70000000 		.4byte	.LFE253-.LFB253
 2779 144f 01       		.uleb128 0x1
 2780 1450 9C       		.byte	0x9c
 2781 1451 63140000 		.4byte	0x1463
 2782 1455 26       		.uleb128 0x26
 2783 1456 C9000000 		.4byte	.LASF226
 2784 145a 01       		.byte	0x1
 2785 145b 51       		.byte	0x51
 2786 145c 63140000 		.4byte	0x1463
 2787 1460 01       		.uleb128 0x1
 2788 1461 50       		.byte	0x50
 2789 1462 00       		.byte	0
 2790 1463 0C       		.uleb128 0xc
 2791 1464 04       		.byte	0x4
 2792 1465 D20F0000 		.4byte	0xfd2
 2793 1469 00       		.byte	0
ARM GAS  C:\Users\14122\AppData\Local\Temp\ccYwHGHv.s 			page 50


 2794              		.section	.debug_abbrev,"",%progbits
 2795              	.Ldebug_abbrev0:
 2796 0000 01       		.uleb128 0x1
 2797 0001 11       		.uleb128 0x11
 2798 0002 01       		.byte	0x1
 2799 0003 25       		.uleb128 0x25
 2800 0004 0E       		.uleb128 0xe
 2801 0005 13       		.uleb128 0x13
 2802 0006 0B       		.uleb128 0xb
 2803 0007 03       		.uleb128 0x3
 2804 0008 0E       		.uleb128 0xe
 2805 0009 1B       		.uleb128 0x1b
 2806 000a 0E       		.uleb128 0xe
 2807 000b 55       		.uleb128 0x55
 2808 000c 17       		.uleb128 0x17
 2809 000d 11       		.uleb128 0x11
 2810 000e 01       		.uleb128 0x1
 2811 000f 10       		.uleb128 0x10
 2812 0010 17       		.uleb128 0x17
 2813 0011 00       		.byte	0
 2814 0012 00       		.byte	0
 2815 0013 02       		.uleb128 0x2
 2816 0014 24       		.uleb128 0x24
 2817 0015 00       		.byte	0
 2818 0016 0B       		.uleb128 0xb
 2819 0017 0B       		.uleb128 0xb
 2820 0018 3E       		.uleb128 0x3e
 2821 0019 0B       		.uleb128 0xb
 2822 001a 03       		.uleb128 0x3
 2823 001b 08       		.uleb128 0x8
 2824 001c 00       		.byte	0
 2825 001d 00       		.byte	0
 2826 001e 03       		.uleb128 0x3
 2827 001f 16       		.uleb128 0x16
 2828 0020 00       		.byte	0
 2829 0021 03       		.uleb128 0x3
 2830 0022 0E       		.uleb128 0xe
 2831 0023 3A       		.uleb128 0x3a
 2832 0024 0B       		.uleb128 0xb
 2833 0025 3B       		.uleb128 0x3b
 2834 0026 0B       		.uleb128 0xb
 2835 0027 49       		.uleb128 0x49
 2836 0028 13       		.uleb128 0x13
 2837 0029 00       		.byte	0
 2838 002a 00       		.byte	0
 2839 002b 04       		.uleb128 0x4
 2840 002c 24       		.uleb128 0x24
 2841 002d 00       		.byte	0
 2842 002e 0B       		.uleb128 0xb
 2843 002f 0B       		.uleb128 0xb
 2844 0030 3E       		.uleb128 0x3e
 2845 0031 0B       		.uleb128 0xb
 2846 0032 03       		.uleb128 0x3
 2847 0033 0E       		.uleb128 0xe
 2848 0034 00       		.byte	0
 2849 0035 00       		.byte	0
 2850 0036 05       		.uleb128 0x5
ARM GAS  C:\Users\14122\AppData\Local\Temp\ccYwHGHv.s 			page 51


 2851 0037 26       		.uleb128 0x26
 2852 0038 00       		.byte	0
 2853 0039 49       		.uleb128 0x49
 2854 003a 13       		.uleb128 0x13
 2855 003b 00       		.byte	0
 2856 003c 00       		.byte	0
 2857 003d 06       		.uleb128 0x6
 2858 003e 35       		.uleb128 0x35
 2859 003f 00       		.byte	0
 2860 0040 49       		.uleb128 0x49
 2861 0041 13       		.uleb128 0x13
 2862 0042 00       		.byte	0
 2863 0043 00       		.byte	0
 2864 0044 07       		.uleb128 0x7
 2865 0045 13       		.uleb128 0x13
 2866 0046 01       		.byte	0x1
 2867 0047 03       		.uleb128 0x3
 2868 0048 0E       		.uleb128 0xe
 2869 0049 0B       		.uleb128 0xb
 2870 004a 0B       		.uleb128 0xb
 2871 004b 3A       		.uleb128 0x3a
 2872 004c 0B       		.uleb128 0xb
 2873 004d 3B       		.uleb128 0x3b
 2874 004e 0B       		.uleb128 0xb
 2875 004f 01       		.uleb128 0x1
 2876 0050 13       		.uleb128 0x13
 2877 0051 00       		.byte	0
 2878 0052 00       		.byte	0
 2879 0053 08       		.uleb128 0x8
 2880 0054 0D       		.uleb128 0xd
 2881 0055 00       		.byte	0
 2882 0056 03       		.uleb128 0x3
 2883 0057 0E       		.uleb128 0xe
 2884 0058 3A       		.uleb128 0x3a
 2885 0059 0B       		.uleb128 0xb
 2886 005a 3B       		.uleb128 0x3b
 2887 005b 0B       		.uleb128 0xb
 2888 005c 49       		.uleb128 0x49
 2889 005d 13       		.uleb128 0x13
 2890 005e 38       		.uleb128 0x38
 2891 005f 0B       		.uleb128 0xb
 2892 0060 00       		.byte	0
 2893 0061 00       		.byte	0
 2894 0062 09       		.uleb128 0x9
 2895 0063 0D       		.uleb128 0xd
 2896 0064 00       		.byte	0
 2897 0065 03       		.uleb128 0x3
 2898 0066 08       		.uleb128 0x8
 2899 0067 3A       		.uleb128 0x3a
 2900 0068 0B       		.uleb128 0xb
 2901 0069 3B       		.uleb128 0x3b
 2902 006a 0B       		.uleb128 0xb
 2903 006b 49       		.uleb128 0x49
 2904 006c 13       		.uleb128 0x13
 2905 006d 38       		.uleb128 0x38
 2906 006e 0B       		.uleb128 0xb
 2907 006f 00       		.byte	0
ARM GAS  C:\Users\14122\AppData\Local\Temp\ccYwHGHv.s 			page 52


 2908 0070 00       		.byte	0
 2909 0071 0A       		.uleb128 0xa
 2910 0072 0D       		.uleb128 0xd
 2911 0073 00       		.byte	0
 2912 0074 03       		.uleb128 0x3
 2913 0075 08       		.uleb128 0x8
 2914 0076 3A       		.uleb128 0x3a
 2915 0077 0B       		.uleb128 0xb
 2916 0078 3B       		.uleb128 0x3b
 2917 0079 05       		.uleb128 0x5
 2918 007a 49       		.uleb128 0x49
 2919 007b 13       		.uleb128 0x13
 2920 007c 38       		.uleb128 0x38
 2921 007d 0B       		.uleb128 0xb
 2922 007e 00       		.byte	0
 2923 007f 00       		.byte	0
 2924 0080 0B       		.uleb128 0xb
 2925 0081 0D       		.uleb128 0xd
 2926 0082 00       		.byte	0
 2927 0083 03       		.uleb128 0x3
 2928 0084 0E       		.uleb128 0xe
 2929 0085 3A       		.uleb128 0x3a
 2930 0086 0B       		.uleb128 0xb
 2931 0087 3B       		.uleb128 0x3b
 2932 0088 05       		.uleb128 0x5
 2933 0089 49       		.uleb128 0x49
 2934 008a 13       		.uleb128 0x13
 2935 008b 38       		.uleb128 0x38
 2936 008c 0B       		.uleb128 0xb
 2937 008d 00       		.byte	0
 2938 008e 00       		.byte	0
 2939 008f 0C       		.uleb128 0xc
 2940 0090 0F       		.uleb128 0xf
 2941 0091 00       		.byte	0
 2942 0092 0B       		.uleb128 0xb
 2943 0093 0B       		.uleb128 0xb
 2944 0094 49       		.uleb128 0x49
 2945 0095 13       		.uleb128 0x13
 2946 0096 00       		.byte	0
 2947 0097 00       		.byte	0
 2948 0098 0D       		.uleb128 0xd
 2949 0099 13       		.uleb128 0x13
 2950 009a 01       		.byte	0x1
 2951 009b 03       		.uleb128 0x3
 2952 009c 0E       		.uleb128 0xe
 2953 009d 0B       		.uleb128 0xb
 2954 009e 0B       		.uleb128 0xb
 2955 009f 3A       		.uleb128 0x3a
 2956 00a0 0B       		.uleb128 0xb
 2957 00a1 3B       		.uleb128 0x3b
 2958 00a2 05       		.uleb128 0x5
 2959 00a3 01       		.uleb128 0x1
 2960 00a4 13       		.uleb128 0x13
 2961 00a5 00       		.byte	0
 2962 00a6 00       		.byte	0
 2963 00a7 0E       		.uleb128 0xe
 2964 00a8 15       		.uleb128 0x15
ARM GAS  C:\Users\14122\AppData\Local\Temp\ccYwHGHv.s 			page 53


 2965 00a9 01       		.byte	0x1
 2966 00aa 27       		.uleb128 0x27
 2967 00ab 19       		.uleb128 0x19
 2968 00ac 01       		.uleb128 0x1
 2969 00ad 13       		.uleb128 0x13
 2970 00ae 00       		.byte	0
 2971 00af 00       		.byte	0
 2972 00b0 0F       		.uleb128 0xf
 2973 00b1 05       		.uleb128 0x5
 2974 00b2 00       		.byte	0
 2975 00b3 49       		.uleb128 0x49
 2976 00b4 13       		.uleb128 0x13
 2977 00b5 00       		.byte	0
 2978 00b6 00       		.byte	0
 2979 00b7 10       		.uleb128 0x10
 2980 00b8 0F       		.uleb128 0xf
 2981 00b9 00       		.byte	0
 2982 00ba 0B       		.uleb128 0xb
 2983 00bb 0B       		.uleb128 0xb
 2984 00bc 00       		.byte	0
 2985 00bd 00       		.byte	0
 2986 00be 11       		.uleb128 0x11
 2987 00bf 01       		.uleb128 0x1
 2988 00c0 01       		.byte	0x1
 2989 00c1 49       		.uleb128 0x49
 2990 00c2 13       		.uleb128 0x13
 2991 00c3 01       		.uleb128 0x1
 2992 00c4 13       		.uleb128 0x13
 2993 00c5 00       		.byte	0
 2994 00c6 00       		.byte	0
 2995 00c7 12       		.uleb128 0x12
 2996 00c8 21       		.uleb128 0x21
 2997 00c9 00       		.byte	0
 2998 00ca 49       		.uleb128 0x49
 2999 00cb 13       		.uleb128 0x13
 3000 00cc 2F       		.uleb128 0x2f
 3001 00cd 0B       		.uleb128 0xb
 3002 00ce 00       		.byte	0
 3003 00cf 00       		.byte	0
 3004 00d0 13       		.uleb128 0x13
 3005 00d1 34       		.uleb128 0x34
 3006 00d2 00       		.byte	0
 3007 00d3 03       		.uleb128 0x3
 3008 00d4 0E       		.uleb128 0xe
 3009 00d5 3A       		.uleb128 0x3a
 3010 00d6 0B       		.uleb128 0xb
 3011 00d7 3B       		.uleb128 0x3b
 3012 00d8 05       		.uleb128 0x5
 3013 00d9 49       		.uleb128 0x49
 3014 00da 13       		.uleb128 0x13
 3015 00db 3F       		.uleb128 0x3f
 3016 00dc 19       		.uleb128 0x19
 3017 00dd 3C       		.uleb128 0x3c
 3018 00de 19       		.uleb128 0x19
 3019 00df 00       		.byte	0
 3020 00e0 00       		.byte	0
 3021 00e1 14       		.uleb128 0x14
ARM GAS  C:\Users\14122\AppData\Local\Temp\ccYwHGHv.s 			page 54


 3022 00e2 34       		.uleb128 0x34
 3023 00e3 00       		.byte	0
 3024 00e4 03       		.uleb128 0x3
 3025 00e5 0E       		.uleb128 0xe
 3026 00e6 3A       		.uleb128 0x3a
 3027 00e7 0B       		.uleb128 0xb
 3028 00e8 3B       		.uleb128 0x3b
 3029 00e9 0B       		.uleb128 0xb
 3030 00ea 49       		.uleb128 0x49
 3031 00eb 13       		.uleb128 0x13
 3032 00ec 3F       		.uleb128 0x3f
 3033 00ed 19       		.uleb128 0x19
 3034 00ee 3C       		.uleb128 0x3c
 3035 00ef 19       		.uleb128 0x19
 3036 00f0 00       		.byte	0
 3037 00f1 00       		.byte	0
 3038 00f2 15       		.uleb128 0x15
 3039 00f3 13       		.uleb128 0x13
 3040 00f4 01       		.byte	0x1
 3041 00f5 0B       		.uleb128 0xb
 3042 00f6 0B       		.uleb128 0xb
 3043 00f7 3A       		.uleb128 0x3a
 3044 00f8 0B       		.uleb128 0xb
 3045 00f9 3B       		.uleb128 0x3b
 3046 00fa 0B       		.uleb128 0xb
 3047 00fb 01       		.uleb128 0x1
 3048 00fc 13       		.uleb128 0x13
 3049 00fd 00       		.byte	0
 3050 00fe 00       		.byte	0
 3051 00ff 16       		.uleb128 0x16
 3052 0100 13       		.uleb128 0x13
 3053 0101 01       		.byte	0x1
 3054 0102 0B       		.uleb128 0xb
 3055 0103 05       		.uleb128 0x5
 3056 0104 3A       		.uleb128 0x3a
 3057 0105 0B       		.uleb128 0xb
 3058 0106 3B       		.uleb128 0x3b
 3059 0107 0B       		.uleb128 0xb
 3060 0108 01       		.uleb128 0x1
 3061 0109 13       		.uleb128 0x13
 3062 010a 00       		.byte	0
 3063 010b 00       		.byte	0
 3064 010c 17       		.uleb128 0x17
 3065 010d 0D       		.uleb128 0xd
 3066 010e 00       		.byte	0
 3067 010f 03       		.uleb128 0x3
 3068 0110 0E       		.uleb128 0xe
 3069 0111 3A       		.uleb128 0x3a
 3070 0112 0B       		.uleb128 0xb
 3071 0113 3B       		.uleb128 0x3b
 3072 0114 05       		.uleb128 0x5
 3073 0115 49       		.uleb128 0x49
 3074 0116 13       		.uleb128 0x13
 3075 0117 38       		.uleb128 0x38
 3076 0118 05       		.uleb128 0x5
 3077 0119 00       		.byte	0
 3078 011a 00       		.byte	0
ARM GAS  C:\Users\14122\AppData\Local\Temp\ccYwHGHv.s 			page 55


 3079 011b 18       		.uleb128 0x18
 3080 011c 0D       		.uleb128 0xd
 3081 011d 00       		.byte	0
 3082 011e 03       		.uleb128 0x3
 3083 011f 08       		.uleb128 0x8
 3084 0120 3A       		.uleb128 0x3a
 3085 0121 0B       		.uleb128 0xb
 3086 0122 3B       		.uleb128 0x3b
 3087 0123 05       		.uleb128 0x5
 3088 0124 49       		.uleb128 0x49
 3089 0125 13       		.uleb128 0x13
 3090 0126 38       		.uleb128 0x38
 3091 0127 05       		.uleb128 0x5
 3092 0128 00       		.byte	0
 3093 0129 00       		.byte	0
 3094 012a 19       		.uleb128 0x19
 3095 012b 16       		.uleb128 0x16
 3096 012c 00       		.byte	0
 3097 012d 03       		.uleb128 0x3
 3098 012e 0E       		.uleb128 0xe
 3099 012f 3A       		.uleb128 0x3a
 3100 0130 0B       		.uleb128 0xb
 3101 0131 3B       		.uleb128 0x3b
 3102 0132 05       		.uleb128 0x5
 3103 0133 49       		.uleb128 0x49
 3104 0134 13       		.uleb128 0x13
 3105 0135 00       		.byte	0
 3106 0136 00       		.byte	0
 3107 0137 1A       		.uleb128 0x1a
 3108 0138 13       		.uleb128 0x13
 3109 0139 01       		.byte	0x1
 3110 013a 0B       		.uleb128 0xb
 3111 013b 0B       		.uleb128 0xb
 3112 013c 3A       		.uleb128 0x3a
 3113 013d 0B       		.uleb128 0xb
 3114 013e 3B       		.uleb128 0x3b
 3115 013f 05       		.uleb128 0x5
 3116 0140 01       		.uleb128 0x1
 3117 0141 13       		.uleb128 0x13
 3118 0142 00       		.byte	0
 3119 0143 00       		.byte	0
 3120 0144 1B       		.uleb128 0x1b
 3121 0145 17       		.uleb128 0x17
 3122 0146 01       		.byte	0x1
 3123 0147 0B       		.uleb128 0xb
 3124 0148 0B       		.uleb128 0xb
 3125 0149 3A       		.uleb128 0x3a
 3126 014a 0B       		.uleb128 0xb
 3127 014b 3B       		.uleb128 0x3b
 3128 014c 0B       		.uleb128 0xb
 3129 014d 01       		.uleb128 0x1
 3130 014e 13       		.uleb128 0x13
 3131 014f 00       		.byte	0
 3132 0150 00       		.byte	0
 3133 0151 1C       		.uleb128 0x1c
 3134 0152 0D       		.uleb128 0xd
 3135 0153 00       		.byte	0
ARM GAS  C:\Users\14122\AppData\Local\Temp\ccYwHGHv.s 			page 56


 3136 0154 03       		.uleb128 0x3
 3137 0155 0E       		.uleb128 0xe
 3138 0156 3A       		.uleb128 0x3a
 3139 0157 0B       		.uleb128 0xb
 3140 0158 3B       		.uleb128 0x3b
 3141 0159 0B       		.uleb128 0xb
 3142 015a 49       		.uleb128 0x49
 3143 015b 13       		.uleb128 0x13
 3144 015c 00       		.byte	0
 3145 015d 00       		.byte	0
 3146 015e 1D       		.uleb128 0x1d
 3147 015f 0D       		.uleb128 0xd
 3148 0160 00       		.byte	0
 3149 0161 03       		.uleb128 0x3
 3150 0162 0E       		.uleb128 0xe
 3151 0163 3A       		.uleb128 0x3a
 3152 0164 0B       		.uleb128 0xb
 3153 0165 3B       		.uleb128 0x3b
 3154 0166 05       		.uleb128 0x5
 3155 0167 49       		.uleb128 0x49
 3156 0168 13       		.uleb128 0x13
 3157 0169 00       		.byte	0
 3158 016a 00       		.byte	0
 3159 016b 1E       		.uleb128 0x1e
 3160 016c 34       		.uleb128 0x34
 3161 016d 00       		.byte	0
 3162 016e 03       		.uleb128 0x3
 3163 016f 08       		.uleb128 0x8
 3164 0170 3A       		.uleb128 0x3a
 3165 0171 0B       		.uleb128 0xb
 3166 0172 3B       		.uleb128 0x3b
 3167 0173 05       		.uleb128 0x5
 3168 0174 49       		.uleb128 0x49
 3169 0175 13       		.uleb128 0x13
 3170 0176 3F       		.uleb128 0x3f
 3171 0177 19       		.uleb128 0x19
 3172 0178 3C       		.uleb128 0x3c
 3173 0179 19       		.uleb128 0x19
 3174 017a 00       		.byte	0
 3175 017b 00       		.byte	0
 3176 017c 1F       		.uleb128 0x1f
 3177 017d 21       		.uleb128 0x21
 3178 017e 00       		.byte	0
 3179 017f 00       		.byte	0
 3180 0180 00       		.byte	0
 3181 0181 20       		.uleb128 0x20
 3182 0182 15       		.uleb128 0x15
 3183 0183 01       		.byte	0x1
 3184 0184 27       		.uleb128 0x27
 3185 0185 19       		.uleb128 0x19
 3186 0186 49       		.uleb128 0x49
 3187 0187 13       		.uleb128 0x13
 3188 0188 01       		.uleb128 0x1
 3189 0189 13       		.uleb128 0x13
 3190 018a 00       		.byte	0
 3191 018b 00       		.byte	0
 3192 018c 21       		.uleb128 0x21
ARM GAS  C:\Users\14122\AppData\Local\Temp\ccYwHGHv.s 			page 57


 3193 018d 13       		.uleb128 0x13
 3194 018e 00       		.byte	0
 3195 018f 0B       		.uleb128 0xb
 3196 0190 0B       		.uleb128 0xb
 3197 0191 3A       		.uleb128 0x3a
 3198 0192 0B       		.uleb128 0xb
 3199 0193 3B       		.uleb128 0x3b
 3200 0194 0B       		.uleb128 0xb
 3201 0195 00       		.byte	0
 3202 0196 00       		.byte	0
 3203 0197 22       		.uleb128 0x22
 3204 0198 04       		.uleb128 0x4
 3205 0199 01       		.byte	0x1
 3206 019a 3E       		.uleb128 0x3e
 3207 019b 0B       		.uleb128 0xb
 3208 019c 0B       		.uleb128 0xb
 3209 019d 0B       		.uleb128 0xb
 3210 019e 49       		.uleb128 0x49
 3211 019f 13       		.uleb128 0x13
 3212 01a0 3A       		.uleb128 0x3a
 3213 01a1 0B       		.uleb128 0xb
 3214 01a2 3B       		.uleb128 0x3b
 3215 01a3 0B       		.uleb128 0xb
 3216 01a4 01       		.uleb128 0x1
 3217 01a5 13       		.uleb128 0x13
 3218 01a6 00       		.byte	0
 3219 01a7 00       		.byte	0
 3220 01a8 23       		.uleb128 0x23
 3221 01a9 28       		.uleb128 0x28
 3222 01aa 00       		.byte	0
 3223 01ab 03       		.uleb128 0x3
 3224 01ac 0E       		.uleb128 0xe
 3225 01ad 1C       		.uleb128 0x1c
 3226 01ae 0B       		.uleb128 0xb
 3227 01af 00       		.byte	0
 3228 01b0 00       		.byte	0
 3229 01b1 24       		.uleb128 0x24
 3230 01b2 34       		.uleb128 0x34
 3231 01b3 00       		.byte	0
 3232 01b4 47       		.uleb128 0x47
 3233 01b5 13       		.uleb128 0x13
 3234 01b6 3A       		.uleb128 0x3a
 3235 01b7 0B       		.uleb128 0xb
 3236 01b8 3B       		.uleb128 0x3b
 3237 01b9 0B       		.uleb128 0xb
 3238 01ba 02       		.uleb128 0x2
 3239 01bb 18       		.uleb128 0x18
 3240 01bc 00       		.byte	0
 3241 01bd 00       		.byte	0
 3242 01be 25       		.uleb128 0x25
 3243 01bf 2E       		.uleb128 0x2e
 3244 01c0 01       		.byte	0x1
 3245 01c1 3F       		.uleb128 0x3f
 3246 01c2 19       		.uleb128 0x19
 3247 01c3 03       		.uleb128 0x3
 3248 01c4 0E       		.uleb128 0xe
 3249 01c5 3A       		.uleb128 0x3a
ARM GAS  C:\Users\14122\AppData\Local\Temp\ccYwHGHv.s 			page 58


 3250 01c6 0B       		.uleb128 0xb
 3251 01c7 3B       		.uleb128 0x3b
 3252 01c8 0B       		.uleb128 0xb
 3253 01c9 27       		.uleb128 0x27
 3254 01ca 19       		.uleb128 0x19
 3255 01cb 11       		.uleb128 0x11
 3256 01cc 01       		.uleb128 0x1
 3257 01cd 12       		.uleb128 0x12
 3258 01ce 06       		.uleb128 0x6
 3259 01cf 40       		.uleb128 0x40
 3260 01d0 18       		.uleb128 0x18
 3261 01d1 9742     		.uleb128 0x2117
 3262 01d3 19       		.uleb128 0x19
 3263 01d4 01       		.uleb128 0x1
 3264 01d5 13       		.uleb128 0x13
 3265 01d6 00       		.byte	0
 3266 01d7 00       		.byte	0
 3267 01d8 26       		.uleb128 0x26
 3268 01d9 05       		.uleb128 0x5
 3269 01da 00       		.byte	0
 3270 01db 03       		.uleb128 0x3
 3271 01dc 0E       		.uleb128 0xe
 3272 01dd 3A       		.uleb128 0x3a
 3273 01de 0B       		.uleb128 0xb
 3274 01df 3B       		.uleb128 0x3b
 3275 01e0 0B       		.uleb128 0xb
 3276 01e1 49       		.uleb128 0x49
 3277 01e2 13       		.uleb128 0x13
 3278 01e3 02       		.uleb128 0x2
 3279 01e4 18       		.uleb128 0x18
 3280 01e5 00       		.byte	0
 3281 01e6 00       		.byte	0
 3282 01e7 27       		.uleb128 0x27
 3283 01e8 05       		.uleb128 0x5
 3284 01e9 00       		.byte	0
 3285 01ea 03       		.uleb128 0x3
 3286 01eb 0E       		.uleb128 0xe
 3287 01ec 3A       		.uleb128 0x3a
 3288 01ed 0B       		.uleb128 0xb
 3289 01ee 3B       		.uleb128 0x3b
 3290 01ef 0B       		.uleb128 0xb
 3291 01f0 49       		.uleb128 0x49
 3292 01f1 13       		.uleb128 0x13
 3293 01f2 02       		.uleb128 0x2
 3294 01f3 17       		.uleb128 0x17
 3295 01f4 00       		.byte	0
 3296 01f5 00       		.byte	0
 3297 01f6 28       		.uleb128 0x28
 3298 01f7 34       		.uleb128 0x34
 3299 01f8 00       		.byte	0
 3300 01f9 03       		.uleb128 0x3
 3301 01fa 0E       		.uleb128 0xe
 3302 01fb 3A       		.uleb128 0x3a
 3303 01fc 0B       		.uleb128 0xb
 3304 01fd 3B       		.uleb128 0x3b
 3305 01fe 0B       		.uleb128 0xb
 3306 01ff 49       		.uleb128 0x49
ARM GAS  C:\Users\14122\AppData\Local\Temp\ccYwHGHv.s 			page 59


 3307 0200 13       		.uleb128 0x13
 3308 0201 02       		.uleb128 0x2
 3309 0202 18       		.uleb128 0x18
 3310 0203 00       		.byte	0
 3311 0204 00       		.byte	0
 3312 0205 29       		.uleb128 0x29
 3313 0206 34       		.uleb128 0x34
 3314 0207 00       		.byte	0
 3315 0208 03       		.uleb128 0x3
 3316 0209 08       		.uleb128 0x8
 3317 020a 3A       		.uleb128 0x3a
 3318 020b 0B       		.uleb128 0xb
 3319 020c 3B       		.uleb128 0x3b
 3320 020d 0B       		.uleb128 0xb
 3321 020e 49       		.uleb128 0x49
 3322 020f 13       		.uleb128 0x13
 3323 0210 02       		.uleb128 0x2
 3324 0211 17       		.uleb128 0x17
 3325 0212 00       		.byte	0
 3326 0213 00       		.byte	0
 3327 0214 00       		.byte	0
 3328              		.section	.debug_loc,"",%progbits
 3329              	.Ldebug_loc0:
 3330              	.LLST0:
 3331 0000 00000000 		.4byte	.LVL1
 3332 0004 4C000000 		.4byte	.LVL12
 3333 0008 0100     		.2byte	0x1
 3334 000a 51       		.byte	0x51
 3335 000b 4C000000 		.4byte	.LVL12
 3336 000f 6C000000 		.4byte	.LFE254
 3337 0013 0100     		.2byte	0x1
 3338 0015 51       		.byte	0x51
 3339 0016 00000000 		.4byte	0
 3340 001a 00000000 		.4byte	0
 3341              	.LLST1:
 3342 001e 00000000 		.4byte	.LVL1
 3343 0022 1E000000 		.4byte	.LVL2
 3344 0026 0100     		.2byte	0x1
 3345 0028 52       		.byte	0x52
 3346 0029 1E000000 		.4byte	.LVL2
 3347 002d 62000000 		.4byte	.LVL18
 3348 0031 0400     		.2byte	0x4
 3349 0033 F3       		.byte	0xf3
 3350 0034 01       		.uleb128 0x1
 3351 0035 52       		.byte	0x52
 3352 0036 9F       		.byte	0x9f
 3353 0037 62000000 		.4byte	.LVL18
 3354 003b 6C000000 		.4byte	.LFE254
 3355 003f 0100     		.2byte	0x1
 3356 0041 52       		.byte	0x52
 3357 0042 00000000 		.4byte	0
 3358 0046 00000000 		.4byte	0
 3359              	.LLST2:
 3360 004a 1E000000 		.4byte	.LVL2
 3361 004e 52000000 		.4byte	.LVL14
 3362 0052 0100     		.2byte	0x1
 3363 0054 56       		.byte	0x56
ARM GAS  C:\Users\14122\AppData\Local\Temp\ccYwHGHv.s 			page 60


 3364 0055 00000000 		.4byte	0
 3365 0059 00000000 		.4byte	0
 3366              	.LLST3:
 3367 005d 1E000000 		.4byte	.LVL2
 3368 0061 5A000000 		.4byte	.LVL16
 3369 0065 0100     		.2byte	0x1
 3370 0067 54       		.byte	0x54
 3371 0068 00000000 		.4byte	0
 3372 006c 00000000 		.4byte	0
 3373              	.LLST4:
 3374 0070 1E000000 		.4byte	.LVL2
 3375 0074 54000000 		.4byte	.LVL15
 3376 0078 0100     		.2byte	0x1
 3377 007a 55       		.byte	0x55
 3378 007b 00000000 		.4byte	0
 3379 007f 00000000 		.4byte	0
 3380              	.LLST5:
 3381 0083 1E000000 		.4byte	.LVL2
 3382 0087 2A000000 		.4byte	.LVL4
 3383 008b 0100     		.2byte	0x1
 3384 008d 53       		.byte	0x53
 3385 008e 2E000000 		.4byte	.LVL5
 3386 0092 5C000000 		.4byte	.LVL17
 3387 0096 0100     		.2byte	0x1
 3388 0098 53       		.byte	0x53
 3389 0099 00000000 		.4byte	0
 3390 009d 00000000 		.4byte	0
 3391              	.LLST6:
 3392 00a1 1E000000 		.4byte	.LVL2
 3393 00a5 50000000 		.4byte	.LVL13
 3394 00a9 0100     		.2byte	0x1
 3395 00ab 52       		.byte	0x52
 3396 00ac 50000000 		.4byte	.LVL13
 3397 00b0 62000000 		.4byte	.LVL18
 3398 00b4 0C00     		.2byte	0xc
 3399 00b6 7C       		.byte	0x7c
 3400 00b7 00       		.sleb128 0
 3401 00b8 F3       		.byte	0xf3
 3402 00b9 01       		.uleb128 0x1
 3403 00ba 52       		.byte	0x52
 3404 00bb 22       		.byte	0x22
 3405 00bc 94       		.byte	0x94
 3406 00bd 01       		.byte	0x1
 3407 00be 08       		.byte	0x8
 3408 00bf FF       		.byte	0xff
 3409 00c0 1A       		.byte	0x1a
 3410 00c1 9F       		.byte	0x9f
 3411 00c2 00000000 		.4byte	0
 3412 00c6 00000000 		.4byte	0
 3413              	.LLST7:
 3414 00ca 1E000000 		.4byte	.LVL2
 3415 00ce 48000000 		.4byte	.LVL11
 3416 00d2 0500     		.2byte	0x5
 3417 00d4 38       		.byte	0x38
 3418 00d5 77       		.byte	0x77
 3419 00d6 00       		.sleb128 0
 3420 00d7 1C       		.byte	0x1c
ARM GAS  C:\Users\14122\AppData\Local\Temp\ccYwHGHv.s 			page 61


 3421 00d8 9F       		.byte	0x9f
 3422 00d9 48000000 		.4byte	.LVL11
 3423 00dd 4C000000 		.4byte	.LVL12
 3424 00e1 0500     		.2byte	0x5
 3425 00e3 37       		.byte	0x37
 3426 00e4 77       		.byte	0x77
 3427 00e5 00       		.sleb128 0
 3428 00e6 1C       		.byte	0x1c
 3429 00e7 9F       		.byte	0x9f
 3430 00e8 00000000 		.4byte	0
 3431 00ec 00000000 		.4byte	0
 3432              		.section	.debug_aranges,"",%progbits
 3433 0000 24000000 		.4byte	0x24
 3434 0004 0200     		.2byte	0x2
 3435 0006 00000000 		.4byte	.Ldebug_info0
 3436 000a 04       		.byte	0x4
 3437 000b 00       		.byte	0
 3438 000c 0000     		.2byte	0
 3439 000e 0000     		.2byte	0
 3440 0010 00000000 		.4byte	.LFB253
 3441 0014 70000000 		.4byte	.LFE253-.LFB253
 3442 0018 00000000 		.4byte	.LFB254
 3443 001c 6C000000 		.4byte	.LFE254-.LFB254
 3444 0020 00000000 		.4byte	0
 3445 0024 00000000 		.4byte	0
 3446              		.section	.debug_ranges,"",%progbits
 3447              	.Ldebug_ranges0:
 3448 0000 00000000 		.4byte	.LFB253
 3449 0004 70000000 		.4byte	.LFE253
 3450 0008 00000000 		.4byte	.LFB254
 3451 000c 6C000000 		.4byte	.LFE254
 3452 0010 00000000 		.4byte	0
 3453 0014 00000000 		.4byte	0
 3454              		.section	.debug_line,"",%progbits
 3455              	.Ldebug_line0:
 3456 0000 73040000 		.section	.debug_str,"MS",%progbits,1
 3456      0200F003 
 3456      00000201 
 3456      FB0E0D00 
 3456      01010101 
 3457              	.LASF148:
 3458 0000 6F66665F 		.ascii	"off_ctx\000"
 3458      63747800 
 3459              	.LASF199:
 3460 0008 73746D33 		.ascii	"stm32_dma_stream_t\000"
 3460      325F646D 
 3460      615F7374 
 3460      7265616D 
 3460      5F7400
 3461              	.LASF4:
 3462 001b 73697A65 		.ascii	"size_t\000"
 3462      5F7400
 3463              	.LASF147:
 3464 0022 6F66665F 		.ascii	"off_prio\000"
 3464      7072696F 
 3464      00
 3465              	.LASF171:
ARM GAS  C:\Users\14122\AppData\Local\Temp\ccYwHGHv.s 			page 62


 3466 002b 656E646D 		.ascii	"endmem\000"
 3466      656D00
 3467              	.LASF132:
 3468 0032 77747365 		.ascii	"wtsemp\000"
 3468      6D7000
 3469              	.LASF73:
 3470 0039 73797374 		.ascii	"systime_t\000"
 3470      696D655F 
 3470      7400
 3471              	.LASF156:
 3472 0043 6F66665F 		.ascii	"off_preempt\000"
 3472      70726565 
 3472      6D707400 
 3473              	.LASF137:
 3474 004f 6F776E65 		.ascii	"owner\000"
 3474      7200
 3475              	.LASF24:
 3476 0055 74707269 		.ascii	"tprio_t\000"
 3476      6F5F7400 
 3477              	.LASF159:
 3478 005d 63685F64 		.ascii	"ch_debug\000"
 3478      65627567 
 3478      00
 3479              	.LASF177:
 3480 0066 70726F76 		.ascii	"provider\000"
 3480      69646572 
 3480      00
 3481              	.LASF18:
 3482 006f 696E7433 		.ascii	"int32_t\000"
 3482      325F7400 
 3483              	.LASF57:
 3484 0077 76746675 		.ascii	"vtfunc_t\000"
 3484      6E635F74 
 3484      00
 3485              	.LASF232:
 3486 0080 736C6565 		.ascii	"sleep_event\000"
 3486      705F6576 
 3486      656E7400 
 3487              	.LASF63:
 3488 008c 63685F76 		.ascii	"ch_virtual_timers_list\000"
 3488      69727475 
 3488      616C5F74 
 3488      696D6572 
 3488      735F6C69 
 3489              	.LASF237:
 3490 00a3 55415254 		.ascii	"UART_STOP\000"
 3490      5F53544F 
 3490      5000
 3491              	.LASF179:
 3492 00ad 63685F64 		.ascii	"ch_dyn_element\000"
 3492      796E5F65 
 3492      6C656D65 
 3492      6E7400
 3493              	.LASF233:
 3494 00bc 77616B65 		.ascii	"wakeup_event\000"
 3494      75705F65 
 3494      76656E74 
ARM GAS  C:\Users\14122\AppData\Local\Temp\ccYwHGHv.s 			page 63


 3494      00
 3495              	.LASF226:
 3496 00c9 636F6E66 		.ascii	"config\000"
 3496      696700
 3497              	.LASF37:
 3498 00d0 73746174 		.ascii	"state\000"
 3498      6500
 3499              	.LASF212:
 3500 00d6 50454461 		.ascii	"PEData\000"
 3500      746100
 3501              	.LASF251:
 3502 00dd 72787374 		.ascii	"rxstate\000"
 3502      61746500 
 3503              	.LASF234:
 3504 00e5 43414E43 		.ascii	"CANConfig\000"
 3504      6F6E6669 
 3504      6700
 3505              	.LASF104:
 3506 00ef 434E4454 		.ascii	"CNDTR\000"
 3506      5200
 3507              	.LASF184:
 3508 00f5 6F626A5F 		.ascii	"obj_list\000"
 3508      6C697374 
 3508      00
 3509              	.LASF262:
 3510 00fe 7278656E 		.ascii	"rxend_cb\000"
 3510      645F6362 
 3510      00
 3511              	.LASF150:
 3512 0107 6F66665F 		.ascii	"off_older\000"
 3512      6F6C6465 
 3512      7200
 3513              	.LASF32:
 3514 0111 7072696F 		.ascii	"prio\000"
 3514      00
 3515              	.LASF215:
 3516 0116 696F6D6F 		.ascii	"iomode_t\000"
 3516      64655F74 
 3516      00
 3517              	.LASF272:
 3518 011f 5F70616C 		.ascii	"_pal_lld_setgroupmode\000"
 3518      5F6C6C64 
 3518      5F736574 
 3518      67726F75 
 3518      706D6F64 
 3519              	.LASF207:
 3520 0135 73746D33 		.ascii	"stm32_gpio_setup_t\000"
 3520      325F6770 
 3520      696F5F73 
 3520      65747570 
 3520      5F7400
 3521              	.LASF128:
 3522 0148 65786974 		.ascii	"exitcode\000"
 3522      636F6465 
 3522      00
 3523              	.LASF5:
 3524 0151 5F5F7569 		.ascii	"__uint8_t\000"
ARM GAS  C:\Users\14122\AppData\Local\Temp\ccYwHGHv.s 			page 64


 3524      6E74385F 
 3524      7400
 3525              	.LASF225:
 3526 015b 43414E44 		.ascii	"CANDriver\000"
 3526      72697665 
 3526      7200
 3527              	.LASF241:
 3528 0165 55415254 		.ascii	"UART_TX_ACTIVE\000"
 3528      5F54585F 
 3528      41435449 
 3528      564500
 3529              	.LASF249:
 3530 0174 55415254 		.ascii	"UARTDriver\000"
 3530      44726976 
 3530      657200
 3531              	.LASF11:
 3532 017f 6C6F6E67 		.ascii	"long int\000"
 3532      20696E74 
 3532      00
 3533              	.LASF141:
 3534 0188 7A65726F 		.ascii	"zero\000"
 3534      00
 3535              	.LASF100:
 3536 018d 46413152 		.ascii	"FA1R\000"
 3536      00
 3537              	.LASF216:
 3538 0192 696F706F 		.ascii	"ioportid_t\000"
 3538      72746964 
 3538      5F7400
 3539              	.LASF22:
 3540 019d 74737461 		.ascii	"tstate_t\000"
 3540      74655F74 
 3540      00
 3541              	.LASF42:
 3542 01a6 6570656E 		.ascii	"epending\000"
 3542      64696E67 
 3542      00
 3543              	.LASF51:
 3544 01af 74687265 		.ascii	"threads_queue_t\000"
 3544      6164735F 
 3544      71756575 
 3544      655F7400 
 3545              	.LASF123:
 3546 01bf 72656761 		.ascii	"regarm_t\000"
 3546      726D5F74 
 3546      00
 3547              	.LASF250:
 3548 01c8 74787374 		.ascii	"txstate\000"
 3548      61746500 
 3549              	.LASF117:
 3550 01d0 41504232 		.ascii	"APB2ENR\000"
 3550      454E5200 
 3551              	.LASF185:
 3552 01d8 6F626A5F 		.ascii	"obj_pool\000"
 3552      706F6F6C 
 3552      00
 3553              	.LASF243:
ARM GAS  C:\Users\14122\AppData\Local\Temp\ccYwHGHv.s 			page 65


 3554 01e1 75617274 		.ascii	"uarttxstate_t\000"
 3554      74787374 
 3554      6174655F 
 3554      7400
 3555              	.LASF105:
 3556 01ef 43504152 		.ascii	"CPAR\000"
 3556      00
 3557              	.LASF252:
 3558 01f4 75736172 		.ascii	"usart\000"
 3558      7400
 3559              	.LASF217:
 3560 01fa 70616C5F 		.ascii	"pal_default_config\000"
 3560      64656661 
 3560      756C745F 
 3560      636F6E66 
 3560      696700
 3561              	.LASF88:
 3562 020d 52463052 		.ascii	"RF0R\000"
 3562      00
 3563              	.LASF172:
 3564 0212 6D656D63 		.ascii	"memcore_t\000"
 3564      6F72655F 
 3564      7400
 3565              	.LASF3:
 3566 021c 7369676E 		.ascii	"signed char\000"
 3566      65642063 
 3566      68617200 
 3567              	.LASF134:
 3568 0228 65776D61 		.ascii	"ewmask\000"
 3568      736B00
 3569              	.LASF16:
 3570 022f 75696E74 		.ascii	"uint8_t\000"
 3570      385F7400 
 3571              	.LASF26:
 3572 0237 6576656E 		.ascii	"eventmask_t\000"
 3572      746D6173 
 3572      6B5F7400 
 3573              	.LASF87:
 3574 0243 43414E5F 		.ascii	"CAN_FilterRegister_TypeDef\000"
 3574      46696C74 
 3574      65725265 
 3574      67697374 
 3574      65725F54 
 3575              	.LASF92:
 3576 025e 73464946 		.ascii	"sFIFOMailBox\000"
 3576      4F4D6169 
 3576      6C426F78 
 3576      00
 3577              	.LASF229:
 3578 026b 72786675 		.ascii	"rxfull_event\000"
 3578      6C6C5F65 
 3578      76656E74 
 3578      00
 3579              	.LASF130:
 3580 0278 77747472 		.ascii	"wttrp\000"
 3580      7000
 3581              	.LASF90:
ARM GAS  C:\Users\14122\AppData\Local\Temp\ccYwHGHv.s 			page 66


 3582 027e 52455345 		.ascii	"RESERVED0\000"
 3582      52564544 
 3582      3000
 3583              	.LASF93:
 3584 0288 52455345 		.ascii	"RESERVED1\000"
 3584      52564544 
 3584      3100
 3585              	.LASF6:
 3586 0292 756E7369 		.ascii	"unsigned char\000"
 3586      676E6564 
 3586      20636861 
 3586      7200
 3587              	.LASF97:
 3588 02a0 52455345 		.ascii	"RESERVED3\000"
 3588      52564544 
 3588      3300
 3589              	.LASF99:
 3590 02aa 52455345 		.ascii	"RESERVED4\000"
 3590      52564544 
 3590      3400
 3591              	.LASF101:
 3592 02b4 52455345 		.ascii	"RESERVED5\000"
 3592      52564544 
 3592      3500
 3593              	.LASF64:
 3594 02be 6C617374 		.ascii	"lasttime\000"
 3594      74696D65 
 3594      00
 3595              	.LASF211:
 3596 02c7 50444461 		.ascii	"PDData\000"
 3596      746100
 3597              	.LASF109:
 3598 02ce 444D415F 		.ascii	"DMA_TypeDef\000"
 3598      54797065 
 3598      44656600 
 3599              	.LASF89:
 3600 02da 52463152 		.ascii	"RF1R\000"
 3600      00
 3601              	.LASF67:
 3602 02df 70616E69 		.ascii	"panic_msg\000"
 3602      635F6D73 
 3602      6700
 3603              	.LASF65:
 3604 02e9 73797374 		.ascii	"system_debug_t\000"
 3604      656D5F64 
 3604      65627567 
 3604      5F7400
 3605              	.LASF168:
 3606 02f8 5F426F6F 		.ascii	"_Bool\000"
 3606      6C00
 3607              	.LASF169:
 3608 02fe 6D656D67 		.ascii	"memgetfunc_t\000"
 3608      65746675 
 3608      6E635F74 
 3608      00
 3609              	.LASF95:
 3610 030b 52455345 		.ascii	"RESERVED2\000"
ARM GAS  C:\Users\14122\AppData\Local\Temp\ccYwHGHv.s 			page 67


 3610      52564544 
 3610      3200
 3611              	.LASF238:
 3612 0315 55415254 		.ascii	"UART_READY\000"
 3612      5F524541 
 3612      445900
 3613              	.LASF138:
 3614 0320 63686172 		.ascii	"char\000"
 3614      00
 3615              	.LASF108:
 3616 0325 49464352 		.ascii	"IFCR\000"
 3616      00
 3617              	.LASF187:
 3618 032a 73656D5F 		.ascii	"sem_list\000"
 3618      6C697374 
 3618      00
 3619              	.LASF8:
 3620 0333 5F5F7569 		.ascii	"__uint16_t\000"
 3620      6E743136 
 3620      5F7400
 3621              	.LASF129:
 3622 033e 77746F62 		.ascii	"wtobjp\000"
 3622      6A7000
 3623              	.LASF206:
 3624 0345 70616C65 		.ascii	"palevent_t\000"
 3624      76656E74 
 3624      5F7400
 3625              	.LASF155:
 3626 0350 6F66665F 		.ascii	"off_refs\000"
 3626      72656673 
 3626      00
 3627              	.LASF38:
 3628 0359 666C6167 		.ascii	"flags\000"
 3628      7300
 3629              	.LASF124:
 3630 035f 73746B61 		.ascii	"stkalign_t\000"
 3630      6C69676E 
 3630      5F7400
 3631              	.LASF122:
 3632 036a 55534152 		.ascii	"USART_TypeDef\000"
 3632      545F5479 
 3632      70654465 
 3632      6600
 3633              	.LASF45:
 3634 0378 6D706F6F 		.ascii	"mpool\000"
 3634      6C00
 3635              	.LASF161:
 3636 037e 6576656E 		.ascii	"event_listener_t\000"
 3636      745F6C69 
 3636      7374656E 
 3636      65725F74 
 3636      00
 3637              	.LASF144:
 3638 038f 70747273 		.ascii	"ptrsize\000"
 3638      697A6500 
 3639              	.LASF224:
 3640 0397 63616E73 		.ascii	"canstate_t\000"
ARM GAS  C:\Users\14122\AppData\Local\Temp\ccYwHGHv.s 			page 68


 3640      74617465 
 3640      5F7400
 3641              	.LASF214:
 3642 03a2 696F706F 		.ascii	"ioportmask_t\000"
 3642      72746D61 
 3642      736B5F74 
 3642      00
 3643              	.LASF222:
 3644 03af 43414E5F 		.ascii	"CAN_READY\000"
 3644      52454144 
 3644      5900
 3645              	.LASF119:
 3646 03b9 42444352 		.ascii	"BDCR\000"
 3646      00
 3647              	.LASF157:
 3648 03be 6F66665F 		.ascii	"off_time\000"
 3648      74696D65 
 3648      00
 3649              	.LASF201:
 3650 03c7 646D615F 		.ascii	"dma_func\000"
 3650      66756E63 
 3650      00
 3651              	.LASF28:
 3652 03d0 636E745F 		.ascii	"cnt_t\000"
 3652      7400
 3653              	.LASF263:
 3654 03d6 72786368 		.ascii	"rxchar_cb\000"
 3654      61725F63 
 3654      6200
 3655              	.LASF180:
 3656 03e0 64796E5F 		.ascii	"dyn_element_t\000"
 3656      656C656D 
 3656      656E745F 
 3656      7400
 3657              	.LASF265:
 3658 03ee 73706565 		.ascii	"speed\000"
 3658      6400
 3659              	.LASF133:
 3660 03f4 77746D74 		.ascii	"wtmtxp\000"
 3660      787000
 3661              	.LASF55:
 3662 03fb 63685F72 		.ascii	"ch_ready_list\000"
 3662      65616479 
 3662      5F6C6973 
 3662      7400
 3663              	.LASF188:
 3664 0409 73656D5F 		.ascii	"sem_pool\000"
 3664      706F6F6C 
 3664      00
 3665              	.LASF113:
 3666 0412 43464752 		.ascii	"CFGR\000"
 3666      00
 3667              	.LASF210:
 3668 0417 50434461 		.ascii	"PCData\000"
 3668      746100
 3669              	.LASF170:
 3670 041e 6E657874 		.ascii	"nextmem\000"
ARM GAS  C:\Users\14122\AppData\Local\Temp\ccYwHGHv.s 			page 69


 3670      6D656D00 
 3671              	.LASF14:
 3672 0426 5F5F7569 		.ascii	"__uint64_t\000"
 3672      6E743634 
 3672      5F7400
 3673              	.LASF153:
 3674 0431 6F66665F 		.ascii	"off_state\000"
 3674      73746174 
 3674      6500
 3675              	.LASF13:
 3676 043b 6C6F6E67 		.ascii	"long unsigned int\000"
 3676      20756E73 
 3676      69676E65 
 3676      6420696E 
 3676      7400
 3677              	.LASF146:
 3678 044d 74687265 		.ascii	"threadsize\000"
 3678      61647369 
 3678      7A6500
 3679              	.LASF266:
 3680 0458 55415254 		.ascii	"UARTConfig\000"
 3680      436F6E66 
 3680      696700
 3681              	.LASF76:
 3682 0463 53797374 		.ascii	"SystemCoreClock\000"
 3682      656D436F 
 3682      7265436C 
 3682      6F636B00 
 3683              	.LASF135:
 3684 0473 63685F73 		.ascii	"ch_semaphore\000"
 3684      656D6170 
 3684      686F7265 
 3684      00
 3685              	.LASF196:
 3686 0480 73686966 		.ascii	"shift\000"
 3686      7400
 3687              	.LASF193:
 3688 0486 6368616E 		.ascii	"channel\000"
 3688      6E656C00 
 3689              	.LASF48:
 3690 048e 63685F74 		.ascii	"ch_thread\000"
 3690      68726561 
 3690      6400
 3691              	.LASF62:
 3692 0498 76697274 		.ascii	"virtual_timers_list_t\000"
 3692      75616C5F 
 3692      74696D65 
 3692      72735F6C 
 3692      6973745F 
 3693              	.LASF139:
 3694 04ae 63685F69 		.ascii	"ch_idle_thread_wa\000"
 3694      646C655F 
 3694      74687265 
 3694      61645F77 
 3694      6100
 3695              	.LASF204:
 3696 04c0 5F73746D 		.ascii	"_stm32_dma_streams\000"
ARM GAS  C:\Users\14122\AppData\Local\Temp\ccYwHGHv.s 			page 70


 3696      33325F64 
 3696      6D615F73 
 3696      74726561 
 3696      6D7300
 3697              	.LASF275:
 3698 04d3 2E2F2F6F 		.ascii	".//os/hal/ports/STM32/LLD/GPIOv1/hal_pal_lld.c\000"
 3698      732F6861 
 3698      6C2F706F 
 3698      7274732F 
 3698      53544D33 
 3699              	.LASF261:
 3700 0502 7478656E 		.ascii	"txend2_cb\000"
 3700      64325F63 
 3700      6200
 3701              	.LASF190:
 3702 050c 6669666F 		.ascii	"fifo_list\000"
 3702      5F6C6973 
 3702      7400
 3703              	.LASF58:
 3704 0516 76697274 		.ascii	"virtual_timer_t\000"
 3704      75616C5F 
 3704      74696D65 
 3704      725F7400 
 3705              	.LASF54:
 3706 0526 72656164 		.ascii	"ready_list_t\000"
 3706      795F6C69 
 3706      73745F74 
 3706      00
 3707              	.LASF34:
 3708 0533 6F6C6465 		.ascii	"older\000"
 3708      7200
 3709              	.LASF259:
 3710 0539 75617274 		.ascii	"uartecb_t\000"
 3710      6563625F 
 3710      7400
 3711              	.LASF111:
 3712 0543 4C434B52 		.ascii	"LCKR\000"
 3712      00
 3713              	.LASF44:
 3714 0548 7265616C 		.ascii	"realprio\000"
 3714      7072696F 
 3714      00
 3715              	.LASF29:
 3716 0551 75636E74 		.ascii	"ucnt_t\000"
 3716      5F7400
 3717              	.LASF152:
 3718 0558 6F66665F 		.ascii	"off_stklimit\000"
 3718      73746B6C 
 3718      696D6974 
 3718      00
 3719              	.LASF174:
 3720 0565 706F6F6C 		.ascii	"pool_header\000"
 3720      5F686561 
 3720      64657200 
 3721              	.LASF236:
 3722 0571 55415254 		.ascii	"UART_UNINIT\000"
 3722      5F554E49 
ARM GAS  C:\Users\14122\AppData\Local\Temp\ccYwHGHv.s 			page 71


 3722      4E495400 
 3723              	.LASF49:
 3724 057d 63685F74 		.ascii	"ch_threads_list\000"
 3724      68726561 
 3724      64735F6C 
 3724      69737400 
 3725              	.LASF246:
 3726 058d 55415254 		.ascii	"UART_RX_COMPLETE\000"
 3726      5F52585F 
 3726      434F4D50 
 3726      4C455445 
 3726      00
 3727              	.LASF256:
 3728 059e 72786275 		.ascii	"rxbuf\000"
 3728      6600
 3729              	.LASF254:
 3730 05a4 646D6172 		.ascii	"dmarx\000"
 3730      7800
 3731              	.LASF271:
 3732 05aa 63666774 		.ascii	"cfgtab\000"
 3732      616200
 3733              	.LASF12:
 3734 05b1 5F5F7569 		.ascii	"__uint32_t\000"
 3734      6E743332 
 3734      5F7400
 3735              	.LASF43:
 3736 05bc 6D74786C 		.ascii	"mtxlist\000"
 3736      69737400 
 3737              	.LASF1:
 3738 05c4 6C6F6E67 		.ascii	"long long int\000"
 3738      206C6F6E 
 3738      6720696E 
 3738      7400
 3739              	.LASF221:
 3740 05d2 43414E5F 		.ascii	"CAN_STARTING\000"
 3740      53544152 
 3740      54494E47 
 3740      00
 3741              	.LASF74:
 3742 05df 73797369 		.ascii	"sysinterval_t\000"
 3742      6E746572 
 3742      76616C5F 
 3742      7400
 3743              	.LASF183:
 3744 05ed 63685F6F 		.ascii	"ch_objects_factory\000"
 3744      626A6563 
 3744      74735F66 
 3744      6163746F 
 3744      727900
 3745              	.LASF121:
 3746 0600 47545052 		.ascii	"GTPR\000"
 3746      00
 3747              	.LASF114:
 3748 0605 41504232 		.ascii	"APB2RSTR\000"
 3748      52535452 
 3748      00
 3749              	.LASF167:
ARM GAS  C:\Users\14122\AppData\Local\Temp\ccYwHGHv.s 			page 72


 3750 060e 6576656E 		.ascii	"event_source_t\000"
 3750      745F736F 
 3750      75726365 
 3750      5F7400
 3751              	.LASF269:
 3752 061d 6D61736B 		.ascii	"mask\000"
 3752      00
 3753              	.LASF176:
 3754 0622 616C6967 		.ascii	"align\000"
 3754      6E00
 3755              	.LASF75:
 3756 0628 49544D5F 		.ascii	"ITM_RxBuffer\000"
 3756      52784275 
 3756      66666572 
 3756      00
 3757              	.LASF209:
 3758 0635 50424461 		.ascii	"PBData\000"
 3758      746100
 3759              	.LASF253:
 3760 063c 646D616D 		.ascii	"dmamode\000"
 3760      6F646500 
 3761              	.LASF219:
 3762 0644 43414E5F 		.ascii	"CAN_UNINIT\000"
 3762      554E494E 
 3762      495400
 3763              	.LASF248:
 3764 064f 75617274 		.ascii	"uartflags_t\000"
 3764      666C6167 
 3764      735F7400 
 3765              	.LASF255:
 3766 065b 646D6174 		.ascii	"dmatx\000"
 3766      7800
 3767              	.LASF223:
 3768 0661 43414E5F 		.ascii	"CAN_SLEEP\000"
 3768      534C4545 
 3768      5000
 3769              	.LASF149:
 3770 066b 6F66665F 		.ascii	"off_newer\000"
 3770      6E657765 
 3770      7200
 3771              	.LASF197:
 3772 0675 73656C66 		.ascii	"selfindex\000"
 3772      696E6465 
 3772      7800
 3773              	.LASF264:
 3774 067f 72786572 		.ascii	"rxerr_cb\000"
 3774      725F6362 
 3774      00
 3775              	.LASF0:
 3776 0688 756E7369 		.ascii	"unsigned int\000"
 3776      676E6564 
 3776      20696E74 
 3776      00
 3777              	.LASF273:
 3778 0695 5F70616C 		.ascii	"_pal_lld_init\000"
 3778      5F6C6C64 
 3778      5F696E69 
ARM GAS  C:\Users\14122\AppData\Local\Temp\ccYwHGHv.s 			page 73


 3778      7400
 3779              	.LASF200:
 3780 06a3 73746D33 		.ascii	"stm32_dmaisr_t\000"
 3780      325F646D 
 3780      61697372 
 3780      5F7400
 3781              	.LASF94:
 3782 06b2 464D3152 		.ascii	"FM1R\000"
 3782      00
 3783              	.LASF85:
 3784 06b7 52444852 		.ascii	"RDHR\000"
 3784      00
 3785              	.LASF106:
 3786 06bc 434D4152 		.ascii	"CMAR\000"
 3786      00
 3787              	.LASF81:
 3788 06c1 54444852 		.ascii	"TDHR\000"
 3788      00
 3789              	.LASF56:
 3790 06c6 63757272 		.ascii	"current\000"
 3790      656E7400 
 3791              	.LASF231:
 3792 06ce 6572726F 		.ascii	"error_event\000"
 3792      725F6576 
 3792      656E7400 
 3793              	.LASF103:
 3794 06da 43414E5F 		.ascii	"CAN_TypeDef\000"
 3794      54797065 
 3794      44656600 
 3795              	.LASF203:
 3796 06e6 646D615F 		.ascii	"dma_isr_redir_t\000"
 3796      6973725F 
 3796      72656469 
 3796      725F7400 
 3797              	.LASF274:
 3798 06f6 474E5520 		.ascii	"GNU C11 7.2.1 20170904 (release) [ARM/embedded-7-br"
 3798      43313120 
 3798      372E322E 
 3798      31203230 
 3798      31373039 
 3799 0729 616E6368 		.ascii	"anch revision 255204] -mcpu=cortex-m3 -mthumb -ggdb"
 3799      20726576 
 3799      6973696F 
 3799      6E203235 
 3799      35323034 
 3800 075c 202D4F32 		.ascii	" -O2 -fomit-frame-pointer -falign-functions=16 -ffu"
 3800      202D666F 
 3800      6D69742D 
 3800      6672616D 
 3800      652D706F 
 3801 078f 6E637469 		.ascii	"nction-sections -fdata-sections -fno-common\000"
 3801      6F6E2D73 
 3801      65637469 
 3801      6F6E7320 
 3801      2D666461 
 3802              	.LASF102:
 3803 07bb 7346696C 		.ascii	"sFilterRegister\000"
ARM GAS  C:\Users\14122\AppData\Local\Temp\ccYwHGHv.s 			page 74


 3803      74657252 
 3803      65676973 
 3803      74657200 
 3804              	.LASF218:
 3805 07cb 5F70616C 		.ascii	"_pal_events\000"
 3805      5F657665 
 3805      6E747300 
 3806              	.LASF30:
 3807 07d7 74687265 		.ascii	"thread_t\000"
 3807      61645F74 
 3807      00
 3808              	.LASF2:
 3809 07e0 6C6F6E67 		.ascii	"long double\000"
 3809      20646F75 
 3809      626C6500 
 3810              	.LASF165:
 3811 07ec 77666C61 		.ascii	"wflags\000"
 3811      677300
 3812              	.LASF46:
 3813 07f3 74687265 		.ascii	"thread_reference_t\000"
 3813      61645F72 
 3813      65666572 
 3813      656E6365 
 3813      5F7400
 3814              	.LASF131:
 3815 0806 73656E74 		.ascii	"sentmsg\000"
 3815      6D736700 
 3816              	.LASF126:
 3817 080e 706F7274 		.ascii	"port_intctx\000"
 3817      5F696E74 
 3817      63747800 
 3818              	.LASF191:
 3819 081a 6F626A65 		.ascii	"objects_factory_t\000"
 3819      6374735F 
 3819      66616374 
 3819      6F72795F 
 3819      7400
 3820              	.LASF186:
 3821 082c 6275665F 		.ascii	"buf_list\000"
 3821      6C697374 
 3821      00
 3822              	.LASF194:
 3823 0835 636D6173 		.ascii	"cmask\000"
 3823      6B00
 3824              	.LASF107:
 3825 083b 444D415F 		.ascii	"DMA_Channel_TypeDef\000"
 3825      4368616E 
 3825      6E656C5F 
 3825      54797065 
 3825      44656600 
 3826              	.LASF77:
 3827 084f 41484250 		.ascii	"AHBPrescTable\000"
 3827      72657363 
 3827      5461626C 
 3827      6500
 3828              	.LASF59:
 3829 085d 63685F76 		.ascii	"ch_virtual_timer\000"
ARM GAS  C:\Users\14122\AppData\Local\Temp\ccYwHGHv.s 			page 75


 3829      69727475 
 3829      616C5F74 
 3829      696D6572 
 3829      00
 3830              	.LASF118:
 3831 086e 41504231 		.ascii	"APB1ENR\000"
 3831      454E5200 
 3832              	.LASF142:
 3833 0876 73697A65 		.ascii	"size\000"
 3833      00
 3834              	.LASF15:
 3835 087b 6C6F6E67 		.ascii	"long long unsigned int\000"
 3835      206C6F6E 
 3835      6720756E 
 3835      7369676E 
 3835      65642069 
 3836              	.LASF208:
 3837 0892 50414461 		.ascii	"PAData\000"
 3837      746100
 3838              	.LASF17:
 3839 0899 75696E74 		.ascii	"uint16_t\000"
 3839      31365F74 
 3839      00
 3840              	.LASF245:
 3841 08a2 55415254 		.ascii	"UART_RX_ACTIVE\000"
 3841      5F52585F 
 3841      41435449 
 3841      564500
 3842              	.LASF151:
 3843 08b1 6F66665F 		.ascii	"off_name\000"
 3843      6E616D65 
 3843      00
 3844              	.LASF25:
 3845 08ba 6D73675F 		.ascii	"msg_t\000"
 3845      7400
 3846              	.LASF52:
 3847 08c0 63685F74 		.ascii	"ch_threads_queue\000"
 3847      68726561 
 3847      64735F71 
 3847      75657565 
 3847      00
 3848              	.LASF27:
 3849 08d1 6576656E 		.ascii	"eventflags_t\000"
 3849      74666C61 
 3849      67735F74 
 3849      00
 3850              	.LASF60:
 3851 08de 64656C74 		.ascii	"delta\000"
 3851      6100
 3852              	.LASF84:
 3853 08e4 52444C52 		.ascii	"RDLR\000"
 3853      00
 3854              	.LASF86:
 3855 08e9 43414E5F 		.ascii	"CAN_FIFOMailBox_TypeDef\000"
 3855      4649464F 
 3855      4D61696C 
 3855      426F785F 
ARM GAS  C:\Users\14122\AppData\Local\Temp\ccYwHGHv.s 			page 76


 3855      54797065 
 3856              	.LASF39:
 3857 0901 72656673 		.ascii	"refs\000"
 3857      00
 3858              	.LASF31:
 3859 0906 71756575 		.ascii	"queue\000"
 3859      6500
 3860              	.LASF80:
 3861 090c 54444C52 		.ascii	"TDLR\000"
 3861      00
 3862              	.LASF198:
 3863 0911 76656374 		.ascii	"vector\000"
 3863      6F7200
 3864              	.LASF192:
 3865 0918 63685F66 		.ascii	"ch_factory\000"
 3865      6163746F 
 3865      727900
 3866              	.LASF228:
 3867 0923 72787175 		.ascii	"rxqueue\000"
 3867      65756500 
 3868              	.LASF189:
 3869 092b 6D62785F 		.ascii	"mbx_list\000"
 3869      6C697374 
 3869      00
 3870              	.LASF72:
 3871 0934 6D61696E 		.ascii	"mainthread\000"
 3871      74687265 
 3871      616400
 3872              	.LASF143:
 3873 093f 76657273 		.ascii	"version\000"
 3873      696F6E00 
 3874              	.LASF242:
 3875 0947 55415254 		.ascii	"UART_TX_COMPLETE\000"
 3875      5F54585F 
 3875      434F4D50 
 3875      4C455445 
 3875      00
 3876              	.LASF247:
 3877 0958 75617274 		.ascii	"uartrxstate_t\000"
 3877      72787374 
 3877      6174655F 
 3877      7400
 3878              	.LASF36:
 3879 0966 77616261 		.ascii	"wabase\000"
 3879      736500
 3880              	.LASF258:
 3881 096d 75617274 		.ascii	"uartccb_t\000"
 3881      6363625F 
 3881      7400
 3882              	.LASF178:
 3883 0977 6D656D6F 		.ascii	"memory_pool_t\000"
 3883      72795F70 
 3883      6F6F6C5F 
 3883      7400
 3884              	.LASF70:
 3885 0985 726C6973 		.ascii	"rlist\000"
 3885      7400
ARM GAS  C:\Users\14122\AppData\Local\Temp\ccYwHGHv.s 			page 77


 3886              	.LASF21:
 3887 098b 746D6F64 		.ascii	"tmode_t\000"
 3887      655F7400 
 3888              	.LASF195:
 3889 0993 64756D6D 		.ascii	"dummy\000"
 3889      7900
 3890              	.LASF260:
 3891 0999 7478656E 		.ascii	"txend1_cb\000"
 3891      64315F63 
 3891      6200
 3892              	.LASF244:
 3893 09a3 55415254 		.ascii	"UART_RX_IDLE\000"
 3893      5F52585F 
 3893      49444C45 
 3893      00
 3894              	.LASF96:
 3895 09b0 46533152 		.ascii	"FS1R\000"
 3895      00
 3896              	.LASF35:
 3897 09b5 6E616D65 		.ascii	"name\000"
 3897      00
 3898              	.LASF163:
 3899 09ba 6C697374 		.ascii	"listener\000"
 3899      656E6572 
 3899      00
 3900              	.LASF268:
 3901 09c3 706F7274 		.ascii	"port\000"
 3901      00
 3902              	.LASF78:
 3903 09c8 41504250 		.ascii	"APBPrescTable\000"
 3903      72657363 
 3903      5461626C 
 3903      6500
 3904              	.LASF120:
 3905 09d6 5243435F 		.ascii	"RCC_TypeDef\000"
 3905      54797065 
 3905      44656600 
 3906              	.LASF82:
 3907 09e2 43414E5F 		.ascii	"CAN_TxMailBox_TypeDef\000"
 3907      54784D61 
 3907      696C426F 
 3907      785F5479 
 3907      70654465 
 3908              	.LASF205:
 3909 09f8 5F73746D 		.ascii	"_stm32_dma_isr_redir\000"
 3909      33325F64 
 3909      6D615F69 
 3909      73725F72 
 3909      65646972 
 3910              	.LASF7:
 3911 0a0d 73686F72 		.ascii	"short int\000"
 3911      7420696E 
 3911      7400
 3912              	.LASF166:
 3913 0a17 6576656E 		.ascii	"event_source\000"
 3913      745F736F 
 3913      75726365 
ARM GAS  C:\Users\14122\AppData\Local\Temp\ccYwHGHv.s 			page 78


 3913      00
 3914              	.LASF20:
 3915 0a24 75696E74 		.ascii	"uint64_t\000"
 3915      36345F74 
 3915      00
 3916              	.LASF270:
 3917 0a2d 6D6F6465 		.ascii	"mode\000"
 3917      00
 3918              	.LASF61:
 3919 0a32 66756E63 		.ascii	"func\000"
 3919      00
 3920              	.LASF136:
 3921 0a37 63685F6D 		.ascii	"ch_mutex\000"
 3921      75746578 
 3921      00
 3922              	.LASF98:
 3923 0a40 46464131 		.ascii	"FFA1R\000"
 3923      5200
 3924              	.LASF41:
 3925 0a46 6D736771 		.ascii	"msgqueue\000"
 3925      75657565 
 3925      00
 3926              	.LASF227:
 3927 0a4f 74787175 		.ascii	"txqueue\000"
 3927      65756500 
 3928              	.LASF239:
 3929 0a57 75617274 		.ascii	"uartstate_t\000"
 3929      73746174 
 3929      655F7400 
 3930              	.LASF66:
 3931 0a63 63685F73 		.ascii	"ch_system_debug\000"
 3931      79737465 
 3931      6D5F6465 
 3931      62756700 
 3932              	.LASF182:
 3933 0a73 64796E5F 		.ascii	"dyn_list_t\000"
 3933      6C697374 
 3933      5F7400
 3934              	.LASF116:
 3935 0a7e 41484245 		.ascii	"AHBENR\000"
 3935      4E5200
 3936              	.LASF110:
 3937 0a85 42535252 		.ascii	"BSRR\000"
 3937      00
 3938              	.LASF213:
 3939 0a8a 50414C43 		.ascii	"PALConfig\000"
 3939      6F6E6669 
 3939      6700
 3940              	.LASF202:
 3941 0a94 646D615F 		.ascii	"dma_param\000"
 3941      70617261 
 3941      6D00
 3942              	.LASF175:
 3943 0a9e 6F626A65 		.ascii	"object_size\000"
 3943      63745F73 
 3943      697A6500 
 3944              	.LASF112:
ARM GAS  C:\Users\14122\AppData\Local\Temp\ccYwHGHv.s 			page 79


 3945 0aaa 4750494F 		.ascii	"GPIO_TypeDef\000"
 3945      5F547970 
 3945      65446566 
 3945      00
 3946              	.LASF71:
 3947 0ab7 76746C69 		.ascii	"vtlist\000"
 3947      737400
 3948              	.LASF40:
 3949 0abe 77616974 		.ascii	"waiting\000"
 3949      696E6700 
 3950              	.LASF160:
 3951 0ac6 6D757465 		.ascii	"mutex_t\000"
 3951      785F7400 
 3952              	.LASF23:
 3953 0ace 74726566 		.ascii	"trefs_t\000"
 3953      735F7400 
 3954              	.LASF125:
 3955 0ad6 706F7274 		.ascii	"port_context\000"
 3955      5F636F6E 
 3955      74657874 
 3955      00
 3956              	.LASF47:
 3957 0ae3 74687265 		.ascii	"threads_list_t\000"
 3957      6164735F 
 3957      6C697374 
 3957      5F7400
 3958              	.LASF240:
 3959 0af2 55415254 		.ascii	"UART_TX_IDLE\000"
 3959      5F54585F 
 3959      49444C45 
 3959      00
 3960              	.LASF257:
 3961 0aff 75617274 		.ascii	"uartcb_t\000"
 3961      63625F74 
 3961      00
 3962              	.LASF69:
 3963 0b08 63685F73 		.ascii	"ch_system\000"
 3963      79737465 
 3963      6D00
 3964              	.LASF33:
 3965 0b12 6E657765 		.ascii	"newer\000"
 3965      7200
 3966              	.LASF19:
 3967 0b18 75696E74 		.ascii	"uint32_t\000"
 3967      33325F74 
 3967      00
 3968              	.LASF162:
 3969 0b21 6576656E 		.ascii	"event_listener\000"
 3969      745F6C69 
 3969      7374656E 
 3969      657200
 3970              	.LASF127:
 3971 0b30 7264796D 		.ascii	"rdymsg\000"
 3971      736700
 3972              	.LASF9:
 3973 0b37 73686F72 		.ascii	"short unsigned int\000"
 3973      7420756E 
ARM GAS  C:\Users\14122\AppData\Local\Temp\ccYwHGHv.s 			page 80


 3973      7369676E 
 3973      65642069 
 3973      6E7400
 3974              	.LASF68:
 3975 0b4a 63685F73 		.ascii	"ch_system_t\000"
 3975      79737465 
 3975      6D5F7400 
 3976              	.LASF158:
 3977 0b56 63686465 		.ascii	"chdebug_t\000"
 3977      6275675F 
 3977      7400
 3978              	.LASF91:
 3979 0b60 7354784D 		.ascii	"sTxMailBox\000"
 3979      61696C42 
 3979      6F7800
 3980              	.LASF145:
 3981 0b6b 74696D65 		.ascii	"timesize\000"
 3981      73697A65 
 3981      00
 3982              	.LASF267:
 3983 0b74 55415254 		.ascii	"UARTD2\000"
 3983      443200
 3984              	.LASF10:
 3985 0b7b 5F5F696E 		.ascii	"__int32_t\000"
 3985      7433325F 
 3985      7400
 3986              	.LASF173:
 3987 0b85 63685F6D 		.ascii	"ch_memcore\000"
 3987      656D636F 
 3987      726500
 3988              	.LASF154:
 3989 0b90 6F66665F 		.ascii	"off_flags\000"
 3989      666C6167 
 3989      7300
 3990              	.LASF220:
 3991 0b9a 43414E5F 		.ascii	"CAN_STOP\000"
 3991      53544F50 
 3991      00
 3992              	.LASF164:
 3993 0ba3 6576656E 		.ascii	"events\000"
 3993      747300
 3994              	.LASF50:
 3995 0baa 6E657874 		.ascii	"next\000"
 3995      00
 3996              	.LASF83:
 3997 0baf 52445452 		.ascii	"RDTR\000"
 3997      00
 3998              	.LASF115:
 3999 0bb4 41504231 		.ascii	"APB1RSTR\000"
 3999      52535452 
 3999      00
 4000              	.LASF53:
 4001 0bbd 70726576 		.ascii	"prev\000"
 4001      00
 4002              	.LASF181:
 4003 0bc2 63685F64 		.ascii	"ch_dyn_list\000"
 4003      796E5F6C 
ARM GAS  C:\Users\14122\AppData\Local\Temp\ccYwHGHv.s 			page 81


 4003      69737400 
 4004              	.LASF140:
 4005 0bce 6964656E 		.ascii	"identifier\000"
 4005      74696669 
 4005      657200
 4006              	.LASF79:
 4007 0bd9 54445452 		.ascii	"TDTR\000"
 4007      00
 4008              	.LASF235:
 4009 0bde 43414E44 		.ascii	"CAND1\000"
 4009      3100
 4010              	.LASF230:
 4011 0be4 7478656D 		.ascii	"txempty_event\000"
 4011      7074795F 
 4011      6576656E 
 4011      7400
 4012              	.LASF276:
 4013 0bf2 443A5C68 		.ascii	"D:\\hkust\\robomaster\\eclipse___files\\cundang\\as"
 4013      6B757374 
 4013      5C726F62 
 4013      6F6D6173 
 4013      7465725C 
 4014 0c20 7369676E 		.ascii	"signment2-master_10.20_turret_2\000"
 4014      6D656E74 
 4014      322D6D61 
 4014      73746572 
 4014      5F31302E 
 4015              		.ident	"GCC: (GNU Tools for Arm Embedded Processors 7-2017-q4-major) 7.2.1 20170904 (release) [ARM
ARM GAS  C:\Users\14122\AppData\Local\Temp\ccYwHGHv.s 			page 82


DEFINED SYMBOLS
                            *ABS*:00000000 hal_pal_lld.c
C:\Users\14122\AppData\Local\Temp\ccYwHGHv.s:16     .text._pal_lld_init:00000000 $t
C:\Users\14122\AppData\Local\Temp\ccYwHGHv.s:24     .text._pal_lld_init:00000000 _pal_lld_init
C:\Users\14122\AppData\Local\Temp\ccYwHGHv.s:118    .text._pal_lld_init:0000005c $d
C:\Users\14122\AppData\Local\Temp\ccYwHGHv.s:127    .text._pal_lld_setgroupmode:00000000 $t
C:\Users\14122\AppData\Local\Temp\ccYwHGHv.s:135    .text._pal_lld_setgroupmode:00000000 _pal_lld_setgroupmode
C:\Users\14122\AppData\Local\Temp\ccYwHGHv.s:244    .text._pal_lld_setgroupmode:00000068 $d
C:\Users\14122\AppData\Local\Temp\ccYwHGHv.s:253    .bss._pal_events:00000000 _pal_events
C:\Users\14122\AppData\Local\Temp\ccYwHGHv.s:255    .rodata.cfgtab.7063:00000000 $d
C:\Users\14122\AppData\Local\Temp\ccYwHGHv.s:259    .rodata.cfgtab.7063:00000000 cfgtab.7063

NO UNDEFINED SYMBOLS
