ARM GAS  C:\Users\14122\AppData\Local\Temp\ccvyTxJM.s 			page 1


   1              		.cpu cortex-m3
   2              		.eabi_attribute 20, 1
   3              		.eabi_attribute 21, 1
   4              		.eabi_attribute 23, 3
   5              		.eabi_attribute 24, 1
   6              		.eabi_attribute 25, 1
   7              		.eabi_attribute 26, 1
   8              		.eabi_attribute 30, 2
   9              		.eabi_attribute 34, 1
  10              		.eabi_attribute 18, 4
  11              		.file	"hal_lld.c"
  12              		.text
  13              	.Ltext0:
  14              		.cfi_sections	.debug_frame
  15              		.section	.text.hal_lld_init,"ax",%progbits
  16              		.align	1
  17              		.p2align 4,,15
  18              		.global	hal_lld_init
  19              		.syntax unified
  20              		.thumb
  21              		.thumb_func
  22              		.fpu softvfp
  23              		.type	hal_lld_init, %function
  24              	hal_lld_init:
  25              	.LFB254:
  26              		.file 1 ".//os/hal/ports/STM32/STM32F1xx/hal_lld.c"
  27              		.loc 1 132 0
  28              		.cfi_startproc
  29              		@ args = 0, pretend = 0, frame = 0
  30              		@ frame_needed = 0, uses_anonymous_args = 0
  31              		.loc 1 135 0
  32 0000 4FF0FF30 		mov	r0, #-1
  33 0004 0022     		movs	r2, #0
  34 0006 104B     		ldr	r3, .L4
  35              		.loc 1 132 0
  36 0008 10B5     		push	{r4, lr}
  37              		.cfi_def_cfa_offset 8
  38              		.cfi_offset 4, -8
  39              		.cfi_offset 14, -4
  40              		.loc 1 135 0
  41 000a 1C69     		ldr	r4, [r3, #16]
  42 000c 1861     		str	r0, [r3, #16]
  43 000e 1C69     		ldr	r4, [r3, #16]
  44 0010 1A61     		str	r2, [r3, #16]
  45 0012 1C69     		ldr	r4, [r3, #16]
  46              		.loc 1 136 0
  47 0014 DC68     		ldr	r4, [r3, #12]
  48 0016 D860     		str	r0, [r3, #12]
  49 0018 D868     		ldr	r0, [r3, #12]
  50 001a DA60     		str	r2, [r3, #12]
  51 001c DA68     		ldr	r2, [r3, #12]
  52              		.loc 1 139 0
  53 001e DA69     		ldr	r2, [r3, #28]
  54              	.LBB4:
  55              	.LBB5:
  56              		.loc 1 57 0
  57 0020 0A49     		ldr	r1, .L4+4
ARM GAS  C:\Users\14122\AppData\Local\Temp\ccvyTxJM.s 			page 2


  58              	.LBE5:
  59              	.LBE4:
  60              		.loc 1 139 0
  61 0022 42F08052 		orr	r2, r2, #268435456
  62 0026 DA61     		str	r2, [r3, #28]
  63 0028 DA69     		ldr	r2, [r3, #28]
  64              		.loc 1 140 0
  65 002a DA69     		ldr	r2, [r3, #28]
  66 002c 42F00062 		orr	r2, r2, #134217728
  67 0030 DA61     		str	r2, [r3, #28]
  68 0032 DB69     		ldr	r3, [r3, #28]
  69              	.LBB7:
  70              	.LBB6:
  71              		.loc 1 57 0
  72 0034 0B68     		ldr	r3, [r1]
  73 0036 43F48073 		orr	r3, r3, #256
  74 003a 0B60     		str	r3, [r1]
  75              	.LBE6:
  76              	.LBE7:
  77              		.loc 1 147 0
  78 003c FFF7FEFF 		bl	dmaInit
  79              	.LVL0:
  80              		.loc 1 157 0
  81 0040 BDE81040 		pop	{r4, lr}
  82              		.cfi_restore 14
  83              		.cfi_restore 4
  84              		.cfi_def_cfa_offset 0
  85              		.loc 1 151 0
  86 0044 FFF7FEBF 		b	irqInit
  87              	.LVL1:
  88              	.L5:
  89              		.align	2
  90              	.L4:
  91 0048 00100240 		.word	1073876992
  92 004c 00700040 		.word	1073770496
  93              		.cfi_endproc
  94              	.LFE254:
  95              		.size	hal_lld_init, .-hal_lld_init
  96              		.section	.text.stm32_clock_init,"ax",%progbits
  97              		.align	1
  98              		.p2align 4,,15
  99              		.global	stm32_clock_init
 100              		.syntax unified
 101              		.thumb
 102              		.thumb_func
 103              		.fpu softvfp
 104              		.type	stm32_clock_init, %function
 105              	stm32_clock_init:
 106              	.LFB255:
 107              		.loc 1 173 0
 108              		.cfi_startproc
 109              		@ args = 0, pretend = 0, frame = 0
 110              		@ frame_needed = 0, uses_anonymous_args = 0
 111              		@ link register save eliminated.
 112              		.loc 1 178 0
 113 0000 1B4B     		ldr	r3, .L20
 114              		.loc 1 179 0
ARM GAS  C:\Users\14122\AppData\Local\Temp\ccvyTxJM.s 			page 3


 115 0002 1A46     		mov	r2, r3
 116              		.loc 1 178 0
 117 0004 1968     		ldr	r1, [r3]
 118 0006 41F00101 		orr	r1, r1, #1
 119 000a 1960     		str	r1, [r3]
 120              	.L7:
 121              		.loc 1 179 0 discriminator 1
 122 000c 1368     		ldr	r3, [r2]
 123 000e 9807     		lsls	r0, r3, #30
 124 0010 FCD5     		bpl	.L7
 125              		.loc 1 182 0
 126 0012 0020     		movs	r0, #0
 127              		.loc 1 181 0
 128 0014 1368     		ldr	r3, [r2]
 129              		.loc 1 183 0
 130 0016 1649     		ldr	r1, .L20
 131              		.loc 1 181 0
 132 0018 03F0F903 		and	r3, r3, #249
 133 001c 1360     		str	r3, [r2]
 134              		.loc 1 182 0
 135 001e 5060     		str	r0, [r2, #4]
 136              	.L8:
 137              		.loc 1 183 0 discriminator 1
 138 0020 4B68     		ldr	r3, [r1, #4]
 139 0022 13F00C0F 		tst	r3, #12
 140 0026 FBD1     		bne	.L8
 141              		.loc 1 192 0
 142 0028 0B68     		ldr	r3, [r1]
 143              		.loc 1 193 0
 144 002a 114A     		ldr	r2, .L20
 145              		.loc 1 192 0
 146 002c 43F48033 		orr	r3, r3, #65536
 147 0030 0B60     		str	r3, [r1]
 148              	.L9:
 149              		.loc 1 193 0 discriminator 1
 150 0032 1368     		ldr	r3, [r2]
 151 0034 9903     		lsls	r1, r3, #14
 152 0036 FCD5     		bpl	.L9
 153              		.loc 1 206 0
 154 0038 5368     		ldr	r3, [r2, #4]
 155              		.loc 1 208 0
 156 003a 0D49     		ldr	r1, .L20
 157              		.loc 1 206 0
 158 003c 43F4E813 		orr	r3, r3, #1900544
 159 0040 5360     		str	r3, [r2, #4]
 160              		.loc 1 207 0
 161 0042 1368     		ldr	r3, [r2]
 162 0044 43F08073 		orr	r3, r3, #16777216
 163 0048 1360     		str	r3, [r2]
 164              	.L10:
 165              		.loc 1 208 0 discriminator 1
 166 004a 0B68     		ldr	r3, [r1]
 167 004c 9B01     		lsls	r3, r3, #6
 168 004e FCD5     		bpl	.L10
 169              		.loc 1 224 0
 170 0050 1222     		movs	r2, #18
 171 0052 084B     		ldr	r3, .L20+4
ARM GAS  C:\Users\14122\AppData\Local\Temp\ccvyTxJM.s 			page 4


 172              		.loc 1 214 0
 173 0054 0848     		ldr	r0, .L20+8
 174 0056 4860     		str	r0, [r1, #4]
 175              		.loc 1 224 0
 176 0058 1A60     		str	r2, [r3]
 177              		.loc 1 229 0
 178 005a 4B68     		ldr	r3, [r1, #4]
 179              		.loc 1 230 0
 180 005c 044A     		ldr	r2, .L20
 181              		.loc 1 229 0
 182 005e 43F00203 		orr	r3, r3, #2
 183 0062 4B60     		str	r3, [r1, #4]
 184              	.L11:
 185              		.loc 1 230 0 discriminator 1
 186 0064 5368     		ldr	r3, [r2, #4]
 187 0066 03F00C03 		and	r3, r3, #12
 188 006a 082B     		cmp	r3, #8
 189 006c FAD1     		bne	.L11
 190              		.loc 1 238 0
 191 006e 7047     		bx	lr
 192              	.L21:
 193              		.align	2
 194              	.L20:
 195 0070 00100240 		.word	1073876992
 196 0074 00200240 		.word	1073881088
 197 0078 00641D00 		.word	1926144
 198              		.cfi_endproc
 199              	.LFE255:
 200              		.size	stm32_clock_init, .-stm32_clock_init
 201              		.global	SystemCoreClock
 202              		.section	.data.SystemCoreClock,"aw",%progbits
 203              		.align	2
 204              		.type	SystemCoreClock, %object
 205              		.size	SystemCoreClock, 4
 206              	SystemCoreClock:
 207 0000 00A24A04 		.word	72000000
 208              		.text
 209              	.Letext0:
 210              		.file 2 "c:\\chibistudio\\tools\\gnu tools arm embedded\\7.0 2017q4\\lib\\gcc\\arm-none-eabi\\7.2.
 211              		.file 3 "c:\\chibistudio\\tools\\gnu tools arm embedded\\7.0 2017q4\\arm-none-eabi\\include\\machi
 212              		.file 4 "c:\\chibistudio\\tools\\gnu tools arm embedded\\7.0 2017q4\\arm-none-eabi\\include\\sys\\
 213              		.file 5 ".//os/common/ports/ARMCMx/compilers/GCC/chtypes.h"
 214              		.file 6 ".//os/rt/include/chsystypes.h"
 215              		.file 7 ".//os/rt/include/chschd.h"
 216              		.file 8 ".//os/rt/include/chtime.h"
 217              		.file 9 ".//os/common/ext/ARM/CMSIS/Core/Include/core_cm3.h"
 218              		.file 10 ".//os/common/ext/ST/STM32F1xx/system_stm32f1xx.h"
 219              		.file 11 ".//os/common/ext/ST/STM32F1xx/stm32f103xb.h"
 220              		.file 12 ".//os/common/ports/ARMCMx/chcore.h"
 221              		.file 13 ".//os/common/ports/ARMCMx/chcore_v7m.h"
 222              		.file 14 ".//os/rt/include/chsem.h"
 223              		.file 15 ".//os/rt/include/chmtx.h"
 224              		.file 16 ".//os/rt/include/chsys.h"
 225              		.file 17 ".//os/rt/include/chregistry.h"
 226              		.file 18 ".//os/rt/include/chevents.h"
 227              		.file 19 ".//os/lib/include/chmemcore.h"
 228              		.file 20 ".//os/lib/include/chmempools.h"
ARM GAS  C:\Users\14122\AppData\Local\Temp\ccvyTxJM.s 			page 5


 229              		.file 21 ".//os/lib/include/chfactory.h"
 230              		.file 22 ".//os/hal/ports/STM32/LLD/DMAv1/stm32_dma.h"
 231              		.file 23 ".//os/hal/include/hal_pal.h"
 232              		.file 24 ".//os/hal/ports/STM32/LLD/GPIOv1/hal_pal_lld.h"
 233              		.file 25 ".//os/hal/include/hal_can.h"
 234              		.file 26 ".//os/hal/ports/STM32/LLD/CANv1/hal_can_lld.h"
 235              		.file 27 ".//os/hal/include/hal_uart.h"
 236              		.file 28 ".//os/hal/ports/STM32/LLD/USARTv1/hal_uart_lld.h"
 237              		.file 29 ".//os/hal/ports/STM32/STM32F1xx/stm32_isr.h"