ARM GAS  C:\Users\14122\AppData\Local\Temp\ccYwHGHv.s 			page 1


   1              		.cpu cortex-m3
   2              		.eabi_attribute 20, 1
   3              		.eabi_attribute 21, 1
   4              		.eabi_attribute 23, 3
   5              		.eabi_attribute 24, 1
   6              		.eabi_attribute 25, 1
   7              		.eabi_attribute 26, 1
   8              		.eabi_attribute 30, 2
   9              		.eabi_attribute 34, 1
  10              		.eabi_attribute 18, 4
  11              		.file	"hal_pal_lld.c"
  12              		.text
  13              	.Ltext0:
  14              		.cfi_sections	.debug_frame
  15              		.section	.text._pal_lld_init,"ax",%progbits
  16              		.align	1
  17              		.p2align 4,,15
  18              		.global	_pal_lld_init
  19              		.syntax unified
  20              		.thumb
  21              		.thumb_func
  22              		.fpu softvfp
  23              		.type	_pal_lld_init, %function
  24              	_pal_lld_init:
  25              	.LFB253:
  26              		.file 1 ".//os/hal/ports/STM32/LLD/GPIOv1/hal_pal_lld.c"
  27              		.loc 1 81 0
  28              		.cfi_startproc
  29              		@ args = 0, pretend = 0, frame = 0
  30              		@ frame_needed = 0, uses_anonymous_args = 0
  31              		@ link register save eliminated.
  32              	.LVL0:
  33              		.loc 1 94 0
  34 0000 164A     		ldr	r2, .L4
  35              		.loc 1 81 0
  36 0002 30B4     		push	{r4, r5}
  37              		.cfi_def_cfa_offset 8
  38              		.cfi_offset 4, -8
  39              		.cfi_offset 5, -4
  40              		.loc 1 94 0
  41 0004 9169     		ldr	r1, [r2, #24]
  42              		.loc 1 99 0
  43 0006 164B     		ldr	r3, .L4+4
  44              		.loc 1 94 0
  45 0008 41F07D01 		orr	r1, r1, #125
  46 000c 9161     		str	r1, [r2, #24]
  47              		.loc 1 99 0
  48 000e 0168     		ldr	r1, [r0]
  49              		.loc 1 94 0
  50 0010 9269     		ldr	r2, [r2, #24]
  51              		.loc 1 99 0
  52 0012 D960     		str	r1, [r3, #12]
  53              		.loc 1 100 0
  54 0014 8268     		ldr	r2, [r0, #8]
  55              		.loc 1 102 0
  56 0016 134C     		ldr	r4, .L4+8
  57              		.loc 1 100 0
ARM GAS  C:\Users\14122\AppData\Local\Temp\ccYwHGHv.s 			page 2


  58 0018 5A60     		str	r2, [r3, #4]
  59              		.loc 1 101 0
  60 001a 4568     		ldr	r5, [r0, #4]
  61              		.loc 1 105 0
  62 001c 1249     		ldr	r1, .L4+12
  63              		.loc 1 101 0
  64 001e 1D60     		str	r5, [r3]
  65              		.loc 1 102 0
  66 0020 C568     		ldr	r5, [r0, #12]
  67              		.loc 1 108 0
  68 0022 124A     		ldr	r2, .L4+16
  69              		.loc 1 102 0
  70 0024 E560     		str	r5, [r4, #12]
  71              		.loc 1 103 0
  72 0026 4569     		ldr	r5, [r0, #20]
  73              		.loc 1 112 0
  74 0028 03F58053 		add	r3, r3, #4096
  75              		.loc 1 103 0
  76 002c 6560     		str	r5, [r4, #4]
  77              		.loc 1 104 0
  78 002e 0569     		ldr	r5, [r0, #16]
  79 0030 2560     		str	r5, [r4]
  80              		.loc 1 105 0
  81 0032 8469     		ldr	r4, [r0, #24]
  82 0034 CC60     		str	r4, [r1, #12]
  83              		.loc 1 106 0
  84 0036 046A     		ldr	r4, [r0, #32]
  85 0038 4C60     		str	r4, [r1, #4]
  86              		.loc 1 107 0
  87 003a C469     		ldr	r4, [r0, #28]
  88 003c 0C60     		str	r4, [r1]
  89              		.loc 1 108 0
  90 003e 416A     		ldr	r1, [r0, #36]
  91 0040 D160     		str	r1, [r2, #12]
  92              		.loc 1 109 0
  93 0042 C16A     		ldr	r1, [r0, #44]
  94 0044 5160     		str	r1, [r2, #4]
  95              		.loc 1 110 0
  96 0046 816A     		ldr	r1, [r0, #40]
  97 0048 1160     		str	r1, [r2]
  98              		.loc 1 112 0
  99 004a 026B     		ldr	r2, [r0, #48]
 100 004c DA60     		str	r2, [r3, #12]
 101              		.loc 1 113 0
 102 004e 826B     		ldr	r2, [r0, #56]
 103 0050 5A60     		str	r2, [r3, #4]
 104              		.loc 1 114 0
 105 0052 426B     		ldr	r2, [r0, #52]
 106              		.loc 1 126 0
 107 0054 30BC     		pop	{r4, r5}
 108              		.cfi_restore 5
 109              		.cfi_restore 4
 110              		.cfi_def_cfa_offset 0
 111              		.loc 1 114 0
 112 0056 1A60     		str	r2, [r3]
 113              		.loc 1 126 0
 114 0058 7047     		bx	lr
ARM GAS  C:\Users\14122\AppData\Local\Temp\ccYwHGHv.s 			page 3


 115              	.L5:
 116 005a 00BF     		.align	2
 117              	.L4:
 118 005c 00100240 		.word	1073876992
 119 0060 00080140 		.word	1073809408
 120 0064 000C0140 		.word	1073810432
 121 0068 00100140 		.word	1073811456
 122 006c 00140140 		.word	1073812480
 123              		.cfi_endproc
 124              	.LFE253:
 125              		.size	_pal_lld_init, .-_pal_lld_init
 126              		.section	.text._pal_lld_setgroupmode,"ax",%progbits
 127              		.align	1
 128              		.p2align 4,,15
 129              		.global	_pal_lld_setgroupmode
 130              		.syntax unified
 131              		.thumb
 132              		.thumb_func
 133              		.fpu softvfp
 134              		.type	_pal_lld_setgroupmode, %function
 135              	_pal_lld_setgroupmode:
 136              	.LFB254:
 137              		.loc 1 145 0
 138              		.cfi_startproc
 139              		@ args = 0, pretend = 0, frame = 0
 140              		@ frame_needed = 0, uses_anonymous_args = 0
 141              		@ link register save eliminated.
 142              	.LVL1:
 143              		.loc 1 169 0
 144 0000 032A     		cmp	r2, #3
 145              		.loc 1 145 0
 146 0002 F0B4     		push	{r4, r5, r6, r7}
 147              		.cfi_def_cfa_offset 16
 148              		.cfi_offset 4, -16
 149              		.cfi_offset 5, -12
 150              		.cfi_offset 6, -8
 151              		.cfi_offset 7, -4
 152              		.loc 1 169 0
 153 0004 2DD0     		beq	.L16
 154              		.loc 1 171 0
 155 0006 042A     		cmp	r2, #4
 156              		.loc 1 172 0
 157 0008 08BF     		it	eq
 158 000a 4161     		streq	r1, [r0, #20]
 159              	.L8:
 160              		.loc 1 174 0
 161 000c 0023     		movs	r3, #0
 162              		.loc 1 173 0
 163 000e 0827     		movs	r7, #8
 164              		.loc 1 174 0
 165 0010 1D46     		mov	r5, r3
 166 0012 1C46     		mov	r4, r3
 167 0014 1E46     		mov	r6, r3
 168              		.loc 1 173 0
 169 0016 DFF850C0 		ldr	ip, .L17
 170 001a 1CF80220 		ldrb	r2, [ip, r2]	@ zero_extendqisi2
 171              	.LVL2:
ARM GAS  C:\Users\14122\AppData\Local\Temp\ccYwHGHv.s 			page 4


 172              	.L13:
 173              		.loc 1 180 0
 174 001e 11F0800F 		tst	r1, #128
 175              		.loc 1 176 0
 176 0022 4FEA0414 		lsl	r4, r4, #4
 177              	.LVL3:
 178              		.loc 1 178 0
 179 0026 4FEA0313 		lsl	r3, r3, #4
 180              	.LVL4:
 181              		.loc 1 177 0
 182 002a 4FEA0616 		lsl	r6, r6, #4
 183              	.LVL5:
 184              		.loc 1 179 0
 185 002e 4FEA0515 		lsl	r5, r5, #4
 186              	.LVL6:
 187              		.loc 1 181 0
 188 0032 0CBF     		ite	eq
 189 0034 44F00F04 		orreq	r4, r4, #15
 190              	.LVL7:
 191              		.loc 1 183 0
 192 0038 1343     		orrne	r3, r3, r2
 193              	.LVL8:
 194              		.loc 1 184 0
 195 003a 11F4004F 		tst	r1, #32768
 196              		.loc 1 185 0
 197 003e 0CBF     		ite	eq
 198 0040 46F00F06 		orreq	r6, r6, #15
 199              	.LVL9:
 200              		.loc 1 187 0
 201 0044 1543     		orrne	r5, r5, r2
 202              	.LVL10:
 203              		.loc 1 175 0
 204 0046 013F     		subs	r7, r7, #1
 205              	.LVL11:
 206              		.loc 1 188 0
 207 0048 4FEA4101 		lsl	r1, r1, #1
 208              	.LVL12:
 209              		.loc 1 175 0
 210 004c E7D1     		bne	.L13
 211              		.loc 1 190 0
 212 004e 4268     		ldr	r2, [r0, #4]
 213              	.LVL13:
 214 0050 1640     		ands	r6, r6, r2
 215              	.LVL14:
 216 0052 3543     		orrs	r5, r5, r6
 217              	.LVL15:
 218 0054 4560     		str	r5, [r0, #4]
 219              		.loc 1 191 0
 220 0056 0268     		ldr	r2, [r0]
 221 0058 1440     		ands	r4, r4, r2
 222              	.LVL16:
 223 005a 2343     		orrs	r3, r3, r4
 224              	.LVL17:
 225 005c 0360     		str	r3, [r0]
 226              		.loc 1 192 0
 227 005e F0BC     		pop	{r4, r5, r6, r7}
 228              		.cfi_remember_state
ARM GAS  C:\Users\14122\AppData\Local\Temp\ccYwHGHv.s 			page 5


 229              		.cfi_restore 7
 230              		.cfi_restore 6
 231              		.cfi_restore 5
 232              		.cfi_restore 4
 233              		.cfi_def_cfa_offset 0
 234 0060 7047     		bx	lr
 235              	.LVL18:
 236              	.L16:
 237              		.cfi_restore_state
 238              		.loc 1 170 0
 239 0062 0161     		str	r1, [r0, #16]
 240 0064 D2E7     		b	.L8
 241              	.L18:
 242 0066 00BF     		.align	2
 243              	.L17:
 244 0068 00000000 		.word	.LANCHOR0
 245              		.cfi_endproc
 246              	.LFE254:
 247              		.size	_pal_lld_setgroupmode, .-_pal_lld_setgroupmode
 248              		.global	_pal_events
 249              		.section	.bss._pal_events,"aw",%nobits
 250              		.align	2
 251              		.type	_pal_events, %object
 252              		.size	_pal_events, 0
 253              	_pal_events:
 254              		.section	.rodata.cfgtab.7063,"a",%progbits
 255              		.align	2
 256              		.set	.LANCHOR0,. + 0
 257              		.type	cfgtab.7063, %object
 258              		.size	cfgtab.7063, 18
 259              	cfgtab.7063:
 260 0000 04       		.byte	4
 261 0001 02       		.byte	2
 262 0002 04       		.byte	4
 263 0003 08       		.byte	8
 264 0004 08       		.byte	8
 265 0005 00       		.byte	0
 266 0006 03       		.byte	3
 267 0007 07       		.byte	7
 268 0008 08       		.byte	8
 269 0009 08       		.byte	8
 270 000a 08       		.byte	8
 271 000b 08       		.byte	8
 272 000c 08       		.byte	8
 273 000d 08       		.byte	8
 274 000e 08       		.byte	8
 275 000f 08       		.byte	8
 276 0010 0B       		.byte	11
 277 0011 0F       		.byte	15
 278              		.text
 279              	.Letext0:
 280              		.file 2 "c:\\chibistudio\\tools\\gnu tools arm embedded\\7.0 2017q4\\lib\\gcc\\arm-none-eabi\\7.2.
 281              		.file 3 "c:\\chibistudio\\tools\\gnu tools arm embedded\\7.0 2017q4\\arm-none-eabi\\include\\machi
 282              		.file 4 "c:\\chibistudio\\tools\\gnu tools arm embedded\\7.0 2017q4\\arm-none-eabi\\include\\sys\\
 283              		.file 5 ".//os/common/ports/ARMCMx/compilers/GCC/chtypes.h"
 284              		.file 6 ".//os/rt/include/chsystypes.h"
 285              		.file 7 ".//os/rt/include/chschd.h"
ARM GAS  C:\Users\14122\AppData\Local\Temp\ccYwHGHv.s 			page 6


 286              		.file 8 ".//os/rt/include/chtime.h"
 287              		.file 9 ".//os/common/ext/ARM/CMSIS/Core/Include/core_cm3.h"
 288              		.file 10 ".//os/common/ext/ST/STM32F1xx/system_stm32f1xx.h"
 289              		.file 11 ".//os/common/ext/ST/STM32F1xx/stm32f103xb.h"
 290              		.file 12 ".//os/common/ports/ARMCMx/chcore.h"
 291              		.file 13 ".//os/common/ports/ARMCMx/chcore_v7m.h"
 292              		.file 14 ".//os/rt/include/chsem.h"
 293              		.file 15 ".//os/rt/include/chmtx.h"
 294              		.file 16 ".//os/rt/include/chsys.h"
 295              		.file 17 ".//os/rt/include/chregistry.h"
 296              		.file 18 ".//os/rt/include/chevents.h"
 297              		.file 19 ".//os/lib/include/chmemcore.h"
 298              		.file 20 ".//os/lib/include/chmempools.h"
 299              		.file 21 ".//os/lib/include/chfactory.h"
 300              		.file 22 ".//os/hal/ports/STM32/LLD/DMAv1/stm32_dma.h"
 301              		.file 23 ".//os/hal/include/hal_pal.h"
 302              		.file 24 ".//os/hal/ports/STM32/LLD/GPIOv1/hal_pal_lld.h"
 303              		.file 25 ".//os/hal/include/hal_can.h"
 304              		.file 26 ".//os/hal/ports/STM32/LLD/CANv1/hal_can_lld.h"
 305              		.file 27 ".//os/hal/include/hal_uart.h"
 306              		.file 28 ".//os/hal/ports/STM32/LLD/USARTv1/hal_uart_lld.h"