ARM GAS  C:\Users\14122\AppData\Local\Temp\cc2eSDGZ.s 			page 1


   1              		.cpu cortex-m3
   2              		.eabi_attribute 20, 1
   3              		.eabi_attribute 21, 1
   4              		.eabi_attribute 23, 3
   5              		.eabi_attribute 24, 1
   6              		.eabi_attribute 25, 1
   7              		.eabi_attribute 26, 1
   8              		.eabi_attribute 30, 2
   9              		.eabi_attribute 34, 1
  10              		.eabi_attribute 18, 4
  11              		.file	"hal_st.c"
  12              		.text
  13              	.Ltext0:
  14              		.cfi_sections	.debug_frame
  15              		.section	.text.stInit,"ax",%progbits
  16              		.align	1
  17              		.p2align 4,,15
  18              		.global	stInit
  19              		.syntax unified
  20              		.thumb
  21              		.thumb_func
  22              		.fpu softvfp
  23              		.type	stInit, %function
  24              	stInit:
  25              	.LFB253:
  26              		.file 1 ".//os/hal/src/hal_st.c"
  27              		.loc 1 60 0
  28              		.cfi_startproc
  29              		@ args = 0, pretend = 0, frame = 0
  30              		@ frame_needed = 0, uses_anonymous_args = 0
  31              		@ link register save eliminated.
  32              		.loc 1 62 0
  33 0000 FFF7FEBF 		b	st_lld_init
  34              	.LVL0:
  35              		.cfi_endproc
  36              	.LFE253:
  37              		.size	stInit, .-stInit
  38              		.section	.text.stStartAlarm,"ax",%progbits
  39              		.align	1
  40              		.p2align 4,,15
  41              		.global	stStartAlarm
  42              		.syntax unified
  43              		.thumb
  44              		.thumb_func
  45              		.fpu softvfp
  46              		.type	stStartAlarm, %function
  47              	stStartAlarm:
  48              	.LFB254:
  49              		.loc 1 76 0
  50              		.cfi_startproc
  51              		@ args = 0, pretend = 0, frame = 0
  52              		@ frame_needed = 0, uses_anonymous_args = 0
  53              		@ link register save eliminated.
  54              	.LVL1:
  55              	.LBB10:
  56              	.LBB11:
  57              		.file 2 ".//os/hal/ports/STM32/LLD/TIMv1/hal_st_lld.h"
ARM GAS  C:\Users\14122\AppData\Local\Temp\cc2eSDGZ.s 			page 2


  58              		.loc 2 155 0
  59 0000 4FF08043 		mov	r3, #1073741824
  60              		.loc 2 156 0
  61 0004 0021     		movs	r1, #0
  62              		.loc 2 157 0
  63 0006 0222     		movs	r2, #2
  64              		.loc 2 155 0
  65 0008 5863     		str	r0, [r3, #52]
  66              		.loc 2 156 0
  67 000a 1961     		str	r1, [r3, #16]
  68              		.loc 2 157 0
  69 000c DA60     		str	r2, [r3, #12]
  70              	.LVL2:
  71              	.LBE11:
  72              	.LBE10:
  73              		.loc 1 81 0
  74 000e 7047     		bx	lr
  75              		.cfi_endproc
  76              	.LFE254:
  77              		.size	stStartAlarm, .-stStartAlarm
  78              		.section	.text.stStopAlarm,"ax",%progbits
  79              		.align	1
  80              		.p2align 4,,15
  81              		.global	stStopAlarm
  82              		.syntax unified
  83              		.thumb
  84              		.thumb_func
  85              		.fpu softvfp
  86              		.type	stStopAlarm, %function
  87              	stStopAlarm:
  88              	.LFB255:
  89              		.loc 1 90 0
  90              		.cfi_startproc
  91              		@ args = 0, pretend = 0, frame = 0
  92              		@ frame_needed = 0, uses_anonymous_args = 0
  93              		@ link register save eliminated.
  94              	.LBB12:
  95              	.LBB13:
  96              		.loc 2 167 0
  97 0000 4FF08043 		mov	r3, #1073741824
  98 0004 0022     		movs	r2, #0
  99 0006 DA60     		str	r2, [r3, #12]
 100              	.LBE13:
 101              	.LBE12:
 102              		.loc 1 93 0
 103 0008 7047     		bx	lr
 104              		.cfi_endproc
 105              	.LFE255:
 106              		.size	stStopAlarm, .-stStopAlarm
 107 000a 00BF     		.section	.text.stSetAlarm,"ax",%progbits
 108              		.align	1
 109              		.p2align 4,,15
 110              		.global	stSetAlarm
 111              		.syntax unified
 112              		.thumb
 113              		.thumb_func
 114              		.fpu softvfp
ARM GAS  C:\Users\14122\AppData\Local\Temp\cc2eSDGZ.s 			page 3


 115              		.type	stSetAlarm, %function
 116              	stSetAlarm:
 117              	.LFB256:
 118              		.loc 1 104 0
 119              		.cfi_startproc
 120              		@ args = 0, pretend = 0, frame = 0
 121              		@ frame_needed = 0, uses_anonymous_args = 0
 122              		@ link register save eliminated.
 123              	.LVL3:
 124              	.LBB14:
 125              	.LBB15:
 126              		.loc 2 179 0
 127 0000 4FF08043 		mov	r3, #1073741824
 128 0004 5863     		str	r0, [r3, #52]
 129              	.LVL4:
 130              	.LBE15:
 131              	.LBE14:
 132              		.loc 1 109 0
 133 0006 7047     		bx	lr
 134              		.cfi_endproc
 135              	.LFE256:
 136              		.size	stSetAlarm, .-stSetAlarm
 137              		.section	.text.stGetAlarm,"ax",%progbits
 138              		.align	1
 139              		.p2align 4,,15
 140              		.global	stGetAlarm
 141              		.syntax unified
 142              		.thumb
 143              		.thumb_func
 144              		.fpu softvfp
 145              		.type	stGetAlarm, %function
 146              	stGetAlarm:
 147              	.LFB257:
 148              		.loc 1 120 0
 149              		.cfi_startproc
 150              		@ args = 0, pretend = 0, frame = 0
 151              		@ frame_needed = 0, uses_anonymous_args = 0
 152              		@ link register save eliminated.
 153              	.LBB16:
 154              	.LBB17:
 155              		.loc 2 191 0
 156 0000 4FF08043 		mov	r3, #1073741824
 157 0004 586B     		ldr	r0, [r3, #52]
 158              	.LBE17:
 159              	.LBE16:
 160              		.loc 1 125 0
 161 0006 80B2     		uxth	r0, r0
 162 0008 7047     		bx	lr
 163              		.cfi_endproc
 164              	.LFE257:
 165              		.size	stGetAlarm, .-stGetAlarm
 166 000a 00BF     		.text
 167              	.Letext0:
 168              		.file 3 "c:\\chibistudio\\tools\\gnu tools arm embedded\\7.0 2017q4\\lib\\gcc\\arm-none-eabi\\7.2.
 169              		.file 4 "c:\\chibistudio\\tools\\gnu tools arm embedded\\7.0 2017q4\\arm-none-eabi\\include\\machi
 170              		.file 5 "c:\\chibistudio\\tools\\gnu tools arm embedded\\7.0 2017q4\\arm-none-eabi\\include\\sys\\
 171              		.file 6 ".//os/common/ports/ARMCMx/compilers/GCC/chtypes.h"
ARM GAS  C:\Users\14122\AppData\Local\Temp\cc2eSDGZ.s 			page 4


 172              		.file 7 ".//os/rt/include/chsystypes.h"
 173              		.file 8 ".//os/rt/include/chschd.h"
 174              		.file 9 ".//os/rt/include/chtime.h"
 175              		.file 10 ".//os/common/ext/ARM/CMSIS/Core/Include/core_cm3.h"
 176              		.file 11 ".//os/common/ext/ST/STM32F1xx/system_stm32f1xx.h"
 177              		.file 12 ".//os/common/ext/ST/STM32F1xx/stm32f103xb.h"
 178              		.file 13 ".//os/common/ports/ARMCMx/chcore.h"
 179              		.file 14 ".//os/common/ports/ARMCMx/chcore_v7m.h"
 180              		.file 15 ".//os/hal/ports/STM32/LLD/TIMv1/stm32_tim.h"
 181              		.file 16 ".//os/rt/include/chsem.h"
 182              		.file 17 ".//os/rt/include/chmtx.h"
 183              		.file 18 ".//os/rt/include/chsys.h"
 184              		.file 19 ".//os/rt/include/chregistry.h"
 185              		.file 20 ".//os/rt/include/chevents.h"
 186              		.file 21 ".//os/lib/include/chmemcore.h"
 187              		.file 22 ".//os/lib/include/chmempools.h"
 188              		.file 23 ".//os/lib/include/chfactory.h"
 189              		.file 24 ".//os/hal/ports/STM32/LLD/DMAv1/stm32_dma.h"
 190              		.file 25 ".//os/hal/include/hal_pal.h"
 191              		.file 26 ".//os/hal/ports/STM32/LLD/GPIOv1/hal_pal_lld.h"
 192              		.file 27 ".//os/hal/include/hal_can.h"
 193              		.file 28 ".//os/hal/ports/STM32/LLD/CANv1/hal_can_lld.h"
 194              		.file 29 ".//os/hal/include/hal_uart.h"
 195              		.file 30 ".//os/hal/ports/STM32/LLD/USARTv1/hal_uart_lld.h"
 196              		.section	.debug_info,"",%progbits
 197              	.Ldebug_info0:
 198 0000 FF140000 		.4byte	0x14ff
 199 0004 0400     		.2byte	0x4
 200 0006 00000000 		.4byte	.Ldebug_abbrev0
 201 000a 04       		.byte	0x4
 202 000b 01       		.uleb128 0x1
 203 000c 14070000 		.4byte	.LASF273
 204 0010 0C       		.byte	0xc
 205 0011 6F000000 		.4byte	.LASF274
 206 0015 040C0000 		.4byte	.LASF275
 207 0019 00000000 		.4byte	.Ldebug_ranges0+0
 208 001d 00000000 		.4byte	0
 209 0021 00000000 		.4byte	.Ldebug_line0
 210 0025 02       		.uleb128 0x2
 211 0026 04       		.byte	0x4
 212 0027 05       		.byte	0x5
 213 0028 696E7400 		.ascii	"int\000"
 214 002c 03       		.uleb128 0x3
 215 002d 1B000000 		.4byte	.LASF4
 216 0031 03       		.byte	0x3
 217 0032 D8       		.byte	0xd8
 218 0033 37000000 		.4byte	0x37
 219 0037 04       		.uleb128 0x4
 220 0038 04       		.byte	0x4
 221 0039 07       		.byte	0x7
 222 003a 8B060000 		.4byte	.LASF0
 223 003e 04       		.uleb128 0x4
 224 003f 08       		.byte	0x8
 225 0040 05       		.byte	0x5
 226 0041 D5050000 		.4byte	.LASF1
 227 0045 04       		.uleb128 0x4
 228 0046 08       		.byte	0x8
ARM GAS  C:\Users\14122\AppData\Local\Temp\cc2eSDGZ.s 			page 5


 229 0047 04       		.byte	0x4
 230 0048 0B080000 		.4byte	.LASF2
 231 004c 04       		.uleb128 0x4
 232 004d 01       		.byte	0x1
 233 004e 06       		.byte	0x6
 234 004f 16020000 		.4byte	.LASF3
 235 0053 03       		.uleb128 0x3
 236 0054 4D010000 		.4byte	.LASF5
 237 0058 04       		.byte	0x4
 238 0059 2B       		.byte	0x2b
 239 005a 5E000000 		.4byte	0x5e
 240 005e 04       		.uleb128 0x4
 241 005f 01       		.byte	0x1
 242 0060 08       		.byte	0x8
 243 0061 8C020000 		.4byte	.LASF6
 244 0065 04       		.uleb128 0x4
 245 0066 02       		.byte	0x2
 246 0067 05       		.byte	0x5
 247 0068 3A0A0000 		.4byte	.LASF7
 248 006c 03       		.uleb128 0x3
 249 006d 40030000 		.4byte	.LASF8
 250 0071 04       		.byte	0x4
 251 0072 39       		.byte	0x39
 252 0073 77000000 		.4byte	0x77
 253 0077 04       		.uleb128 0x4
 254 0078 02       		.byte	0x2
 255 0079 07       		.byte	0x7
 256 007a 4B0B0000 		.4byte	.LASF9
 257 007e 03       		.uleb128 0x3
 258 007f 960B0000 		.4byte	.LASF10
 259 0083 04       		.byte	0x4
 260 0084 4D       		.byte	0x4d
 261 0085 89000000 		.4byte	0x89
 262 0089 04       		.uleb128 0x4
 263 008a 04       		.byte	0x4
 264 008b 05       		.byte	0x5
 265 008c 8C010000 		.4byte	.LASF11
 266 0090 03       		.uleb128 0x3
 267 0091 C2050000 		.4byte	.LASF12
 268 0095 04       		.byte	0x4
 269 0096 4F       		.byte	0x4f
 270 0097 9B000000 		.4byte	0x9b
 271 009b 04       		.uleb128 0x4
 272 009c 04       		.byte	0x4
 273 009d 07       		.byte	0x7
 274 009e 6E040000 		.4byte	.LASF13
 275 00a2 03       		.uleb128 0x3
 276 00a3 59040000 		.4byte	.LASF14
 277 00a7 04       		.byte	0x4
 278 00a8 69       		.byte	0x69
 279 00a9 AD000000 		.4byte	0xad
 280 00ad 04       		.uleb128 0x4
 281 00ae 08       		.byte	0x8
 282 00af 07       		.byte	0x7
 283 00b0 9E080000 		.4byte	.LASF15
 284 00b4 03       		.uleb128 0x3
 285 00b5 29020000 		.4byte	.LASF16
ARM GAS  C:\Users\14122\AppData\Local\Temp\cc2eSDGZ.s 			page 6


 286 00b9 05       		.byte	0x5
 287 00ba 18       		.byte	0x18
 288 00bb 53000000 		.4byte	0x53
 289 00bf 05       		.uleb128 0x5
 290 00c0 B4000000 		.4byte	0xb4
 291 00c4 03       		.uleb128 0x3
 292 00c5 C8080000 		.4byte	.LASF17
 293 00c9 05       		.byte	0x5
 294 00ca 24       		.byte	0x24
 295 00cb 6C000000 		.4byte	0x6c
 296 00cf 06       		.uleb128 0x6
 297 00d0 C4000000 		.4byte	0xc4
 298 00d4 03       		.uleb128 0x3
 299 00d5 86000000 		.4byte	.LASF18
 300 00d9 05       		.byte	0x5
 301 00da 2C       		.byte	0x2c
 302 00db 7E000000 		.4byte	0x7e
 303 00df 06       		.uleb128 0x6
 304 00e0 D4000000 		.4byte	0xd4
 305 00e4 03       		.uleb128 0x3
 306 00e5 2C0B0000 		.4byte	.LASF19
 307 00e9 05       		.byte	0x5
 308 00ea 30       		.byte	0x30
 309 00eb 90000000 		.4byte	0x90
 310 00ef 06       		.uleb128 0x6
 311 00f0 E4000000 		.4byte	0xe4
 312 00f4 03       		.uleb128 0x3
 313 00f5 510A0000 		.4byte	.LASF20
 314 00f9 05       		.byte	0x5
 315 00fa 3C       		.byte	0x3c
 316 00fb A2000000 		.4byte	0xa2
 317 00ff 03       		.uleb128 0x3
 318 0100 C9090000 		.4byte	.LASF21
 319 0104 06       		.byte	0x6
 320 0105 2A       		.byte	0x2a
 321 0106 B4000000 		.4byte	0xb4
 322 010a 03       		.uleb128 0x3
 323 010b 9F010000 		.4byte	.LASF22
 324 010f 06       		.byte	0x6
 325 0110 2B       		.byte	0x2b
 326 0111 B4000000 		.4byte	0xb4
 327 0115 03       		.uleb128 0x3
 328 0116 DD0A0000 		.4byte	.LASF23
 329 011a 06       		.byte	0x6
 330 011b 2C       		.byte	0x2c
 331 011c B4000000 		.4byte	0xb4
 332 0120 03       		.uleb128 0x3
 333 0121 55000000 		.4byte	.LASF24
 334 0125 06       		.byte	0x6
 335 0126 2E       		.byte	0x2e
 336 0127 E4000000 		.4byte	0xe4
 337 012b 03       		.uleb128 0x3
 338 012c E9080000 		.4byte	.LASF25
 339 0130 06       		.byte	0x6
 340 0131 2F       		.byte	0x2f
 341 0132 D4000000 		.4byte	0xd4
 342 0136 03       		.uleb128 0x3
ARM GAS  C:\Users\14122\AppData\Local\Temp\cc2eSDGZ.s 			page 7


 343 0137 31020000 		.4byte	.LASF26
 344 013b 06       		.byte	0x6
 345 013c 31       		.byte	0x31
 346 013d E4000000 		.4byte	0xe4
 347 0141 03       		.uleb128 0x3
 348 0142 00090000 		.4byte	.LASF27
 349 0146 06       		.byte	0x6
 350 0147 32       		.byte	0x32
 351 0148 E4000000 		.4byte	0xe4
 352 014c 03       		.uleb128 0x3
 353 014d DB030000 		.4byte	.LASF28
 354 0151 06       		.byte	0x6
 355 0152 33       		.byte	0x33
 356 0153 D4000000 		.4byte	0xd4
 357 0157 03       		.uleb128 0x3
 358 0158 61050000 		.4byte	.LASF29
 359 015c 06       		.byte	0x6
 360 015d 34       		.byte	0x34
 361 015e E4000000 		.4byte	0xe4
 362 0162 03       		.uleb128 0x3
 363 0163 02080000 		.4byte	.LASF30
 364 0167 07       		.byte	0x7
 365 0168 34       		.byte	0x34
 366 0169 6D010000 		.4byte	0x16d
 367 016d 07       		.uleb128 0x7
 368 016e C6040000 		.4byte	.LASF48
 369 0172 44       		.byte	0x44
 370 0173 08       		.byte	0x8
 371 0174 8E       		.byte	0x8e
 372 0175 4B020000 		.4byte	0x24b
 373 0179 08       		.uleb128 0x8
 374 017a 3A090000 		.4byte	.LASF31
 375 017e 08       		.byte	0x8
 376 017f 8F       		.byte	0x8f
 377 0180 80020000 		.4byte	0x280
 378 0184 00       		.byte	0
 379 0185 08       		.uleb128 0x8
 380 0186 2C010000 		.4byte	.LASF32
 381 018a 08       		.byte	0x8
 382 018b 90       		.byte	0x90
 383 018c 20010000 		.4byte	0x120
 384 0190 08       		.byte	0x8
 385 0191 09       		.uleb128 0x9
 386 0192 63747800 		.ascii	"ctx\000"
 387 0196 08       		.byte	0x8
 388 0197 91       		.byte	0x91
 389 0198 25080000 		.4byte	0x825
 390 019c 0C       		.byte	0xc
 391 019d 08       		.uleb128 0x8
 392 019e 210B0000 		.4byte	.LASF33
 393 01a2 08       		.byte	0x8
 394 01a3 93       		.byte	0x93
 395 01a4 56020000 		.4byte	0x256
 396 01a8 10       		.byte	0x10
 397 01a9 08       		.uleb128 0x8
 398 01aa 3C050000 		.4byte	.LASF34
 399 01ae 08       		.byte	0x8
ARM GAS  C:\Users\14122\AppData\Local\Temp\cc2eSDGZ.s 			page 8


 400 01af 94       		.byte	0x94
 401 01b0 56020000 		.4byte	0x256
 402 01b4 14       		.byte	0x14
 403 01b5 08       		.uleb128 0x8
 404 01b6 F3090000 		.4byte	.LASF35
 405 01ba 08       		.byte	0x8
 406 01bb 9B       		.byte	0x9b
 407 01bc B60A0000 		.4byte	0xab6
 408 01c0 18       		.byte	0x18
 409 01c1 08       		.uleb128 0x8
 410 01c2 9F090000 		.4byte	.LASF36
 411 01c6 08       		.byte	0x8
 412 01c7 A4       		.byte	0xa4
 413 01c8 CD0A0000 		.4byte	0xacd
 414 01cc 1C       		.byte	0x1c
 415 01cd 08       		.uleb128 0x8
 416 01ce F0000000 		.4byte	.LASF37
 417 01d2 08       		.byte	0x8
 418 01d3 A9       		.byte	0xa9
 419 01d4 0A010000 		.4byte	0x10a
 420 01d8 20       		.byte	0x20
 421 01d9 08       		.uleb128 0x8
 422 01da 66030000 		.4byte	.LASF38
 423 01de 08       		.byte	0x8
 424 01df AD       		.byte	0xad
 425 01e0 FF000000 		.4byte	0xff
 426 01e4 21       		.byte	0x21
 427 01e5 08       		.uleb128 0x8
 428 01e6 35090000 		.4byte	.LASF39
 429 01ea 08       		.byte	0x8
 430 01eb B2       		.byte	0xb2
 431 01ec 15010000 		.4byte	0x115
 432 01f0 22       		.byte	0x22
 433 01f1 0A       		.uleb128 0xa
 434 01f2 7500     		.ascii	"u\000"
 435 01f4 08       		.byte	0x8
 436 01f5 0301     		.2byte	0x103
 437 01f7 EC090000 		.4byte	0x9ec
 438 01fb 24       		.byte	0x24
 439 01fc 0B       		.uleb128 0xb
 440 01fd CD0A0000 		.4byte	.LASF40
 441 0201 08       		.byte	0x8
 442 0202 0801     		.2byte	0x108
 443 0204 5C020000 		.4byte	0x25c
 444 0208 28       		.byte	0x28
 445 0209 0B       		.uleb128 0xb
 446 020a 6E0A0000 		.4byte	.LASF41
 447 020e 08       		.byte	0x8
 448 020f 0E01     		.2byte	0x10e
 449 0211 80020000 		.4byte	0x280
 450 0215 2C       		.byte	0x2c
 451 0216 0B       		.uleb128 0xb
 452 0217 A8010000 		.4byte	.LASF42
 453 021b 08       		.byte	0x8
 454 021c 1401     		.2byte	0x114
 455 021e 36010000 		.4byte	0x136
 456 0222 34       		.byte	0x34
ARM GAS  C:\Users\14122\AppData\Local\Temp\cc2eSDGZ.s 			page 9


 457 0223 0B       		.uleb128 0xb
 458 0224 CD050000 		.4byte	.LASF43
 459 0228 08       		.byte	0x8
 460 0229 1B01     		.2byte	0x11b
 461 022b B00A0000 		.4byte	0xab0
 462 022f 38       		.byte	0x38
 463 0230 0B       		.uleb128 0xb
 464 0231 4C050000 		.4byte	.LASF44
 465 0235 08       		.byte	0x8
 466 0236 1F01     		.2byte	0x11f
 467 0238 20010000 		.4byte	0x120
 468 023c 3C       		.byte	0x3c
 469 023d 0B       		.uleb128 0xb
 470 023e 85030000 		.4byte	.LASF45
 471 0242 08       		.byte	0x8
 472 0243 2601     		.2byte	0x126
 473 0245 33030000 		.4byte	0x333
 474 0249 40       		.byte	0x40
 475 024a 00       		.byte	0
 476 024b 03       		.uleb128 0x3
 477 024c 1E080000 		.4byte	.LASF46
 478 0250 07       		.byte	0x7
 479 0251 39       		.byte	0x39
 480 0252 56020000 		.4byte	0x256
 481 0256 0C       		.uleb128 0xc
 482 0257 04       		.byte	0x4
 483 0258 62010000 		.4byte	0x162
 484 025c 03       		.uleb128 0x3
 485 025d F20A0000 		.4byte	.LASF47
 486 0261 07       		.byte	0x7
 487 0262 3E       		.byte	0x3e
 488 0263 67020000 		.4byte	0x267
 489 0267 07       		.uleb128 0x7
 490 0268 8D050000 		.4byte	.LASF49
 491 026c 04       		.byte	0x4
 492 026d 08       		.byte	0x8
 493 026e 7C       		.byte	0x7c
 494 026f 80020000 		.4byte	0x280
 495 0273 08       		.uleb128 0x8
 496 0274 C50B0000 		.4byte	.LASF50
 497 0278 08       		.byte	0x8
 498 0279 7D       		.byte	0x7d
 499 027a 56020000 		.4byte	0x256
 500 027e 00       		.byte	0
 501 027f 00       		.byte	0
 502 0280 03       		.uleb128 0x3
 503 0281 B1010000 		.4byte	.LASF51
 504 0285 07       		.byte	0x7
 505 0286 45       		.byte	0x45
 506 0287 8B020000 		.4byte	0x28b
 507 028b 07       		.uleb128 0x7
 508 028c EF080000 		.4byte	.LASF52
 509 0290 08       		.byte	0x8
 510 0291 08       		.byte	0x8
 511 0292 83       		.byte	0x83
 512 0293 B0020000 		.4byte	0x2b0
 513 0297 08       		.uleb128 0x8
ARM GAS  C:\Users\14122\AppData\Local\Temp\cc2eSDGZ.s 			page 10


 514 0298 C50B0000 		.4byte	.LASF50
 515 029c 08       		.byte	0x8
 516 029d 84       		.byte	0x84
 517 029e 56020000 		.4byte	0x256
 518 02a2 00       		.byte	0
 519 02a3 08       		.uleb128 0x8
 520 02a4 CF0B0000 		.4byte	.LASF53
 521 02a8 08       		.byte	0x8
 522 02a9 85       		.byte	0x85
 523 02aa 56020000 		.4byte	0x256
 524 02ae 04       		.byte	0x4
 525 02af 00       		.byte	0
 526 02b0 03       		.uleb128 0x3
 527 02b1 2F050000 		.4byte	.LASF54
 528 02b5 07       		.byte	0x7
 529 02b6 4C       		.byte	0x4c
 530 02b7 BB020000 		.4byte	0x2bb
 531 02bb 0D       		.uleb128 0xd
 532 02bc 06040000 		.4byte	.LASF55
 533 02c0 1C       		.byte	0x1c
 534 02c1 08       		.byte	0x8
 535 02c2 5E01     		.2byte	0x15e
 536 02c4 17030000 		.4byte	0x317
 537 02c8 0B       		.uleb128 0xb
 538 02c9 3A090000 		.4byte	.LASF31
 539 02cd 08       		.byte	0x8
 540 02ce 5F01     		.2byte	0x15f
 541 02d0 80020000 		.4byte	0x280
 542 02d4 00       		.byte	0
 543 02d5 0B       		.uleb128 0xb
 544 02d6 2C010000 		.4byte	.LASF32
 545 02da 08       		.byte	0x8
 546 02db 6001     		.2byte	0x160
 547 02dd 20010000 		.4byte	0x120
 548 02e1 08       		.byte	0x8
 549 02e2 0A       		.uleb128 0xa
 550 02e3 63747800 		.ascii	"ctx\000"
 551 02e7 08       		.byte	0x8
 552 02e8 6201     		.2byte	0x162
 553 02ea 25080000 		.4byte	0x825
 554 02ee 0C       		.byte	0xc
 555 02ef 0B       		.uleb128 0xb
 556 02f0 210B0000 		.4byte	.LASF33
 557 02f4 08       		.byte	0x8
 558 02f5 6501     		.2byte	0x165
 559 02f7 56020000 		.4byte	0x256
 560 02fb 10       		.byte	0x10
 561 02fc 0B       		.uleb128 0xb
 562 02fd 3C050000 		.4byte	.LASF34
 563 0301 08       		.byte	0x8
 564 0302 6601     		.2byte	0x166
 565 0304 56020000 		.4byte	0x256
 566 0308 14       		.byte	0x14
 567 0309 0B       		.uleb128 0xb
 568 030a C6060000 		.4byte	.LASF56
 569 030e 08       		.byte	0x8
 570 030f 6901     		.2byte	0x169
ARM GAS  C:\Users\14122\AppData\Local\Temp\cc2eSDGZ.s 			page 11


 571 0311 56020000 		.4byte	0x256
 572 0315 18       		.byte	0x18
 573 0316 00       		.byte	0
 574 0317 03       		.uleb128 0x3
 575 0318 8E000000 		.4byte	.LASF57
 576 031c 07       		.byte	0x7
 577 031d 51       		.byte	0x51
 578 031e 22030000 		.4byte	0x322
 579 0322 0C       		.uleb128 0xc
 580 0323 04       		.byte	0x4
 581 0324 28030000 		.4byte	0x328
 582 0328 0E       		.uleb128 0xe
 583 0329 33030000 		.4byte	0x333
 584 032d 0F       		.uleb128 0xf
 585 032e 33030000 		.4byte	0x333
 586 0332 00       		.byte	0
 587 0333 10       		.uleb128 0x10
 588 0334 04       		.byte	0x4
 589 0335 03       		.uleb128 0x3
 590 0336 1F050000 		.4byte	.LASF58
 591 033a 07       		.byte	0x7
 592 033b 56       		.byte	0x56
 593 033c 40030000 		.4byte	0x340
 594 0340 0D       		.uleb128 0xd
 595 0341 88080000 		.4byte	.LASF59
 596 0345 14       		.byte	0x14
 597 0346 08       		.byte	0x8
 598 0347 3901     		.2byte	0x139
 599 0349 8F030000 		.4byte	0x38f
 600 034d 0B       		.uleb128 0xb
 601 034e C50B0000 		.4byte	.LASF50
 602 0352 08       		.byte	0x8
 603 0353 3A01     		.2byte	0x13a
 604 0355 D30A0000 		.4byte	0xad3
 605 0359 00       		.byte	0
 606 035a 0B       		.uleb128 0xb
 607 035b CF0B0000 		.4byte	.LASF53
 608 035f 08       		.byte	0x8
 609 0360 3B01     		.2byte	0x13b
 610 0362 D30A0000 		.4byte	0xad3
 611 0366 04       		.byte	0x4
 612 0367 0B       		.uleb128 0xb
 613 0368 12090000 		.4byte	.LASF60
 614 036c 08       		.byte	0x8
 615 036d 3C01     		.2byte	0x13c
 616 036f 5A040000 		.4byte	0x45a
 617 0373 08       		.byte	0x8
 618 0374 0B       		.uleb128 0xb
 619 0375 5A0A0000 		.4byte	.LASF61
 620 0379 08       		.byte	0x8
 621 037a 3D01     		.2byte	0x13d
 622 037c 17030000 		.4byte	0x317
 623 0380 0C       		.byte	0xc
 624 0381 0A       		.uleb128 0xa
 625 0382 70617200 		.ascii	"par\000"
 626 0386 08       		.byte	0x8
 627 0387 3F01     		.2byte	0x13f
ARM GAS  C:\Users\14122\AppData\Local\Temp\cc2eSDGZ.s 			page 12


 628 0389 33030000 		.4byte	0x333
 629 038d 10       		.byte	0x10
 630 038e 00       		.byte	0
 631 038f 03       		.uleb128 0x3
 632 0390 D0040000 		.4byte	.LASF62
 633 0394 07       		.byte	0x7
 634 0395 5B       		.byte	0x5b
 635 0396 9A030000 		.4byte	0x39a
 636 039a 0D       		.uleb128 0xd
 637 039b A3000000 		.4byte	.LASF63
 638 039f 10       		.byte	0x10
 639 03a0 08       		.byte	0x8
 640 03a1 4901     		.2byte	0x149
 641 03a3 DC030000 		.4byte	0x3dc
 642 03a7 0B       		.uleb128 0xb
 643 03a8 C50B0000 		.4byte	.LASF50
 644 03ac 08       		.byte	0x8
 645 03ad 4A01     		.2byte	0x14a
 646 03af D30A0000 		.4byte	0xad3
 647 03b3 00       		.byte	0
 648 03b4 0B       		.uleb128 0xb
 649 03b5 CF0B0000 		.4byte	.LASF53
 650 03b9 08       		.byte	0x8
 651 03ba 4C01     		.2byte	0x14c
 652 03bc D30A0000 		.4byte	0xad3
 653 03c0 04       		.byte	0x4
 654 03c1 0B       		.uleb128 0xb
 655 03c2 12090000 		.4byte	.LASF60
 656 03c6 08       		.byte	0x8
 657 03c7 4E01     		.2byte	0x14e
 658 03c9 5A040000 		.4byte	0x45a
 659 03cd 08       		.byte	0x8
 660 03ce 0B       		.uleb128 0xb
 661 03cf B8020000 		.4byte	.LASF64
 662 03d3 08       		.byte	0x8
 663 03d4 5601     		.2byte	0x156
 664 03d6 4F040000 		.4byte	0x44f
 665 03da 0C       		.byte	0xc
 666 03db 00       		.byte	0
 667 03dc 03       		.uleb128 0x3
 668 03dd E3020000 		.4byte	.LASF65
 669 03e1 07       		.byte	0x7
 670 03e2 60       		.byte	0x60
 671 03e3 E7030000 		.4byte	0x3e7
 672 03e7 0D       		.uleb128 0xd
 673 03e8 8B0A0000 		.4byte	.LASF66
 674 03ec 04       		.byte	0x4
 675 03ed 08       		.byte	0x8
 676 03ee 7001     		.2byte	0x170
 677 03f0 02040000 		.4byte	0x402
 678 03f4 0B       		.uleb128 0xb
 679 03f5 D9020000 		.4byte	.LASF67
 680 03f9 08       		.byte	0x8
 681 03fa 7801     		.2byte	0x178
 682 03fc BC0A0000 		.4byte	0xabc
 683 0400 00       		.byte	0
 684 0401 00       		.byte	0
ARM GAS  C:\Users\14122\AppData\Local\Temp\cc2eSDGZ.s 			page 13


 685 0402 03       		.uleb128 0x3
 686 0403 5E0B0000 		.4byte	.LASF68
 687 0407 07       		.byte	0x7
 688 0408 65       		.byte	0x65
 689 0409 0D040000 		.4byte	0x40d
 690 040d 0D       		.uleb128 0xd
 691 040e 170B0000 		.4byte	.LASF69
 692 0412 74       		.byte	0x74
 693 0413 08       		.byte	0x8
 694 0414 9001     		.2byte	0x190
 695 0416 4F040000 		.4byte	0x44f
 696 041a 0B       		.uleb128 0xb
 697 041b C3090000 		.4byte	.LASF70
 698 041f 08       		.byte	0x8
 699 0420 9401     		.2byte	0x194
 700 0422 B0020000 		.4byte	0x2b0
 701 0426 00       		.byte	0
 702 0427 0B       		.uleb128 0xb
 703 0428 C60A0000 		.4byte	.LASF71
 704 042c 08       		.byte	0x8
 705 042d 9801     		.2byte	0x198
 706 042f 8F030000 		.4byte	0x38f
 707 0433 1C       		.byte	0x1c
 708 0434 0A       		.uleb128 0xa
 709 0435 64626700 		.ascii	"dbg\000"
 710 0439 08       		.byte	0x8
 711 043a 9C01     		.2byte	0x19c
 712 043c DC030000 		.4byte	0x3dc
 713 0440 2C       		.byte	0x2c
 714 0441 0B       		.uleb128 0xb
 715 0442 68090000 		.4byte	.LASF72
 716 0446 08       		.byte	0x8
 717 0447 A001     		.2byte	0x1a0
 718 0449 62010000 		.4byte	0x162
 719 044d 30       		.byte	0x30
 720 044e 00       		.byte	0
 721 044f 03       		.uleb128 0x3
 722 0450 39000000 		.4byte	.LASF73
 723 0454 09       		.byte	0x9
 724 0455 6F       		.byte	0x6f
 725 0456 C4000000 		.4byte	0xc4
 726 045a 03       		.uleb128 0x3
 727 045b F0050000 		.4byte	.LASF74
 728 045f 09       		.byte	0x9
 729 0460 79       		.byte	0x79
 730 0461 E4000000 		.4byte	0xe4
 731 0465 11       		.uleb128 0x11
 732 0466 E4000000 		.4byte	0xe4
 733 046a 75040000 		.4byte	0x475
 734 046e 12       		.uleb128 0x12
 735 046f 37000000 		.4byte	0x37
 736 0473 07       		.byte	0x7
 737 0474 00       		.byte	0
 738 0475 13       		.uleb128 0x13
 739 0476 2B060000 		.4byte	.LASF75
 740 047a 0A       		.byte	0xa
 741 047b 4007     		.2byte	0x740
ARM GAS  C:\Users\14122\AppData\Local\Temp\cc2eSDGZ.s 			page 14


 742 047d DF000000 		.4byte	0xdf
 743 0481 14       		.uleb128 0x14
 744 0482 9B040000 		.4byte	.LASF76
 745 0486 0B       		.byte	0xb
 746 0487 45       		.byte	0x45
 747 0488 E4000000 		.4byte	0xe4
 748 048c 11       		.uleb128 0x11
 749 048d BF000000 		.4byte	0xbf
 750 0491 9C040000 		.4byte	0x49c
 751 0495 12       		.uleb128 0x12
 752 0496 37000000 		.4byte	0x37
 753 049a 0F       		.byte	0xf
 754 049b 00       		.byte	0
 755 049c 05       		.uleb128 0x5
 756 049d 8C040000 		.4byte	0x48c
 757 04a1 14       		.uleb128 0x14
 758 04a2 7A080000 		.4byte	.LASF77
 759 04a6 0B       		.byte	0xb
 760 04a7 46       		.byte	0x46
 761 04a8 9C040000 		.4byte	0x49c
 762 04ac 11       		.uleb128 0x11
 763 04ad BF000000 		.4byte	0xbf
 764 04b1 BC040000 		.4byte	0x4bc
 765 04b5 12       		.uleb128 0x12
 766 04b6 37000000 		.4byte	0x37
 767 04ba 07       		.byte	0x7
 768 04bb 00       		.byte	0
 769 04bc 05       		.uleb128 0x5
 770 04bd AC040000 		.4byte	0x4ac
 771 04c1 14       		.uleb128 0x14
 772 04c2 010A0000 		.4byte	.LASF78
 773 04c6 0B       		.byte	0xb
 774 04c7 47       		.byte	0x47
 775 04c8 BC040000 		.4byte	0x4bc
 776 04cc 15       		.uleb128 0x15
 777 04cd 10       		.byte	0x10
 778 04ce 0C       		.byte	0xc
 779 04cf DD       		.byte	0xdd
 780 04d0 05050000 		.4byte	0x505
 781 04d4 09       		.uleb128 0x9
 782 04d5 54495200 		.ascii	"TIR\000"
 783 04d9 0C       		.byte	0xc
 784 04da DF       		.byte	0xdf
 785 04db EF000000 		.4byte	0xef
 786 04df 00       		.byte	0
 787 04e0 08       		.uleb128 0x8
 788 04e1 EB0B0000 		.4byte	.LASF79
 789 04e5 0C       		.byte	0xc
 790 04e6 E0       		.byte	0xe0
 791 04e7 EF000000 		.4byte	0xef
 792 04eb 04       		.byte	0x4
 793 04ec 08       		.uleb128 0x8
 794 04ed 40090000 		.4byte	.LASF80
 795 04f1 0C       		.byte	0xc
 796 04f2 E1       		.byte	0xe1
 797 04f3 EF000000 		.4byte	0xef
 798 04f7 08       		.byte	0x8
ARM GAS  C:\Users\14122\AppData\Local\Temp\cc2eSDGZ.s 			page 15


 799 04f8 08       		.uleb128 0x8
 800 04f9 C1060000 		.4byte	.LASF81
 801 04fd 0C       		.byte	0xc
 802 04fe E2       		.byte	0xe2
 803 04ff EF000000 		.4byte	0xef
 804 0503 0C       		.byte	0xc
 805 0504 00       		.byte	0
 806 0505 03       		.uleb128 0x3
 807 0506 0F0A0000 		.4byte	.LASF82
 808 050a 0C       		.byte	0xc
 809 050b E3       		.byte	0xe3
 810 050c CC040000 		.4byte	0x4cc
 811 0510 15       		.uleb128 0x15
 812 0511 10       		.byte	0x10
 813 0512 0C       		.byte	0xc
 814 0513 E9       		.byte	0xe9
 815 0514 49050000 		.4byte	0x549
 816 0518 09       		.uleb128 0x9
 817 0519 52495200 		.ascii	"RIR\000"
 818 051d 0C       		.byte	0xc
 819 051e EB       		.byte	0xeb
 820 051f EF000000 		.4byte	0xef
 821 0523 00       		.byte	0
 822 0524 08       		.uleb128 0x8
 823 0525 CA0B0000 		.4byte	.LASF83
 824 0529 0C       		.byte	0xc
 825 052a EC       		.byte	0xec
 826 052b EF000000 		.4byte	0xef
 827 052f 04       		.byte	0x4
 828 0530 08       		.uleb128 0x8
 829 0531 18090000 		.4byte	.LASF84
 830 0535 0C       		.byte	0xc
 831 0536 ED       		.byte	0xed
 832 0537 EF000000 		.4byte	0xef
 833 053b 08       		.byte	0x8
 834 053c 08       		.uleb128 0x8
 835 053d B7060000 		.4byte	.LASF85
 836 0541 0C       		.byte	0xc
 837 0542 EE       		.byte	0xee
 838 0543 EF000000 		.4byte	0xef
 839 0547 0C       		.byte	0xc
 840 0548 00       		.byte	0
 841 0549 03       		.uleb128 0x3
 842 054a 1D090000 		.4byte	.LASF86
 843 054e 0C       		.byte	0xc
 844 054f EF       		.byte	0xef
 845 0550 10050000 		.4byte	0x510
 846 0554 15       		.uleb128 0x15
 847 0555 08       		.byte	0x8
 848 0556 0C       		.byte	0xc
 849 0557 F5       		.byte	0xf5
 850 0558 75050000 		.4byte	0x575
 851 055c 09       		.uleb128 0x9
 852 055d 46523100 		.ascii	"FR1\000"
 853 0561 0C       		.byte	0xc
 854 0562 F7       		.byte	0xf7
 855 0563 EF000000 		.4byte	0xef
ARM GAS  C:\Users\14122\AppData\Local\Temp\cc2eSDGZ.s 			page 16


 856 0567 00       		.byte	0
 857 0568 09       		.uleb128 0x9
 858 0569 46523200 		.ascii	"FR2\000"
 859 056d 0C       		.byte	0xc
 860 056e F8       		.byte	0xf8
 861 056f EF000000 		.4byte	0xef
 862 0573 04       		.byte	0x4
 863 0574 00       		.byte	0
 864 0575 03       		.uleb128 0x3
 865 0576 3D020000 		.4byte	.LASF87
 866 057a 0C       		.byte	0xc
 867 057b F9       		.byte	0xf9
 868 057c 54050000 		.4byte	0x554
 869 0580 16       		.uleb128 0x16
 870 0581 B002     		.2byte	0x2b0
 871 0583 0C       		.byte	0xc
 872 0584 FF       		.byte	0xff
 873 0585 B5060000 		.4byte	0x6b5
 874 0589 0A       		.uleb128 0xa
 875 058a 4D435200 		.ascii	"MCR\000"
 876 058e 0C       		.byte	0xc
 877 058f 0101     		.2byte	0x101
 878 0591 EF000000 		.4byte	0xef
 879 0595 00       		.byte	0
 880 0596 0A       		.uleb128 0xa
 881 0597 4D535200 		.ascii	"MSR\000"
 882 059b 0C       		.byte	0xc
 883 059c 0201     		.2byte	0x102
 884 059e EF000000 		.4byte	0xef
 885 05a2 04       		.byte	0x4
 886 05a3 0A       		.uleb128 0xa
 887 05a4 54535200 		.ascii	"TSR\000"
 888 05a8 0C       		.byte	0xc
 889 05a9 0301     		.2byte	0x103
 890 05ab EF000000 		.4byte	0xef
 891 05af 08       		.byte	0x8
 892 05b0 0B       		.uleb128 0xb
 893 05b1 07020000 		.4byte	.LASF88
 894 05b5 0C       		.byte	0xc
 895 05b6 0401     		.2byte	0x104
 896 05b8 EF000000 		.4byte	0xef
 897 05bc 0C       		.byte	0xc
 898 05bd 0B       		.uleb128 0xb
 899 05be D4020000 		.4byte	.LASF89
 900 05c2 0C       		.byte	0xc
 901 05c3 0501     		.2byte	0x105
 902 05c5 EF000000 		.4byte	0xef
 903 05c9 10       		.byte	0x10
 904 05ca 0A       		.uleb128 0xa
 905 05cb 49455200 		.ascii	"IER\000"
 906 05cf 0C       		.byte	0xc
 907 05d0 0601     		.2byte	0x106
 908 05d2 EF000000 		.4byte	0xef
 909 05d6 14       		.byte	0x14
 910 05d7 0A       		.uleb128 0xa
 911 05d8 45535200 		.ascii	"ESR\000"
 912 05dc 0C       		.byte	0xc
ARM GAS  C:\Users\14122\AppData\Local\Temp\cc2eSDGZ.s 			page 17


 913 05dd 0701     		.2byte	0x107
 914 05df EF000000 		.4byte	0xef
 915 05e3 18       		.byte	0x18
 916 05e4 0A       		.uleb128 0xa
 917 05e5 42545200 		.ascii	"BTR\000"
 918 05e9 0C       		.byte	0xc
 919 05ea 0801     		.2byte	0x108
 920 05ec EF000000 		.4byte	0xef
 921 05f0 1C       		.byte	0x1c
 922 05f1 0B       		.uleb128 0xb
 923 05f2 78020000 		.4byte	.LASF90
 924 05f6 0C       		.byte	0xc
 925 05f7 0901     		.2byte	0x109
 926 05f9 B5060000 		.4byte	0x6b5
 927 05fd 20       		.byte	0x20
 928 05fe 17       		.uleb128 0x17
 929 05ff 740B0000 		.4byte	.LASF91
 930 0603 0C       		.byte	0xc
 931 0604 0A01     		.2byte	0x10a
 932 0606 C5060000 		.4byte	0x6c5
 933 060a 8001     		.2byte	0x180
 934 060c 17       		.uleb128 0x17
 935 060d 58020000 		.4byte	.LASF92
 936 0611 0C       		.byte	0xc
 937 0612 0B01     		.2byte	0x10b
 938 0614 D5060000 		.4byte	0x6d5
 939 0618 B001     		.2byte	0x1b0
 940 061a 17       		.uleb128 0x17
 941 061b 82020000 		.4byte	.LASF93
 942 061f 0C       		.byte	0xc
 943 0620 0C01     		.2byte	0x10c
 944 0622 E5060000 		.4byte	0x6e5
 945 0626 D001     		.2byte	0x1d0
 946 0628 18       		.uleb128 0x18
 947 0629 464D5200 		.ascii	"FMR\000"
 948 062d 0C       		.byte	0xc
 949 062e 0D01     		.2byte	0x10d
 950 0630 EF000000 		.4byte	0xef
 951 0634 0002     		.2byte	0x200
 952 0636 17       		.uleb128 0x17
 953 0637 B2060000 		.4byte	.LASF94
 954 063b 0C       		.byte	0xc
 955 063c 0E01     		.2byte	0x10e
 956 063e EF000000 		.4byte	0xef
 957 0642 0402     		.2byte	0x204
 958 0644 17       		.uleb128 0x17
 959 0645 05030000 		.4byte	.LASF95
 960 0649 0C       		.byte	0xc
 961 064a 0F01     		.2byte	0x10f
 962 064c E4000000 		.4byte	0xe4
 963 0650 0802     		.2byte	0x208
 964 0652 17       		.uleb128 0x17
 965 0653 EE090000 		.4byte	.LASF96
 966 0657 0C       		.byte	0xc
 967 0658 1001     		.2byte	0x110
 968 065a EF000000 		.4byte	0xef
 969 065e 0C02     		.2byte	0x20c
ARM GAS  C:\Users\14122\AppData\Local\Temp\cc2eSDGZ.s 			page 18


 970 0660 17       		.uleb128 0x17
 971 0661 9A020000 		.4byte	.LASF97
 972 0665 0C       		.byte	0xc
 973 0666 1101     		.2byte	0x111
 974 0668 E4000000 		.4byte	0xe4
 975 066c 1002     		.2byte	0x210
 976 066e 17       		.uleb128 0x17
 977 066f 680A0000 		.4byte	.LASF98
 978 0673 0C       		.byte	0xc
 979 0674 1201     		.2byte	0x112
 980 0676 EF000000 		.4byte	0xef
 981 067a 1402     		.2byte	0x214
 982 067c 17       		.uleb128 0x17
 983 067d A4020000 		.4byte	.LASF99
 984 0681 0C       		.byte	0xc
 985 0682 1301     		.2byte	0x113
 986 0684 E4000000 		.4byte	0xe4
 987 0688 1802     		.2byte	0x218
 988 068a 17       		.uleb128 0x17
 989 068b 9A010000 		.4byte	.LASF100
 990 068f 0C       		.byte	0xc
 991 0690 1401     		.2byte	0x114
 992 0692 EF000000 		.4byte	0xef
 993 0696 1C02     		.2byte	0x21c
 994 0698 17       		.uleb128 0x17
 995 0699 AE020000 		.4byte	.LASF101
 996 069d 0C       		.byte	0xc
 997 069e 1501     		.2byte	0x115
 998 06a0 65040000 		.4byte	0x465
 999 06a4 2002     		.2byte	0x220
 1000 06a6 17       		.uleb128 0x17
 1001 06a7 D9070000 		.4byte	.LASF102
 1002 06ab 0C       		.byte	0xc
 1003 06ac 1601     		.2byte	0x116
 1004 06ae F5060000 		.4byte	0x6f5
 1005 06b2 4002     		.2byte	0x240
 1006 06b4 00       		.byte	0
 1007 06b5 11       		.uleb128 0x11
 1008 06b6 E4000000 		.4byte	0xe4
 1009 06ba C5060000 		.4byte	0x6c5
 1010 06be 12       		.uleb128 0x12
 1011 06bf 37000000 		.4byte	0x37
 1012 06c3 57       		.byte	0x57
 1013 06c4 00       		.byte	0
 1014 06c5 11       		.uleb128 0x11
 1015 06c6 05050000 		.4byte	0x505
 1016 06ca D5060000 		.4byte	0x6d5
 1017 06ce 12       		.uleb128 0x12
 1018 06cf 37000000 		.4byte	0x37
 1019 06d3 02       		.byte	0x2
 1020 06d4 00       		.byte	0
 1021 06d5 11       		.uleb128 0x11
 1022 06d6 49050000 		.4byte	0x549
 1023 06da E5060000 		.4byte	0x6e5
 1024 06de 12       		.uleb128 0x12
 1025 06df 37000000 		.4byte	0x37
 1026 06e3 01       		.byte	0x1
ARM GAS  C:\Users\14122\AppData\Local\Temp\cc2eSDGZ.s 			page 19


 1027 06e4 00       		.byte	0
 1028 06e5 11       		.uleb128 0x11
 1029 06e6 E4000000 		.4byte	0xe4
 1030 06ea F5060000 		.4byte	0x6f5
 1031 06ee 12       		.uleb128 0x12
 1032 06ef 37000000 		.4byte	0x37
 1033 06f3 0B       		.byte	0xb
 1034 06f4 00       		.byte	0
 1035 06f5 11       		.uleb128 0x11
 1036 06f6 75050000 		.4byte	0x575
 1037 06fa 05070000 		.4byte	0x705
 1038 06fe 12       		.uleb128 0x12
 1039 06ff 37000000 		.4byte	0x37
 1040 0703 0D       		.byte	0xd
 1041 0704 00       		.byte	0
 1042 0705 19       		.uleb128 0x19
 1043 0706 E5060000 		.4byte	.LASF103
 1044 070a 0C       		.byte	0xc
 1045 070b 1701     		.2byte	0x117
 1046 070d 80050000 		.4byte	0x580
 1047 0711 1A       		.uleb128 0x1a
 1048 0712 10       		.byte	0x10
 1049 0713 0C       		.byte	0xc
 1050 0714 3501     		.2byte	0x135
 1051 0716 4F070000 		.4byte	0x74f
 1052 071a 0A       		.uleb128 0xa
 1053 071b 43435200 		.ascii	"CCR\000"
 1054 071f 0C       		.byte	0xc
 1055 0720 3701     		.2byte	0x137
 1056 0722 EF000000 		.4byte	0xef
 1057 0726 00       		.byte	0
 1058 0727 0B       		.uleb128 0xb
 1059 0728 05010000 		.4byte	.LASF104
 1060 072c 0C       		.byte	0xc
 1061 072d 3801     		.2byte	0x138
 1062 072f EF000000 		.4byte	0xef
 1063 0733 04       		.byte	0x4
 1064 0734 0B       		.uleb128 0xb
 1065 0735 E9010000 		.4byte	.LASF105
 1066 0739 0C       		.byte	0xc
 1067 073a 3901     		.2byte	0x139
 1068 073c EF000000 		.4byte	0xef
 1069 0740 08       		.byte	0x8
 1070 0741 0B       		.uleb128 0xb
 1071 0742 BC060000 		.4byte	.LASF106
 1072 0746 0C       		.byte	0xc
 1073 0747 3A01     		.2byte	0x13a
 1074 0749 EF000000 		.4byte	0xef
 1075 074d 0C       		.byte	0xc
 1076 074e 00       		.byte	0
 1077 074f 19       		.uleb128 0x19
 1078 0750 66080000 		.4byte	.LASF107
 1079 0754 0C       		.byte	0xc
 1080 0755 3B01     		.2byte	0x13b
 1081 0757 11070000 		.4byte	0x711
 1082 075b 1A       		.uleb128 0x1a
 1083 075c 08       		.byte	0x8
ARM GAS  C:\Users\14122\AppData\Local\Temp\cc2eSDGZ.s 			page 20


 1084 075d 0C       		.byte	0xc
 1085 075e 3D01     		.2byte	0x13d
 1086 0760 7F070000 		.4byte	0x77f
 1087 0764 0A       		.uleb128 0xa
 1088 0765 49535200 		.ascii	"ISR\000"
 1089 0769 0C       		.byte	0xc
 1090 076a 3F01     		.2byte	0x13f
 1091 076c EF000000 		.4byte	0xef
 1092 0770 00       		.byte	0
 1093 0771 0B       		.uleb128 0xb
 1094 0772 32030000 		.4byte	.LASF108
 1095 0776 0C       		.byte	0xc
 1096 0777 4001     		.2byte	0x140
 1097 0779 EF000000 		.4byte	0xef
 1098 077d 04       		.byte	0x4
 1099 077e 00       		.byte	0
 1100 077f 19       		.uleb128 0x19
 1101 0780 C8020000 		.4byte	.LASF109
 1102 0784 0C       		.byte	0xc
 1103 0785 4101     		.2byte	0x141
 1104 0787 5B070000 		.4byte	0x75b
 1105 078b 11       		.uleb128 0x11
 1106 078c EF000000 		.4byte	0xef
 1107 0790 9B070000 		.4byte	0x79b
 1108 0794 12       		.uleb128 0x12
 1109 0795 37000000 		.4byte	0x37
 1110 0799 03       		.byte	0x3
 1111 079a 00       		.byte	0
 1112 079b 06       		.uleb128 0x6
 1113 079c 8B070000 		.4byte	0x78b
 1114 07a0 1A       		.uleb128 0x1a
 1115 07a1 1C       		.byte	0x1c
 1116 07a2 0C       		.byte	0xc
 1117 07a3 2902     		.2byte	0x229
 1118 07a5 03080000 		.4byte	0x803
 1119 07a9 0A       		.uleb128 0xa
 1120 07aa 535200   		.ascii	"SR\000"
 1121 07ad 0C       		.byte	0xc
 1122 07ae 2B02     		.2byte	0x22b
 1123 07b0 EF000000 		.4byte	0xef
 1124 07b4 00       		.byte	0
 1125 07b5 0A       		.uleb128 0xa
 1126 07b6 445200   		.ascii	"DR\000"
 1127 07b9 0C       		.byte	0xc
 1128 07ba 2C02     		.2byte	0x22c
 1129 07bc EF000000 		.4byte	0xef
 1130 07c0 04       		.byte	0x4
 1131 07c1 0A       		.uleb128 0xa
 1132 07c2 42525200 		.ascii	"BRR\000"
 1133 07c6 0C       		.byte	0xc
 1134 07c7 2D02     		.2byte	0x22d
 1135 07c9 EF000000 		.4byte	0xef
 1136 07cd 08       		.byte	0x8
 1137 07ce 0A       		.uleb128 0xa
 1138 07cf 43523100 		.ascii	"CR1\000"
 1139 07d3 0C       		.byte	0xc
 1140 07d4 2E02     		.2byte	0x22e
ARM GAS  C:\Users\14122\AppData\Local\Temp\cc2eSDGZ.s 			page 21


 1141 07d6 EF000000 		.4byte	0xef
 1142 07da 0C       		.byte	0xc
 1143 07db 0A       		.uleb128 0xa
 1144 07dc 43523200 		.ascii	"CR2\000"
 1145 07e0 0C       		.byte	0xc
 1146 07e1 2F02     		.2byte	0x22f
 1147 07e3 EF000000 		.4byte	0xef
 1148 07e7 10       		.byte	0x10
 1149 07e8 0A       		.uleb128 0xa
 1150 07e9 43523300 		.ascii	"CR3\000"
 1151 07ed 0C       		.byte	0xc
 1152 07ee 3002     		.2byte	0x230
 1153 07f0 EF000000 		.4byte	0xef
 1154 07f4 14       		.byte	0x14
 1155 07f5 0B       		.uleb128 0xb
 1156 07f6 11060000 		.4byte	.LASF110
 1157 07fa 0C       		.byte	0xc
 1158 07fb 3102     		.2byte	0x231
 1159 07fd EF000000 		.4byte	0xef
 1160 0801 18       		.byte	0x18
 1161 0802 00       		.byte	0
 1162 0803 19       		.uleb128 0x19
 1163 0804 77030000 		.4byte	.LASF111
 1164 0808 0C       		.byte	0xc
 1165 0809 3202     		.2byte	0x232
 1166 080b A0070000 		.4byte	0x7a0
 1167 080f 03       		.uleb128 0x3
 1168 0810 C1010000 		.4byte	.LASF112
 1169 0814 0D       		.byte	0xd
 1170 0815 65       		.byte	0x65
 1171 0816 33030000 		.4byte	0x333
 1172 081a 03       		.uleb128 0x3
 1173 081b 6C030000 		.4byte	.LASF113
 1174 081f 0D       		.byte	0xd
 1175 0820 6D       		.byte	0x6d
 1176 0821 F4000000 		.4byte	0xf4
 1177 0825 07       		.uleb128 0x7
 1178 0826 E50A0000 		.4byte	.LASF114
 1179 082a 04       		.byte	0x4
 1180 082b 0D       		.byte	0xd
 1181 082c 89       		.byte	0x89
 1182 082d 3D080000 		.4byte	0x83d
 1183 0831 09       		.uleb128 0x9
 1184 0832 737000   		.ascii	"sp\000"
 1185 0835 0D       		.byte	0xd
 1186 0836 8A       		.byte	0x8a
 1187 0837 B9080000 		.4byte	0x8b9
 1188 083b 00       		.byte	0
 1189 083c 00       		.byte	0
 1190 083d 0D       		.uleb128 0xd
 1191 083e 39080000 		.4byte	.LASF115
 1192 0842 24       		.byte	0x24
 1193 0843 0E       		.byte	0xe
 1194 0844 5901     		.2byte	0x159
 1195 0846 B9080000 		.4byte	0x8b9
 1196 084a 0A       		.uleb128 0xa
 1197 084b 723400   		.ascii	"r4\000"
ARM GAS  C:\Users\14122\AppData\Local\Temp\cc2eSDGZ.s 			page 22


 1198 084e 0E       		.byte	0xe
 1199 084f 6C01     		.2byte	0x16c
 1200 0851 0F080000 		.4byte	0x80f
 1201 0855 00       		.byte	0
 1202 0856 0A       		.uleb128 0xa
 1203 0857 723500   		.ascii	"r5\000"
 1204 085a 0E       		.byte	0xe
 1205 085b 6D01     		.2byte	0x16d
 1206 085d 0F080000 		.4byte	0x80f
 1207 0861 04       		.byte	0x4
 1208 0862 0A       		.uleb128 0xa
 1209 0863 723600   		.ascii	"r6\000"
 1210 0866 0E       		.byte	0xe
 1211 0867 6E01     		.2byte	0x16e
 1212 0869 0F080000 		.4byte	0x80f
 1213 086d 08       		.byte	0x8
 1214 086e 0A       		.uleb128 0xa
 1215 086f 723700   		.ascii	"r7\000"
 1216 0872 0E       		.byte	0xe
 1217 0873 6F01     		.2byte	0x16f
 1218 0875 0F080000 		.4byte	0x80f
 1219 0879 0C       		.byte	0xc
 1220 087a 0A       		.uleb128 0xa
 1221 087b 723800   		.ascii	"r8\000"
 1222 087e 0E       		.byte	0xe
 1223 087f 7001     		.2byte	0x170
 1224 0881 0F080000 		.4byte	0x80f
 1225 0885 10       		.byte	0x10
 1226 0886 0A       		.uleb128 0xa
 1227 0887 723900   		.ascii	"r9\000"
 1228 088a 0E       		.byte	0xe
 1229 088b 7101     		.2byte	0x171
 1230 088d 0F080000 		.4byte	0x80f
 1231 0891 14       		.byte	0x14
 1232 0892 0A       		.uleb128 0xa
 1233 0893 72313000 		.ascii	"r10\000"
 1234 0897 0E       		.byte	0xe
 1235 0898 7201     		.2byte	0x172
 1236 089a 0F080000 		.4byte	0x80f
 1237 089e 18       		.byte	0x18
 1238 089f 0A       		.uleb128 0xa
 1239 08a0 72313100 		.ascii	"r11\000"
 1240 08a4 0E       		.byte	0xe
 1241 08a5 7301     		.2byte	0x173
 1242 08a7 0F080000 		.4byte	0x80f
 1243 08ab 1C       		.byte	0x1c
 1244 08ac 0A       		.uleb128 0xa
 1245 08ad 6C7200   		.ascii	"lr\000"
 1246 08b0 0E       		.byte	0xe
 1247 08b1 7401     		.2byte	0x174
 1248 08b3 0F080000 		.4byte	0x80f
 1249 08b7 20       		.byte	0x20
 1250 08b8 00       		.byte	0
 1251 08b9 0C       		.uleb128 0xc
 1252 08ba 04       		.byte	0x4
 1253 08bb 3D080000 		.4byte	0x83d
 1254 08bf 1A       		.uleb128 0x1a
ARM GAS  C:\Users\14122\AppData\Local\Temp\cc2eSDGZ.s 			page 23


 1255 08c0 60       		.byte	0x60
 1256 08c1 0F       		.byte	0xf
 1257 08c2 F501     		.2byte	0x1f5
 1258 08c4 CB090000 		.4byte	0x9cb
 1259 08c8 0A       		.uleb128 0xa
 1260 08c9 43523100 		.ascii	"CR1\000"
 1261 08cd 0F       		.byte	0xf
 1262 08ce F601     		.2byte	0x1f6
 1263 08d0 EF000000 		.4byte	0xef
 1264 08d4 00       		.byte	0
 1265 08d5 0A       		.uleb128 0xa
 1266 08d6 43523200 		.ascii	"CR2\000"
 1267 08da 0F       		.byte	0xf
 1268 08db F701     		.2byte	0x1f7
 1269 08dd EF000000 		.4byte	0xef
 1270 08e1 04       		.byte	0x4
 1271 08e2 0B       		.uleb128 0xb
 1272 08e3 73090000 		.4byte	.LASF116
 1273 08e7 0F       		.byte	0xf
 1274 08e8 F801     		.2byte	0x1f8
 1275 08ea EF000000 		.4byte	0xef
 1276 08ee 08       		.byte	0x8
 1277 08ef 0B       		.uleb128 0xb
 1278 08f0 96040000 		.4byte	.LASF117
 1279 08f4 0F       		.byte	0xf
 1280 08f5 F901     		.2byte	0x1f9
 1281 08f7 EF000000 		.4byte	0xef
 1282 08fb 0C       		.byte	0xc
 1283 08fc 0A       		.uleb128 0xa
 1284 08fd 535200   		.ascii	"SR\000"
 1285 0900 0F       		.byte	0xf
 1286 0901 FA01     		.2byte	0x1fa
 1287 0903 EF000000 		.4byte	0xef
 1288 0907 10       		.byte	0x10
 1289 0908 0A       		.uleb128 0xa
 1290 0909 45475200 		.ascii	"EGR\000"
 1291 090d 0F       		.byte	0xf
 1292 090e FB01     		.2byte	0x1fb
 1293 0910 EF000000 		.4byte	0xef
 1294 0914 14       		.byte	0x14
 1295 0915 0B       		.uleb128 0xb
 1296 0916 0F030000 		.4byte	.LASF118
 1297 091a 0F       		.byte	0xf
 1298 091b FC01     		.2byte	0x1fc
 1299 091d EF000000 		.4byte	0xef
 1300 0921 18       		.byte	0x18
 1301 0922 0B       		.uleb128 0xb
 1302 0923 15030000 		.4byte	.LASF119
 1303 0927 0F       		.byte	0xf
 1304 0928 FD01     		.2byte	0x1fd
 1305 092a EF000000 		.4byte	0xef
 1306 092e 1C       		.byte	0x1c
 1307 092f 0B       		.uleb128 0xb
 1308 0930 0D090000 		.4byte	.LASF120
 1309 0934 0F       		.byte	0xf
 1310 0935 FE01     		.2byte	0x1fe
 1311 0937 EF000000 		.4byte	0xef
ARM GAS  C:\Users\14122\AppData\Local\Temp\cc2eSDGZ.s 			page 24


 1312 093b 20       		.byte	0x20
 1313 093c 0A       		.uleb128 0xa
 1314 093d 434E5400 		.ascii	"CNT\000"
 1315 0941 0F       		.byte	0xf
 1316 0942 FF01     		.2byte	0x1ff
 1317 0944 EF000000 		.4byte	0xef
 1318 0948 24       		.byte	0x24
 1319 0949 0A       		.uleb128 0xa
 1320 094a 50534300 		.ascii	"PSC\000"
 1321 094e 0F       		.byte	0xf
 1322 094f 0002     		.2byte	0x200
 1323 0951 EF000000 		.4byte	0xef
 1324 0955 28       		.byte	0x28
 1325 0956 0A       		.uleb128 0xa
 1326 0957 41525200 		.ascii	"ARR\000"
 1327 095b 0F       		.byte	0xf
 1328 095c 0102     		.2byte	0x201
 1329 095e EF000000 		.4byte	0xef
 1330 0962 2C       		.byte	0x2c
 1331 0963 0A       		.uleb128 0xa
 1332 0964 52435200 		.ascii	"RCR\000"
 1333 0968 0F       		.byte	0xf
 1334 0969 0202     		.2byte	0x202
 1335 096b EF000000 		.4byte	0xef
 1336 096f 30       		.byte	0x30
 1337 0970 0A       		.uleb128 0xa
 1338 0971 43435200 		.ascii	"CCR\000"
 1339 0975 0F       		.byte	0xf
 1340 0976 0302     		.2byte	0x203
 1341 0978 9B070000 		.4byte	0x79b
 1342 097c 34       		.byte	0x34
 1343 097d 0B       		.uleb128 0xb
 1344 097e 270B0000 		.4byte	.LASF121
 1345 0982 0F       		.byte	0xf
 1346 0983 0402     		.2byte	0x204
 1347 0985 EF000000 		.4byte	0xef
 1348 0989 44       		.byte	0x44
 1349 098a 0A       		.uleb128 0xa
 1350 098b 44435200 		.ascii	"DCR\000"
 1351 098f 0F       		.byte	0xf
 1352 0990 0502     		.2byte	0x205
 1353 0992 EF000000 		.4byte	0xef
 1354 0996 48       		.byte	0x48
 1355 0997 0B       		.uleb128 0xb
 1356 0998 14010000 		.4byte	.LASF122
 1357 099c 0F       		.byte	0xf
 1358 099d 0602     		.2byte	0x206
 1359 099f EF000000 		.4byte	0xef
 1360 09a3 4C       		.byte	0x4c
 1361 09a4 0A       		.uleb128 0xa
 1362 09a5 4F5200   		.ascii	"OR\000"
 1363 09a8 0F       		.byte	0xf
 1364 09a9 0702     		.2byte	0x207
 1365 09ab EF000000 		.4byte	0xef
 1366 09af 50       		.byte	0x50
 1367 09b0 0B       		.uleb128 0xb
 1368 09b1 1B030000 		.4byte	.LASF123
ARM GAS  C:\Users\14122\AppData\Local\Temp\cc2eSDGZ.s 			page 25


 1369 09b5 0F       		.byte	0xf
 1370 09b6 0802     		.2byte	0x208
 1371 09b8 EF000000 		.4byte	0xef
 1372 09bc 54       		.byte	0x54
 1373 09bd 0B       		.uleb128 0xb
 1374 09be AF030000 		.4byte	.LASF124
 1375 09c2 0F       		.byte	0xf
 1376 09c3 0902     		.2byte	0x209
 1377 09c5 DB090000 		.4byte	0x9db
 1378 09c9 58       		.byte	0x58
 1379 09ca 00       		.byte	0
 1380 09cb 11       		.uleb128 0x11
 1381 09cc EF000000 		.4byte	0xef
 1382 09d0 DB090000 		.4byte	0x9db
 1383 09d4 12       		.uleb128 0x12
 1384 09d5 37000000 		.4byte	0x37
 1385 09d9 01       		.byte	0x1
 1386 09da 00       		.byte	0
 1387 09db 06       		.uleb128 0x6
 1388 09dc CB090000 		.4byte	0x9cb
 1389 09e0 19       		.uleb128 0x19
 1390 09e1 55050000 		.4byte	.LASF125
 1391 09e5 0F       		.byte	0xf
 1392 09e6 0A02     		.2byte	0x20a
 1393 09e8 BF080000 		.4byte	0x8bf
 1394 09ec 1B       		.uleb128 0x1b
 1395 09ed 04       		.byte	0x4
 1396 09ee 08       		.byte	0x8
 1397 09ef C6       		.byte	0xc6
 1398 09f0 4E0A0000 		.4byte	0xa4e
 1399 09f4 1C       		.uleb128 0x1c
 1400 09f5 440B0000 		.4byte	.LASF126
 1401 09f9 08       		.byte	0x8
 1402 09fa CD       		.byte	0xcd
 1403 09fb 2B010000 		.4byte	0x12b
 1404 09ff 1C       		.uleb128 0x1c
 1405 0a00 44010000 		.4byte	.LASF127
 1406 0a04 08       		.byte	0x8
 1407 0a05 D4       		.byte	0xd4
 1408 0a06 2B010000 		.4byte	0x12b
 1409 0a0a 1C       		.uleb128 0x1c
 1410 0a0b 4B030000 		.4byte	.LASF128
 1411 0a0f 08       		.byte	0x8
 1412 0a10 DB       		.byte	0xdb
 1413 0a11 33030000 		.4byte	0x333
 1414 0a15 1C       		.uleb128 0x1c
 1415 0a16 72020000 		.4byte	.LASF129
 1416 0a1a 08       		.byte	0x8
 1417 0a1b E2       		.byte	0xe2
 1418 0a1c 4E0A0000 		.4byte	0xa4e
 1419 0a20 1C       		.uleb128 0x1c
 1420 0a21 31080000 		.4byte	.LASF130
 1421 0a25 08       		.byte	0x8
 1422 0a26 E7       		.byte	0xe7
 1423 0a27 2B010000 		.4byte	0x12b
 1424 0a2b 1C       		.uleb128 0x1c
 1425 0a2c 32000000 		.4byte	.LASF131
ARM GAS  C:\Users\14122\AppData\Local\Temp\cc2eSDGZ.s 			page 26


 1426 0a30 08       		.byte	0x8
 1427 0a31 F0       		.byte	0xf0
 1428 0a32 790A0000 		.4byte	0xa79
 1429 0a36 1C       		.uleb128 0x1c
 1430 0a37 FF030000 		.4byte	.LASF132
 1431 0a3b 08       		.byte	0x8
 1432 0a3c F9       		.byte	0xf9
 1433 0a3d B00A0000 		.4byte	0xab0
 1434 0a41 1D       		.uleb128 0x1d
 1435 0a42 22020000 		.4byte	.LASF133
 1436 0a46 08       		.byte	0x8
 1437 0a47 0101     		.2byte	0x101
 1438 0a49 36010000 		.4byte	0x136
 1439 0a4d 00       		.byte	0
 1440 0a4e 0C       		.uleb128 0xc
 1441 0a4f 04       		.byte	0x4
 1442 0a50 4B020000 		.4byte	0x24b
 1443 0a54 07       		.uleb128 0x7
 1444 0a55 AB040000 		.4byte	.LASF134
 1445 0a59 0C       		.byte	0xc
 1446 0a5a 10       		.byte	0x10
 1447 0a5b 34       		.byte	0x34
 1448 0a5c 790A0000 		.4byte	0xa79
 1449 0a60 08       		.uleb128 0x8
 1450 0a61 3A090000 		.4byte	.LASF31
 1451 0a65 10       		.byte	0x10
 1452 0a66 35       		.byte	0x35
 1453 0a67 80020000 		.4byte	0x280
 1454 0a6b 00       		.byte	0
 1455 0a6c 09       		.uleb128 0x9
 1456 0a6d 636E7400 		.ascii	"cnt\000"
 1457 0a71 10       		.byte	0x10
 1458 0a72 37       		.byte	0x37
 1459 0a73 4C010000 		.4byte	0x14c
 1460 0a77 08       		.byte	0x8
 1461 0a78 00       		.byte	0
 1462 0a79 0C       		.uleb128 0xc
 1463 0a7a 04       		.byte	0x4
 1464 0a7b 540A0000 		.4byte	0xa54
 1465 0a7f 07       		.uleb128 0x7
 1466 0a80 5F0A0000 		.4byte	.LASF135
 1467 0a84 10       		.byte	0x10
 1468 0a85 11       		.byte	0x11
 1469 0a86 39       		.byte	0x39
 1470 0a87 B00A0000 		.4byte	0xab0
 1471 0a8b 08       		.uleb128 0x8
 1472 0a8c 3A090000 		.4byte	.LASF31
 1473 0a90 11       		.byte	0x11
 1474 0a91 3A       		.byte	0x3a
 1475 0a92 80020000 		.4byte	0x280
 1476 0a96 00       		.byte	0
 1477 0a97 08       		.uleb128 0x8
 1478 0a98 4F000000 		.4byte	.LASF136
 1479 0a9c 11       		.byte	0x11
 1480 0a9d 3C       		.byte	0x3c
 1481 0a9e 56020000 		.4byte	0x256
 1482 0aa2 08       		.byte	0x8
ARM GAS  C:\Users\14122\AppData\Local\Temp\cc2eSDGZ.s 			page 27


 1483 0aa3 08       		.uleb128 0x8
 1484 0aa4 C50B0000 		.4byte	.LASF50
 1485 0aa8 11       		.byte	0x11
 1486 0aa9 3E       		.byte	0x3e
 1487 0aaa 120C0000 		.4byte	0xc12
 1488 0aae 0C       		.byte	0xc
 1489 0aaf 00       		.byte	0
 1490 0ab0 0C       		.uleb128 0xc
 1491 0ab1 04       		.byte	0x4
 1492 0ab2 7F0A0000 		.4byte	0xa7f
 1493 0ab6 0C       		.uleb128 0xc
 1494 0ab7 04       		.byte	0x4
 1495 0ab8 C80A0000 		.4byte	0xac8
 1496 0abc 06       		.uleb128 0x6
 1497 0abd B60A0000 		.4byte	0xab6
 1498 0ac1 04       		.uleb128 0x4
 1499 0ac2 01       		.byte	0x1
 1500 0ac3 08       		.byte	0x8
 1501 0ac4 2D030000 		.4byte	.LASF137
 1502 0ac8 05       		.uleb128 0x5
 1503 0ac9 C10A0000 		.4byte	0xac1
 1504 0acd 0C       		.uleb128 0xc
 1505 0ace 04       		.byte	0x4
 1506 0acf 1A080000 		.4byte	0x81a
 1507 0ad3 0C       		.uleb128 0xc
 1508 0ad4 04       		.byte	0x4
 1509 0ad5 35030000 		.4byte	0x335
 1510 0ad9 1E       		.uleb128 0x1e
 1511 0ada 636800   		.ascii	"ch\000"
 1512 0add 08       		.byte	0x8
 1513 0ade C701     		.2byte	0x1c7
 1514 0ae0 02040000 		.4byte	0x402
 1515 0ae4 11       		.uleb128 0x11
 1516 0ae5 1A080000 		.4byte	0x81a
 1517 0ae9 EF0A0000 		.4byte	0xaef
 1518 0aed 1F       		.uleb128 0x1f
 1519 0aee 00       		.byte	0
 1520 0aef 13       		.uleb128 0x13
 1521 0af0 E6040000 		.4byte	.LASF138
 1522 0af4 12       		.byte	0x12
 1523 0af5 1701     		.2byte	0x117
 1524 0af7 E40A0000 		.4byte	0xae4
 1525 0afb 15       		.uleb128 0x15
 1526 0afc 16       		.byte	0x16
 1527 0afd 13       		.byte	0x13
 1528 0afe 34       		.byte	0x34
 1529 0aff DC0B0000 		.4byte	0xbdc
 1530 0b03 08       		.uleb128 0x8
 1531 0b04 E00B0000 		.4byte	.LASF139
 1532 0b08 13       		.byte	0x13
 1533 0b09 35       		.byte	0x35
 1534 0b0a DC0B0000 		.4byte	0xbdc
 1535 0b0e 00       		.byte	0
 1536 0b0f 08       		.uleb128 0x8
 1537 0b10 95010000 		.4byte	.LASF140
 1538 0b14 13       		.byte	0x13
 1539 0b15 36       		.byte	0x36
ARM GAS  C:\Users\14122\AppData\Local\Temp\cc2eSDGZ.s 			page 28


 1540 0b16 B4000000 		.4byte	0xb4
 1541 0b1a 04       		.byte	0x4
 1542 0b1b 08       		.uleb128 0x8
 1543 0b1c 99080000 		.4byte	.LASF141
 1544 0b20 13       		.byte	0x13
 1545 0b21 37       		.byte	0x37
 1546 0b22 B4000000 		.4byte	0xb4
 1547 0b26 05       		.byte	0x5
 1548 0b27 08       		.uleb128 0x8
 1549 0b28 78090000 		.4byte	.LASF142
 1550 0b2c 13       		.byte	0x13
 1551 0b2d 38       		.byte	0x38
 1552 0b2e C4000000 		.4byte	0xc4
 1553 0b32 06       		.byte	0x6
 1554 0b33 08       		.uleb128 0x8
 1555 0b34 A7030000 		.4byte	.LASF143
 1556 0b38 13       		.byte	0x13
 1557 0b39 39       		.byte	0x39
 1558 0b3a B4000000 		.4byte	0xb4
 1559 0b3e 08       		.byte	0x8
 1560 0b3f 08       		.uleb128 0x8
 1561 0b40 7F0B0000 		.4byte	.LASF144
 1562 0b44 13       		.byte	0x13
 1563 0b45 3A       		.byte	0x3a
 1564 0b46 B4000000 		.4byte	0xb4
 1565 0b4a 09       		.byte	0x9
 1566 0b4b 08       		.uleb128 0x8
 1567 0b4c 80040000 		.4byte	.LASF145
 1568 0b50 13       		.byte	0x13
 1569 0b51 3B       		.byte	0x3b
 1570 0b52 B4000000 		.4byte	0xb4
 1571 0b56 0A       		.byte	0xa
 1572 0b57 08       		.uleb128 0x8
 1573 0b58 22000000 		.4byte	.LASF146
 1574 0b5c 13       		.byte	0x13
 1575 0b5d 3C       		.byte	0x3c
 1576 0b5e B4000000 		.4byte	0xb4
 1577 0b62 0B       		.byte	0xb
 1578 0b63 08       		.uleb128 0x8
 1579 0b64 00000000 		.4byte	.LASF147
 1580 0b68 13       		.byte	0x13
 1581 0b69 3D       		.byte	0x3d
 1582 0b6a B4000000 		.4byte	0xb4
 1583 0b6e 0C       		.byte	0xc
 1584 0b6f 08       		.uleb128 0x8
 1585 0b70 6E060000 		.4byte	.LASF148
 1586 0b74 13       		.byte	0x13
 1587 0b75 3E       		.byte	0x3e
 1588 0b76 B4000000 		.4byte	0xb4
 1589 0b7a 0D       		.byte	0xd
 1590 0b7b 08       		.uleb128 0x8
 1591 0b7c 22010000 		.4byte	.LASF149
 1592 0b80 13       		.byte	0x13
 1593 0b81 3F       		.byte	0x3f
 1594 0b82 B4000000 		.4byte	0xb4
 1595 0b86 0E       		.byte	0xe
 1596 0b87 08       		.uleb128 0x8
ARM GAS  C:\Users\14122\AppData\Local\Temp\cc2eSDGZ.s 			page 29


 1597 0b88 E0080000 		.4byte	.LASF150
 1598 0b8c 13       		.byte	0x13
 1599 0b8d 40       		.byte	0x40
 1600 0b8e B4000000 		.4byte	0xb4
 1601 0b92 0F       		.byte	0xf
 1602 0b93 08       		.uleb128 0x8
 1603 0b94 68050000 		.4byte	.LASF151
 1604 0b98 13       		.byte	0x13
 1605 0b99 41       		.byte	0x41
 1606 0b9a B4000000 		.4byte	0xb4
 1607 0b9e 10       		.byte	0x10
 1608 0b9f 08       		.uleb128 0x8
 1609 0ba0 64040000 		.4byte	.LASF152
 1610 0ba4 13       		.byte	0x13
 1611 0ba5 42       		.byte	0x42
 1612 0ba6 B4000000 		.4byte	0xb4
 1613 0baa 11       		.byte	0x11
 1614 0bab 08       		.uleb128 0x8
 1615 0bac AB0B0000 		.4byte	.LASF153
 1616 0bb0 13       		.byte	0x13
 1617 0bb1 43       		.byte	0x43
 1618 0bb2 B4000000 		.4byte	0xb4
 1619 0bb6 12       		.byte	0x12
 1620 0bb7 08       		.uleb128 0x8
 1621 0bb8 5D030000 		.4byte	.LASF154
 1622 0bbc 13       		.byte	0x13
 1623 0bbd 44       		.byte	0x44
 1624 0bbe B4000000 		.4byte	0xb4
 1625 0bc2 13       		.byte	0x13
 1626 0bc3 08       		.uleb128 0x8
 1627 0bc4 43000000 		.4byte	.LASF155
 1628 0bc8 13       		.byte	0x13
 1629 0bc9 45       		.byte	0x45
 1630 0bca B4000000 		.4byte	0xb4
 1631 0bce 14       		.byte	0x14
 1632 0bcf 08       		.uleb128 0x8
 1633 0bd0 C9030000 		.4byte	.LASF156
 1634 0bd4 13       		.byte	0x13
 1635 0bd5 46       		.byte	0x46
 1636 0bd6 B4000000 		.4byte	0xb4
 1637 0bda 15       		.byte	0x15
 1638 0bdb 00       		.byte	0
 1639 0bdc 11       		.uleb128 0x11
 1640 0bdd C10A0000 		.4byte	0xac1
 1641 0be1 EC0B0000 		.4byte	0xbec
 1642 0be5 12       		.uleb128 0x12
 1643 0be6 37000000 		.4byte	0x37
 1644 0bea 03       		.byte	0x3
 1645 0beb 00       		.byte	0
 1646 0bec 03       		.uleb128 0x3
 1647 0bed 6A0B0000 		.4byte	.LASF157
 1648 0bf1 13       		.byte	0x13
 1649 0bf2 47       		.byte	0x47
 1650 0bf3 FB0A0000 		.4byte	0xafb
 1651 0bf7 05       		.uleb128 0x5
 1652 0bf8 EC0B0000 		.4byte	0xbec
 1653 0bfc 14       		.uleb128 0x14
ARM GAS  C:\Users\14122\AppData\Local\Temp\cc2eSDGZ.s 			page 30


 1654 0bfd 5D000000 		.4byte	.LASF158
 1655 0c01 13       		.byte	0x13
 1656 0c02 6C       		.byte	0x6c
 1657 0c03 F70B0000 		.4byte	0xbf7
 1658 0c07 03       		.uleb128 0x3
 1659 0c08 D50A0000 		.4byte	.LASF159
 1660 0c0c 11       		.byte	0x11
 1661 0c0d 34       		.byte	0x34
 1662 0c0e 7F0A0000 		.4byte	0xa7f
 1663 0c12 0C       		.uleb128 0xc
 1664 0c13 04       		.byte	0x4
 1665 0c14 070C0000 		.4byte	0xc07
 1666 0c18 03       		.uleb128 0x3
 1667 0c19 96030000 		.4byte	.LASF160
 1668 0c1d 14       		.byte	0x14
 1669 0c1e 34       		.byte	0x34
 1670 0c1f 230C0000 		.4byte	0xc23
 1671 0c23 07       		.uleb128 0x7
 1672 0c24 350B0000 		.4byte	.LASF161
 1673 0c28 14       		.byte	0x14
 1674 0c29 14       		.byte	0x14
 1675 0c2a 39       		.byte	0x39
 1676 0c2b 6C0C0000 		.4byte	0xc6c
 1677 0c2f 08       		.uleb128 0x8
 1678 0c30 C50B0000 		.4byte	.LASF50
 1679 0c34 14       		.byte	0x14
 1680 0c35 3A       		.byte	0x3a
 1681 0c36 6C0C0000 		.4byte	0xc6c
 1682 0c3a 00       		.byte	0
 1683 0c3b 08       		.uleb128 0x8
 1684 0c3c F8090000 		.4byte	.LASF162
 1685 0c40 14       		.byte	0x14
 1686 0c41 3D       		.byte	0x3d
 1687 0c42 56020000 		.4byte	0x256
 1688 0c46 04       		.byte	0x4
 1689 0c47 08       		.uleb128 0x8
 1690 0c48 BE0B0000 		.4byte	.LASF163
 1691 0c4c 14       		.byte	0x14
 1692 0c4d 3F       		.byte	0x3f
 1693 0c4e 36010000 		.4byte	0x136
 1694 0c52 08       		.byte	0x8
 1695 0c53 08       		.uleb128 0x8
 1696 0c54 66030000 		.4byte	.LASF38
 1697 0c58 14       		.byte	0x14
 1698 0c59 41       		.byte	0x41
 1699 0c5a 41010000 		.4byte	0x141
 1700 0c5e 0C       		.byte	0xc
 1701 0c5f 08       		.uleb128 0x8
 1702 0c60 17080000 		.4byte	.LASF164
 1703 0c64 14       		.byte	0x14
 1704 0c65 43       		.byte	0x43
 1705 0c66 41010000 		.4byte	0x141
 1706 0c6a 10       		.byte	0x10
 1707 0c6b 00       		.byte	0
 1708 0c6c 0C       		.uleb128 0xc
 1709 0c6d 04       		.byte	0x4
 1710 0c6e 180C0000 		.4byte	0xc18
ARM GAS  C:\Users\14122\AppData\Local\Temp\cc2eSDGZ.s 			page 31


 1711 0c72 07       		.uleb128 0x7
 1712 0c73 440A0000 		.4byte	.LASF165
 1713 0c77 04       		.byte	0x4
 1714 0c78 14       		.byte	0x14
 1715 0c79 4A       		.byte	0x4a
 1716 0c7a 8B0C0000 		.4byte	0xc8b
 1717 0c7e 08       		.uleb128 0x8
 1718 0c7f C50B0000 		.4byte	.LASF50
 1719 0c83 14       		.byte	0x14
 1720 0c84 4B       		.byte	0x4b
 1721 0c85 6C0C0000 		.4byte	0xc6c
 1722 0c89 00       		.byte	0
 1723 0c8a 00       		.byte	0
 1724 0c8b 03       		.uleb128 0x3
 1725 0c8c 16060000 		.4byte	.LASF166
 1726 0c90 14       		.byte	0x14
 1727 0c91 4E       		.byte	0x4e
 1728 0c92 720C0000 		.4byte	0xc72
 1729 0c96 04       		.uleb128 0x4
 1730 0c97 01       		.byte	0x1
 1731 0c98 02       		.byte	0x2
 1732 0c99 F2020000 		.4byte	.LASF167
 1733 0c9d 03       		.uleb128 0x3
 1734 0c9e F8020000 		.4byte	.LASF168
 1735 0ca2 15       		.byte	0x15
 1736 0ca3 47       		.byte	0x47
 1737 0ca4 A80C0000 		.4byte	0xca8
 1738 0ca8 0C       		.uleb128 0xc
 1739 0ca9 04       		.byte	0x4
 1740 0caa AE0C0000 		.4byte	0xcae
 1741 0cae 20       		.uleb128 0x20
 1742 0caf 33030000 		.4byte	0x333
 1743 0cb3 C20C0000 		.4byte	0xcc2
 1744 0cb7 0F       		.uleb128 0xf
 1745 0cb8 2C000000 		.4byte	0x2c
 1746 0cbc 0F       		.uleb128 0xf
 1747 0cbd 37000000 		.4byte	0x37
 1748 0cc1 00       		.byte	0
 1749 0cc2 15       		.uleb128 0x15
 1750 0cc3 08       		.byte	0x8
 1751 0cc4 15       		.byte	0x15
 1752 0cc5 51       		.byte	0x51
 1753 0cc6 E30C0000 		.4byte	0xce3
 1754 0cca 08       		.uleb128 0x8
 1755 0ccb 51040000 		.4byte	.LASF169
 1756 0ccf 15       		.byte	0x15
 1757 0cd0 55       		.byte	0x55
 1758 0cd1 E30C0000 		.4byte	0xce3
 1759 0cd5 00       		.byte	0
 1760 0cd6 08       		.uleb128 0x8
 1761 0cd7 2B000000 		.4byte	.LASF170
 1762 0cdb 15       		.byte	0x15
 1763 0cdc 59       		.byte	0x59
 1764 0cdd E30C0000 		.4byte	0xce3
 1765 0ce1 04       		.byte	0x4
 1766 0ce2 00       		.byte	0
 1767 0ce3 0C       		.uleb128 0xc
ARM GAS  C:\Users\14122\AppData\Local\Temp\cc2eSDGZ.s 			page 32


 1768 0ce4 04       		.byte	0x4
 1769 0ce5 B4000000 		.4byte	0xb4
 1770 0ce9 03       		.uleb128 0x3
 1771 0cea 0C020000 		.4byte	.LASF171
 1772 0cee 15       		.byte	0x15
 1773 0cef 5A       		.byte	0x5a
 1774 0cf0 C20C0000 		.4byte	0xcc2
 1775 0cf4 14       		.uleb128 0x14
 1776 0cf5 A00B0000 		.4byte	.LASF172
 1777 0cf9 15       		.byte	0x15
 1778 0cfa 65       		.byte	0x65
 1779 0cfb E90C0000 		.4byte	0xce9
 1780 0cff 07       		.uleb128 0x7
 1781 0d00 75050000 		.4byte	.LASF173
 1782 0d04 04       		.byte	0x4
 1783 0d05 16       		.byte	0x16
 1784 0d06 38       		.byte	0x38
 1785 0d07 180D0000 		.4byte	0xd18
 1786 0d0b 08       		.uleb128 0x8
 1787 0d0c C50B0000 		.4byte	.LASF50
 1788 0d10 16       		.byte	0x16
 1789 0d11 39       		.byte	0x39
 1790 0d12 180D0000 		.4byte	0xd18
 1791 0d16 00       		.byte	0
 1792 0d17 00       		.byte	0
 1793 0d18 0C       		.uleb128 0xc
 1794 0d19 04       		.byte	0x4
 1795 0d1a FF0C0000 		.4byte	0xcff
 1796 0d1e 15       		.uleb128 0x15
 1797 0d1f 10       		.byte	0x10
 1798 0d20 16       		.byte	0x16
 1799 0d21 40       		.byte	0x40
 1800 0d22 570D0000 		.4byte	0xd57
 1801 0d26 08       		.uleb128 0x8
 1802 0d27 C50B0000 		.4byte	.LASF50
 1803 0d2b 16       		.byte	0x16
 1804 0d2c 41       		.byte	0x41
 1805 0d2d 180D0000 		.4byte	0xd18
 1806 0d31 00       		.byte	0
 1807 0d32 08       		.uleb128 0x8
 1808 0d33 BA0A0000 		.4byte	.LASF174
 1809 0d37 16       		.byte	0x16
 1810 0d38 42       		.byte	0x42
 1811 0d39 2C000000 		.4byte	0x2c
 1812 0d3d 04       		.byte	0x4
 1813 0d3e 08       		.uleb128 0x8
 1814 0d3f 25060000 		.4byte	.LASF175
 1815 0d43 16       		.byte	0x16
 1816 0d44 44       		.byte	0x44
 1817 0d45 37000000 		.4byte	0x37
 1818 0d49 08       		.byte	0x8
 1819 0d4a 08       		.uleb128 0x8
 1820 0d4b 66000000 		.4byte	.LASF176
 1821 0d4f 16       		.byte	0x16
 1822 0d50 45       		.byte	0x45
 1823 0d51 9D0C0000 		.4byte	0xc9d
 1824 0d55 0C       		.byte	0xc
ARM GAS  C:\Users\14122\AppData\Local\Temp\cc2eSDGZ.s 			page 33


 1825 0d56 00       		.byte	0
 1826 0d57 03       		.uleb128 0x3
 1827 0d58 B0090000 		.4byte	.LASF177
 1828 0d5c 16       		.byte	0x16
 1829 0d5d 47       		.byte	0x47
 1830 0d5e 1E0D0000 		.4byte	0xd1e
 1831 0d62 07       		.uleb128 0x7
 1832 0d63 CD000000 		.4byte	.LASF178
 1833 0d67 10       		.byte	0x10
 1834 0d68 17       		.byte	0x17
 1835 0d69 93       		.byte	0x93
 1836 0d6a 930D0000 		.4byte	0xd93
 1837 0d6e 08       		.uleb128 0x8
 1838 0d6f C50B0000 		.4byte	.LASF50
 1839 0d73 17       		.byte	0x17
 1840 0d74 97       		.byte	0x97
 1841 0d75 930D0000 		.4byte	0xd93
 1842 0d79 00       		.byte	0
 1843 0d7a 08       		.uleb128 0x8
 1844 0d7b 35090000 		.4byte	.LASF39
 1845 0d7f 17       		.byte	0x17
 1846 0d80 9B       		.byte	0x9b
 1847 0d81 57010000 		.4byte	0x157
 1848 0d85 04       		.byte	0x4
 1849 0d86 08       		.uleb128 0x8
 1850 0d87 F3090000 		.4byte	.LASF35
 1851 0d8b 17       		.byte	0x17
 1852 0d8c 9D       		.byte	0x9d
 1853 0d8d 990D0000 		.4byte	0xd99
 1854 0d91 08       		.byte	0x8
 1855 0d92 00       		.byte	0
 1856 0d93 0C       		.uleb128 0xc
 1857 0d94 04       		.byte	0x4
 1858 0d95 620D0000 		.4byte	0xd62
 1859 0d99 11       		.uleb128 0x11
 1860 0d9a C10A0000 		.4byte	0xac1
 1861 0d9e A90D0000 		.4byte	0xda9
 1862 0da2 12       		.uleb128 0x12
 1863 0da3 37000000 		.4byte	0x37
 1864 0da7 07       		.byte	0x7
 1865 0da8 00       		.byte	0
 1866 0da9 03       		.uleb128 0x3
 1867 0daa EB030000 		.4byte	.LASF179
 1868 0dae 17       		.byte	0x17
 1869 0daf A1       		.byte	0xa1
 1870 0db0 620D0000 		.4byte	0xd62
 1871 0db4 07       		.uleb128 0x7
 1872 0db5 D40B0000 		.4byte	.LASF180
 1873 0db9 04       		.byte	0x4
 1874 0dba 17       		.byte	0x17
 1875 0dbb A6       		.byte	0xa6
 1876 0dbc CD0D0000 		.4byte	0xdcd
 1877 0dc0 08       		.uleb128 0x8
 1878 0dc1 C50B0000 		.4byte	.LASF50
 1879 0dc5 17       		.byte	0x17
 1880 0dc6 A7       		.byte	0xa7
 1881 0dc7 CD0D0000 		.4byte	0xdcd
ARM GAS  C:\Users\14122\AppData\Local\Temp\cc2eSDGZ.s 			page 34


 1882 0dcb 00       		.byte	0
 1883 0dcc 00       		.byte	0
 1884 0dcd 0C       		.uleb128 0xc
 1885 0dce 04       		.byte	0x4
 1886 0dcf A90D0000 		.4byte	0xda9
 1887 0dd3 03       		.uleb128 0x3
 1888 0dd4 9B0A0000 		.4byte	.LASF181
 1889 0dd8 17       		.byte	0x17
 1890 0dd9 A8       		.byte	0xa8
 1891 0dda B40D0000 		.4byte	0xdb4
 1892 0dde 0D       		.uleb128 0xd
 1893 0ddf FE050000 		.4byte	.LASF182
 1894 0de3 44       		.byte	0x44
 1895 0de4 17       		.byte	0x17
 1896 0de5 1101     		.2byte	0x111
 1897 0de7 540E0000 		.4byte	0xe54
 1898 0deb 0A       		.uleb128 0xa
 1899 0dec 6D747800 		.ascii	"mtx\000"
 1900 0df0 17       		.byte	0x17
 1901 0df1 1601     		.2byte	0x116
 1902 0df3 070C0000 		.4byte	0xc07
 1903 0df7 00       		.byte	0
 1904 0df8 0B       		.uleb128 0xb
 1905 0df9 0B010000 		.4byte	.LASF183
 1906 0dfd 17       		.byte	0x17
 1907 0dfe 1D01     		.2byte	0x11d
 1908 0e00 D30D0000 		.4byte	0xdd3
 1909 0e04 10       		.byte	0x10
 1910 0e05 0B       		.uleb128 0xb
 1911 0e06 D2010000 		.4byte	.LASF184
 1912 0e0a 17       		.byte	0x17
 1913 0e0b 2101     		.2byte	0x121
 1914 0e0d 570D0000 		.4byte	0xd57
 1915 0e11 14       		.byte	0x14
 1916 0e12 0B       		.uleb128 0xb
 1917 0e13 57080000 		.4byte	.LASF185
 1918 0e17 17       		.byte	0x17
 1919 0e18 2601     		.2byte	0x126
 1920 0e1a D30D0000 		.4byte	0xdd3
 1921 0e1e 24       		.byte	0x24
 1922 0e1f 0B       		.uleb128 0xb
 1923 0e20 37030000 		.4byte	.LASF186
 1924 0e24 17       		.byte	0x17
 1925 0e25 2C01     		.2byte	0x12c
 1926 0e27 D30D0000 		.4byte	0xdd3
 1927 0e2b 28       		.byte	0x28
 1928 0e2c 0B       		.uleb128 0xb
 1929 0e2d 14040000 		.4byte	.LASF187
 1930 0e31 17       		.byte	0x17
 1931 0e32 3001     		.2byte	0x130
 1932 0e34 570D0000 		.4byte	0xd57
 1933 0e38 2C       		.byte	0x2c
 1934 0e39 0B       		.uleb128 0xb
 1935 0e3a 5F090000 		.4byte	.LASF188
 1936 0e3e 17       		.byte	0x17
 1937 0e3f 3601     		.2byte	0x136
 1938 0e41 D30D0000 		.4byte	0xdd3
ARM GAS  C:\Users\14122\AppData\Local\Temp\cc2eSDGZ.s 			page 35


 1939 0e45 3C       		.byte	0x3c
 1940 0e46 0B       		.uleb128 0xb
 1941 0e47 15050000 		.4byte	.LASF189
 1942 0e4b 17       		.byte	0x17
 1943 0e4c 3C01     		.2byte	0x13c
 1944 0e4e D30D0000 		.4byte	0xdd3
 1945 0e52 40       		.byte	0x40
 1946 0e53 00       		.byte	0
 1947 0e54 19       		.uleb128 0x19
 1948 0e55 45080000 		.4byte	.LASF190
 1949 0e59 17       		.byte	0x17
 1950 0e5a 3E01     		.2byte	0x13e
 1951 0e5c DE0D0000 		.4byte	0xdde
 1952 0e60 13       		.uleb128 0x13
 1953 0e61 4C090000 		.4byte	.LASF191
 1954 0e65 17       		.byte	0x17
 1955 0e66 4901     		.2byte	0x149
 1956 0e68 540E0000 		.4byte	0xe54
 1957 0e6c 15       		.uleb128 0x15
 1958 0e6d 10       		.byte	0x10
 1959 0e6e 18       		.byte	0x18
 1960 0e6f F0       		.byte	0xf0
 1961 0e70 C90E0000 		.4byte	0xec9
 1962 0e74 09       		.uleb128 0x9
 1963 0e75 646D6100 		.ascii	"dma\000"
 1964 0e79 18       		.byte	0x18
 1965 0e7a F1       		.byte	0xf1
 1966 0e7b C90E0000 		.4byte	0xec9
 1967 0e7f 00       		.byte	0
 1968 0e80 08       		.uleb128 0x8
 1969 0e81 BE040000 		.4byte	.LASF192
 1970 0e85 18       		.byte	0x18
 1971 0e86 F2       		.byte	0xf2
 1972 0e87 CF0E0000 		.4byte	0xecf
 1973 0e8b 04       		.byte	0x4
 1974 0e8c 08       		.uleb128 0x8
 1975 0e8d 60080000 		.4byte	.LASF193
 1976 0e91 18       		.byte	0x18
 1977 0e92 F3       		.byte	0xf3
 1978 0e93 E4000000 		.4byte	0xe4
 1979 0e97 08       		.byte	0x8
 1980 0e98 08       		.uleb128 0x8
 1981 0e99 D1090000 		.4byte	.LASF194
 1982 0e9d 18       		.byte	0x18
 1983 0e9e FA       		.byte	0xfa
 1984 0e9f B4000000 		.4byte	0xb4
 1985 0ea3 0C       		.byte	0xc
 1986 0ea4 08       		.uleb128 0x8
 1987 0ea5 B8040000 		.4byte	.LASF195
 1988 0ea9 18       		.byte	0x18
 1989 0eaa FC       		.byte	0xfc
 1990 0eab B4000000 		.4byte	0xb4
 1991 0eaf 0D       		.byte	0xd
 1992 0eb0 08       		.uleb128 0x8
 1993 0eb1 78060000 		.4byte	.LASF196
 1994 0eb5 18       		.byte	0x18
 1995 0eb6 FE       		.byte	0xfe
ARM GAS  C:\Users\14122\AppData\Local\Temp\cc2eSDGZ.s 			page 36


 1996 0eb7 B4000000 		.4byte	0xb4
 1997 0ebb 0E       		.byte	0xe
 1998 0ebc 08       		.uleb128 0x8
 1999 0ebd 45090000 		.4byte	.LASF197
 2000 0ec1 18       		.byte	0x18
 2001 0ec2 FF       		.byte	0xff
 2002 0ec3 B4000000 		.4byte	0xb4
 2003 0ec7 0F       		.byte	0xf
 2004 0ec8 00       		.byte	0
 2005 0ec9 0C       		.uleb128 0xc
 2006 0eca 04       		.byte	0x4
 2007 0ecb 7F070000 		.4byte	0x77f
 2008 0ecf 0C       		.uleb128 0xc
 2009 0ed0 04       		.byte	0x4
 2010 0ed1 4F070000 		.4byte	0x74f
 2011 0ed5 19       		.uleb128 0x19
 2012 0ed6 08000000 		.4byte	.LASF198
 2013 0eda 18       		.byte	0x18
 2014 0edb 0001     		.2byte	0x100
 2015 0edd 6C0E0000 		.4byte	0xe6c
 2016 0ee1 05       		.uleb128 0x5
 2017 0ee2 D50E0000 		.4byte	0xed5
 2018 0ee6 19       		.uleb128 0x19
 2019 0ee7 A3060000 		.4byte	.LASF199
 2020 0eeb 18       		.byte	0x18
 2021 0eec 0901     		.2byte	0x109
 2022 0eee F20E0000 		.4byte	0xef2
 2023 0ef2 0C       		.uleb128 0xc
 2024 0ef3 04       		.byte	0x4
 2025 0ef4 F80E0000 		.4byte	0xef8
 2026 0ef8 0E       		.uleb128 0xe
 2027 0ef9 080F0000 		.4byte	0xf08
 2028 0efd 0F       		.uleb128 0xf
 2029 0efe 33030000 		.4byte	0x333
 2030 0f02 0F       		.uleb128 0xf
 2031 0f03 E4000000 		.4byte	0xe4
 2032 0f07 00       		.byte	0
 2033 0f08 1A       		.uleb128 0x1a
 2034 0f09 08       		.byte	0x8
 2035 0f0a 18       		.byte	0x18
 2036 0f0b 0E01     		.2byte	0x10e
 2037 0f0d 2C0F0000 		.4byte	0xf2c
 2038 0f11 0B       		.uleb128 0xb
 2039 0f12 D2030000 		.4byte	.LASF200
 2040 0f16 18       		.byte	0x18
 2041 0f17 0F01     		.2byte	0x10f
 2042 0f19 E60E0000 		.4byte	0xee6
 2043 0f1d 00       		.byte	0
 2044 0f1e 0B       		.uleb128 0xb
 2045 0f1f B00A0000 		.4byte	.LASF201
 2046 0f23 18       		.byte	0x18
 2047 0f24 1001     		.2byte	0x110
 2048 0f26 33030000 		.4byte	0x333
 2049 0f2a 04       		.byte	0x4
 2050 0f2b 00       		.byte	0
 2051 0f2c 19       		.uleb128 0x19
 2052 0f2d 04070000 		.4byte	.LASF202
ARM GAS  C:\Users\14122\AppData\Local\Temp\cc2eSDGZ.s 			page 37


 2053 0f31 18       		.byte	0x18
 2054 0f32 1101     		.2byte	0x111
 2055 0f34 080F0000 		.4byte	0xf08
 2056 0f38 11       		.uleb128 0x11
 2057 0f39 E10E0000 		.4byte	0xee1
 2058 0f3d 480F0000 		.4byte	0xf48
 2059 0f41 12       		.uleb128 0x12
 2060 0f42 37000000 		.4byte	0x37
 2061 0f46 06       		.byte	0x6
 2062 0f47 00       		.byte	0
 2063 0f48 05       		.uleb128 0x5
 2064 0f49 380F0000 		.4byte	0xf38
 2065 0f4d 13       		.uleb128 0x13
 2066 0f4e F8040000 		.4byte	.LASF203
 2067 0f52 18       		.byte	0x18
 2068 0f53 DF01     		.2byte	0x1df
 2069 0f55 480F0000 		.4byte	0xf48
 2070 0f59 11       		.uleb128 0x11
 2071 0f5a 2C0F0000 		.4byte	0xf2c
 2072 0f5e 690F0000 		.4byte	0xf69
 2073 0f62 12       		.uleb128 0x12
 2074 0f63 37000000 		.4byte	0x37
 2075 0f67 06       		.byte	0x6
 2076 0f68 00       		.byte	0
 2077 0f69 13       		.uleb128 0x13
 2078 0f6a 250A0000 		.4byte	.LASF204
 2079 0f6e 18       		.byte	0x18
 2080 0f6f E001     		.2byte	0x1e0
 2081 0f71 590F0000 		.4byte	0xf59
 2082 0f75 21       		.uleb128 0x21
 2083 0f76 00       		.byte	0
 2084 0f77 19       		.byte	0x19
 2085 0f78 99       		.byte	0x99
 2086 0f79 03       		.uleb128 0x3
 2087 0f7a 52030000 		.4byte	.LASF205
 2088 0f7e 19       		.byte	0x19
 2089 0f7f AA       		.byte	0xaa
 2090 0f80 750F0000 		.4byte	0xf75
 2091 0f84 15       		.uleb128 0x15
 2092 0f85 0C       		.byte	0xc
 2093 0f86 1A       		.byte	0x1a
 2094 0f87 68       		.byte	0x68
 2095 0f88 B10F0000 		.4byte	0xfb1
 2096 0f8c 09       		.uleb128 0x9
 2097 0f8d 6F647200 		.ascii	"odr\000"
 2098 0f91 1A       		.byte	0x1a
 2099 0f92 6A       		.byte	0x6a
 2100 0f93 E4000000 		.4byte	0xe4
 2101 0f97 00       		.byte	0
 2102 0f98 09       		.uleb128 0x9
 2103 0f99 63726C00 		.ascii	"crl\000"
 2104 0f9d 1A       		.byte	0x1a
 2105 0f9e 6C       		.byte	0x6c
 2106 0f9f E4000000 		.4byte	0xe4
 2107 0fa3 04       		.byte	0x4
 2108 0fa4 09       		.uleb128 0x9
 2109 0fa5 63726800 		.ascii	"crh\000"
ARM GAS  C:\Users\14122\AppData\Local\Temp\cc2eSDGZ.s 			page 38


 2110 0fa9 1A       		.byte	0x1a
 2111 0faa 6E       		.byte	0x6e
 2112 0fab E4000000 		.4byte	0xe4
 2113 0faf 08       		.byte	0x8
 2114 0fb0 00       		.byte	0
 2115 0fb1 03       		.uleb128 0x3
 2116 0fb2 31010000 		.4byte	.LASF206
 2117 0fb6 1A       		.byte	0x1a
 2118 0fb7 6F       		.byte	0x6f
 2119 0fb8 840F0000 		.4byte	0xf84
 2120 0fbc 15       		.uleb128 0x15
 2121 0fbd 3C       		.byte	0x3c
 2122 0fbe 1A       		.byte	0x1a
 2123 0fbf 78       		.byte	0x78
 2124 0fc0 01100000 		.4byte	0x1001
 2125 0fc4 08       		.uleb128 0x8
 2126 0fc5 B5080000 		.4byte	.LASF207
 2127 0fc9 1A       		.byte	0x1a
 2128 0fca 7A       		.byte	0x7a
 2129 0fcb B10F0000 		.4byte	0xfb1
 2130 0fcf 00       		.byte	0
 2131 0fd0 08       		.uleb128 0x8
 2132 0fd1 38060000 		.4byte	.LASF208
 2133 0fd5 1A       		.byte	0x1a
 2134 0fd6 7C       		.byte	0x7c
 2135 0fd7 B10F0000 		.4byte	0xfb1
 2136 0fdb 0C       		.byte	0xc
 2137 0fdc 08       		.uleb128 0x8
 2138 0fdd 40040000 		.4byte	.LASF209
 2139 0fe1 1A       		.byte	0x1a
 2140 0fe2 7E       		.byte	0x7e
 2141 0fe3 B10F0000 		.4byte	0xfb1
 2142 0fe7 18       		.byte	0x18
 2143 0fe8 08       		.uleb128 0x8
 2144 0fe9 C1020000 		.4byte	.LASF210
 2145 0fed 1A       		.byte	0x1a
 2146 0fee 80       		.byte	0x80
 2147 0fef B10F0000 		.4byte	0xfb1
 2148 0ff3 24       		.byte	0x24
 2149 0ff4 08       		.uleb128 0x8
 2150 0ff5 F6000000 		.4byte	.LASF211
 2151 0ff9 1A       		.byte	0x1a
 2152 0ffa 83       		.byte	0x83
 2153 0ffb B10F0000 		.4byte	0xfb1
 2154 0fff 30       		.byte	0x30
 2155 1000 00       		.byte	0
 2156 1001 03       		.uleb128 0x3
 2157 1002 A60A0000 		.4byte	.LASF212
 2158 1006 1A       		.byte	0x1a
 2159 1007 8D       		.byte	0x8d
 2160 1008 BC0F0000 		.4byte	0xfbc
 2161 100c 05       		.uleb128 0x5
 2162 100d 01100000 		.4byte	0x1001
 2163 1011 13       		.uleb128 0x13
 2164 1012 F4010000 		.4byte	.LASF213
 2165 1016 1A       		.byte	0x1a
 2166 1017 A001     		.2byte	0x1a0
ARM GAS  C:\Users\14122\AppData\Local\Temp\cc2eSDGZ.s 			page 39


 2167 1019 0C100000 		.4byte	0x100c
 2168 101d 11       		.uleb128 0x11
 2169 101e 790F0000 		.4byte	0xf79
 2170 1022 2D100000 		.4byte	0x102d
 2171 1026 12       		.uleb128 0x12
 2172 1027 37000000 		.4byte	0x37
 2173 102b 0F       		.byte	0xf
 2174 102c 00       		.byte	0
 2175 102d 13       		.uleb128 0x13
 2176 102e F6070000 		.4byte	.LASF214
 2177 1032 1A       		.byte	0x1a
 2178 1033 A101     		.2byte	0x1a1
 2179 1035 1D100000 		.4byte	0x101d
 2180 1039 22       		.uleb128 0x22
 2181 103a 07       		.byte	0x7
 2182 103b 01       		.byte	0x1
 2183 103c 5E000000 		.4byte	0x5e
 2184 1040 1B       		.byte	0x1b
 2185 1041 66       		.byte	0x66
 2186 1042 65100000 		.4byte	0x1065
 2187 1046 23       		.uleb128 0x23
 2188 1047 47060000 		.4byte	.LASF215
 2189 104b 00       		.byte	0
 2190 104c 23       		.uleb128 0x23
 2191 104d B50B0000 		.4byte	.LASF216
 2192 1051 01       		.byte	0x1
 2193 1052 23       		.uleb128 0x23
 2194 1053 E3050000 		.4byte	.LASF217
 2195 1057 02       		.byte	0x2
 2196 1058 23       		.uleb128 0x23
 2197 1059 BF030000 		.4byte	.LASF218
 2198 105d 03       		.byte	0x3
 2199 105e 23       		.uleb128 0x23
 2200 105f 64060000 		.4byte	.LASF219
 2201 1063 04       		.byte	0x4
 2202 1064 00       		.byte	0
 2203 1065 03       		.uleb128 0x3
 2204 1066 B4030000 		.4byte	.LASF220
 2205 106a 1B       		.byte	0x1b
 2206 106b 6C       		.byte	0x6c
 2207 106c 39100000 		.4byte	0x1039
 2208 1070 03       		.uleb128 0x3
 2209 1071 57010000 		.4byte	.LASF221
 2210 1075 1C       		.byte	0x1c
 2211 1076 C2       		.byte	0xc2
 2212 1077 7B100000 		.4byte	0x107b
 2213 107b 0D       		.uleb128 0xd
 2214 107c 57010000 		.4byte	.LASF221
 2215 1080 30       		.byte	0x30
 2216 1081 1C       		.byte	0x1c
 2217 1082 4801     		.2byte	0x148
 2218 1084 0B110000 		.4byte	0x110b
 2219 1088 0B       		.uleb128 0xb
 2220 1089 F0000000 		.4byte	.LASF37
 2221 108d 1C       		.byte	0x1c
 2222 108e 4C01     		.2byte	0x14c
 2223 1090 65100000 		.4byte	0x1065
ARM GAS  C:\Users\14122\AppData\Local\Temp\cc2eSDGZ.s 			page 40


 2224 1094 00       		.byte	0
 2225 1095 0B       		.uleb128 0xb
 2226 1096 E9000000 		.4byte	.LASF222
 2227 109a 1C       		.byte	0x1c
 2228 109b 5001     		.2byte	0x150
 2229 109d 40110000 		.4byte	0x1140
 2230 10a1 04       		.byte	0x4
 2231 10a2 0B       		.uleb128 0xb
 2232 10a3 770A0000 		.4byte	.LASF223
 2233 10a7 1C       		.byte	0x1c
 2234 10a8 5401     		.2byte	0x154
 2235 10aa 80020000 		.4byte	0x280
 2236 10ae 08       		.byte	0x8
 2237 10af 0B       		.uleb128 0xb
 2238 10b0 57090000 		.4byte	.LASF224
 2239 10b4 1C       		.byte	0x1c
 2240 10b5 5801     		.2byte	0x158
 2241 10b7 80020000 		.4byte	0x280
 2242 10bb 10       		.byte	0x10
 2243 10bc 0B       		.uleb128 0xb
 2244 10bd 65020000 		.4byte	.LASF225
 2245 10c1 1C       		.byte	0x1c
 2246 10c2 6601     		.2byte	0x166
 2247 10c4 8B0C0000 		.4byte	0xc8b
 2248 10c8 18       		.byte	0x18
 2249 10c9 0B       		.uleb128 0xb
 2250 10ca F60B0000 		.4byte	.LASF226
 2251 10ce 1C       		.byte	0x1c
 2252 10cf 6E01     		.2byte	0x16e
 2253 10d1 8B0C0000 		.4byte	0xc8b
 2254 10d5 1C       		.byte	0x1c
 2255 10d6 0B       		.uleb128 0xb
 2256 10d7 D9060000 		.4byte	.LASF227
 2257 10db 1C       		.byte	0x1c
 2258 10dc 7601     		.2byte	0x176
 2259 10de 8B0C0000 		.4byte	0xc8b
 2260 10e2 20       		.byte	0x20
 2261 10e3 0B       		.uleb128 0xb
 2262 10e4 97000000 		.4byte	.LASF228
 2263 10e8 1C       		.byte	0x1c
 2264 10e9 7B01     		.2byte	0x17b
 2265 10eb 8B0C0000 		.4byte	0xc8b
 2266 10ef 24       		.byte	0x24
 2267 10f0 0B       		.uleb128 0xb
 2268 10f1 DC000000 		.4byte	.LASF229
 2269 10f5 1C       		.byte	0x1c
 2270 10f6 7F01     		.2byte	0x17f
 2271 10f8 8B0C0000 		.4byte	0xc8b
 2272 10fc 28       		.byte	0x28
 2273 10fd 0A       		.uleb128 0xa
 2274 10fe 63616E00 		.ascii	"can\000"
 2275 1102 1C       		.byte	0x1c
 2276 1103 A201     		.2byte	0x1a2
 2277 1105 46110000 		.4byte	0x1146
 2278 1109 2C       		.byte	0x2c
 2279 110a 00       		.byte	0
 2280 110b 1A       		.uleb128 0x1a
ARM GAS  C:\Users\14122\AppData\Local\Temp\cc2eSDGZ.s 			page 41


 2281 110c 08       		.byte	0x8
 2282 110d 1C       		.byte	0x1c
 2283 110e 3601     		.2byte	0x136
 2284 1110 2F110000 		.4byte	0x112f
 2285 1114 0A       		.uleb128 0xa
 2286 1115 6D637200 		.ascii	"mcr\000"
 2287 1119 1C       		.byte	0x1c
 2288 111a 3C01     		.2byte	0x13c
 2289 111c E4000000 		.4byte	0xe4
 2290 1120 00       		.byte	0
 2291 1121 0A       		.uleb128 0xa
 2292 1122 62747200 		.ascii	"btr\000"
 2293 1126 1C       		.byte	0x1c
 2294 1127 4201     		.2byte	0x142
 2295 1129 E4000000 		.4byte	0xe4
 2296 112d 04       		.byte	0x4
 2297 112e 00       		.byte	0
 2298 112f 19       		.uleb128 0x19
 2299 1130 47040000 		.4byte	.LASF230
 2300 1134 1C       		.byte	0x1c
 2301 1135 4301     		.2byte	0x143
 2302 1137 0B110000 		.4byte	0x110b
 2303 113b 05       		.uleb128 0x5
 2304 113c 2F110000 		.4byte	0x112f
 2305 1140 0C       		.uleb128 0xc
 2306 1141 04       		.byte	0x4
 2307 1142 3B110000 		.4byte	0x113b
 2308 1146 0C       		.uleb128 0xc
 2309 1147 04       		.byte	0x4
 2310 1148 05070000 		.4byte	0x705
 2311 114c 13       		.uleb128 0x13
 2312 114d F00B0000 		.4byte	.LASF231
 2313 1151 1C       		.byte	0x1c
 2314 1152 AE01     		.2byte	0x1ae
 2315 1154 70100000 		.4byte	0x1070
 2316 1158 22       		.uleb128 0x22
 2317 1159 07       		.byte	0x7
 2318 115a 01       		.byte	0x1
 2319 115b 5E000000 		.4byte	0x5e
 2320 115f 1D       		.byte	0x1d
 2321 1160 59       		.byte	0x59
 2322 1161 78110000 		.4byte	0x1178
 2323 1165 23       		.uleb128 0x23
 2324 1166 81050000 		.4byte	.LASF232
 2325 116a 00       		.byte	0
 2326 116b 23       		.uleb128 0x23
 2327 116c C3000000 		.4byte	.LASF233
 2328 1170 01       		.byte	0x1
 2329 1171 23       		.uleb128 0x23
 2330 1172 98060000 		.4byte	.LASF234
 2331 1176 02       		.byte	0x2
 2332 1177 00       		.byte	0
 2333 1178 03       		.uleb128 0x3
 2334 1179 7F0A0000 		.4byte	.LASF235
 2335 117d 1D       		.byte	0x1d
 2336 117e 5D       		.byte	0x5d
 2337 117f 58110000 		.4byte	0x1158
ARM GAS  C:\Users\14122\AppData\Local\Temp\cc2eSDGZ.s 			page 42


 2338 1183 22       		.uleb128 0x22
 2339 1184 07       		.byte	0x7
 2340 1185 01       		.byte	0x1
 2341 1186 5E000000 		.4byte	0x5e
 2342 118a 1D       		.byte	0x1d
 2343 118b 62       		.byte	0x62
 2344 118c A3110000 		.4byte	0x11a3
 2345 1190 23       		.uleb128 0x23
 2346 1191 010B0000 		.4byte	.LASF236
 2347 1195 00       		.byte	0
 2348 1196 23       		.uleb128 0x23
 2349 1197 72010000 		.4byte	.LASF237
 2350 119b 01       		.byte	0x1
 2351 119c 23       		.uleb128 0x23
 2352 119d 80090000 		.4byte	.LASF238
 2353 11a1 02       		.byte	0x2
 2354 11a2 00       		.byte	0
 2355 11a3 03       		.uleb128 0x3
 2356 11a4 DB010000 		.4byte	.LASF239
 2357 11a8 1D       		.byte	0x1d
 2358 11a9 66       		.byte	0x66
 2359 11aa 83110000 		.4byte	0x1183
 2360 11ae 22       		.uleb128 0x22
 2361 11af 07       		.byte	0x7
 2362 11b0 01       		.byte	0x1
 2363 11b1 5E000000 		.4byte	0x5e
 2364 11b5 1D       		.byte	0x1d
 2365 11b6 6B       		.byte	0x6b
 2366 11b7 CE110000 		.4byte	0x11ce
 2367 11bb 23       		.uleb128 0x23
 2368 11bc E1090000 		.4byte	.LASF240
 2369 11c0 00       		.byte	0
 2370 11c1 23       		.uleb128 0x23
 2371 11c2 D1080000 		.4byte	.LASF241
 2372 11c6 01       		.byte	0x1
 2373 11c7 23       		.uleb128 0x23
 2374 11c8 9D050000 		.4byte	.LASF242
 2375 11cc 02       		.byte	0x2
 2376 11cd 00       		.byte	0
 2377 11ce 03       		.uleb128 0x3
 2378 11cf 91090000 		.4byte	.LASF243
 2379 11d3 1D       		.byte	0x1d
 2380 11d4 6F       		.byte	0x6f
 2381 11d5 AE110000 		.4byte	0x11ae
 2382 11d9 19       		.uleb128 0x19
 2383 11da 52060000 		.4byte	.LASF244
 2384 11de 1E       		.byte	0x1e
 2385 11df B301     		.2byte	0x1b3
 2386 11e1 E4000000 		.4byte	0xe4
 2387 11e5 19       		.uleb128 0x19
 2388 11e6 81010000 		.4byte	.LASF245
 2389 11ea 1E       		.byte	0x1e
 2390 11eb B801     		.2byte	0x1b8
 2391 11ed F1110000 		.4byte	0x11f1
 2392 11f1 0D       		.uleb128 0xd
 2393 11f2 81010000 		.4byte	.LASF245
 2394 11f6 1C       		.byte	0x1c
ARM GAS  C:\Users\14122\AppData\Local\Temp\cc2eSDGZ.s 			page 43


 2395 11f7 1E       		.byte	0x1e
 2396 11f8 0002     		.2byte	0x200
 2397 11fa 74120000 		.4byte	0x1274
 2398 11fe 0B       		.uleb128 0xb
 2399 11ff F0000000 		.4byte	.LASF37
 2400 1203 1E       		.byte	0x1e
 2401 1204 0402     		.2byte	0x204
 2402 1206 78110000 		.4byte	0x1178
 2403 120a 00       		.byte	0
 2404 120b 0B       		.uleb128 0xb
 2405 120c CA010000 		.4byte	.LASF246
 2406 1210 1E       		.byte	0x1e
 2407 1211 0802     		.2byte	0x208
 2408 1213 A3110000 		.4byte	0x11a3
 2409 1217 01       		.byte	0x1
 2410 1218 0B       		.uleb128 0xb
 2411 1219 FD000000 		.4byte	.LASF247
 2412 121d 1E       		.byte	0x1e
 2413 121e 0C02     		.2byte	0x20c
 2414 1220 CE110000 		.4byte	0x11ce
 2415 1224 02       		.byte	0x2
 2416 1225 0B       		.uleb128 0xb
 2417 1226 E9000000 		.4byte	.LASF222
 2418 122a 1E       		.byte	0x1e
 2419 122b 1002     		.2byte	0x210
 2420 122d 6B130000 		.4byte	0x136b
 2421 1231 04       		.byte	0x4
 2422 1232 0B       		.uleb128 0xb
 2423 1233 EE010000 		.4byte	.LASF248
 2424 1237 1E       		.byte	0x1e
 2425 1238 2C02     		.2byte	0x22c
 2426 123a 71130000 		.4byte	0x1371
 2427 123e 08       		.byte	0x8
 2428 123f 0B       		.uleb128 0xb
 2429 1240 3F060000 		.4byte	.LASF249
 2430 1244 1E       		.byte	0x1e
 2431 1245 3002     		.2byte	0x230
 2432 1247 E4000000 		.4byte	0xe4
 2433 124b 0C       		.byte	0xc
 2434 124c 0B       		.uleb128 0xb
 2435 124d BC050000 		.4byte	.LASF250
 2436 1251 1E       		.byte	0x1e
 2437 1252 3402     		.2byte	0x234
 2438 1254 77130000 		.4byte	0x1377
 2439 1258 10       		.byte	0x10
 2440 1259 0B       		.uleb128 0xb
 2441 125a 5E060000 		.4byte	.LASF251
 2442 125e 1E       		.byte	0x1e
 2443 125f 3802     		.2byte	0x238
 2444 1261 77130000 		.4byte	0x1377
 2445 1265 14       		.byte	0x14
 2446 1266 0B       		.uleb128 0xb
 2447 1267 B6050000 		.4byte	.LASF252
 2448 126b 1E       		.byte	0x1e
 2449 126c 3C02     		.2byte	0x23c
 2450 126e CF000000 		.4byte	0xcf
 2451 1272 18       		.byte	0x18
ARM GAS  C:\Users\14122\AppData\Local\Temp\cc2eSDGZ.s 			page 44


 2452 1273 00       		.byte	0
 2453 1274 19       		.uleb128 0x19
 2454 1275 0E0B0000 		.4byte	.LASF253
 2455 1279 1E       		.byte	0x1e
 2456 127a BF01     		.2byte	0x1bf
 2457 127c 80120000 		.4byte	0x1280
 2458 1280 0C       		.uleb128 0xc
 2459 1281 04       		.byte	0x4
 2460 1282 86120000 		.4byte	0x1286
 2461 1286 0E       		.uleb128 0xe
 2462 1287 91120000 		.4byte	0x1291
 2463 128b 0F       		.uleb128 0xf
 2464 128c 91120000 		.4byte	0x1291
 2465 1290 00       		.byte	0
 2466 1291 0C       		.uleb128 0xc
 2467 1292 04       		.byte	0x4
 2468 1293 E5110000 		.4byte	0x11e5
 2469 1297 19       		.uleb128 0x19
 2470 1298 A6090000 		.4byte	.LASF254
 2471 129c 1E       		.byte	0x1e
 2472 129d C701     		.2byte	0x1c7
 2473 129f A3120000 		.4byte	0x12a3
 2474 12a3 0C       		.uleb128 0xc
 2475 12a4 04       		.byte	0x4
 2476 12a5 A9120000 		.4byte	0x12a9
 2477 12a9 0E       		.uleb128 0xe
 2478 12aa B9120000 		.4byte	0x12b9
 2479 12ae 0F       		.uleb128 0xf
 2480 12af 91120000 		.4byte	0x1291
 2481 12b3 0F       		.uleb128 0xf
 2482 12b4 C4000000 		.4byte	0xc4
 2483 12b8 00       		.byte	0
 2484 12b9 19       		.uleb128 0x19
 2485 12ba 42050000 		.4byte	.LASF255
 2486 12be 1E       		.byte	0x1e
 2487 12bf CF01     		.2byte	0x1cf
 2488 12c1 C5120000 		.4byte	0x12c5
 2489 12c5 0C       		.uleb128 0xc
 2490 12c6 04       		.byte	0x4
 2491 12c7 CB120000 		.4byte	0x12cb
 2492 12cb 0E       		.uleb128 0xe
 2493 12cc DB120000 		.4byte	0x12db
 2494 12d0 0F       		.uleb128 0xf
 2495 12d1 91120000 		.4byte	0x1291
 2496 12d5 0F       		.uleb128 0xf
 2497 12d6 D9110000 		.4byte	0x11d9
 2498 12da 00       		.byte	0
 2499 12db 1A       		.uleb128 0x1a
 2500 12dc 20       		.byte	0x20
 2501 12dd 1E       		.byte	0x1e
 2502 12de D501     		.2byte	0x1d5
 2503 12e0 5A130000 		.4byte	0x135a
 2504 12e4 0B       		.uleb128 0xb
 2505 12e5 D7090000 		.4byte	.LASF256
 2506 12e9 1E       		.byte	0x1e
 2507 12ea D901     		.2byte	0x1d9
 2508 12ec 74120000 		.4byte	0x1274
ARM GAS  C:\Users\14122\AppData\Local\Temp\cc2eSDGZ.s 			page 45


 2509 12f0 00       		.byte	0
 2510 12f1 0B       		.uleb128 0xb
 2511 12f2 0B050000 		.4byte	.LASF257
 2512 12f6 1E       		.byte	0x1e
 2513 12f7 DD01     		.2byte	0x1dd
 2514 12f9 74120000 		.4byte	0x1274
 2515 12fd 04       		.byte	0x4
 2516 12fe 0B       		.uleb128 0xb
 2517 12ff 19010000 		.4byte	.LASF258
 2518 1303 1E       		.byte	0x1e
 2519 1304 E101     		.2byte	0x1e1
 2520 1306 74120000 		.4byte	0x1274
 2521 130a 08       		.byte	0x8
 2522 130b 0B       		.uleb128 0xb
 2523 130c E1030000 		.4byte	.LASF259
 2524 1310 1E       		.byte	0x1e
 2525 1311 E501     		.2byte	0x1e5
 2526 1313 97120000 		.4byte	0x1297
 2527 1317 0C       		.byte	0xc
 2528 1318 0B       		.uleb128 0xb
 2529 1319 82060000 		.4byte	.LASF260
 2530 131d 1E       		.byte	0x1e
 2531 131e E901     		.2byte	0x1e9
 2532 1320 B9120000 		.4byte	0x12b9
 2533 1324 10       		.byte	0x10
 2534 1325 0B       		.uleb128 0xb
 2535 1326 F9030000 		.4byte	.LASF261
 2536 132a 1E       		.byte	0x1e
 2537 132b EE01     		.2byte	0x1ee
 2538 132d E4000000 		.4byte	0xe4
 2539 1331 14       		.byte	0x14
 2540 1332 0A       		.uleb128 0xa
 2541 1333 63723100 		.ascii	"cr1\000"
 2542 1337 1E       		.byte	0x1e
 2543 1338 F201     		.2byte	0x1f2
 2544 133a C4000000 		.4byte	0xc4
 2545 133e 18       		.byte	0x18
 2546 133f 0A       		.uleb128 0xa
 2547 1340 63723200 		.ascii	"cr2\000"
 2548 1344 1E       		.byte	0x1e
 2549 1345 F601     		.2byte	0x1f6
 2550 1347 C4000000 		.4byte	0xc4
 2551 134b 1A       		.byte	0x1a
 2552 134c 0A       		.uleb128 0xa
 2553 134d 63723300 		.ascii	"cr3\000"
 2554 1351 1E       		.byte	0x1e
 2555 1352 FA01     		.2byte	0x1fa
 2556 1354 C4000000 		.4byte	0xc4
 2557 1358 1C       		.byte	0x1c
 2558 1359 00       		.byte	0
 2559 135a 19       		.uleb128 0x19
 2560 135b 8B040000 		.4byte	.LASF262
 2561 135f 1E       		.byte	0x1e
 2562 1360 FB01     		.2byte	0x1fb
 2563 1362 DB120000 		.4byte	0x12db
 2564 1366 05       		.uleb128 0x5
 2565 1367 5A130000 		.4byte	0x135a
ARM GAS  C:\Users\14122\AppData\Local\Temp\cc2eSDGZ.s 			page 46


 2566 136b 0C       		.uleb128 0xc
 2567 136c 04       		.byte	0x4
 2568 136d 66130000 		.4byte	0x1366
 2569 1371 0C       		.uleb128 0xc
 2570 1372 04       		.byte	0x4
 2571 1373 03080000 		.4byte	0x803
 2572 1377 0C       		.uleb128 0xc
 2573 1378 04       		.byte	0x4
 2574 1379 E10E0000 		.4byte	0xee1
 2575 137d 13       		.uleb128 0x13
 2576 137e 8F0B0000 		.4byte	.LASF263
 2577 1382 1E       		.byte	0x1e
 2578 1383 4C02     		.2byte	0x24c
 2579 1385 E5110000 		.4byte	0x11e5
 2580 1389 24       		.uleb128 0x24
 2581 138a CE060000 		.4byte	.LASF276
 2582 138e 01       		.byte	0x1
 2583 138f 78       		.byte	0x78
 2584 1390 4F040000 		.4byte	0x44f
 2585 1394 00000000 		.4byte	.LFB257
 2586 1398 0A000000 		.4byte	.LFE257-.LFB257
 2587 139c 01       		.uleb128 0x1
 2588 139d 9C       		.byte	0x9c
 2589 139e BB130000 		.4byte	0x13bb
 2590 13a2 25       		.uleb128 0x25
 2591 13a3 BA000000 		.4byte	.LASF264
 2592 13a7 CB130000 		.4byte	0x13cb
 2593 13ab 26       		.uleb128 0x26
 2594 13ac B3140000 		.4byte	0x14b3
 2595 13b0 00000000 		.4byte	.LBB16
 2596 13b4 06000000 		.4byte	.LBE16-.LBB16
 2597 13b8 01       		.byte	0x1
 2598 13b9 7C       		.byte	0x7c
 2599 13ba 00       		.byte	0
 2600 13bb 11       		.uleb128 0x11
 2601 13bc C80A0000 		.4byte	0xac8
 2602 13c0 CB130000 		.4byte	0x13cb
 2603 13c4 12       		.uleb128 0x12
 2604 13c5 37000000 		.4byte	0x37
 2605 13c9 0A       		.byte	0xa
 2606 13ca 00       		.byte	0
 2607 13cb 05       		.uleb128 0x5
 2608 13cc BB130000 		.4byte	0x13bb
 2609 13d0 27       		.uleb128 0x27
 2610 13d1 8B030000 		.4byte	.LASF265
 2611 13d5 01       		.byte	0x1
 2612 13d6 68       		.byte	0x68
 2613 13d7 00000000 		.4byte	.LFB256
 2614 13db 08000000 		.4byte	.LFE256-.LFB256
 2615 13df 01       		.uleb128 0x1
 2616 13e0 9C       		.byte	0x9c
 2617 13e1 15140000 		.4byte	0x1415
 2618 13e5 28       		.uleb128 0x28
 2619 13e6 AE050000 		.4byte	.LASF268
 2620 13ea 01       		.byte	0x1
 2621 13eb 68       		.byte	0x68
 2622 13ec 4F040000 		.4byte	0x44f
ARM GAS  C:\Users\14122\AppData\Local\Temp\cc2eSDGZ.s 			page 47


 2623 13f0 01       		.uleb128 0x1
 2624 13f1 50       		.byte	0x50
 2625 13f2 25       		.uleb128 0x25
 2626 13f3 BA000000 		.4byte	.LASF264
 2627 13f7 CB130000 		.4byte	0x13cb
 2628 13fb 29       		.uleb128 0x29
 2629 13fc BF140000 		.4byte	0x14bf
 2630 1400 00000000 		.4byte	.LBB14
 2631 1404 06000000 		.4byte	.LBE14-.LBB14
 2632 1408 01       		.byte	0x1
 2633 1409 6C       		.byte	0x6c
 2634 140a 2A       		.uleb128 0x2a
 2635 140b CB140000 		.4byte	0x14cb
 2636 140f 00000000 		.4byte	.LLST1
 2637 1413 00       		.byte	0
 2638 1414 00       		.byte	0
 2639 1415 27       		.uleb128 0x27
 2640 1416 BC080000 		.4byte	.LASF266
 2641 141a 01       		.byte	0x1
 2642 141b 5A       		.byte	0x5a
 2643 141c 00000000 		.4byte	.LFB255
 2644 1420 0A000000 		.4byte	.LFE255-.LFB255
 2645 1424 01       		.uleb128 0x1
 2646 1425 9C       		.byte	0x9c
 2647 1426 3A140000 		.4byte	0x143a
 2648 142a 26       		.uleb128 0x26
 2649 142b D7140000 		.4byte	0x14d7
 2650 142f 00000000 		.4byte	.LBB12
 2651 1433 08000000 		.4byte	.LBE12-.LBB12
 2652 1437 01       		.byte	0x1
 2653 1438 5C       		.byte	0x5c
 2654 1439 00       		.byte	0
 2655 143a 27       		.uleb128 0x27
 2656 143b E9070000 		.4byte	.LASF267
 2657 143f 01       		.byte	0x1
 2658 1440 4C       		.byte	0x4c
 2659 1441 00000000 		.4byte	.LFB254
 2660 1445 10000000 		.4byte	.LFE254-.LFB254
 2661 1449 01       		.uleb128 0x1
 2662 144a 9C       		.byte	0x9c
 2663 144b 7F140000 		.4byte	0x147f
 2664 144f 28       		.uleb128 0x28
 2665 1450 AE050000 		.4byte	.LASF268
 2666 1454 01       		.byte	0x1
 2667 1455 4C       		.byte	0x4c
 2668 1456 4F040000 		.4byte	0x44f
 2669 145a 01       		.uleb128 0x1
 2670 145b 50       		.byte	0x50
 2671 145c 25       		.uleb128 0x25
 2672 145d BA000000 		.4byte	.LASF264
 2673 1461 8F140000 		.4byte	0x148f
 2674 1465 29       		.uleb128 0x29
 2675 1466 DF140000 		.4byte	0x14df
 2676 146a 00000000 		.4byte	.LBB10
 2677 146e 0E000000 		.4byte	.LBE10-.LBB10
 2678 1472 01       		.byte	0x1
 2679 1473 50       		.byte	0x50
ARM GAS  C:\Users\14122\AppData\Local\Temp\cc2eSDGZ.s 			page 48


 2680 1474 2A       		.uleb128 0x2a
 2681 1475 EB140000 		.4byte	0x14eb
 2682 1479 13000000 		.4byte	.LLST0
 2683 147d 00       		.byte	0
 2684 147e 00       		.byte	0
 2685 147f 11       		.uleb128 0x11
 2686 1480 C80A0000 		.4byte	0xac8
 2687 1484 8F140000 		.4byte	0x148f
 2688 1488 12       		.uleb128 0x12
 2689 1489 37000000 		.4byte	0x37
 2690 148d 0C       		.byte	0xc
 2691 148e 00       		.byte	0
 2692 148f 05       		.uleb128 0x5
 2693 1490 7F140000 		.4byte	0x147f
 2694 1494 27       		.uleb128 0x27
 2695 1495 880B0000 		.4byte	.LASF269
 2696 1499 01       		.byte	0x1
 2697 149a 3C       		.byte	0x3c
 2698 149b 00000000 		.4byte	.LFB253
 2699 149f 04000000 		.4byte	.LFE253-.LFB253
 2700 14a3 01       		.uleb128 0x1
 2701 14a4 9C       		.byte	0x9c
 2702 14a5 B3140000 		.4byte	0x14b3
 2703 14a9 2B       		.uleb128 0x2b
 2704 14aa 04000000 		.4byte	.LVL0
 2705 14ae F7140000 		.4byte	0x14f7
 2706 14b2 00       		.byte	0
 2707 14b3 2C       		.uleb128 0x2c
 2708 14b4 61010000 		.4byte	.LASF277
 2709 14b8 02       		.byte	0x2
 2710 14b9 BD       		.byte	0xbd
 2711 14ba 4F040000 		.4byte	0x44f
 2712 14be 03       		.byte	0x3
 2713 14bf 2D       		.uleb128 0x2d
 2714 14c0 1D040000 		.4byte	.LASF270
 2715 14c4 02       		.byte	0x2
 2716 14c5 B1       		.byte	0xb1
 2717 14c6 03       		.byte	0x3
 2718 14c7 D7140000 		.4byte	0x14d7
 2719 14cb 2E       		.uleb128 0x2e
 2720 14cc BE090000 		.4byte	.LASF272
 2721 14d0 02       		.byte	0x2
 2722 14d1 B1       		.byte	0xb1
 2723 14d2 4F040000 		.4byte	0x44f
 2724 14d6 00       		.byte	0
 2725 14d7 2F       		.uleb128 0x2f
 2726 14d8 2E040000 		.4byte	.LASF278
 2727 14dc 02       		.byte	0x2
 2728 14dd A5       		.byte	0xa5
 2729 14de 03       		.byte	0x3
 2730 14df 2D       		.uleb128 0x2d
 2731 14e0 F1060000 		.4byte	.LASF271
 2732 14e4 02       		.byte	0x2
 2733 14e5 99       		.byte	0x99
 2734 14e6 03       		.byte	0x3
 2735 14e7 F7140000 		.4byte	0x14f7
 2736 14eb 2E       		.uleb128 0x2e
ARM GAS  C:\Users\14122\AppData\Local\Temp\cc2eSDGZ.s 			page 49


 2737 14ec BE090000 		.4byte	.LASF272
 2738 14f0 02       		.byte	0x2
 2739 14f1 99       		.byte	0x99
 2740 14f2 4F040000 		.4byte	0x44f
 2741 14f6 00       		.byte	0
 2742 14f7 30       		.uleb128 0x30
 2743 14f8 21030000 		.4byte	.LASF279
 2744 14fc 21030000 		.4byte	.LASF279
 2745 1500 02       		.byte	0x2
 2746 1501 7B       		.byte	0x7b
 2747 1502 00       		.byte	0
 2748              		.section	.debug_abbrev,"",%progbits
 2749              	.Ldebug_abbrev0:
 2750 0000 01       		.uleb128 0x1
 2751 0001 11       		.uleb128 0x11
 2752 0002 01       		.byte	0x1
 2753 0003 25       		.uleb128 0x25
 2754 0004 0E       		.uleb128 0xe
 2755 0005 13       		.uleb128 0x13
 2756 0006 0B       		.uleb128 0xb
 2757 0007 03       		.uleb128 0x3
 2758 0008 0E       		.uleb128 0xe
 2759 0009 1B       		.uleb128 0x1b
 2760 000a 0E       		.uleb128 0xe
 2761 000b 55       		.uleb128 0x55
 2762 000c 17       		.uleb128 0x17
 2763 000d 11       		.uleb128 0x11
 2764 000e 01       		.uleb128 0x1
 2765 000f 10       		.uleb128 0x10
 2766 0010 17       		.uleb128 0x17
 2767 0011 00       		.byte	0
 2768 0012 00       		.byte	0
 2769 0013 02       		.uleb128 0x2
 2770 0014 24       		.uleb128 0x24
 2771 0015 00       		.byte	0
 2772 0016 0B       		.uleb128 0xb
 2773 0017 0B       		.uleb128 0xb
 2774 0018 3E       		.uleb128 0x3e
 2775 0019 0B       		.uleb128 0xb
 2776 001a 03       		.uleb128 0x3
 2777 001b 08       		.uleb128 0x8
 2778 001c 00       		.byte	0
 2779 001d 00       		.byte	0
 2780 001e 03       		.uleb128 0x3
 2781 001f 16       		.uleb128 0x16
 2782 0020 00       		.byte	0
 2783 0021 03       		.uleb128 0x3
 2784 0022 0E       		.uleb128 0xe
 2785 0023 3A       		.uleb128 0x3a
 2786 0024 0B       		.uleb128 0xb
 2787 0025 3B       		.uleb128 0x3b
 2788 0026 0B       		.uleb128 0xb
 2789 0027 49       		.uleb128 0x49
 2790 0028 13       		.uleb128 0x13
 2791 0029 00       		.byte	0
 2792 002a 00       		.byte	0
 2793 002b 04       		.uleb128 0x4
ARM GAS  C:\Users\14122\AppData\Local\Temp\cc2eSDGZ.s 			page 50


 2794 002c 24       		.uleb128 0x24
 2795 002d 00       		.byte	0
 2796 002e 0B       		.uleb128 0xb
 2797 002f 0B       		.uleb128 0xb
 2798 0030 3E       		.uleb128 0x3e
 2799 0031 0B       		.uleb128 0xb
 2800 0032 03       		.uleb128 0x3
 2801 0033 0E       		.uleb128 0xe
 2802 0034 00       		.byte	0
 2803 0035 00       		.byte	0
 2804 0036 05       		.uleb128 0x5
 2805 0037 26       		.uleb128 0x26
 2806 0038 00       		.byte	0
 2807 0039 49       		.uleb128 0x49
 2808 003a 13       		.uleb128 0x13
 2809 003b 00       		.byte	0
 2810 003c 00       		.byte	0
 2811 003d 06       		.uleb128 0x6
 2812 003e 35       		.uleb128 0x35
 2813 003f 00       		.byte	0
 2814 0040 49       		.uleb128 0x49
 2815 0041 13       		.uleb128 0x13
 2816 0042 00       		.byte	0
 2817 0043 00       		.byte	0
 2818 0044 07       		.uleb128 0x7
 2819 0045 13       		.uleb128 0x13
 2820 0046 01       		.byte	0x1
 2821 0047 03       		.uleb128 0x3
 2822 0048 0E       		.uleb128 0xe
 2823 0049 0B       		.uleb128 0xb
 2824 004a 0B       		.uleb128 0xb
 2825 004b 3A       		.uleb128 0x3a
 2826 004c 0B       		.uleb128 0xb
 2827 004d 3B       		.uleb128 0x3b
 2828 004e 0B       		.uleb128 0xb
 2829 004f 01       		.uleb128 0x1
 2830 0050 13       		.uleb128 0x13
 2831 0051 00       		.byte	0
 2832 0052 00       		.byte	0
 2833 0053 08       		.uleb128 0x8
 2834 0054 0D       		.uleb128 0xd
 2835 0055 00       		.byte	0
 2836 0056 03       		.uleb128 0x3
 2837 0057 0E       		.uleb128 0xe
 2838 0058 3A       		.uleb128 0x3a
 2839 0059 0B       		.uleb128 0xb
 2840 005a 3B       		.uleb128 0x3b
 2841 005b 0B       		.uleb128 0xb
 2842 005c 49       		.uleb128 0x49
 2843 005d 13       		.uleb128 0x13
 2844 005e 38       		.uleb128 0x38
 2845 005f 0B       		.uleb128 0xb
 2846 0060 00       		.byte	0
 2847 0061 00       		.byte	0
 2848 0062 09       		.uleb128 0x9
 2849 0063 0D       		.uleb128 0xd
 2850 0064 00       		.byte	0
ARM GAS  C:\Users\14122\AppData\Local\Temp\cc2eSDGZ.s 			page 51


 2851 0065 03       		.uleb128 0x3
 2852 0066 08       		.uleb128 0x8
 2853 0067 3A       		.uleb128 0x3a
 2854 0068 0B       		.uleb128 0xb
 2855 0069 3B       		.uleb128 0x3b
 2856 006a 0B       		.uleb128 0xb
 2857 006b 49       		.uleb128 0x49
 2858 006c 13       		.uleb128 0x13
 2859 006d 38       		.uleb128 0x38
 2860 006e 0B       		.uleb128 0xb
 2861 006f 00       		.byte	0
 2862 0070 00       		.byte	0
 2863 0071 0A       		.uleb128 0xa
 2864 0072 0D       		.uleb128 0xd
 2865 0073 00       		.byte	0
 2866 0074 03       		.uleb128 0x3
 2867 0075 08       		.uleb128 0x8
 2868 0076 3A       		.uleb128 0x3a
 2869 0077 0B       		.uleb128 0xb
 2870 0078 3B       		.uleb128 0x3b
 2871 0079 05       		.uleb128 0x5
 2872 007a 49       		.uleb128 0x49
 2873 007b 13       		.uleb128 0x13
 2874 007c 38       		.uleb128 0x38
 2875 007d 0B       		.uleb128 0xb
 2876 007e 00       		.byte	0
 2877 007f 00       		.byte	0
 2878 0080 0B       		.uleb128 0xb
 2879 0081 0D       		.uleb128 0xd
 2880 0082 00       		.byte	0
 2881 0083 03       		.uleb128 0x3
 2882 0084 0E       		.uleb128 0xe
 2883 0085 3A       		.uleb128 0x3a
 2884 0086 0B       		.uleb128 0xb
 2885 0087 3B       		.uleb128 0x3b
 2886 0088 05       		.uleb128 0x5
 2887 0089 49       		.uleb128 0x49
 2888 008a 13       		.uleb128 0x13
 2889 008b 38       		.uleb128 0x38
 2890 008c 0B       		.uleb128 0xb
 2891 008d 00       		.byte	0
 2892 008e 00       		.byte	0
 2893 008f 0C       		.uleb128 0xc
 2894 0090 0F       		.uleb128 0xf
 2895 0091 00       		.byte	0
 2896 0092 0B       		.uleb128 0xb
 2897 0093 0B       		.uleb128 0xb
 2898 0094 49       		.uleb128 0x49
 2899 0095 13       		.uleb128 0x13
 2900 0096 00       		.byte	0
 2901 0097 00       		.byte	0
 2902 0098 0D       		.uleb128 0xd
 2903 0099 13       		.uleb128 0x13
 2904 009a 01       		.byte	0x1
 2905 009b 03       		.uleb128 0x3
 2906 009c 0E       		.uleb128 0xe
 2907 009d 0B       		.uleb128 0xb
ARM GAS  C:\Users\14122\AppData\Local\Temp\cc2eSDGZ.s 			page 52


 2908 009e 0B       		.uleb128 0xb
 2909 009f 3A       		.uleb128 0x3a
 2910 00a0 0B       		.uleb128 0xb
 2911 00a1 3B       		.uleb128 0x3b
 2912 00a2 05       		.uleb128 0x5
 2913 00a3 01       		.uleb128 0x1
 2914 00a4 13       		.uleb128 0x13
 2915 00a5 00       		.byte	0
 2916 00a6 00       		.byte	0
 2917 00a7 0E       		.uleb128 0xe
 2918 00a8 15       		.uleb128 0x15
 2919 00a9 01       		.byte	0x1
 2920 00aa 27       		.uleb128 0x27
 2921 00ab 19       		.uleb128 0x19
 2922 00ac 01       		.uleb128 0x1
 2923 00ad 13       		.uleb128 0x13
 2924 00ae 00       		.byte	0
 2925 00af 00       		.byte	0
 2926 00b0 0F       		.uleb128 0xf
 2927 00b1 05       		.uleb128 0x5
 2928 00b2 00       		.byte	0
 2929 00b3 49       		.uleb128 0x49
 2930 00b4 13       		.uleb128 0x13
 2931 00b5 00       		.byte	0
 2932 00b6 00       		.byte	0
 2933 00b7 10       		.uleb128 0x10
 2934 00b8 0F       		.uleb128 0xf
 2935 00b9 00       		.byte	0
 2936 00ba 0B       		.uleb128 0xb
 2937 00bb 0B       		.uleb128 0xb
 2938 00bc 00       		.byte	0
 2939 00bd 00       		.byte	0
 2940 00be 11       		.uleb128 0x11
 2941 00bf 01       		.uleb128 0x1
 2942 00c0 01       		.byte	0x1
 2943 00c1 49       		.uleb128 0x49
 2944 00c2 13       		.uleb128 0x13
 2945 00c3 01       		.uleb128 0x1
 2946 00c4 13       		.uleb128 0x13
 2947 00c5 00       		.byte	0
 2948 00c6 00       		.byte	0
 2949 00c7 12       		.uleb128 0x12
 2950 00c8 21       		.uleb128 0x21
 2951 00c9 00       		.byte	0
 2952 00ca 49       		.uleb128 0x49
 2953 00cb 13       		.uleb128 0x13
 2954 00cc 2F       		.uleb128 0x2f
 2955 00cd 0B       		.uleb128 0xb
 2956 00ce 00       		.byte	0
 2957 00cf 00       		.byte	0
 2958 00d0 13       		.uleb128 0x13
 2959 00d1 34       		.uleb128 0x34
 2960 00d2 00       		.byte	0
 2961 00d3 03       		.uleb128 0x3
 2962 00d4 0E       		.uleb128 0xe
 2963 00d5 3A       		.uleb128 0x3a
 2964 00d6 0B       		.uleb128 0xb
ARM GAS  C:\Users\14122\AppData\Local\Temp\cc2eSDGZ.s 			page 53


 2965 00d7 3B       		.uleb128 0x3b
 2966 00d8 05       		.uleb128 0x5
 2967 00d9 49       		.uleb128 0x49
 2968 00da 13       		.uleb128 0x13
 2969 00db 3F       		.uleb128 0x3f
 2970 00dc 19       		.uleb128 0x19
 2971 00dd 3C       		.uleb128 0x3c
 2972 00de 19       		.uleb128 0x19
 2973 00df 00       		.byte	0
 2974 00e0 00       		.byte	0
 2975 00e1 14       		.uleb128 0x14
 2976 00e2 34       		.uleb128 0x34
 2977 00e3 00       		.byte	0
 2978 00e4 03       		.uleb128 0x3
 2979 00e5 0E       		.uleb128 0xe
 2980 00e6 3A       		.uleb128 0x3a
 2981 00e7 0B       		.uleb128 0xb
 2982 00e8 3B       		.uleb128 0x3b
 2983 00e9 0B       		.uleb128 0xb
 2984 00ea 49       		.uleb128 0x49
 2985 00eb 13       		.uleb128 0x13
 2986 00ec 3F       		.uleb128 0x3f
 2987 00ed 19       		.uleb128 0x19
 2988 00ee 3C       		.uleb128 0x3c
 2989 00ef 19       		.uleb128 0x19
 2990 00f0 00       		.byte	0
 2991 00f1 00       		.byte	0
 2992 00f2 15       		.uleb128 0x15
 2993 00f3 13       		.uleb128 0x13
 2994 00f4 01       		.byte	0x1
 2995 00f5 0B       		.uleb128 0xb
 2996 00f6 0B       		.uleb128 0xb
 2997 00f7 3A       		.uleb128 0x3a
 2998 00f8 0B       		.uleb128 0xb
 2999 00f9 3B       		.uleb128 0x3b
 3000 00fa 0B       		.uleb128 0xb
 3001 00fb 01       		.uleb128 0x1
 3002 00fc 13       		.uleb128 0x13
 3003 00fd 00       		.byte	0
 3004 00fe 00       		.byte	0
 3005 00ff 16       		.uleb128 0x16
 3006 0100 13       		.uleb128 0x13
 3007 0101 01       		.byte	0x1
 3008 0102 0B       		.uleb128 0xb
 3009 0103 05       		.uleb128 0x5
 3010 0104 3A       		.uleb128 0x3a
 3011 0105 0B       		.uleb128 0xb
 3012 0106 3B       		.uleb128 0x3b
 3013 0107 0B       		.uleb128 0xb
 3014 0108 01       		.uleb128 0x1
 3015 0109 13       		.uleb128 0x13
 3016 010a 00       		.byte	0
 3017 010b 00       		.byte	0
 3018 010c 17       		.uleb128 0x17
 3019 010d 0D       		.uleb128 0xd
 3020 010e 00       		.byte	0
 3021 010f 03       		.uleb128 0x3
ARM GAS  C:\Users\14122\AppData\Local\Temp\cc2eSDGZ.s 			page 54


 3022 0110 0E       		.uleb128 0xe
 3023 0111 3A       		.uleb128 0x3a
 3024 0112 0B       		.uleb128 0xb
 3025 0113 3B       		.uleb128 0x3b
 3026 0114 05       		.uleb128 0x5
 3027 0115 49       		.uleb128 0x49
 3028 0116 13       		.uleb128 0x13
 3029 0117 38       		.uleb128 0x38
 3030 0118 05       		.uleb128 0x5
 3031 0119 00       		.byte	0
 3032 011a 00       		.byte	0
 3033 011b 18       		.uleb128 0x18
 3034 011c 0D       		.uleb128 0xd
 3035 011d 00       		.byte	0
 3036 011e 03       		.uleb128 0x3
 3037 011f 08       		.uleb128 0x8
 3038 0120 3A       		.uleb128 0x3a
 3039 0121 0B       		.uleb128 0xb
 3040 0122 3B       		.uleb128 0x3b
 3041 0123 05       		.uleb128 0x5
 3042 0124 49       		.uleb128 0x49
 3043 0125 13       		.uleb128 0x13
 3044 0126 38       		.uleb128 0x38
 3045 0127 05       		.uleb128 0x5
 3046 0128 00       		.byte	0
 3047 0129 00       		.byte	0
 3048 012a 19       		.uleb128 0x19
 3049 012b 16       		.uleb128 0x16
 3050 012c 00       		.byte	0
 3051 012d 03       		.uleb128 0x3
 3052 012e 0E       		.uleb128 0xe
 3053 012f 3A       		.uleb128 0x3a
 3054 0130 0B       		.uleb128 0xb
 3055 0131 3B       		.uleb128 0x3b
 3056 0132 05       		.uleb128 0x5
 3057 0133 49       		.uleb128 0x49
 3058 0134 13       		.uleb128 0x13
 3059 0135 00       		.byte	0
 3060 0136 00       		.byte	0
 3061 0137 1A       		.uleb128 0x1a
 3062 0138 13       		.uleb128 0x13
 3063 0139 01       		.byte	0x1
 3064 013a 0B       		.uleb128 0xb
 3065 013b 0B       		.uleb128 0xb
 3066 013c 3A       		.uleb128 0x3a
 3067 013d 0B       		.uleb128 0xb
 3068 013e 3B       		.uleb128 0x3b
 3069 013f 05       		.uleb128 0x5
 3070 0140 01       		.uleb128 0x1
 3071 0141 13       		.uleb128 0x13
 3072 0142 00       		.byte	0
 3073 0143 00       		.byte	0
 3074 0144 1B       		.uleb128 0x1b
 3075 0145 17       		.uleb128 0x17
 3076 0146 01       		.byte	0x1
 3077 0147 0B       		.uleb128 0xb
 3078 0148 0B       		.uleb128 0xb
ARM GAS  C:\Users\14122\AppData\Local\Temp\cc2eSDGZ.s 			page 55


 3079 0149 3A       		.uleb128 0x3a
 3080 014a 0B       		.uleb128 0xb
 3081 014b 3B       		.uleb128 0x3b
 3082 014c 0B       		.uleb128 0xb
 3083 014d 01       		.uleb128 0x1
 3084 014e 13       		.uleb128 0x13
 3085 014f 00       		.byte	0
 3086 0150 00       		.byte	0
 3087 0151 1C       		.uleb128 0x1c
 3088 0152 0D       		.uleb128 0xd
 3089 0153 00       		.byte	0
 3090 0154 03       		.uleb128 0x3
 3091 0155 0E       		.uleb128 0xe
 3092 0156 3A       		.uleb128 0x3a
 3093 0157 0B       		.uleb128 0xb
 3094 0158 3B       		.uleb128 0x3b
 3095 0159 0B       		.uleb128 0xb
 3096 015a 49       		.uleb128 0x49
 3097 015b 13       		.uleb128 0x13
 3098 015c 00       		.byte	0
 3099 015d 00       		.byte	0
 3100 015e 1D       		.uleb128 0x1d
 3101 015f 0D       		.uleb128 0xd
 3102 0160 00       		.byte	0
 3103 0161 03       		.uleb128 0x3
 3104 0162 0E       		.uleb128 0xe
 3105 0163 3A       		.uleb128 0x3a
 3106 0164 0B       		.uleb128 0xb
 3107 0165 3B       		.uleb128 0x3b
 3108 0166 05       		.uleb128 0x5
 3109 0167 49       		.uleb128 0x49
 3110 0168 13       		.uleb128 0x13
 3111 0169 00       		.byte	0
 3112 016a 00       		.byte	0
 3113 016b 1E       		.uleb128 0x1e
 3114 016c 34       		.uleb128 0x34
 3115 016d 00       		.byte	0
 3116 016e 03       		.uleb128 0x3
 3117 016f 08       		.uleb128 0x8
 3118 0170 3A       		.uleb128 0x3a
 3119 0171 0B       		.uleb128 0xb
 3120 0172 3B       		.uleb128 0x3b
 3121 0173 05       		.uleb128 0x5
 3122 0174 49       		.uleb128 0x49
 3123 0175 13       		.uleb128 0x13
 3124 0176 3F       		.uleb128 0x3f
 3125 0177 19       		.uleb128 0x19
 3126 0178 3C       		.uleb128 0x3c
 3127 0179 19       		.uleb128 0x19
 3128 017a 00       		.byte	0
 3129 017b 00       		.byte	0
 3130 017c 1F       		.uleb128 0x1f
 3131 017d 21       		.uleb128 0x21
 3132 017e 00       		.byte	0
 3133 017f 00       		.byte	0
 3134 0180 00       		.byte	0
 3135 0181 20       		.uleb128 0x20
ARM GAS  C:\Users\14122\AppData\Local\Temp\cc2eSDGZ.s 			page 56


 3136 0182 15       		.uleb128 0x15
 3137 0183 01       		.byte	0x1
 3138 0184 27       		.uleb128 0x27
 3139 0185 19       		.uleb128 0x19
 3140 0186 49       		.uleb128 0x49
 3141 0187 13       		.uleb128 0x13
 3142 0188 01       		.uleb128 0x1
 3143 0189 13       		.uleb128 0x13
 3144 018a 00       		.byte	0
 3145 018b 00       		.byte	0
 3146 018c 21       		.uleb128 0x21
 3147 018d 13       		.uleb128 0x13
 3148 018e 00       		.byte	0
 3149 018f 0B       		.uleb128 0xb
 3150 0190 0B       		.uleb128 0xb
 3151 0191 3A       		.uleb128 0x3a
 3152 0192 0B       		.uleb128 0xb
 3153 0193 3B       		.uleb128 0x3b
 3154 0194 0B       		.uleb128 0xb
 3155 0195 00       		.byte	0
 3156 0196 00       		.byte	0
 3157 0197 22       		.uleb128 0x22
 3158 0198 04       		.uleb128 0x4
 3159 0199 01       		.byte	0x1
 3160 019a 3E       		.uleb128 0x3e
 3161 019b 0B       		.uleb128 0xb
 3162 019c 0B       		.uleb128 0xb
 3163 019d 0B       		.uleb128 0xb
 3164 019e 49       		.uleb128 0x49
 3165 019f 13       		.uleb128 0x13
 3166 01a0 3A       		.uleb128 0x3a
 3167 01a1 0B       		.uleb128 0xb
 3168 01a2 3B       		.uleb128 0x3b
 3169 01a3 0B       		.uleb128 0xb
 3170 01a4 01       		.uleb128 0x1
 3171 01a5 13       		.uleb128 0x13
 3172 01a6 00       		.byte	0
 3173 01a7 00       		.byte	0
 3174 01a8 23       		.uleb128 0x23
 3175 01a9 28       		.uleb128 0x28
 3176 01aa 00       		.byte	0
 3177 01ab 03       		.uleb128 0x3
 3178 01ac 0E       		.uleb128 0xe
 3179 01ad 1C       		.uleb128 0x1c
 3180 01ae 0B       		.uleb128 0xb
 3181 01af 00       		.byte	0
 3182 01b0 00       		.byte	0
 3183 01b1 24       		.uleb128 0x24
 3184 01b2 2E       		.uleb128 0x2e
 3185 01b3 01       		.byte	0x1
 3186 01b4 3F       		.uleb128 0x3f
 3187 01b5 19       		.uleb128 0x19
 3188 01b6 03       		.uleb128 0x3
 3189 01b7 0E       		.uleb128 0xe
 3190 01b8 3A       		.uleb128 0x3a
 3191 01b9 0B       		.uleb128 0xb
 3192 01ba 3B       		.uleb128 0x3b
ARM GAS  C:\Users\14122\AppData\Local\Temp\cc2eSDGZ.s 			page 57


 3193 01bb 0B       		.uleb128 0xb
 3194 01bc 27       		.uleb128 0x27
 3195 01bd 19       		.uleb128 0x19
 3196 01be 49       		.uleb128 0x49
 3197 01bf 13       		.uleb128 0x13
 3198 01c0 11       		.uleb128 0x11
 3199 01c1 01       		.uleb128 0x1
 3200 01c2 12       		.uleb128 0x12
 3201 01c3 06       		.uleb128 0x6
 3202 01c4 40       		.uleb128 0x40
 3203 01c5 18       		.uleb128 0x18
 3204 01c6 9742     		.uleb128 0x2117
 3205 01c8 19       		.uleb128 0x19
 3206 01c9 01       		.uleb128 0x1
 3207 01ca 13       		.uleb128 0x13
 3208 01cb 00       		.byte	0
 3209 01cc 00       		.byte	0
 3210 01cd 25       		.uleb128 0x25
 3211 01ce 34       		.uleb128 0x34
 3212 01cf 00       		.byte	0
 3213 01d0 03       		.uleb128 0x3
 3214 01d1 0E       		.uleb128 0xe
 3215 01d2 49       		.uleb128 0x49
 3216 01d3 13       		.uleb128 0x13
 3217 01d4 34       		.uleb128 0x34
 3218 01d5 19       		.uleb128 0x19
 3219 01d6 00       		.byte	0
 3220 01d7 00       		.byte	0
 3221 01d8 26       		.uleb128 0x26
 3222 01d9 1D       		.uleb128 0x1d
 3223 01da 00       		.byte	0
 3224 01db 31       		.uleb128 0x31
 3225 01dc 13       		.uleb128 0x13
 3226 01dd 11       		.uleb128 0x11
 3227 01de 01       		.uleb128 0x1
 3228 01df 12       		.uleb128 0x12
 3229 01e0 06       		.uleb128 0x6
 3230 01e1 58       		.uleb128 0x58
 3231 01e2 0B       		.uleb128 0xb
 3232 01e3 59       		.uleb128 0x59
 3233 01e4 0B       		.uleb128 0xb
 3234 01e5 00       		.byte	0
 3235 01e6 00       		.byte	0
 3236 01e7 27       		.uleb128 0x27
 3237 01e8 2E       		.uleb128 0x2e
 3238 01e9 01       		.byte	0x1
 3239 01ea 3F       		.uleb128 0x3f
 3240 01eb 19       		.uleb128 0x19
 3241 01ec 03       		.uleb128 0x3
 3242 01ed 0E       		.uleb128 0xe
 3243 01ee 3A       		.uleb128 0x3a
 3244 01ef 0B       		.uleb128 0xb
 3245 01f0 3B       		.uleb128 0x3b
 3246 01f1 0B       		.uleb128 0xb
 3247 01f2 27       		.uleb128 0x27
 3248 01f3 19       		.uleb128 0x19
 3249 01f4 11       		.uleb128 0x11
ARM GAS  C:\Users\14122\AppData\Local\Temp\cc2eSDGZ.s 			page 58


 3250 01f5 01       		.uleb128 0x1
 3251 01f6 12       		.uleb128 0x12
 3252 01f7 06       		.uleb128 0x6
 3253 01f8 40       		.uleb128 0x40
 3254 01f9 18       		.uleb128 0x18
 3255 01fa 9742     		.uleb128 0x2117
 3256 01fc 19       		.uleb128 0x19
 3257 01fd 01       		.uleb128 0x1
 3258 01fe 13       		.uleb128 0x13
 3259 01ff 00       		.byte	0
 3260 0200 00       		.byte	0
 3261 0201 28       		.uleb128 0x28
 3262 0202 05       		.uleb128 0x5
 3263 0203 00       		.byte	0
 3264 0204 03       		.uleb128 0x3
 3265 0205 0E       		.uleb128 0xe
 3266 0206 3A       		.uleb128 0x3a
 3267 0207 0B       		.uleb128 0xb
 3268 0208 3B       		.uleb128 0x3b
 3269 0209 0B       		.uleb128 0xb
 3270 020a 49       		.uleb128 0x49
 3271 020b 13       		.uleb128 0x13
 3272 020c 02       		.uleb128 0x2
 3273 020d 18       		.uleb128 0x18
 3274 020e 00       		.byte	0
 3275 020f 00       		.byte	0
 3276 0210 29       		.uleb128 0x29
 3277 0211 1D       		.uleb128 0x1d
 3278 0212 01       		.byte	0x1
 3279 0213 31       		.uleb128 0x31
 3280 0214 13       		.uleb128 0x13
 3281 0215 11       		.uleb128 0x11
 3282 0216 01       		.uleb128 0x1
 3283 0217 12       		.uleb128 0x12
 3284 0218 06       		.uleb128 0x6
 3285 0219 58       		.uleb128 0x58
 3286 021a 0B       		.uleb128 0xb
 3287 021b 59       		.uleb128 0x59
 3288 021c 0B       		.uleb128 0xb
 3289 021d 00       		.byte	0
 3290 021e 00       		.byte	0
 3291 021f 2A       		.uleb128 0x2a
 3292 0220 05       		.uleb128 0x5
 3293 0221 00       		.byte	0
 3294 0222 31       		.uleb128 0x31
 3295 0223 13       		.uleb128 0x13
 3296 0224 02       		.uleb128 0x2
 3297 0225 17       		.uleb128 0x17
 3298 0226 00       		.byte	0
 3299 0227 00       		.byte	0
 3300 0228 2B       		.uleb128 0x2b
 3301 0229 898201   		.uleb128 0x4109
 3302 022c 00       		.byte	0
 3303 022d 11       		.uleb128 0x11
 3304 022e 01       		.uleb128 0x1
 3305 022f 9542     		.uleb128 0x2115
 3306 0231 19       		.uleb128 0x19
ARM GAS  C:\Users\14122\AppData\Local\Temp\cc2eSDGZ.s 			page 59


 3307 0232 31       		.uleb128 0x31
 3308 0233 13       		.uleb128 0x13
 3309 0234 00       		.byte	0
 3310 0235 00       		.byte	0
 3311 0236 2C       		.uleb128 0x2c
 3312 0237 2E       		.uleb128 0x2e
 3313 0238 00       		.byte	0
 3314 0239 03       		.uleb128 0x3
 3315 023a 0E       		.uleb128 0xe
 3316 023b 3A       		.uleb128 0x3a
 3317 023c 0B       		.uleb128 0xb
 3318 023d 3B       		.uleb128 0x3b
 3319 023e 0B       		.uleb128 0xb
 3320 023f 27       		.uleb128 0x27
 3321 0240 19       		.uleb128 0x19
 3322 0241 49       		.uleb128 0x49
 3323 0242 13       		.uleb128 0x13
 3324 0243 20       		.uleb128 0x20
 3325 0244 0B       		.uleb128 0xb
 3326 0245 00       		.byte	0
 3327 0246 00       		.byte	0
 3328 0247 2D       		.uleb128 0x2d
 3329 0248 2E       		.uleb128 0x2e
 3330 0249 01       		.byte	0x1
 3331 024a 03       		.uleb128 0x3
 3332 024b 0E       		.uleb128 0xe
 3333 024c 3A       		.uleb128 0x3a
 3334 024d 0B       		.uleb128 0xb
 3335 024e 3B       		.uleb128 0x3b
 3336 024f 0B       		.uleb128 0xb
 3337 0250 27       		.uleb128 0x27
 3338 0251 19       		.uleb128 0x19
 3339 0252 20       		.uleb128 0x20
 3340 0253 0B       		.uleb128 0xb
 3341 0254 01       		.uleb128 0x1
 3342 0255 13       		.uleb128 0x13
 3343 0256 00       		.byte	0
 3344 0257 00       		.byte	0
 3345 0258 2E       		.uleb128 0x2e
 3346 0259 05       		.uleb128 0x5
 3347 025a 00       		.byte	0
 3348 025b 03       		.uleb128 0x3
 3349 025c 0E       		.uleb128 0xe
 3350 025d 3A       		.uleb128 0x3a
 3351 025e 0B       		.uleb128 0xb
 3352 025f 3B       		.uleb128 0x3b
 3353 0260 0B       		.uleb128 0xb
 3354 0261 49       		.uleb128 0x49
 3355 0262 13       		.uleb128 0x13
 3356 0263 00       		.byte	0
 3357 0264 00       		.byte	0
 3358 0265 2F       		.uleb128 0x2f
 3359 0266 2E       		.uleb128 0x2e
 3360 0267 00       		.byte	0
 3361 0268 03       		.uleb128 0x3
 3362 0269 0E       		.uleb128 0xe
 3363 026a 3A       		.uleb128 0x3a
ARM GAS  C:\Users\14122\AppData\Local\Temp\cc2eSDGZ.s 			page 60


 3364 026b 0B       		.uleb128 0xb
 3365 026c 3B       		.uleb128 0x3b
 3366 026d 0B       		.uleb128 0xb
 3367 026e 27       		.uleb128 0x27
 3368 026f 19       		.uleb128 0x19
 3369 0270 20       		.uleb128 0x20
 3370 0271 0B       		.uleb128 0xb
 3371 0272 00       		.byte	0
 3372 0273 00       		.byte	0
 3373 0274 30       		.uleb128 0x30
 3374 0275 2E       		.uleb128 0x2e
 3375 0276 00       		.byte	0
 3376 0277 3F       		.uleb128 0x3f
 3377 0278 19       		.uleb128 0x19
 3378 0279 3C       		.uleb128 0x3c
 3379 027a 19       		.uleb128 0x19
 3380 027b 6E       		.uleb128 0x6e
 3381 027c 0E       		.uleb128 0xe
 3382 027d 03       		.uleb128 0x3
 3383 027e 0E       		.uleb128 0xe
 3384 027f 3A       		.uleb128 0x3a
 3385 0280 0B       		.uleb128 0xb
 3386 0281 3B       		.uleb128 0x3b
 3387 0282 0B       		.uleb128 0xb
 3388 0283 00       		.byte	0
 3389 0284 00       		.byte	0
 3390 0285 00       		.byte	0
 3391              		.section	.debug_loc,"",%progbits
 3392              	.Ldebug_loc0:
 3393              	.LLST1:
 3394 0000 00000000 		.4byte	.LVL3
 3395 0004 06000000 		.4byte	.LVL4
 3396 0008 0100     		.2byte	0x1
 3397 000a 50       		.byte	0x50
 3398 000b 00000000 		.4byte	0
 3399 000f 00000000 		.4byte	0
 3400              	.LLST0:
 3401 0013 00000000 		.4byte	.LVL1
 3402 0017 0E000000 		.4byte	.LVL2
 3403 001b 0100     		.2byte	0x1
 3404 001d 50       		.byte	0x50
 3405 001e 00000000 		.4byte	0
 3406 0022 00000000 		.4byte	0
 3407              		.section	.debug_aranges,"",%progbits
 3408 0000 3C000000 		.4byte	0x3c
 3409 0004 0200     		.2byte	0x2
 3410 0006 00000000 		.4byte	.Ldebug_info0
 3411 000a 04       		.byte	0x4
 3412 000b 00       		.byte	0
 3413 000c 0000     		.2byte	0
 3414 000e 0000     		.2byte	0
 3415 0010 00000000 		.4byte	.LFB253
 3416 0014 04000000 		.4byte	.LFE253-.LFB253
 3417 0018 00000000 		.4byte	.LFB254
 3418 001c 10000000 		.4byte	.LFE254-.LFB254
 3419 0020 00000000 		.4byte	.LFB255
 3420 0024 0A000000 		.4byte	.LFE255-.LFB255
ARM GAS  C:\Users\14122\AppData\Local\Temp\cc2eSDGZ.s 			page 61


 3421 0028 00000000 		.4byte	.LFB256
 3422 002c 08000000 		.4byte	.LFE256-.LFB256
 3423 0030 00000000 		.4byte	.LFB257
 3424 0034 0A000000 		.4byte	.LFE257-.LFB257
 3425 0038 00000000 		.4byte	0
 3426 003c 00000000 		.4byte	0
 3427              		.section	.debug_ranges,"",%progbits
 3428              	.Ldebug_ranges0:
 3429 0000 00000000 		.4byte	.LFB253
 3430 0004 04000000 		.4byte	.LFE253
 3431 0008 00000000 		.4byte	.LFB254
 3432 000c 10000000 		.4byte	.LFE254
 3433 0010 00000000 		.4byte	.LFB255
 3434 0014 0A000000 		.4byte	.LFE255
 3435 0018 00000000 		.4byte	.LFB256
 3436 001c 08000000 		.4byte	.LFE256
 3437 0020 00000000 		.4byte	.LFB257
 3438 0024 0A000000 		.4byte	.LFE257
 3439 0028 00000000 		.4byte	0
 3440 002c 00000000 		.4byte	0
 3441              		.section	.debug_line,"",%progbits
 3442              	.Ldebug_line0:
 3443 0000 C3040000 		.section	.debug_str,"MS",%progbits,1
 3443      02003804 
 3443      00000201 
 3443      FB0E0D00 
 3443      01010101 
 3444              	.LASF147:
 3445 0000 6F66665F 		.ascii	"off_ctx\000"
 3445      63747800 
 3446              	.LASF198:
 3447 0008 73746D33 		.ascii	"stm32_dma_stream_t\000"
 3447      325F646D 
 3447      615F7374 
 3447      7265616D 
 3447      5F7400
 3448              	.LASF4:
 3449 001b 73697A65 		.ascii	"size_t\000"
 3449      5F7400
 3450              	.LASF146:
 3451 0022 6F66665F 		.ascii	"off_prio\000"
 3451      7072696F 
 3451      00
 3452              	.LASF170:
 3453 002b 656E646D 		.ascii	"endmem\000"
 3453      656D00
 3454              	.LASF131:
 3455 0032 77747365 		.ascii	"wtsemp\000"
 3455      6D7000
 3456              	.LASF73:
 3457 0039 73797374 		.ascii	"systime_t\000"
 3457      696D655F 
 3457      7400
 3458              	.LASF155:
 3459 0043 6F66665F 		.ascii	"off_preempt\000"
 3459      70726565 
 3459      6D707400 
ARM GAS  C:\Users\14122\AppData\Local\Temp\cc2eSDGZ.s 			page 62


 3460              	.LASF136:
 3461 004f 6F776E65 		.ascii	"owner\000"
 3461      7200
 3462              	.LASF24:
 3463 0055 74707269 		.ascii	"tprio_t\000"
 3463      6F5F7400 
 3464              	.LASF158:
 3465 005d 63685F64 		.ascii	"ch_debug\000"
 3465      65627567 
 3465      00
 3466              	.LASF176:
 3467 0066 70726F76 		.ascii	"provider\000"
 3467      69646572 
 3467      00
 3468              	.LASF274:
 3469 006f 2E2F2F6F 		.ascii	".//os/hal/src/hal_st.c\000"
 3469      732F6861 
 3469      6C2F7372 
 3469      632F6861 
 3469      6C5F7374 
 3470              	.LASF18:
 3471 0086 696E7433 		.ascii	"int32_t\000"
 3471      325F7400 
 3472              	.LASF57:
 3473 008e 76746675 		.ascii	"vtfunc_t\000"
 3473      6E635F74 
 3473      00
 3474              	.LASF228:
 3475 0097 736C6565 		.ascii	"sleep_event\000"
 3475      705F6576 
 3475      656E7400 
 3476              	.LASF63:
 3477 00a3 63685F76 		.ascii	"ch_virtual_timers_list\000"
 3477      69727475 
 3477      616C5F74 
 3477      696D6572 
 3477      735F6C69 
 3478              	.LASF264:
 3479 00ba 5F5F6675 		.ascii	"__func__\000"
 3479      6E635F5F 
 3479      00
 3480              	.LASF233:
 3481 00c3 55415254 		.ascii	"UART_STOP\000"
 3481      5F53544F 
 3481      5000
 3482              	.LASF178:
 3483 00cd 63685F64 		.ascii	"ch_dyn_element\000"
 3483      796E5F65 
 3483      6C656D65 
 3483      6E7400
 3484              	.LASF229:
 3485 00dc 77616B65 		.ascii	"wakeup_event\000"
 3485      75705F65 
 3485      76656E74 
 3485      00
 3486              	.LASF222:
 3487 00e9 636F6E66 		.ascii	"config\000"
ARM GAS  C:\Users\14122\AppData\Local\Temp\cc2eSDGZ.s 			page 63


 3487      696700
 3488              	.LASF37:
 3489 00f0 73746174 		.ascii	"state\000"
 3489      6500
 3490              	.LASF211:
 3491 00f6 50454461 		.ascii	"PEData\000"
 3491      746100
 3492              	.LASF247:
 3493 00fd 72787374 		.ascii	"rxstate\000"
 3493      61746500 
 3494              	.LASF104:
 3495 0105 434E4454 		.ascii	"CNDTR\000"
 3495      5200
 3496              	.LASF183:
 3497 010b 6F626A5F 		.ascii	"obj_list\000"
 3497      6C697374 
 3497      00
 3498              	.LASF122:
 3499 0114 444D4152 		.ascii	"DMAR\000"
 3499      00
 3500              	.LASF258:
 3501 0119 7278656E 		.ascii	"rxend_cb\000"
 3501      645F6362 
 3501      00
 3502              	.LASF149:
 3503 0122 6F66665F 		.ascii	"off_older\000"
 3503      6F6C6465 
 3503      7200
 3504              	.LASF32:
 3505 012c 7072696F 		.ascii	"prio\000"
 3505      00
 3506              	.LASF206:
 3507 0131 73746D33 		.ascii	"stm32_gpio_setup_t\000"
 3507      325F6770 
 3507      696F5F73 
 3507      65747570 
 3507      5F7400
 3508              	.LASF127:
 3509 0144 65786974 		.ascii	"exitcode\000"
 3509      636F6465 
 3509      00
 3510              	.LASF5:
 3511 014d 5F5F7569 		.ascii	"__uint8_t\000"
 3511      6E74385F 
 3511      7400
 3512              	.LASF221:
 3513 0157 43414E44 		.ascii	"CANDriver\000"
 3513      72697665 
 3513      7200
 3514              	.LASF277:
 3515 0161 73745F6C 		.ascii	"st_lld_get_alarm\000"
 3515      6C645F67 
 3515      65745F61 
 3515      6C61726D 
 3515      00
 3516              	.LASF237:
 3517 0172 55415254 		.ascii	"UART_TX_ACTIVE\000"
ARM GAS  C:\Users\14122\AppData\Local\Temp\cc2eSDGZ.s 			page 64


 3517      5F54585F 
 3517      41435449 
 3517      564500
 3518              	.LASF245:
 3519 0181 55415254 		.ascii	"UARTDriver\000"
 3519      44726976 
 3519      657200
 3520              	.LASF11:
 3521 018c 6C6F6E67 		.ascii	"long int\000"
 3521      20696E74 
 3521      00
 3522              	.LASF140:
 3523 0195 7A65726F 		.ascii	"zero\000"
 3523      00
 3524              	.LASF100:
 3525 019a 46413152 		.ascii	"FA1R\000"
 3525      00
 3526              	.LASF22:
 3527 019f 74737461 		.ascii	"tstate_t\000"
 3527      74655F74 
 3527      00
 3528              	.LASF42:
 3529 01a8 6570656E 		.ascii	"epending\000"
 3529      64696E67 
 3529      00
 3530              	.LASF51:
 3531 01b1 74687265 		.ascii	"threads_queue_t\000"
 3531      6164735F 
 3531      71756575 
 3531      655F7400 
 3532              	.LASF112:
 3533 01c1 72656761 		.ascii	"regarm_t\000"
 3533      726D5F74 
 3533      00
 3534              	.LASF246:
 3535 01ca 74787374 		.ascii	"txstate\000"
 3535      61746500 
 3536              	.LASF184:
 3537 01d2 6F626A5F 		.ascii	"obj_pool\000"
 3537      706F6F6C 
 3537      00
 3538              	.LASF239:
 3539 01db 75617274 		.ascii	"uarttxstate_t\000"
 3539      74787374 
 3539      6174655F 
 3539      7400
 3540              	.LASF105:
 3541 01e9 43504152 		.ascii	"CPAR\000"
 3541      00
 3542              	.LASF248:
 3543 01ee 75736172 		.ascii	"usart\000"
 3543      7400
 3544              	.LASF213:
 3545 01f4 70616C5F 		.ascii	"pal_default_config\000"
 3545      64656661 
 3545      756C745F 
 3545      636F6E66 
ARM GAS  C:\Users\14122\AppData\Local\Temp\cc2eSDGZ.s 			page 65


 3545      696700
 3546              	.LASF88:
 3547 0207 52463052 		.ascii	"RF0R\000"
 3547      00
 3548              	.LASF171:
 3549 020c 6D656D63 		.ascii	"memcore_t\000"
 3549      6F72655F 
 3549      7400
 3550              	.LASF3:
 3551 0216 7369676E 		.ascii	"signed char\000"
 3551      65642063 
 3551      68617200 
 3552              	.LASF133:
 3553 0222 65776D61 		.ascii	"ewmask\000"
 3553      736B00
 3554              	.LASF16:
 3555 0229 75696E74 		.ascii	"uint8_t\000"
 3555      385F7400 
 3556              	.LASF26:
 3557 0231 6576656E 		.ascii	"eventmask_t\000"
 3557      746D6173 
 3557      6B5F7400 
 3558              	.LASF87:
 3559 023d 43414E5F 		.ascii	"CAN_FilterRegister_TypeDef\000"
 3559      46696C74 
 3559      65725265 
 3559      67697374 
 3559      65725F54 
 3560              	.LASF92:
 3561 0258 73464946 		.ascii	"sFIFOMailBox\000"
 3561      4F4D6169 
 3561      6C426F78 
 3561      00
 3562              	.LASF225:
 3563 0265 72786675 		.ascii	"rxfull_event\000"
 3563      6C6C5F65 
 3563      76656E74 
 3563      00
 3564              	.LASF129:
 3565 0272 77747472 		.ascii	"wttrp\000"
 3565      7000
 3566              	.LASF90:
 3567 0278 52455345 		.ascii	"RESERVED0\000"
 3567      52564544 
 3567      3000
 3568              	.LASF93:
 3569 0282 52455345 		.ascii	"RESERVED1\000"
 3569      52564544 
 3569      3100
 3570              	.LASF6:
 3571 028c 756E7369 		.ascii	"unsigned char\000"
 3571      676E6564 
 3571      20636861 
 3571      7200
 3572              	.LASF97:
 3573 029a 52455345 		.ascii	"RESERVED3\000"
 3573      52564544 
ARM GAS  C:\Users\14122\AppData\Local\Temp\cc2eSDGZ.s 			page 66


 3573      3300
 3574              	.LASF99:
 3575 02a4 52455345 		.ascii	"RESERVED4\000"
 3575      52564544 
 3575      3400
 3576              	.LASF101:
 3577 02ae 52455345 		.ascii	"RESERVED5\000"
 3577      52564544 
 3577      3500
 3578              	.LASF64:
 3579 02b8 6C617374 		.ascii	"lasttime\000"
 3579      74696D65 
 3579      00
 3580              	.LASF210:
 3581 02c1 50444461 		.ascii	"PDData\000"
 3581      746100
 3582              	.LASF109:
 3583 02c8 444D415F 		.ascii	"DMA_TypeDef\000"
 3583      54797065 
 3583      44656600 
 3584              	.LASF89:
 3585 02d4 52463152 		.ascii	"RF1R\000"
 3585      00
 3586              	.LASF67:
 3587 02d9 70616E69 		.ascii	"panic_msg\000"
 3587      635F6D73 
 3587      6700
 3588              	.LASF65:
 3589 02e3 73797374 		.ascii	"system_debug_t\000"
 3589      656D5F64 
 3589      65627567 
 3589      5F7400
 3590              	.LASF167:
 3591 02f2 5F426F6F 		.ascii	"_Bool\000"
 3591      6C00
 3592              	.LASF168:
 3593 02f8 6D656D67 		.ascii	"memgetfunc_t\000"
 3593      65746675 
 3593      6E635F74 
 3593      00
 3594              	.LASF95:
 3595 0305 52455345 		.ascii	"RESERVED2\000"
 3595      52564544 
 3595      3200
 3596              	.LASF118:
 3597 030f 43434D52 		.ascii	"CCMR1\000"
 3597      3100
 3598              	.LASF119:
 3599 0315 43434D52 		.ascii	"CCMR2\000"
 3599      3200
 3600              	.LASF123:
 3601 031b 43434D52 		.ascii	"CCMR3\000"
 3601      3300
 3602              	.LASF279:
 3603 0321 73745F6C 		.ascii	"st_lld_init\000"
 3603      6C645F69 
 3603      6E697400 
ARM GAS  C:\Users\14122\AppData\Local\Temp\cc2eSDGZ.s 			page 67


 3604              	.LASF137:
 3605 032d 63686172 		.ascii	"char\000"
 3605      00
 3606              	.LASF108:
 3607 0332 49464352 		.ascii	"IFCR\000"
 3607      00
 3608              	.LASF186:
 3609 0337 73656D5F 		.ascii	"sem_list\000"
 3609      6C697374 
 3609      00
 3610              	.LASF8:
 3611 0340 5F5F7569 		.ascii	"__uint16_t\000"
 3611      6E743136 
 3611      5F7400
 3612              	.LASF128:
 3613 034b 77746F62 		.ascii	"wtobjp\000"
 3613      6A7000
 3614              	.LASF205:
 3615 0352 70616C65 		.ascii	"palevent_t\000"
 3615      76656E74 
 3615      5F7400
 3616              	.LASF154:
 3617 035d 6F66665F 		.ascii	"off_refs\000"
 3617      72656673 
 3617      00
 3618              	.LASF38:
 3619 0366 666C6167 		.ascii	"flags\000"
 3619      7300
 3620              	.LASF113:
 3621 036c 73746B61 		.ascii	"stkalign_t\000"
 3621      6C69676E 
 3621      5F7400
 3622              	.LASF111:
 3623 0377 55534152 		.ascii	"USART_TypeDef\000"
 3623      545F5479 
 3623      70654465 
 3623      6600
 3624              	.LASF45:
 3625 0385 6D706F6F 		.ascii	"mpool\000"
 3625      6C00
 3626              	.LASF265:
 3627 038b 73745365 		.ascii	"stSetAlarm\000"
 3627      74416C61 
 3627      726D00
 3628              	.LASF160:
 3629 0396 6576656E 		.ascii	"event_listener_t\000"
 3629      745F6C69 
 3629      7374656E 
 3629      65725F74 
 3629      00
 3630              	.LASF143:
 3631 03a7 70747273 		.ascii	"ptrsize\000"
 3631      697A6500 
 3632              	.LASF124:
 3633 03af 43435852 		.ascii	"CCXR\000"
 3633      00
 3634              	.LASF220:
ARM GAS  C:\Users\14122\AppData\Local\Temp\cc2eSDGZ.s 			page 68


 3635 03b4 63616E73 		.ascii	"canstate_t\000"
 3635      74617465 
 3635      5F7400
 3636              	.LASF218:
 3637 03bf 43414E5F 		.ascii	"CAN_READY\000"
 3637      52454144 
 3637      5900
 3638              	.LASF156:
 3639 03c9 6F66665F 		.ascii	"off_time\000"
 3639      74696D65 
 3639      00
 3640              	.LASF200:
 3641 03d2 646D615F 		.ascii	"dma_func\000"
 3641      66756E63 
 3641      00
 3642              	.LASF28:
 3643 03db 636E745F 		.ascii	"cnt_t\000"
 3643      7400
 3644              	.LASF259:
 3645 03e1 72786368 		.ascii	"rxchar_cb\000"
 3645      61725F63 
 3645      6200
 3646              	.LASF179:
 3647 03eb 64796E5F 		.ascii	"dyn_element_t\000"
 3647      656C656D 
 3647      656E745F 
 3647      7400
 3648              	.LASF261:
 3649 03f9 73706565 		.ascii	"speed\000"
 3649      6400
 3650              	.LASF132:
 3651 03ff 77746D74 		.ascii	"wtmtxp\000"
 3651      787000
 3652              	.LASF55:
 3653 0406 63685F72 		.ascii	"ch_ready_list\000"
 3653      65616479 
 3653      5F6C6973 
 3653      7400
 3654              	.LASF187:
 3655 0414 73656D5F 		.ascii	"sem_pool\000"
 3655      706F6F6C 
 3655      00
 3656              	.LASF270:
 3657 041d 73745F6C 		.ascii	"st_lld_set_alarm\000"
 3657      6C645F73 
 3657      65745F61 
 3657      6C61726D 
 3657      00
 3658              	.LASF278:
 3659 042e 73745F6C 		.ascii	"st_lld_stop_alarm\000"
 3659      6C645F73 
 3659      746F705F 
 3659      616C6172 
 3659      6D00
 3660              	.LASF209:
 3661 0440 50434461 		.ascii	"PCData\000"
 3661      746100
ARM GAS  C:\Users\14122\AppData\Local\Temp\cc2eSDGZ.s 			page 69


 3662              	.LASF230:
 3663 0447 43414E43 		.ascii	"CANConfig\000"
 3663      6F6E6669 
 3663      6700
 3664              	.LASF169:
 3665 0451 6E657874 		.ascii	"nextmem\000"
 3665      6D656D00 
 3666              	.LASF14:
 3667 0459 5F5F7569 		.ascii	"__uint64_t\000"
 3667      6E743634 
 3667      5F7400
 3668              	.LASF152:
 3669 0464 6F66665F 		.ascii	"off_state\000"
 3669      73746174 
 3669      6500
 3670              	.LASF13:
 3671 046e 6C6F6E67 		.ascii	"long unsigned int\000"
 3671      20756E73 
 3671      69676E65 
 3671      6420696E 
 3671      7400
 3672              	.LASF145:
 3673 0480 74687265 		.ascii	"threadsize\000"
 3673      61647369 
 3673      7A6500
 3674              	.LASF262:
 3675 048b 55415254 		.ascii	"UARTConfig\000"
 3675      436F6E66 
 3675      696700
 3676              	.LASF117:
 3677 0496 44494552 		.ascii	"DIER\000"
 3677      00
 3678              	.LASF76:
 3679 049b 53797374 		.ascii	"SystemCoreClock\000"
 3679      656D436F 
 3679      7265436C 
 3679      6F636B00 
 3680              	.LASF134:
 3681 04ab 63685F73 		.ascii	"ch_semaphore\000"
 3681      656D6170 
 3681      686F7265 
 3681      00
 3682              	.LASF195:
 3683 04b8 73686966 		.ascii	"shift\000"
 3683      7400
 3684              	.LASF192:
 3685 04be 6368616E 		.ascii	"channel\000"
 3685      6E656C00 
 3686              	.LASF48:
 3687 04c6 63685F74 		.ascii	"ch_thread\000"
 3687      68726561 
 3687      6400
 3688              	.LASF62:
 3689 04d0 76697274 		.ascii	"virtual_timers_list_t\000"
 3689      75616C5F 
 3689      74696D65 
 3689      72735F6C 
ARM GAS  C:\Users\14122\AppData\Local\Temp\cc2eSDGZ.s 			page 70


 3689      6973745F 
 3690              	.LASF138:
 3691 04e6 63685F69 		.ascii	"ch_idle_thread_wa\000"
 3691      646C655F 
 3691      74687265 
 3691      61645F77 
 3691      6100
 3692              	.LASF203:
 3693 04f8 5F73746D 		.ascii	"_stm32_dma_streams\000"
 3693      33325F64 
 3693      6D615F73 
 3693      74726561 
 3693      6D7300
 3694              	.LASF257:
 3695 050b 7478656E 		.ascii	"txend2_cb\000"
 3695      64325F63 
 3695      6200
 3696              	.LASF189:
 3697 0515 6669666F 		.ascii	"fifo_list\000"
 3697      5F6C6973 
 3697      7400
 3698              	.LASF58:
 3699 051f 76697274 		.ascii	"virtual_timer_t\000"
 3699      75616C5F 
 3699      74696D65 
 3699      725F7400 
 3700              	.LASF54:
 3701 052f 72656164 		.ascii	"ready_list_t\000"
 3701      795F6C69 
 3701      73745F74 
 3701      00
 3702              	.LASF34:
 3703 053c 6F6C6465 		.ascii	"older\000"
 3703      7200
 3704              	.LASF255:
 3705 0542 75617274 		.ascii	"uartecb_t\000"
 3705      6563625F 
 3705      7400
 3706              	.LASF44:
 3707 054c 7265616C 		.ascii	"realprio\000"
 3707      7072696F 
 3707      00
 3708              	.LASF125:
 3709 0555 73746D33 		.ascii	"stm32_tim_t\000"
 3709      325F7469 
 3709      6D5F7400 
 3710              	.LASF29:
 3711 0561 75636E74 		.ascii	"ucnt_t\000"
 3711      5F7400
 3712              	.LASF151:
 3713 0568 6F66665F 		.ascii	"off_stklimit\000"
 3713      73746B6C 
 3713      696D6974 
 3713      00
 3714              	.LASF173:
 3715 0575 706F6F6C 		.ascii	"pool_header\000"
 3715      5F686561 
ARM GAS  C:\Users\14122\AppData\Local\Temp\cc2eSDGZ.s 			page 71


 3715      64657200 
 3716              	.LASF232:
 3717 0581 55415254 		.ascii	"UART_UNINIT\000"
 3717      5F554E49 
 3717      4E495400 
 3718              	.LASF49:
 3719 058d 63685F74 		.ascii	"ch_threads_list\000"
 3719      68726561 
 3719      64735F6C 
 3719      69737400 
 3720              	.LASF242:
 3721 059d 55415254 		.ascii	"UART_RX_COMPLETE\000"
 3721      5F52585F 
 3721      434F4D50 
 3721      4C455445 
 3721      00
 3722              	.LASF268:
 3723 05ae 61627374 		.ascii	"abstime\000"
 3723      696D6500 
 3724              	.LASF252:
 3725 05b6 72786275 		.ascii	"rxbuf\000"
 3725      6600
 3726              	.LASF250:
 3727 05bc 646D6172 		.ascii	"dmarx\000"
 3727      7800
 3728              	.LASF12:
 3729 05c2 5F5F7569 		.ascii	"__uint32_t\000"
 3729      6E743332 
 3729      5F7400
 3730              	.LASF43:
 3731 05cd 6D74786C 		.ascii	"mtxlist\000"
 3731      69737400 
 3732              	.LASF1:
 3733 05d5 6C6F6E67 		.ascii	"long long int\000"
 3733      206C6F6E 
 3733      6720696E 
 3733      7400
 3734              	.LASF217:
 3735 05e3 43414E5F 		.ascii	"CAN_STARTING\000"
 3735      53544152 
 3735      54494E47 
 3735      00
 3736              	.LASF74:
 3737 05f0 73797369 		.ascii	"sysinterval_t\000"
 3737      6E746572 
 3737      76616C5F 
 3737      7400
 3738              	.LASF182:
 3739 05fe 63685F6F 		.ascii	"ch_objects_factory\000"
 3739      626A6563 
 3739      74735F66 
 3739      6163746F 
 3739      727900
 3740              	.LASF110:
 3741 0611 47545052 		.ascii	"GTPR\000"
 3741      00
 3742              	.LASF166:
ARM GAS  C:\Users\14122\AppData\Local\Temp\cc2eSDGZ.s 			page 72


 3743 0616 6576656E 		.ascii	"event_source_t\000"
 3743      745F736F 
 3743      75726365 
 3743      5F7400
 3744              	.LASF175:
 3745 0625 616C6967 		.ascii	"align\000"
 3745      6E00
 3746              	.LASF75:
 3747 062b 49544D5F 		.ascii	"ITM_RxBuffer\000"
 3747      52784275 
 3747      66666572 
 3747      00
 3748              	.LASF208:
 3749 0638 50424461 		.ascii	"PBData\000"
 3749      746100
 3750              	.LASF249:
 3751 063f 646D616D 		.ascii	"dmamode\000"
 3751      6F646500 
 3752              	.LASF215:
 3753 0647 43414E5F 		.ascii	"CAN_UNINIT\000"
 3753      554E494E 
 3753      495400
 3754              	.LASF244:
 3755 0652 75617274 		.ascii	"uartflags_t\000"
 3755      666C6167 
 3755      735F7400 
 3756              	.LASF251:
 3757 065e 646D6174 		.ascii	"dmatx\000"
 3757      7800
 3758              	.LASF219:
 3759 0664 43414E5F 		.ascii	"CAN_SLEEP\000"
 3759      534C4545 
 3759      5000
 3760              	.LASF148:
 3761 066e 6F66665F 		.ascii	"off_newer\000"
 3761      6E657765 
 3761      7200
 3762              	.LASF196:
 3763 0678 73656C66 		.ascii	"selfindex\000"
 3763      696E6465 
 3763      7800
 3764              	.LASF260:
 3765 0682 72786572 		.ascii	"rxerr_cb\000"
 3765      725F6362 
 3765      00
 3766              	.LASF0:
 3767 068b 756E7369 		.ascii	"unsigned int\000"
 3767      676E6564 
 3767      20696E74 
 3767      00
 3768              	.LASF234:
 3769 0698 55415254 		.ascii	"UART_READY\000"
 3769      5F524541 
 3769      445900
 3770              	.LASF199:
 3771 06a3 73746D33 		.ascii	"stm32_dmaisr_t\000"
 3771      325F646D 
ARM GAS  C:\Users\14122\AppData\Local\Temp\cc2eSDGZ.s 			page 73


 3771      61697372 
 3771      5F7400
 3772              	.LASF94:
 3773 06b2 464D3152 		.ascii	"FM1R\000"
 3773      00
 3774              	.LASF85:
 3775 06b7 52444852 		.ascii	"RDHR\000"
 3775      00
 3776              	.LASF106:
 3777 06bc 434D4152 		.ascii	"CMAR\000"
 3777      00
 3778              	.LASF81:
 3779 06c1 54444852 		.ascii	"TDHR\000"
 3779      00
 3780              	.LASF56:
 3781 06c6 63757272 		.ascii	"current\000"
 3781      656E7400 
 3782              	.LASF276:
 3783 06ce 73744765 		.ascii	"stGetAlarm\000"
 3783      74416C61 
 3783      726D00
 3784              	.LASF227:
 3785 06d9 6572726F 		.ascii	"error_event\000"
 3785      725F6576 
 3785      656E7400 
 3786              	.LASF103:
 3787 06e5 43414E5F 		.ascii	"CAN_TypeDef\000"
 3787      54797065 
 3787      44656600 
 3788              	.LASF271:
 3789 06f1 73745F6C 		.ascii	"st_lld_start_alarm\000"
 3789      6C645F73 
 3789      74617274 
 3789      5F616C61 
 3789      726D00
 3790              	.LASF202:
 3791 0704 646D615F 		.ascii	"dma_isr_redir_t\000"
 3791      6973725F 
 3791      72656469 
 3791      725F7400 
 3792              	.LASF273:
 3793 0714 474E5520 		.ascii	"GNU C11 7.2.1 20170904 (release) [ARM/embedded-7-br"
 3793      43313120 
 3793      372E322E 
 3793      31203230 
 3793      31373039 
 3794 0747 616E6368 		.ascii	"anch revision 255204] -mcpu=cortex-m3 -mthumb -ggdb"
 3794      20726576 
 3794      6973696F 
 3794      6E203235 
 3794      35323034 
 3795 077a 202D4F32 		.ascii	" -O2 -fomit-frame-pointer -falign-functions=16 -ffu"
 3795      202D666F 
 3795      6D69742D 
 3795      6672616D 
 3795      652D706F 
 3796 07ad 6E637469 		.ascii	"nction-sections -fdata-sections -fno-common\000"
ARM GAS  C:\Users\14122\AppData\Local\Temp\cc2eSDGZ.s 			page 74


 3796      6F6E2D73 
 3796      65637469 
 3796      6F6E7320 
 3796      2D666461 
 3797              	.LASF102:
 3798 07d9 7346696C 		.ascii	"sFilterRegister\000"
 3798      74657252 
 3798      65676973 
 3798      74657200 
 3799              	.LASF267:
 3800 07e9 73745374 		.ascii	"stStartAlarm\000"
 3800      61727441 
 3800      6C61726D 
 3800      00
 3801              	.LASF214:
 3802 07f6 5F70616C 		.ascii	"_pal_events\000"
 3802      5F657665 
 3802      6E747300 
 3803              	.LASF30:
 3804 0802 74687265 		.ascii	"thread_t\000"
 3804      61645F74 
 3804      00
 3805              	.LASF2:
 3806 080b 6C6F6E67 		.ascii	"long double\000"
 3806      20646F75 
 3806      626C6500 
 3807              	.LASF164:
 3808 0817 77666C61 		.ascii	"wflags\000"
 3808      677300
 3809              	.LASF46:
 3810 081e 74687265 		.ascii	"thread_reference_t\000"
 3810      61645F72 
 3810      65666572 
 3810      656E6365 
 3810      5F7400
 3811              	.LASF130:
 3812 0831 73656E74 		.ascii	"sentmsg\000"
 3812      6D736700 
 3813              	.LASF115:
 3814 0839 706F7274 		.ascii	"port_intctx\000"
 3814      5F696E74 
 3814      63747800 
 3815              	.LASF190:
 3816 0845 6F626A65 		.ascii	"objects_factory_t\000"
 3816      6374735F 
 3816      66616374 
 3816      6F72795F 
 3816      7400
 3817              	.LASF185:
 3818 0857 6275665F 		.ascii	"buf_list\000"
 3818      6C697374 
 3818      00
 3819              	.LASF193:
 3820 0860 636D6173 		.ascii	"cmask\000"
 3820      6B00
 3821              	.LASF107:
 3822 0866 444D415F 		.ascii	"DMA_Channel_TypeDef\000"
ARM GAS  C:\Users\14122\AppData\Local\Temp\cc2eSDGZ.s 			page 75


 3822      4368616E 
 3822      6E656C5F 
 3822      54797065 
 3822      44656600 
 3823              	.LASF77:
 3824 087a 41484250 		.ascii	"AHBPrescTable\000"
 3824      72657363 
 3824      5461626C 
 3824      6500
 3825              	.LASF59:
 3826 0888 63685F76 		.ascii	"ch_virtual_timer\000"
 3826      69727475 
 3826      616C5F74 
 3826      696D6572 
 3826      00
 3827              	.LASF141:
 3828 0899 73697A65 		.ascii	"size\000"
 3828      00
 3829              	.LASF15:
 3830 089e 6C6F6E67 		.ascii	"long long unsigned int\000"
 3830      206C6F6E 
 3830      6720756E 
 3830      7369676E 
 3830      65642069 
 3831              	.LASF207:
 3832 08b5 50414461 		.ascii	"PAData\000"
 3832      746100
 3833              	.LASF266:
 3834 08bc 73745374 		.ascii	"stStopAlarm\000"
 3834      6F70416C 
 3834      61726D00 
 3835              	.LASF17:
 3836 08c8 75696E74 		.ascii	"uint16_t\000"
 3836      31365F74 
 3836      00
 3837              	.LASF241:
 3838 08d1 55415254 		.ascii	"UART_RX_ACTIVE\000"
 3838      5F52585F 
 3838      41435449 
 3838      564500
 3839              	.LASF150:
 3840 08e0 6F66665F 		.ascii	"off_name\000"
 3840      6E616D65 
 3840      00
 3841              	.LASF25:
 3842 08e9 6D73675F 		.ascii	"msg_t\000"
 3842      7400
 3843              	.LASF52:
 3844 08ef 63685F74 		.ascii	"ch_threads_queue\000"
 3844      68726561 
 3844      64735F71 
 3844      75657565 
 3844      00
 3845              	.LASF27:
 3846 0900 6576656E 		.ascii	"eventflags_t\000"
 3846      74666C61 
 3846      67735F74 
ARM GAS  C:\Users\14122\AppData\Local\Temp\cc2eSDGZ.s 			page 76


 3846      00
 3847              	.LASF120:
 3848 090d 43434552 		.ascii	"CCER\000"
 3848      00
 3849              	.LASF60:
 3850 0912 64656C74 		.ascii	"delta\000"
 3850      6100
 3851              	.LASF84:
 3852 0918 52444C52 		.ascii	"RDLR\000"
 3852      00
 3853              	.LASF86:
 3854 091d 43414E5F 		.ascii	"CAN_FIFOMailBox_TypeDef\000"
 3854      4649464F 
 3854      4D61696C 
 3854      426F785F 
 3854      54797065 
 3855              	.LASF39:
 3856 0935 72656673 		.ascii	"refs\000"
 3856      00
 3857              	.LASF31:
 3858 093a 71756575 		.ascii	"queue\000"
 3858      6500
 3859              	.LASF80:
 3860 0940 54444C52 		.ascii	"TDLR\000"
 3860      00
 3861              	.LASF197:
 3862 0945 76656374 		.ascii	"vector\000"
 3862      6F7200
 3863              	.LASF191:
 3864 094c 63685F66 		.ascii	"ch_factory\000"
 3864      6163746F 
 3864      727900
 3865              	.LASF224:
 3866 0957 72787175 		.ascii	"rxqueue\000"
 3866      65756500 
 3867              	.LASF188:
 3868 095f 6D62785F 		.ascii	"mbx_list\000"
 3868      6C697374 
 3868      00
 3869              	.LASF72:
 3870 0968 6D61696E 		.ascii	"mainthread\000"
 3870      74687265 
 3870      616400
 3871              	.LASF116:
 3872 0973 534D4352 		.ascii	"SMCR\000"
 3872      00
 3873              	.LASF142:
 3874 0978 76657273 		.ascii	"version\000"
 3874      696F6E00 
 3875              	.LASF238:
 3876 0980 55415254 		.ascii	"UART_TX_COMPLETE\000"
 3876      5F54585F 
 3876      434F4D50 
 3876      4C455445 
 3876      00
 3877              	.LASF243:
 3878 0991 75617274 		.ascii	"uartrxstate_t\000"
ARM GAS  C:\Users\14122\AppData\Local\Temp\cc2eSDGZ.s 			page 77


 3878      72787374 
 3878      6174655F 
 3878      7400
 3879              	.LASF36:
 3880 099f 77616261 		.ascii	"wabase\000"
 3880      736500
 3881              	.LASF254:
 3882 09a6 75617274 		.ascii	"uartccb_t\000"
 3882      6363625F 
 3882      7400
 3883              	.LASF177:
 3884 09b0 6D656D6F 		.ascii	"memory_pool_t\000"
 3884      72795F70 
 3884      6F6F6C5F 
 3884      7400
 3885              	.LASF272:
 3886 09be 74696D65 		.ascii	"time\000"
 3886      00
 3887              	.LASF70:
 3888 09c3 726C6973 		.ascii	"rlist\000"
 3888      7400
 3889              	.LASF21:
 3890 09c9 746D6F64 		.ascii	"tmode_t\000"
 3890      655F7400 
 3891              	.LASF194:
 3892 09d1 64756D6D 		.ascii	"dummy\000"
 3892      7900
 3893              	.LASF256:
 3894 09d7 7478656E 		.ascii	"txend1_cb\000"
 3894      64315F63 
 3894      6200
 3895              	.LASF240:
 3896 09e1 55415254 		.ascii	"UART_RX_IDLE\000"
 3896      5F52585F 
 3896      49444C45 
 3896      00
 3897              	.LASF96:
 3898 09ee 46533152 		.ascii	"FS1R\000"
 3898      00
 3899              	.LASF35:
 3900 09f3 6E616D65 		.ascii	"name\000"
 3900      00
 3901              	.LASF162:
 3902 09f8 6C697374 		.ascii	"listener\000"
 3902      656E6572 
 3902      00
 3903              	.LASF78:
 3904 0a01 41504250 		.ascii	"APBPrescTable\000"
 3904      72657363 
 3904      5461626C 
 3904      6500
 3905              	.LASF82:
 3906 0a0f 43414E5F 		.ascii	"CAN_TxMailBox_TypeDef\000"
 3906      54784D61 
 3906      696C426F 
 3906      785F5479 
 3906      70654465 
ARM GAS  C:\Users\14122\AppData\Local\Temp\cc2eSDGZ.s 			page 78


 3907              	.LASF204:
 3908 0a25 5F73746D 		.ascii	"_stm32_dma_isr_redir\000"
 3908      33325F64 
 3908      6D615F69 
 3908      73725F72 
 3908      65646972 
 3909              	.LASF7:
 3910 0a3a 73686F72 		.ascii	"short int\000"
 3910      7420696E 
 3910      7400
 3911              	.LASF165:
 3912 0a44 6576656E 		.ascii	"event_source\000"
 3912      745F736F 
 3912      75726365 
 3912      00
 3913              	.LASF20:
 3914 0a51 75696E74 		.ascii	"uint64_t\000"
 3914      36345F74 
 3914      00
 3915              	.LASF61:
 3916 0a5a 66756E63 		.ascii	"func\000"
 3916      00
 3917              	.LASF135:
 3918 0a5f 63685F6D 		.ascii	"ch_mutex\000"
 3918      75746578 
 3918      00
 3919              	.LASF98:
 3920 0a68 46464131 		.ascii	"FFA1R\000"
 3920      5200
 3921              	.LASF41:
 3922 0a6e 6D736771 		.ascii	"msgqueue\000"
 3922      75657565 
 3922      00
 3923              	.LASF223:
 3924 0a77 74787175 		.ascii	"txqueue\000"
 3924      65756500 
 3925              	.LASF235:
 3926 0a7f 75617274 		.ascii	"uartstate_t\000"
 3926      73746174 
 3926      655F7400 
 3927              	.LASF66:
 3928 0a8b 63685F73 		.ascii	"ch_system_debug\000"
 3928      79737465 
 3928      6D5F6465 
 3928      62756700 
 3929              	.LASF181:
 3930 0a9b 64796E5F 		.ascii	"dyn_list_t\000"
 3930      6C697374 
 3930      5F7400
 3931              	.LASF212:
 3932 0aa6 50414C43 		.ascii	"PALConfig\000"
 3932      6F6E6669 
 3932      6700
 3933              	.LASF201:
 3934 0ab0 646D615F 		.ascii	"dma_param\000"
 3934      70617261 
 3934      6D00
ARM GAS  C:\Users\14122\AppData\Local\Temp\cc2eSDGZ.s 			page 79


 3935              	.LASF174:
 3936 0aba 6F626A65 		.ascii	"object_size\000"
 3936      63745F73 
 3936      697A6500 
 3937              	.LASF71:
 3938 0ac6 76746C69 		.ascii	"vtlist\000"
 3938      737400
 3939              	.LASF40:
 3940 0acd 77616974 		.ascii	"waiting\000"
 3940      696E6700 
 3941              	.LASF159:
 3942 0ad5 6D757465 		.ascii	"mutex_t\000"
 3942      785F7400 
 3943              	.LASF23:
 3944 0add 74726566 		.ascii	"trefs_t\000"
 3944      735F7400 
 3945              	.LASF114:
 3946 0ae5 706F7274 		.ascii	"port_context\000"
 3946      5F636F6E 
 3946      74657874 
 3946      00
 3947              	.LASF47:
 3948 0af2 74687265 		.ascii	"threads_list_t\000"
 3948      6164735F 
 3948      6C697374 
 3948      5F7400
 3949              	.LASF236:
 3950 0b01 55415254 		.ascii	"UART_TX_IDLE\000"
 3950      5F54585F 
 3950      49444C45 
 3950      00
 3951              	.LASF253:
 3952 0b0e 75617274 		.ascii	"uartcb_t\000"
 3952      63625F74 
 3952      00
 3953              	.LASF69:
 3954 0b17 63685F73 		.ascii	"ch_system\000"
 3954      79737465 
 3954      6D00
 3955              	.LASF33:
 3956 0b21 6E657765 		.ascii	"newer\000"
 3956      7200
 3957              	.LASF121:
 3958 0b27 42445452 		.ascii	"BDTR\000"
 3958      00
 3959              	.LASF19:
 3960 0b2c 75696E74 		.ascii	"uint32_t\000"
 3960      33325F74 
 3960      00
 3961              	.LASF161:
 3962 0b35 6576656E 		.ascii	"event_listener\000"
 3962      745F6C69 
 3962      7374656E 
 3962      657200
 3963              	.LASF126:
 3964 0b44 7264796D 		.ascii	"rdymsg\000"
 3964      736700
ARM GAS  C:\Users\14122\AppData\Local\Temp\cc2eSDGZ.s 			page 80


 3965              	.LASF9:
 3966 0b4b 73686F72 		.ascii	"short unsigned int\000"
 3966      7420756E 
 3966      7369676E 
 3966      65642069 
 3966      6E7400
 3967              	.LASF68:
 3968 0b5e 63685F73 		.ascii	"ch_system_t\000"
 3968      79737465 
 3968      6D5F7400 
 3969              	.LASF157:
 3970 0b6a 63686465 		.ascii	"chdebug_t\000"
 3970      6275675F 
 3970      7400
 3971              	.LASF91:
 3972 0b74 7354784D 		.ascii	"sTxMailBox\000"
 3972      61696C42 
 3972      6F7800
 3973              	.LASF144:
 3974 0b7f 74696D65 		.ascii	"timesize\000"
 3974      73697A65 
 3974      00
 3975              	.LASF269:
 3976 0b88 7374496E 		.ascii	"stInit\000"
 3976      697400
 3977              	.LASF263:
 3978 0b8f 55415254 		.ascii	"UARTD2\000"
 3978      443200
 3979              	.LASF10:
 3980 0b96 5F5F696E 		.ascii	"__int32_t\000"
 3980      7433325F 
 3980      7400
 3981              	.LASF172:
 3982 0ba0 63685F6D 		.ascii	"ch_memcore\000"
 3982      656D636F 
 3982      726500
 3983              	.LASF153:
 3984 0bab 6F66665F 		.ascii	"off_flags\000"
 3984      666C6167 
 3984      7300
 3985              	.LASF216:
 3986 0bb5 43414E5F 		.ascii	"CAN_STOP\000"
 3986      53544F50 
 3986      00
 3987              	.LASF163:
 3988 0bbe 6576656E 		.ascii	"events\000"
 3988      747300
 3989              	.LASF50:
 3990 0bc5 6E657874 		.ascii	"next\000"
 3990      00
 3991              	.LASF83:
 3992 0bca 52445452 		.ascii	"RDTR\000"
 3992      00
 3993              	.LASF53:
 3994 0bcf 70726576 		.ascii	"prev\000"
 3994      00
 3995              	.LASF180:
ARM GAS  C:\Users\14122\AppData\Local\Temp\cc2eSDGZ.s 			page 81


 3996 0bd4 63685F64 		.ascii	"ch_dyn_list\000"
 3996      796E5F6C 
 3996      69737400 
 3997              	.LASF139:
 3998 0be0 6964656E 		.ascii	"identifier\000"
 3998      74696669 
 3998      657200
 3999              	.LASF79:
 4000 0beb 54445452 		.ascii	"TDTR\000"
 4000      00
 4001              	.LASF231:
 4002 0bf0 43414E44 		.ascii	"CAND1\000"
 4002      3100
 4003              	.LASF226:
 4004 0bf6 7478656D 		.ascii	"txempty_event\000"
 4004      7074795F 
 4004      6576656E 
 4004      7400
 4005              	.LASF275:
 4006 0c04 443A5C68 		.ascii	"D:\\hkust\\robomaster\\eclipse___files\\cundang\\as"
 4006      6B757374 
 4006      5C726F62 
 4006      6F6D6173 
 4006      7465725C 
 4007 0c32 7369676E 		.ascii	"signment2-master_10.20_turret_2\000"
 4007      6D656E74 
 4007      322D6D61 
 4007      73746572 
 4007      5F31302E 
 4008              		.ident	"GCC: (GNU Tools for Arm Embedded Processors 7-2017-q4-major) 7.2.1 20170904 (release) [ARM
ARM GAS  C:\Users\14122\AppData\Local\Temp\cc2eSDGZ.s 			page 82


DEFINED SYMBOLS
                            *ABS*:00000000 hal_st.c
C:\Users\14122\AppData\Local\Temp\cc2eSDGZ.s:16     .text.stInit:00000000 $t
C:\Users\14122\AppData\Local\Temp\cc2eSDGZ.s:24     .text.stInit:00000000 stInit
C:\Users\14122\AppData\Local\Temp\cc2eSDGZ.s:39     .text.stStartAlarm:00000000 $t
C:\Users\14122\AppData\Local\Temp\cc2eSDGZ.s:47     .text.stStartAlarm:00000000 stStartAlarm
C:\Users\14122\AppData\Local\Temp\cc2eSDGZ.s:79     .text.stStopAlarm:00000000 $t
C:\Users\14122\AppData\Local\Temp\cc2eSDGZ.s:87     .text.stStopAlarm:00000000 stStopAlarm
C:\Users\14122\AppData\Local\Temp\cc2eSDGZ.s:108    .text.stSetAlarm:00000000 $t
C:\Users\14122\AppData\Local\Temp\cc2eSDGZ.s:116    .text.stSetAlarm:00000000 stSetAlarm
C:\Users\14122\AppData\Local\Temp\cc2eSDGZ.s:138    .text.stGetAlarm:00000000 $t
C:\Users\14122\AppData\Local\Temp\cc2eSDGZ.s:146    .text.stGetAlarm:00000000 stGetAlarm

UNDEFINED SYMBOLS
st_lld_init
