ARM GAS  C:\Users\14122\AppData\Local\Temp\cctexy9f.s 			page 1


   1              		.cpu cortex-m3
   2              		.eabi_attribute 20, 1
   3              		.eabi_attribute 21, 1
   4              		.eabi_attribute 23, 3
   5              		.eabi_attribute 24, 1
   6              		.eabi_attribute 25, 1
   7              		.eabi_attribute 26, 1
   8              		.eabi_attribute 30, 2
   9              		.eabi_attribute 34, 1
  10              		.eabi_attribute 18, 4
  11              		.file	"hal_buffers.c"
  12              		.text
  13              	.Ltext0:
  14              		.cfi_sections	.debug_frame
  15              		.section	.text.ibqObjectInit,"ax",%progbits
  16              		.align	1
  17              		.p2align 4,,15
  18              		.global	ibqObjectInit
  19              		.syntax unified
  20              		.thumb
  21              		.thumb_func
  22              		.fpu softvfp
  23              		.type	ibqObjectInit, %function
  24              	ibqObjectInit:
  25              	.LFB253:
  26              		.file 1 ".//os/hal/src/hal_buffers.c"
  27              		.loc 1 77 0
  28              		.cfi_startproc
  29              		@ args = 12, pretend = 0, frame = 0
  30              		@ frame_needed = 0, uses_anonymous_args = 0
  31              		@ link register save eliminated.
  32              	.LVL0:
  33 0000 70B4     		push	{r4, r5, r6}
  34              		.cfi_def_cfa_offset 12
  35              		.cfi_offset 4, -12
  36              		.cfi_offset 5, -8
  37              		.cfi_offset 6, -4
  38              		.loc 1 83 0
  39 0002 0024     		movs	r4, #0
  40              		.loc 1 77 0
  41 0004 039D     		ldr	r5, [sp, #12]
  42              		.loc 1 86 0
  43 0006 0433     		adds	r3, r3, #4
  44              	.LVL1:
  45 0008 05FB0326 		mla	r6, r5, r3, r2
  46              		.loc 1 82 0
  47 000c 0172     		strb	r1, [r0, #8]
  48              		.loc 1 87 0
  49 000e C361     		str	r3, [r0, #28]
  50              		.loc 1 77 0
  51 0010 0499     		ldr	r1, [sp, #16]
  52              	.LVL2:
  53 0012 059B     		ldr	r3, [sp, #20]
  54              	.LVL3:
  55              		.loc 1 86 0
  56 0014 8661     		str	r6, [r0, #24]
  57              		.loc 1 88 0
ARM GAS  C:\Users\14122\AppData\Local\Temp\cctexy9f.s 			page 2


  58 0016 0562     		str	r5, [r0, #32]
  59              		.loc 1 83 0
  60 0018 C460     		str	r4, [r0, #12]
  61              		.loc 1 91 0
  62 001a C0E90A44 		strd	r4, r4, [r0, #40]
  63              		.loc 1 94 0
  64 001e 70BC     		pop	{r4, r5, r6}
  65              		.cfi_restore 6
  66              		.cfi_restore 5
  67              		.cfi_restore 4
  68              		.cfi_def_cfa_offset 0
  69              	.LVL4:
  70              	.LBB236:
  71              	.LBB237:
  72              	.LBB238:
  73              	.LBB239:
  74              		.file 2 ".//os/rt/include/chschd.h"
  75              		.loc 2 540 0
  76 0020 C0E90000 		strd	r0, r0, [r0]
  77              	.LVL5:
  78              	.LBE239:
  79              	.LBE238:
  80              	.LBE237:
  81              	.LBE236:
  82              		.loc 1 85 0
  83 0024 C0E90422 		strd	r2, r2, [r0, #16]
  84              		.loc 1 89 0
  85 0028 4262     		str	r2, [r0, #36]
  86              		.loc 1 93 0
  87 002a C0E90C13 		strd	r1, r3, [r0, #48]
  88              		.loc 1 94 0
  89 002e 7047     		bx	lr
  90              		.cfi_endproc
  91              	.LFE253:
  92              		.size	ibqObjectInit, .-ibqObjectInit
  93              		.section	.text.ibqResetI,"ax",%progbits
  94              		.align	1
  95              		.p2align 4,,15
  96              		.global	ibqResetI
  97              		.syntax unified
  98              		.thumb
  99              		.thumb_func
 100              		.fpu softvfp
 101              		.type	ibqResetI, %function
 102              	ibqResetI:
 103              	.LFB254:
 104              		.loc 1 107 0
 105              		.cfi_startproc
 106              		@ args = 0, pretend = 0, frame = 0
 107              		@ frame_needed = 0, uses_anonymous_args = 0
 108              		@ link register save eliminated.
 109              	.LVL6:
 110              		.loc 1 111 0
 111 0000 0022     		movs	r2, #0
 112              		.loc 1 112 0
 113 0002 416A     		ldr	r1, [r0, #36]
 114              		.loc 1 111 0
ARM GAS  C:\Users\14122\AppData\Local\Temp\cctexy9f.s 			page 3


 115 0004 C260     		str	r2, [r0, #12]
 116              		.loc 1 113 0
 117 0006 C0E90411 		strd	r1, r1, [r0, #16]
 118              		.loc 1 115 0
 119 000a C0E90A22 		strd	r2, r2, [r0, #40]
 120              	.LVL7:
 121              	.LBB240:
 122              	.LBB241:
 123              		.file 3 ".//os/hal/osal/rt/osal.h"
 124              		.loc 3 857 0
 125 000e 6FF00101 		mvn	r1, #1
 126 0012 FFF7FEBF 		b	chThdDequeueAllI
 127              	.LVL8:
 128              	.LBE241:
 129              	.LBE240:
 130              		.cfi_endproc
 131              	.LFE254:
 132              		.size	ibqResetI, .-ibqResetI
 133 0016 00BF     		.section	.text.ibqGetEmptyBufferI,"ax",%progbits
 134              		.align	1
 135              		.p2align 4,,15
 136              		.global	ibqGetEmptyBufferI
 137              		.syntax unified
 138              		.thumb
 139              		.thumb_func
 140              		.fpu softvfp
 141              		.type	ibqGetEmptyBufferI, %function
 142              	ibqGetEmptyBufferI:
 143              	.LFB255:
 144              		.loc 1 129 0
 145              		.cfi_startproc
 146              		@ args = 0, pretend = 0, frame = 0
 147              		@ frame_needed = 0, uses_anonymous_args = 0
 148              		@ link register save eliminated.
 149              	.LVL9:
 150              		.loc 1 133 0
 151 0000 D0E90432 		ldrd	r3, r2, [r0, #16]
 152 0004 9342     		cmp	r3, r2
 153 0006 01D0     		beq	.L11
 154              	.L6:
 155              		.loc 1 137 0
 156 0008 181D     		adds	r0, r3, #4
 157              	.LVL10:
 158              		.loc 1 138 0
 159 000a 7047     		bx	lr
 160              	.LVL11:
 161              	.L11:
 162              		.loc 1 133 0 discriminator 1
 163 000c C268     		ldr	r2, [r0, #12]
 164 000e 002A     		cmp	r2, #0
 165 0010 FAD0     		beq	.L6
 166              		.loc 1 134 0
 167 0012 0020     		movs	r0, #0
 168              	.LVL12:
 169 0014 7047     		bx	lr
 170              		.cfi_endproc
 171              	.LFE255:
ARM GAS  C:\Users\14122\AppData\Local\Temp\cctexy9f.s 			page 4


 172              		.size	ibqGetEmptyBufferI, .-ibqGetEmptyBufferI
 173 0016 00BF     		.section	.text.ibqPostFullBufferI,"ax",%progbits
 174              		.align	1
 175              		.p2align 4,,15
 176              		.global	ibqPostFullBufferI
 177              		.syntax unified
 178              		.thumb
 179              		.thumb_func
 180              		.fpu softvfp
 181              		.type	ibqPostFullBufferI, %function
 182              	ibqPostFullBufferI:
 183              	.LFB256:
 184              		.loc 1 148 0
 185              		.cfi_startproc
 186              		@ args = 0, pretend = 0, frame = 0
 187              		@ frame_needed = 0, uses_anonymous_args = 0
 188              		@ link register save eliminated.
 189              	.LVL13:
 190              		.loc 1 156 0
 191 0000 0369     		ldr	r3, [r0, #16]
 192              		.loc 1 148 0
 193 0002 10B4     		push	{r4}
 194              		.cfi_def_cfa_offset 4
 195              		.cfi_offset 4, -4
 196              		.loc 1 161 0
 197 0004 8469     		ldr	r4, [r0, #24]
 198              		.loc 1 156 0
 199 0006 1960     		str	r1, [r3]
 200              		.loc 1 160 0
 201 0008 C169     		ldr	r1, [r0, #28]
 202              	.LVL14:
 203              		.loc 1 159 0
 204 000a C268     		ldr	r2, [r0, #12]
 205              		.loc 1 160 0
 206 000c 0B44     		add	r3, r3, r1
 207              	.LVL15:
 208              		.loc 1 161 0
 209 000e A342     		cmp	r3, r4
 210              		.loc 1 160 0
 211 0010 0361     		str	r3, [r0, #16]
 212              	.LVL16:
 213              		.loc 1 162 0
 214 0012 28BF     		it	cs
 215 0014 436A     		ldrcs	r3, [r0, #36]
 216              		.loc 1 159 0
 217 0016 02F10102 		add	r2, r2, #1
 218 001a C260     		str	r2, [r0, #12]
 219              		.loc 1 162 0
 220 001c 28BF     		it	cs
 221 001e 0361     		strcs	r3, [r0, #16]
 222              	.LVL17:
 223              	.LBB242:
 224              	.LBB243:
 225              		.loc 3 844 0
 226 0020 0021     		movs	r1, #0
 227              	.LBE243:
 228              	.LBE242:
ARM GAS  C:\Users\14122\AppData\Local\Temp\cctexy9f.s 			page 5


 229              		.loc 1 167 0
 230 0022 10BC     		pop	{r4}
 231              		.cfi_restore 4
 232              		.cfi_def_cfa_offset 0
 233              	.LBB245:
 234              	.LBB244:
 235              		.loc 3 844 0
 236 0024 FFF7FEBF 		b	chThdDequeueNextI
 237              	.LVL18:
 238              	.LBE244:
 239              	.LBE245:
 240              		.cfi_endproc
 241              	.LFE256:
 242              		.size	ibqPostFullBufferI, .-ibqPostFullBufferI
 243              		.section	.text.ibqGetFullBufferTimeoutS,"ax",%progbits
 244              		.align	1
 245              		.p2align 4,,15
 246              		.global	ibqGetFullBufferTimeoutS
 247              		.syntax unified
 248              		.thumb
 249              		.thumb_func
 250              		.fpu softvfp
 251              		.type	ibqGetFullBufferTimeoutS, %function
 252              	ibqGetFullBufferTimeoutS:
 253              	.LFB258:
 254              		.loc 1 223 0
 255              		.cfi_startproc
 256              		@ args = 0, pretend = 0, frame = 0
 257              		@ frame_needed = 0, uses_anonymous_args = 0
 258              	.LVL19:
 259 0000 38B5     		push	{r3, r4, r5, lr}
 260              		.cfi_def_cfa_offset 16
 261              		.cfi_offset 3, -16
 262              		.cfi_offset 4, -12
 263              		.cfi_offset 5, -8
 264              		.cfi_offset 14, -4
 265              		.loc 1 223 0
 266 0002 0446     		mov	r4, r0
 267 0004 0D46     		mov	r5, r1
 268              		.loc 1 227 0
 269 0006 07E0     		b	.L16
 270              	.LVL20:
 271              	.L18:
 272              	.LBB254:
 273              		.loc 1 228 0
 274 0008 237A     		ldrb	r3, [r4, #8]	@ zero_extendqisi2
 275 000a 83B9     		cbnz	r3, .L19
 276              	.LBB255:
 277              	.LBB256:
 278              		.loc 3 831 0
 279 000c 2946     		mov	r1, r5
 280 000e 2046     		mov	r0, r4
 281 0010 FFF7FEFF 		bl	chThdEnqueueTimeoutS
 282              	.LVL21:
 283              	.LBE256:
 284              	.LBE255:
 285              		.loc 1 232 0
ARM GAS  C:\Users\14122\AppData\Local\Temp\cctexy9f.s 			page 6


 286 0014 0028     		cmp	r0, #0
 287 0016 09DB     		blt	.L15
 288              	.L16:
 289              	.LVL22:
 290              	.LBE254:
 291              		.loc 1 227 0
 292 0018 E368     		ldr	r3, [r4, #12]
 293 001a 002B     		cmp	r3, #0
 294 001c F4D0     		beq	.L18
 295              	.LVL23:
 296              	.LBB257:
 297              	.LBB258:
 298              		.loc 1 241 0
 299 001e 0020     		movs	r0, #0
 300              		.loc 1 240 0
 301 0020 6369     		ldr	r3, [r4, #20]
 302              		.loc 1 241 0
 303 0022 1A68     		ldr	r2, [r3]
 304              		.loc 1 240 0
 305 0024 0433     		adds	r3, r3, #4
 306              		.loc 1 241 0
 307 0026 1A44     		add	r2, r2, r3
 308              		.loc 1 240 0
 309 0028 C4E90A32 		strd	r3, r2, [r4, #40]
 310              	.LVL24:
 311              	.L15:
 312              	.LBE258:
 313              	.LBE257:
 314              		.loc 1 244 0
 315 002c 38BD     		pop	{r3, r4, r5, pc}
 316              	.LVL25:
 317              	.L19:
 318              	.LBB259:
 319              		.loc 1 229 0
 320 002e 6FF00100 		mvn	r0, #1
 321              	.LBE259:
 322              		.loc 1 244 0
 323 0032 38BD     		pop	{r3, r4, r5, pc}
 324              		.cfi_endproc
 325              	.LFE258:
 326              		.size	ibqGetFullBufferTimeoutS, .-ibqGetFullBufferTimeoutS
 327              		.section	.text.ibqGetFullBufferTimeout,"ax",%progbits
 328              		.align	1
 329              		.p2align 4,,15
 330              		.global	ibqGetFullBufferTimeout
 331              		.syntax unified
 332              		.thumb
 333              		.thumb_func
 334              		.fpu softvfp
 335              		.type	ibqGetFullBufferTimeout, %function
 336              	ibqGetFullBufferTimeout:
 337              	.LFB257:
 338              		.loc 1 191 0
 339              		.cfi_startproc
 340              		@ args = 0, pretend = 0, frame = 0
 341              		@ frame_needed = 0, uses_anonymous_args = 0
 342              	.LVL26:
ARM GAS  C:\Users\14122\AppData\Local\Temp\cctexy9f.s 			page 7


 343 0000 08B5     		push	{r3, lr}
 344              		.cfi_def_cfa_offset 8
 345              		.cfi_offset 3, -8
 346              		.cfi_offset 14, -4
 347              	.LBB260:
 348              	.LBB261:
 349              	.LBB262:
 350              	.LBB263:
 351              	.LBB264:
 352              		.file 4 ".//os/common/ext/ARM/CMSIS/Core/Include/cmsis_gcc.h"
 353              		.loc 4 493 0
 354 0002 2023     		movs	r3, #32
 355              		.syntax unified
 356              	@ 493 ".//os/common/ext/ARM/CMSIS/Core/Include/cmsis_gcc.h" 1
 357 0004 83F31188 		MSR basepri, r3
 358              	@ 0 "" 2
 359              	.LVL27:
 360              		.thumb
 361              		.syntax unified
 362              	.LBE264:
 363              	.LBE263:
 364              	.LBE262:
 365              	.LBE261:
 366              	.LBE260:
 367              		.loc 1 195 0
 368 0008 FFF7FEFF 		bl	ibqGetFullBufferTimeoutS
 369              	.LVL28:
 370              	.LBB265:
 371              	.LBB266:
 372              	.LBB267:
 373              	.LBB268:
 374              	.LBB269:
 375              	.LBB270:
 376              		.loc 4 493 0
 377 000c 0023     		movs	r3, #0
 378              		.syntax unified
 379              	@ 493 ".//os/common/ext/ARM/CMSIS/Core/Include/cmsis_gcc.h" 1
 380 000e 83F31188 		MSR basepri, r3
 381              	@ 0 "" 2
 382              	.LVL29:
 383              		.thumb
 384              		.syntax unified
 385              	.LBE270:
 386              	.LBE269:
 387              	.LBE268:
 388              	.LBE267:
 389              	.LBE266:
 390              	.LBE265:
 391              		.loc 1 199 0
 392 0012 08BD     		pop	{r3, pc}
 393              		.cfi_endproc
 394              	.LFE257:
 395              		.size	ibqGetFullBufferTimeout, .-ibqGetFullBufferTimeout
 396              		.section	.text.ibqReleaseEmptyBuffer,"ax",%progbits
 397              		.align	1
 398              		.p2align 4,,15
 399              		.global	ibqReleaseEmptyBuffer
ARM GAS  C:\Users\14122\AppData\Local\Temp\cctexy9f.s 			page 8


 400              		.syntax unified
 401              		.thumb
 402              		.thumb_func
 403              		.fpu softvfp
 404              		.type	ibqReleaseEmptyBuffer, %function
 405              	ibqReleaseEmptyBuffer:
 406              	.LFB259:
 407              		.loc 1 254 0
 408              		.cfi_startproc
 409              		@ args = 0, pretend = 0, frame = 0
 410              		@ frame_needed = 0, uses_anonymous_args = 0
 411              	.LVL30:
 412 0000 10B5     		push	{r4, lr}
 413              		.cfi_def_cfa_offset 8
 414              		.cfi_offset 4, -8
 415              		.cfi_offset 14, -4
 416              	.LBB271:
 417              	.LBB272:
 418              	.LBB273:
 419              	.LBB274:
 420              	.LBB275:
 421              		.loc 4 493 0
 422 0002 2023     		movs	r3, #32
 423              		.syntax unified
 424              	@ 493 ".//os/common/ext/ARM/CMSIS/Core/Include/cmsis_gcc.h" 1
 425 0004 83F31188 		MSR basepri, r3
 426              	@ 0 "" 2
 427              	.LVL31:
 428              		.thumb
 429              		.syntax unified
 430              	.LBE275:
 431              	.LBE274:
 432              	.LBE273:
 433              	.LBE272:
 434              	.LBE271:
 435              	.LBB276:
 436              	.LBB277:
 437              		.loc 1 277 0
 438 0008 D0E90614 		ldrd	r1, r4, [r0, #24]
 439              		.loc 1 275 0
 440 000c C268     		ldr	r2, [r0, #12]
 441              		.loc 1 276 0
 442 000e 4369     		ldr	r3, [r0, #20]
 443              		.loc 1 275 0
 444 0010 013A     		subs	r2, r2, #1
 445 0012 C260     		str	r2, [r0, #12]
 446              		.loc 1 282 0
 447 0014 0022     		movs	r2, #0
 448              		.loc 1 276 0
 449 0016 2344     		add	r3, r3, r4
 450              		.loc 1 277 0
 451 0018 8B42     		cmp	r3, r1
 452              		.loc 1 276 0
 453 001a 4361     		str	r3, [r0, #20]
 454              		.loc 1 278 0
 455 001c 28BF     		it	cs
 456 001e 436A     		ldrcs	r3, [r0, #36]
ARM GAS  C:\Users\14122\AppData\Local\Temp\cctexy9f.s 			page 9


 457              		.loc 1 282 0
 458 0020 8262     		str	r2, [r0, #40]
 459              		.loc 1 278 0
 460 0022 28BF     		it	cs
 461 0024 4361     		strcs	r3, [r0, #20]
 462              		.loc 1 285 0
 463 0026 036B     		ldr	r3, [r0, #48]
 464 0028 03B1     		cbz	r3, .L25
 465              		.loc 1 286 0
 466 002a 9847     		blx	r3
 467              	.LVL32:
 468              	.L25:
 469              	.LBE277:
 470              	.LBE276:
 471              	.LBB278:
 472              	.LBB279:
 473              	.LBB280:
 474              	.LBB281:
 475              	.LBB282:
 476              	.LBB283:
 477              		.loc 4 493 0
 478 002c 0023     		movs	r3, #0
 479              		.syntax unified
 480              	@ 493 ".//os/common/ext/ARM/CMSIS/Core/Include/cmsis_gcc.h" 1
 481 002e 83F31188 		MSR basepri, r3
 482              	@ 0 "" 2
 483              	.LVL33:
 484              		.thumb
 485              		.syntax unified
 486              	.LBE283:
 487              	.LBE282:
 488              	.LBE281:
 489              	.LBE280:
 490              	.LBE279:
 491              	.LBE278:
 492              		.loc 1 259 0
 493 0032 10BD     		pop	{r4, pc}
 494              		.cfi_endproc
 495              	.LFE259:
 496              		.size	ibqReleaseEmptyBuffer, .-ibqReleaseEmptyBuffer
 497              		.section	.text.ibqReleaseEmptyBufferS,"ax",%progbits
 498              		.align	1
 499              		.p2align 4,,15
 500              		.global	ibqReleaseEmptyBufferS
 501              		.syntax unified
 502              		.thumb
 503              		.thumb_func
 504              		.fpu softvfp
 505              		.type	ibqReleaseEmptyBufferS, %function
 506              	ibqReleaseEmptyBufferS:
 507              	.LFB260:
 508              		.loc 1 269 0
 509              		.cfi_startproc
 510              		@ args = 0, pretend = 0, frame = 0
 511              		@ frame_needed = 0, uses_anonymous_args = 0
 512              		@ link register save eliminated.
 513              	.LVL34:
ARM GAS  C:\Users\14122\AppData\Local\Temp\cctexy9f.s 			page 10


 514              		.loc 1 275 0
 515 0000 C268     		ldr	r2, [r0, #12]
 516              		.loc 1 276 0
 517 0002 4369     		ldr	r3, [r0, #20]
 518              		.loc 1 275 0
 519 0004 013A     		subs	r2, r2, #1
 520 0006 C260     		str	r2, [r0, #12]
 521              		.loc 1 282 0
 522 0008 0022     		movs	r2, #0
 523              		.loc 1 269 0
 524 000a 10B4     		push	{r4}
 525              		.cfi_def_cfa_offset 4
 526              		.cfi_offset 4, -4
 527              		.loc 1 277 0
 528 000c D0E90614 		ldrd	r1, r4, [r0, #24]
 529              		.loc 1 276 0
 530 0010 2344     		add	r3, r3, r4
 531              		.loc 1 277 0
 532 0012 8B42     		cmp	r3, r1
 533              		.loc 1 276 0
 534 0014 4361     		str	r3, [r0, #20]
 535              		.loc 1 278 0
 536 0016 28BF     		it	cs
 537 0018 436A     		ldrcs	r3, [r0, #36]
 538              		.loc 1 282 0
 539 001a 8262     		str	r2, [r0, #40]
 540              		.loc 1 278 0
 541 001c 28BF     		it	cs
 542 001e 4361     		strcs	r3, [r0, #20]
 543              		.loc 1 285 0
 544 0020 036B     		ldr	r3, [r0, #48]
 545 0022 0BB1     		cbz	r3, .L30
 546              		.loc 1 288 0
 547 0024 10BC     		pop	{r4}
 548              		.cfi_remember_state
 549              		.cfi_restore 4
 550              		.cfi_def_cfa_offset 0
 551              		.loc 1 286 0
 552 0026 1847     		bx	r3	@ indirect register sibling call
 553              	.LVL35:
 554              	.L30:
 555              		.cfi_restore_state
 556              		.loc 1 288 0
 557 0028 10BC     		pop	{r4}
 558              		.cfi_restore 4
 559              		.cfi_def_cfa_offset 0
 560 002a 7047     		bx	lr
 561              		.cfi_endproc
 562              	.LFE260:
 563              		.size	ibqReleaseEmptyBufferS, .-ibqReleaseEmptyBufferS
 564              		.section	.text.ibqGetTimeout,"ax",%progbits
 565              		.align	1
 566              		.p2align 4,,15
 567              		.global	ibqGetTimeout
 568              		.syntax unified
 569              		.thumb
 570              		.thumb_func
ARM GAS  C:\Users\14122\AppData\Local\Temp\cctexy9f.s 			page 11


 571              		.fpu softvfp
 572              		.type	ibqGetTimeout, %function
 573              	ibqGetTimeout:
 574              	.LFB261:
 575              		.loc 1 309 0
 576              		.cfi_startproc
 577              		@ args = 0, pretend = 0, frame = 0
 578              		@ frame_needed = 0, uses_anonymous_args = 0
 579              	.LVL36:
 580 0000 70B5     		push	{r4, r5, r6, lr}
 581              		.cfi_def_cfa_offset 16
 582              		.cfi_offset 4, -16
 583              		.cfi_offset 5, -12
 584              		.cfi_offset 6, -8
 585              		.cfi_offset 14, -4
 586              	.LBB284:
 587              	.LBB285:
 588              	.LBB286:
 589              	.LBB287:
 590              	.LBB288:
 591              		.loc 4 493 0
 592 0002 2023     		movs	r3, #32
 593              	.LBE288:
 594              	.LBE287:
 595              	.LBE286:
 596              	.LBE285:
 597              	.LBE284:
 598              		.loc 1 309 0
 599 0004 0446     		mov	r4, r0
 600              	.LBB293:
 601              	.LBB292:
 602              	.LBB291:
 603              	.LBB290:
 604              	.LBB289:
 605              		.loc 4 493 0
 606              		.syntax unified
 607              	@ 493 ".//os/common/ext/ARM/CMSIS/Core/Include/cmsis_gcc.h" 1
 608 0006 83F31188 		MSR basepri, r3
 609              	@ 0 "" 2
 610              	.LVL37:
 611              		.thumb
 612              		.syntax unified
 613              	.LBE289:
 614              	.LBE290:
 615              	.LBE291:
 616              	.LBE292:
 617              	.LBE293:
 618              		.loc 1 315 0
 619 000a 856A     		ldr	r5, [r0, #40]
 620 000c EDB1     		cbz	r5, .L46
 621              	.LVL38:
 622              	.L35:
 623              		.loc 1 324 0
 624 000e 15F8016B 		ldrb	r6, [r5], #1	@ zero_extendqisi2
 625              	.LVL39:
 626              		.loc 1 329 0
 627 0012 E26A     		ldr	r2, [r4, #44]
ARM GAS  C:\Users\14122\AppData\Local\Temp\cctexy9f.s 			page 12


 628              		.loc 1 325 0
 629 0014 A562     		str	r5, [r4, #40]
 630              		.loc 1 329 0
 631 0016 9542     		cmp	r5, r2
 632 0018 12D3     		bcc	.L39
 633              	.LVL40:
 634              	.LBB294:
 635              	.LBB295:
 636              		.loc 1 277 0
 637 001a D4E90610 		ldrd	r1, r0, [r4, #24]
 638              		.loc 1 275 0
 639 001e E268     		ldr	r2, [r4, #12]
 640              		.loc 1 276 0
 641 0020 6369     		ldr	r3, [r4, #20]
 642              		.loc 1 275 0
 643 0022 013A     		subs	r2, r2, #1
 644 0024 E260     		str	r2, [r4, #12]
 645              		.loc 1 282 0
 646 0026 0022     		movs	r2, #0
 647              		.loc 1 276 0
 648 0028 0344     		add	r3, r3, r0
 649              		.loc 1 277 0
 650 002a 8B42     		cmp	r3, r1
 651              		.loc 1 276 0
 652 002c 6361     		str	r3, [r4, #20]
 653              		.loc 1 278 0
 654 002e 28BF     		it	cs
 655 0030 636A     		ldrcs	r3, [r4, #36]
 656              		.loc 1 282 0
 657 0032 A262     		str	r2, [r4, #40]
 658              		.loc 1 278 0
 659 0034 28BF     		it	cs
 660 0036 6361     		strcs	r3, [r4, #20]
 661              		.loc 1 285 0
 662 0038 236B     		ldr	r3, [r4, #48]
 663 003a 0BB1     		cbz	r3, .L39
 664              		.loc 1 286 0
 665 003c 2046     		mov	r0, r4
 666 003e 9847     		blx	r3
 667              	.LVL41:
 668              	.L39:
 669              	.LBE295:
 670              	.LBE294:
 671              	.LBB296:
 672              	.LBB297:
 673              	.LBB298:
 674              	.LBB299:
 675              	.LBB300:
 676              	.LBB301:
 677              		.loc 4 493 0
 678 0040 0023     		movs	r3, #0
 679              		.syntax unified
 680              	@ 493 ".//os/common/ext/ARM/CMSIS/Core/Include/cmsis_gcc.h" 1
 681 0042 83F31188 		MSR basepri, r3
 682              	@ 0 "" 2
 683              	.LVL42:
 684              		.thumb
ARM GAS  C:\Users\14122\AppData\Local\Temp\cctexy9f.s 			page 13


 685              		.syntax unified
 686              	.L34:
 687              	.LBE301:
 688              	.LBE300:
 689              	.LBE299:
 690              	.LBE298:
 691              	.LBE297:
 692              	.LBE296:
 693              		.loc 1 335 0
 694 0046 3046     		mov	r0, r6
 695 0048 70BD     		pop	{r4, r5, r6, pc}
 696              	.LVL43:
 697              	.L46:
 698              		.loc 1 316 0
 699 004a FFF7FEFF 		bl	ibqGetFullBufferTimeoutS
 700              	.LVL44:
 701              		.loc 1 317 0
 702 004e 0646     		mov	r6, r0
 703 0050 08B9     		cbnz	r0, .L36
 704 0052 A56A     		ldr	r5, [r4, #40]
 705 0054 DBE7     		b	.L35
 706              	.L36:
 707              	.LVL45:
 708              	.LBB302:
 709              	.LBB303:
 710              	.LBB304:
 711              	.LBB305:
 712              	.LBB306:
 713              	.LBB307:
 714              		.loc 4 493 0
 715              		.syntax unified
 716              	@ 493 ".//os/common/ext/ARM/CMSIS/Core/Include/cmsis_gcc.h" 1
 717 0056 85F31188 		MSR basepri, r5
 718              	@ 0 "" 2
 719              	.LVL46:
 720              		.thumb
 721              		.syntax unified
 722              	.LBE307:
 723              	.LBE306:
 724              	.LBE305:
 725              	.LBE304:
 726              	.LBE303:
 727              	.LBE302:
 728              		.loc 1 319 0
 729 005a F4E7     		b	.L34
 730              		.cfi_endproc
 731              	.LFE261:
 732              		.size	ibqGetTimeout, .-ibqGetTimeout
 733              		.section	.text.ibqReadTimeout,"ax",%progbits
 734              		.align	1
 735              		.p2align 4,,15
 736              		.global	ibqReadTimeout
 737              		.syntax unified
 738              		.thumb
 739              		.thumb_func
 740              		.fpu softvfp
 741              		.type	ibqReadTimeout, %function
ARM GAS  C:\Users\14122\AppData\Local\Temp\cctexy9f.s 			page 14


 742              	ibqReadTimeout:
 743              	.LFB262:
 744              		.loc 1 359 0
 745              		.cfi_startproc
 746              		@ args = 0, pretend = 0, frame = 8
 747              		@ frame_needed = 0, uses_anonymous_args = 0
 748              	.LVL47:
 749 0000 2DE9F04F 		push	{r4, r5, r6, r7, r8, r9, r10, fp, lr}
 750              		.cfi_def_cfa_offset 36
 751              		.cfi_offset 4, -36
 752              		.cfi_offset 5, -32
 753              		.cfi_offset 6, -28
 754              		.cfi_offset 7, -24
 755              		.cfi_offset 8, -20
 756              		.cfi_offset 9, -16
 757              		.cfi_offset 10, -12
 758              		.cfi_offset 11, -8
 759              		.cfi_offset 14, -4
 760 0004 0446     		mov	r4, r0
 761 0006 83B0     		sub	sp, sp, #12
 762              		.cfi_def_cfa_offset 48
 763              		.loc 1 359 0
 764 0008 0E46     		mov	r6, r1
 765 000a 1746     		mov	r7, r2
 766 000c 9A46     		mov	r10, r3
 767              	.LBB308:
 768              	.LBB309:
 769              	.LBB310:
 770              	.LBB311:
 771              	.LBB312:
 772              		.loc 4 493 0
 773 000e 4FF02009 		mov	r9, #32
 774              		.syntax unified
 775              	@ 493 ".//os/common/ext/ARM/CMSIS/Core/Include/cmsis_gcc.h" 1
 776 0012 89F31188 		MSR basepri, r9
 777              	@ 0 "" 2
 778              	.LVL48:
 779              		.thumb
 780              		.syntax unified
 781              	.LBE312:
 782              	.LBE311:
 783              	.LBE310:
 784              	.LBE309:
 785              	.LBE308:
 786              		.loc 1 360 0
 787 0016 4FF0000B 		mov	fp, #0
 788              	.LVL49:
 789              	.LBB313:
 790              		.loc 1 370 0
 791 001a A36A     		ldr	r3, [r4, #40]
 792              	.LVL50:
 793              	.LBB314:
 794              	.LBB315:
 795              		.loc 1 282 0
 796 001c D846     		mov	r8, fp
 797              	.LBE315:
 798              	.LBE314:
ARM GAS  C:\Users\14122\AppData\Local\Temp\cctexy9f.s 			page 15


 799              		.loc 1 370 0
 800 001e 002B     		cmp	r3, #0
 801 0020 43D0     		beq	.L64
 802              	.LVL51:
 803              	.L48:
 804              		.loc 1 384 0
 805 0022 E26A     		ldr	r2, [r4, #44]
 806              		.loc 1 385 0
 807 0024 A7EB0B05 		sub	r5, r7, fp
 808              		.loc 1 384 0
 809 0028 D21A     		subs	r2, r2, r3
 810              	.LVL52:
 811 002a 9542     		cmp	r5, r2
 812 002c 28BF     		it	cs
 813 002e 1546     		movcs	r5, r2
 814              	.LVL53:
 815              		.loc 1 391 0
 816 0030 402D     		cmp	r5, #64
 817              		.loc 1 393 0
 818 0032 1946     		mov	r1, r3
 819              		.loc 1 391 0
 820 0034 42D9     		bls	.L51
 821              		.loc 1 393 0
 822 0036 3346     		mov	r3, r6
 823 0038 01F14002 		add	r2, r1, #64
 824              	.LVL54:
 825              	.L52:
 826 003c D1F800E0 		ldr	lr, [r1]	@ unaligned
 827 0040 D1F804C0 		ldr	ip, [r1, #4]	@ unaligned
 828 0044 8D68     		ldr	r5, [r1, #8]	@ unaligned
 829 0046 C868     		ldr	r0, [r1, #12]	@ unaligned
 830 0048 1031     		adds	r1, r1, #16
 831 004a 9142     		cmp	r1, r2
 832 004c C3F800E0 		str	lr, [r3]	@ unaligned
 833 0050 C3F804C0 		str	ip, [r3, #4]	@ unaligned
 834 0054 9D60     		str	r5, [r3, #8]	@ unaligned
 835 0056 D860     		str	r0, [r3, #12]	@ unaligned
 836 0058 03F11003 		add	r3, r3, #16
 837 005c EED1     		bne	.L52
 838              		.loc 1 395 0
 839 005e A36A     		ldr	r3, [r4, #40]
 840              		.loc 1 394 0
 841 0060 4036     		adds	r6, r6, #64
 842              	.LVL55:
 843              		.loc 1 395 0
 844 0062 4033     		adds	r3, r3, #64
 845              		.loc 1 396 0
 846 0064 0BF1400B 		add	fp, fp, #64
 847              	.LVL56:
 848              		.loc 1 395 0
 849 0068 A362     		str	r3, [r4, #40]
 850              	.L53:
 851              		.loc 1 406 0
 852 006a E26A     		ldr	r2, [r4, #44]
 853 006c 9A42     		cmp	r2, r3
 854 006e 13D8     		bhi	.L55
 855              	.LVL57:
ARM GAS  C:\Users\14122\AppData\Local\Temp\cctexy9f.s 			page 16


 856              	.LBB317:
 857              	.LBB316:
 858              		.loc 1 277 0
 859 0070 D4E90621 		ldrd	r2, r1, [r4, #24]
 860              		.loc 1 276 0
 861 0074 6369     		ldr	r3, [r4, #20]
 862              		.loc 1 275 0
 863 0076 E068     		ldr	r0, [r4, #12]
 864              		.loc 1 276 0
 865 0078 0B44     		add	r3, r3, r1
 866              		.loc 1 277 0
 867 007a 9342     		cmp	r3, r2
 868              		.loc 1 276 0
 869 007c 6361     		str	r3, [r4, #20]
 870              		.loc 1 278 0
 871 007e 28BF     		it	cs
 872 0080 636A     		ldrcs	r3, [r4, #36]
 873              		.loc 1 275 0
 874 0082 00F1FF30 		add	r0, r0, #-1
 875              		.loc 1 278 0
 876 0086 28BF     		it	cs
 877 0088 6361     		strcs	r3, [r4, #20]
 878              		.loc 1 285 0
 879 008a 236B     		ldr	r3, [r4, #48]
 880              		.loc 1 275 0
 881 008c E060     		str	r0, [r4, #12]
 882              		.loc 1 282 0
 883 008e C4F82880 		str	r8, [r4, #40]
 884              		.loc 1 285 0
 885 0092 0BB1     		cbz	r3, .L55
 886              		.loc 1 286 0
 887 0094 2046     		mov	r0, r4
 888 0096 9847     		blx	r3
 889              	.LVL58:
 890              	.L55:
 891              	.LBE316:
 892              	.LBE317:
 893              	.LBB318:
 894              	.LBB319:
 895              	.LBB320:
 896              	.LBB321:
 897              	.LBB322:
 898              	.LBB323:
 899              		.loc 4 493 0
 900              		.syntax unified
 901              	@ 493 ".//os/common/ext/ARM/CMSIS/Core/Include/cmsis_gcc.h" 1
 902 0098 88F31188 		MSR basepri, r8
 903              	@ 0 "" 2
 904              	.LVL59:
 905              		.thumb
 906              		.syntax unified
 907              	.LBE323:
 908              	.LBE322:
 909              	.LBE321:
 910              	.LBE320:
 911              	.LBE319:
 912              	.LBE318:
ARM GAS  C:\Users\14122\AppData\Local\Temp\cctexy9f.s 			page 17


 913              		.loc 1 412 0
 914 009c BB45     		cmp	fp, r7
 915 009e 19D2     		bcs	.L47
 916              	.LVL60:
 917              	.LBB324:
 918              	.LBB325:
 919              	.LBB326:
 920              	.LBB327:
 921              	.LBB328:
 922              		.loc 4 493 0
 923              		.syntax unified
 924              	@ 493 ".//os/common/ext/ARM/CMSIS/Core/Include/cmsis_gcc.h" 1
 925 00a0 89F31188 		MSR basepri, r9
 926              	@ 0 "" 2
 927              	.LVL61:
 928              		.thumb
 929              		.syntax unified
 930              	.LBE328:
 931              	.LBE327:
 932              	.LBE326:
 933              	.LBE325:
 934              	.LBE324:
 935              		.loc 1 370 0
 936 00a4 A36A     		ldr	r3, [r4, #40]
 937 00a6 002B     		cmp	r3, #0
 938 00a8 BBD1     		bne	.L48
 939              	.L64:
 940              	.LBB329:
 941              		.loc 1 374 0
 942 00aa 5146     		mov	r1, r10
 943 00ac 2046     		mov	r0, r4
 944 00ae 0193     		str	r3, [sp, #4]
 945 00b0 FFF7FEFF 		bl	ibqGetFullBufferTimeoutS
 946              	.LVL62:
 947              		.loc 1 377 0
 948 00b4 019B     		ldr	r3, [sp, #4]
 949 00b6 58B9     		cbnz	r0, .L49
 950 00b8 A36A     		ldr	r3, [r4, #40]
 951 00ba B2E7     		b	.L48
 952              	.LVL63:
 953              	.L51:
 954              	.LBE329:
 955              		.loc 1 399 0
 956 00bc 3046     		mov	r0, r6
 957 00be 2A46     		mov	r2, r5
 958 00c0 FFF7FEFF 		bl	memcpy
 959              	.LVL64:
 960              		.loc 1 401 0
 961 00c4 A36A     		ldr	r3, [r4, #40]
 962              		.loc 1 402 0
 963 00c6 AB44     		add	fp, fp, r5
 964              	.LVL65:
 965              		.loc 1 401 0
 966 00c8 2B44     		add	r3, r3, r5
 967              		.loc 1 400 0
 968 00ca 2E44     		add	r6, r6, r5
 969              	.LVL66:
ARM GAS  C:\Users\14122\AppData\Local\Temp\cctexy9f.s 			page 18


 970              		.loc 1 401 0
 971 00cc A362     		str	r3, [r4, #40]
 972 00ce CCE7     		b	.L53
 973              	.LVL67:
 974              	.L49:
 975              	.LBB336:
 976              	.LBB330:
 977              	.LBB331:
 978              	.LBB332:
 979              	.LBB333:
 980              	.LBB334:
 981              	.LBB335:
 982              		.loc 4 493 0
 983              		.syntax unified
 984              	@ 493 ".//os/common/ext/ARM/CMSIS/Core/Include/cmsis_gcc.h" 1
 985 00d0 83F31188 		MSR basepri, r3
 986              	@ 0 "" 2
 987              	.LVL68:
 988              		.thumb
 989              		.syntax unified
 990              	.L47:
 991              	.LBE335:
 992              	.LBE334:
 993              	.LBE333:
 994              	.LBE332:
 995              	.LBE331:
 996              	.LBE330:
 997              	.LBE336:
 998              	.LBE313:
 999              		.loc 1 417 0
 1000 00d4 5846     		mov	r0, fp
 1001 00d6 03B0     		add	sp, sp, #12
 1002              		.cfi_def_cfa_offset 36
 1003              		@ sp needed
 1004 00d8 BDE8F08F 		pop	{r4, r5, r6, r7, r8, r9, r10, fp, pc}
 1005              		.cfi_endproc
 1006              	.LFE262:
 1007              		.size	ibqReadTimeout, .-ibqReadTimeout
 1008              		.section	.text.obqObjectInit,"ax",%progbits
 1009              		.align	1
 1010              		.p2align 4,,15
 1011              		.global	obqObjectInit
 1012              		.syntax unified
 1013              		.thumb
 1014              		.thumb_func
 1015              		.fpu softvfp
 1016              		.type	obqObjectInit, %function
 1017              	obqObjectInit:
 1018              	.LFB263:
 1019              		.loc 1 433 0
 1020              		.cfi_startproc
 1021              		@ args = 12, pretend = 0, frame = 0
 1022              		@ frame_needed = 0, uses_anonymous_args = 0
 1023              		@ link register save eliminated.
 1024              	.LVL69:
 1025 0000 70B4     		push	{r4, r5, r6}
 1026              		.cfi_def_cfa_offset 12
ARM GAS  C:\Users\14122\AppData\Local\Temp\cctexy9f.s 			page 19


 1027              		.cfi_offset 4, -12
 1028              		.cfi_offset 5, -8
 1029              		.cfi_offset 6, -4
 1030              		.loc 1 446 0
 1031 0002 0025     		movs	r5, #0
 1032              		.loc 1 433 0
 1033 0004 039C     		ldr	r4, [sp, #12]
 1034              		.loc 1 442 0
 1035 0006 0433     		adds	r3, r3, #4
 1036              	.LVL70:
 1037 0008 04FB0326 		mla	r6, r4, r3, r2
 1038              		.loc 1 438 0
 1039 000c 0172     		strb	r1, [r0, #8]
 1040              		.loc 1 443 0
 1041 000e C361     		str	r3, [r0, #28]
 1042              		.loc 1 433 0
 1043 0010 0499     		ldr	r1, [sp, #16]
 1044              	.LVL71:
 1045 0012 059B     		ldr	r3, [sp, #20]
 1046              	.LVL72:
 1047              		.loc 1 442 0
 1048 0014 8661     		str	r6, [r0, #24]
 1049              		.loc 1 439 0
 1050 0016 C460     		str	r4, [r0, #12]
 1051              		.loc 1 444 0
 1052 0018 0462     		str	r4, [r0, #32]
 1053              		.loc 1 447 0
 1054 001a C0E90A55 		strd	r5, r5, [r0, #40]
 1055              		.loc 1 450 0
 1056 001e 70BC     		pop	{r4, r5, r6}
 1057              		.cfi_restore 6
 1058              		.cfi_restore 5
 1059              		.cfi_restore 4
 1060              		.cfi_def_cfa_offset 0
 1061              	.LVL73:
 1062              	.LBB337:
 1063              	.LBB338:
 1064              	.LBB339:
 1065              	.LBB340:
 1066              		.loc 2 540 0
 1067 0020 C0E90000 		strd	r0, r0, [r0]
 1068              	.LVL74:
 1069              	.LBE340:
 1070              	.LBE339:
 1071              	.LBE338:
 1072              	.LBE337:
 1073              		.loc 1 441 0
 1074 0024 C0E90422 		strd	r2, r2, [r0, #16]
 1075              		.loc 1 445 0
 1076 0028 4262     		str	r2, [r0, #36]
 1077              		.loc 1 449 0
 1078 002a C0E90C13 		strd	r1, r3, [r0, #48]
 1079              		.loc 1 450 0
 1080 002e 7047     		bx	lr
 1081              		.cfi_endproc
 1082              	.LFE263:
 1083              		.size	obqObjectInit, .-obqObjectInit
ARM GAS  C:\Users\14122\AppData\Local\Temp\cctexy9f.s 			page 20


 1084              		.section	.text.obqResetI,"ax",%progbits
 1085              		.align	1
 1086              		.p2align 4,,15
 1087              		.global	obqResetI
 1088              		.syntax unified
 1089              		.thumb
 1090              		.thumb_func
 1091              		.fpu softvfp
 1092              		.type	obqResetI, %function
 1093              	obqResetI:
 1094              	.LFB264:
 1095              		.loc 1 463 0
 1096              		.cfi_startproc
 1097              		@ args = 0, pretend = 0, frame = 0
 1098              		@ frame_needed = 0, uses_anonymous_args = 0
 1099              		@ link register save eliminated.
 1100              	.LVL75:
 1101              		.loc 1 470 0
 1102 0000 0022     		movs	r2, #0
 1103              		.loc 1 463 0
 1104 0002 10B4     		push	{r4}
 1105              		.cfi_def_cfa_offset 4
 1106              		.cfi_offset 4, -4
 1107              		.loc 1 468 0
 1108 0004 D0E90841 		ldrd	r4, r1, [r0, #32]
 1109              		.loc 1 471 0
 1110 0008 C0E90A22 		strd	r2, r2, [r0, #40]
 1111              	.LVL76:
 1112              		.loc 1 467 0
 1113 000c C460     		str	r4, [r0, #12]
 1114              		.loc 1 469 0
 1115 000e C0E90411 		strd	r1, r1, [r0, #16]
 1116              		.loc 1 473 0
 1117 0012 10BC     		pop	{r4}
 1118              		.cfi_restore 4
 1119              		.cfi_def_cfa_offset 0
 1120              	.LBB341:
 1121              	.LBB342:
 1122              		.loc 3 857 0
 1123 0014 6FF00101 		mvn	r1, #1
 1124 0018 FFF7FEBF 		b	chThdDequeueAllI
 1125              	.LVL77:
 1126              	.LBE342:
 1127              	.LBE341:
 1128              		.cfi_endproc
 1129              	.LFE264:
 1130              		.size	obqResetI, .-obqResetI
 1131              		.section	.text.obqGetFullBufferI,"ax",%progbits
 1132              		.align	1
 1133              		.p2align 4,,15
 1134              		.global	obqGetFullBufferI
 1135              		.syntax unified
 1136              		.thumb
 1137              		.thumb_func
 1138              		.fpu softvfp
 1139              		.type	obqGetFullBufferI, %function
 1140              	obqGetFullBufferI:
ARM GAS  C:\Users\14122\AppData\Local\Temp\cctexy9f.s 			page 21


 1141              	.LFB265:
 1142              		.loc 1 487 0
 1143              		.cfi_startproc
 1144              		@ args = 0, pretend = 0, frame = 0
 1145              		@ frame_needed = 0, uses_anonymous_args = 0
 1146              		@ link register save eliminated.
 1147              	.LVL78:
 1148              		.loc 1 491 0
 1149 0000 D0E90423 		ldrd	r2, r3, [r0, #16]
 1150 0004 9A42     		cmp	r2, r3
 1151 0006 04D0     		beq	.L75
 1152              	.L70:
 1153              		.loc 1 496 0
 1154 0008 1846     		mov	r0, r3
 1155              	.LVL79:
 1156 000a 50F8043B 		ldr	r3, [r0], #4
 1157 000e 0B60     		str	r3, [r1]
 1158              		.loc 1 499 0
 1159 0010 7047     		bx	lr
 1160              	.LVL80:
 1161              	.L75:
 1162              		.loc 1 491 0 discriminator 1
 1163 0012 C268     		ldr	r2, [r0, #12]
 1164 0014 002A     		cmp	r2, #0
 1165 0016 F7D0     		beq	.L70
 1166              		.loc 1 492 0
 1167 0018 0020     		movs	r0, #0
 1168              	.LVL81:
 1169 001a 7047     		bx	lr
 1170              		.cfi_endproc
 1171              	.LFE265:
 1172              		.size	obqGetFullBufferI, .-obqGetFullBufferI
 1173              		.section	.text.obqReleaseEmptyBufferI,"ax",%progbits
 1174              		.align	1
 1175              		.p2align 4,,15
 1176              		.global	obqReleaseEmptyBufferI
 1177              		.syntax unified
 1178              		.thumb
 1179              		.thumb_func
 1180              		.fpu softvfp
 1181              		.type	obqReleaseEmptyBufferI, %function
 1182              	obqReleaseEmptyBufferI:
 1183              	.LFB266:
 1184              		.loc 1 508 0
 1185              		.cfi_startproc
 1186              		@ args = 0, pretend = 0, frame = 0
 1187              		@ frame_needed = 0, uses_anonymous_args = 0
 1188              		@ link register save eliminated.
 1189              	.LVL82:
 1190              		.loc 1 515 0
 1191 0000 4369     		ldr	r3, [r0, #20]
 1192              		.loc 1 508 0
 1193 0002 10B4     		push	{r4}
 1194              		.cfi_def_cfa_offset 4
 1195              		.cfi_offset 4, -4
 1196              		.loc 1 516 0
 1197 0004 D0E90614 		ldrd	r1, r4, [r0, #24]
ARM GAS  C:\Users\14122\AppData\Local\Temp\cctexy9f.s 			page 22


 1198              		.loc 1 515 0
 1199 0008 2344     		add	r3, r3, r4
 1200              		.loc 1 516 0
 1201 000a 8B42     		cmp	r3, r1
 1202              		.loc 1 514 0
 1203 000c C268     		ldr	r2, [r0, #12]
 1204              		.loc 1 515 0
 1205 000e 4361     		str	r3, [r0, #20]
 1206              		.loc 1 517 0
 1207 0010 28BF     		it	cs
 1208 0012 436A     		ldrcs	r3, [r0, #36]
 1209              		.loc 1 514 0
 1210 0014 02F10102 		add	r2, r2, #1
 1211 0018 C260     		str	r2, [r0, #12]
 1212              		.loc 1 517 0
 1213 001a 28BF     		it	cs
 1214 001c 4361     		strcs	r3, [r0, #20]
 1215              	.LVL83:
 1216              	.LBB343:
 1217              	.LBB344:
 1218              		.loc 3 844 0
 1219 001e 0021     		movs	r1, #0
 1220              	.LBE344:
 1221              	.LBE343:
 1222              		.loc 1 522 0
 1223 0020 10BC     		pop	{r4}
 1224              		.cfi_restore 4
 1225              		.cfi_def_cfa_offset 0
 1226              	.LBB346:
 1227              	.LBB345:
 1228              		.loc 3 844 0
 1229 0022 FFF7FEBF 		b	chThdDequeueNextI
 1230              	.LVL84:
 1231              	.LBE345:
 1232              	.LBE346:
 1233              		.cfi_endproc
 1234              	.LFE266:
 1235              		.size	obqReleaseEmptyBufferI, .-obqReleaseEmptyBufferI
 1236 0026 00BF     		.section	.text.obqGetEmptyBufferTimeoutS,"ax",%progbits
 1237              		.align	1
 1238              		.p2align 4,,15
 1239              		.global	obqGetEmptyBufferTimeoutS
 1240              		.syntax unified
 1241              		.thumb
 1242              		.thumb_func
 1243              		.fpu softvfp
 1244              		.type	obqGetEmptyBufferTimeoutS, %function
 1245              	obqGetEmptyBufferTimeoutS:
 1246              	.LFB268:
 1247              		.loc 1 578 0
 1248              		.cfi_startproc
 1249              		@ args = 0, pretend = 0, frame = 0
 1250              		@ frame_needed = 0, uses_anonymous_args = 0
 1251              	.LVL85:
 1252 0000 38B5     		push	{r3, r4, r5, lr}
 1253              		.cfi_def_cfa_offset 16
 1254              		.cfi_offset 3, -16
ARM GAS  C:\Users\14122\AppData\Local\Temp\cctexy9f.s 			page 23


 1255              		.cfi_offset 4, -12
 1256              		.cfi_offset 5, -8
 1257              		.cfi_offset 14, -4
 1258              		.loc 1 578 0
 1259 0002 0446     		mov	r4, r0
 1260 0004 0D46     		mov	r5, r1
 1261              		.loc 1 582 0
 1262 0006 07E0     		b	.L80
 1263              	.LVL86:
 1264              	.L82:
 1265              	.LBB355:
 1266              		.loc 1 583 0
 1267 0008 237A     		ldrb	r3, [r4, #8]	@ zero_extendqisi2
 1268 000a 83B9     		cbnz	r3, .L83
 1269              	.LBB356:
 1270              	.LBB357:
 1271              		.loc 3 831 0
 1272 000c 2946     		mov	r1, r5
 1273 000e 2046     		mov	r0, r4
 1274 0010 FFF7FEFF 		bl	chThdEnqueueTimeoutS
 1275              	.LVL87:
 1276              	.LBE357:
 1277              	.LBE356:
 1278              		.loc 1 587 0
 1279 0014 0028     		cmp	r0, #0
 1280 0016 09DB     		blt	.L79
 1281              	.L80:
 1282              	.LVL88:
 1283              	.LBE355:
 1284              		.loc 1 582 0
 1285 0018 E368     		ldr	r3, [r4, #12]
 1286 001a 002B     		cmp	r3, #0
 1287 001c F4D0     		beq	.L82
 1288              	.LVL89:
 1289              	.LBB358:
 1290              	.LBB359:
 1291              		.loc 1 596 0
 1292 001e 0020     		movs	r0, #0
 1293              		.loc 1 595 0
 1294 0020 2369     		ldr	r3, [r4, #16]
 1295              		.loc 1 596 0
 1296 0022 E169     		ldr	r1, [r4, #28]
 1297              		.loc 1 595 0
 1298 0024 1A1D     		adds	r2, r3, #4
 1299              		.loc 1 596 0
 1300 0026 0B44     		add	r3, r3, r1
 1301 0028 C4E90A23 		strd	r2, r3, [r4, #40]
 1302              	.LVL90:
 1303              	.L79:
 1304              	.LBE359:
 1305              	.LBE358:
 1306              		.loc 1 599 0
 1307 002c 38BD     		pop	{r3, r4, r5, pc}
 1308              	.LVL91:
 1309              	.L83:
 1310              	.LBB360:
 1311              		.loc 1 584 0
ARM GAS  C:\Users\14122\AppData\Local\Temp\cctexy9f.s 			page 24


 1312 002e 6FF00100 		mvn	r0, #1
 1313              	.LBE360:
 1314              		.loc 1 599 0
 1315 0032 38BD     		pop	{r3, r4, r5, pc}
 1316              		.cfi_endproc
 1317              	.LFE268:
 1318              		.size	obqGetEmptyBufferTimeoutS, .-obqGetEmptyBufferTimeoutS
 1319              		.section	.text.obqGetEmptyBufferTimeout,"ax",%progbits
 1320              		.align	1
 1321              		.p2align 4,,15
 1322              		.global	obqGetEmptyBufferTimeout
 1323              		.syntax unified
 1324              		.thumb
 1325              		.thumb_func
 1326              		.fpu softvfp
 1327              		.type	obqGetEmptyBufferTimeout, %function
 1328              	obqGetEmptyBufferTimeout:
 1329              	.LFB267:
 1330              		.loc 1 546 0
 1331              		.cfi_startproc
 1332              		@ args = 0, pretend = 0, frame = 0
 1333              		@ frame_needed = 0, uses_anonymous_args = 0
 1334              	.LVL92:
 1335 0000 08B5     		push	{r3, lr}
 1336              		.cfi_def_cfa_offset 8
 1337              		.cfi_offset 3, -8
 1338              		.cfi_offset 14, -4
 1339              	.LBB361:
 1340              	.LBB362:
 1341              	.LBB363:
 1342              	.LBB364:
 1343              	.LBB365:
 1344              		.loc 4 493 0
 1345 0002 2023     		movs	r3, #32
 1346              		.syntax unified
 1347              	@ 493 ".//os/common/ext/ARM/CMSIS/Core/Include/cmsis_gcc.h" 1
 1348 0004 83F31188 		MSR basepri, r3
 1349              	@ 0 "" 2
 1350              	.LVL93:
 1351              		.thumb
 1352              		.syntax unified
 1353              	.LBE365:
 1354              	.LBE364:
 1355              	.LBE363:
 1356              	.LBE362:
 1357              	.LBE361:
 1358              		.loc 1 550 0
 1359 0008 FFF7FEFF 		bl	obqGetEmptyBufferTimeoutS
 1360              	.LVL94:
 1361              	.LBB366:
 1362              	.LBB367:
 1363              	.LBB368:
 1364              	.LBB369:
 1365              	.LBB370:
 1366              	.LBB371:
 1367              		.loc 4 493 0
 1368 000c 0023     		movs	r3, #0
ARM GAS  C:\Users\14122\AppData\Local\Temp\cctexy9f.s 			page 25


 1369              		.syntax unified
 1370              	@ 493 ".//os/common/ext/ARM/CMSIS/Core/Include/cmsis_gcc.h" 1
 1371 000e 83F31188 		MSR basepri, r3
 1372              	@ 0 "" 2
 1373              	.LVL95:
 1374              		.thumb
 1375              		.syntax unified
 1376              	.LBE371:
 1377              	.LBE370:
 1378              	.LBE369:
 1379              	.LBE368:
 1380              	.LBE367:
 1381              	.LBE366:
 1382              		.loc 1 554 0
 1383 0012 08BD     		pop	{r3, pc}
 1384              		.cfi_endproc
 1385              	.LFE267:
 1386              		.size	obqGetEmptyBufferTimeout, .-obqGetEmptyBufferTimeout
 1387              		.section	.text.obqPostFullBuffer,"ax",%progbits
 1388              		.align	1
 1389              		.p2align 4,,15
 1390              		.global	obqPostFullBuffer
 1391              		.syntax unified
 1392              		.thumb
 1393              		.thumb_func
 1394              		.fpu softvfp
 1395              		.type	obqPostFullBuffer, %function
 1396              	obqPostFullBuffer:
 1397              	.LFB269:
 1398              		.loc 1 610 0
 1399              		.cfi_startproc
 1400              		@ args = 0, pretend = 0, frame = 0
 1401              		@ frame_needed = 0, uses_anonymous_args = 0
 1402              	.LVL96:
 1403 0000 10B5     		push	{r4, lr}
 1404              		.cfi_def_cfa_offset 8
 1405              		.cfi_offset 4, -8
 1406              		.cfi_offset 14, -4
 1407              	.LBB372:
 1408              	.LBB373:
 1409              	.LBB374:
 1410              	.LBB375:
 1411              	.LBB376:
 1412              		.loc 4 493 0
 1413 0002 2023     		movs	r3, #32
 1414              		.syntax unified
 1415              	@ 493 ".//os/common/ext/ARM/CMSIS/Core/Include/cmsis_gcc.h" 1
 1416 0004 83F31188 		MSR basepri, r3
 1417              	@ 0 "" 2
 1418              	.LVL97:
 1419              		.thumb
 1420              		.syntax unified
 1421              	.LBE376:
 1422              	.LBE375:
 1423              	.LBE374:
 1424              	.LBE373:
 1425              	.LBE372:
ARM GAS  C:\Users\14122\AppData\Local\Temp\cctexy9f.s 			page 26


 1426              	.LBB377:
 1427              	.LBB378:
 1428              		.loc 1 633 0
 1429 0008 0369     		ldr	r3, [r0, #16]
 1430              		.loc 1 638 0
 1431 000a 8469     		ldr	r4, [r0, #24]
 1432              		.loc 1 633 0
 1433 000c 1960     		str	r1, [r3]
 1434              		.loc 1 636 0
 1435 000e C268     		ldr	r2, [r0, #12]
 1436              		.loc 1 637 0
 1437 0010 C169     		ldr	r1, [r0, #28]
 1438              	.LVL98:
 1439              		.loc 1 636 0
 1440 0012 013A     		subs	r2, r2, #1
 1441 0014 C260     		str	r2, [r0, #12]
 1442              	.LVL99:
 1443              		.loc 1 643 0
 1444 0016 0022     		movs	r2, #0
 1445              		.loc 1 637 0
 1446 0018 0B44     		add	r3, r3, r1
 1447              		.loc 1 638 0
 1448 001a A342     		cmp	r3, r4
 1449              		.loc 1 637 0
 1450 001c 0361     		str	r3, [r0, #16]
 1451              		.loc 1 639 0
 1452 001e 28BF     		it	cs
 1453 0020 436A     		ldrcs	r3, [r0, #36]
 1454              		.loc 1 643 0
 1455 0022 8262     		str	r2, [r0, #40]
 1456              		.loc 1 639 0
 1457 0024 28BF     		it	cs
 1458 0026 0361     		strcs	r3, [r0, #16]
 1459              		.loc 1 646 0
 1460 0028 036B     		ldr	r3, [r0, #48]
 1461 002a 03B1     		cbz	r3, .L89
 1462              		.loc 1 647 0
 1463 002c 9847     		blx	r3
 1464              	.LVL100:
 1465              	.L89:
 1466              	.LBE378:
 1467              	.LBE377:
 1468              	.LBB379:
 1469              	.LBB380:
 1470              	.LBB381:
 1471              	.LBB382:
 1472              	.LBB383:
 1473              	.LBB384:
 1474              		.loc 4 493 0
 1475 002e 0023     		movs	r3, #0
 1476              		.syntax unified
 1477              	@ 493 ".//os/common/ext/ARM/CMSIS/Core/Include/cmsis_gcc.h" 1
 1478 0030 83F31188 		MSR basepri, r3
 1479              	@ 0 "" 2
 1480              	.LVL101:
 1481              		.thumb
 1482              		.syntax unified
ARM GAS  C:\Users\14122\AppData\Local\Temp\cctexy9f.s 			page 27


 1483              	.LBE384:
 1484              	.LBE383:
 1485              	.LBE382:
 1486              	.LBE381:
 1487              	.LBE380:
 1488              	.LBE379:
 1489              		.loc 1 615 0
 1490 0034 10BD     		pop	{r4, pc}
 1491              		.cfi_endproc
 1492              	.LFE269:
 1493              		.size	obqPostFullBuffer, .-obqPostFullBuffer
 1494 0036 00BF     		.section	.text.obqPostFullBufferS,"ax",%progbits
 1495              		.align	1
 1496              		.p2align 4,,15
 1497              		.global	obqPostFullBufferS
 1498              		.syntax unified
 1499              		.thumb
 1500              		.thumb_func
 1501              		.fpu softvfp
 1502              		.type	obqPostFullBufferS, %function
 1503              	obqPostFullBufferS:
 1504              	.LFB270:
 1505              		.loc 1 626 0
 1506              		.cfi_startproc
 1507              		@ args = 0, pretend = 0, frame = 0
 1508              		@ frame_needed = 0, uses_anonymous_args = 0
 1509              		@ link register save eliminated.
 1510              	.LVL102:
 1511              		.loc 1 633 0
 1512 0000 0369     		ldr	r3, [r0, #16]
 1513              		.loc 1 626 0
 1514 0002 10B4     		push	{r4}
 1515              		.cfi_def_cfa_offset 4
 1516              		.cfi_offset 4, -4
 1517              		.loc 1 638 0
 1518 0004 8469     		ldr	r4, [r0, #24]
 1519              		.loc 1 633 0
 1520 0006 1960     		str	r1, [r3]
 1521              		.loc 1 636 0
 1522 0008 C268     		ldr	r2, [r0, #12]
 1523              		.loc 1 637 0
 1524 000a C169     		ldr	r1, [r0, #28]
 1525              	.LVL103:
 1526              		.loc 1 636 0
 1527 000c 013A     		subs	r2, r2, #1
 1528 000e C260     		str	r2, [r0, #12]
 1529              	.LVL104:
 1530              		.loc 1 643 0
 1531 0010 0022     		movs	r2, #0
 1532              		.loc 1 637 0
 1533 0012 0B44     		add	r3, r3, r1
 1534              		.loc 1 638 0
 1535 0014 A342     		cmp	r3, r4
 1536              		.loc 1 637 0
 1537 0016 0361     		str	r3, [r0, #16]
 1538              		.loc 1 639 0
 1539 0018 28BF     		it	cs
ARM GAS  C:\Users\14122\AppData\Local\Temp\cctexy9f.s 			page 28


 1540 001a 436A     		ldrcs	r3, [r0, #36]
 1541              		.loc 1 643 0
 1542 001c 8262     		str	r2, [r0, #40]
 1543              		.loc 1 639 0
 1544 001e 28BF     		it	cs
 1545 0020 0361     		strcs	r3, [r0, #16]
 1546              		.loc 1 646 0
 1547 0022 036B     		ldr	r3, [r0, #48]
 1548 0024 0BB1     		cbz	r3, .L94
 1549              		.loc 1 649 0
 1550 0026 10BC     		pop	{r4}
 1551              		.cfi_remember_state
 1552              		.cfi_restore 4
 1553              		.cfi_def_cfa_offset 0
 1554              		.loc 1 647 0
 1555 0028 1847     		bx	r3	@ indirect register sibling call
 1556              	.LVL105:
 1557              	.L94:
 1558              		.cfi_restore_state
 1559              		.loc 1 649 0
 1560 002a 10BC     		pop	{r4}
 1561              		.cfi_restore 4
 1562              		.cfi_def_cfa_offset 0
 1563 002c 7047     		bx	lr
 1564              		.cfi_endproc
 1565              	.LFE270:
 1566              		.size	obqPostFullBufferS, .-obqPostFullBufferS
 1567 002e 00BF     		.section	.text.obqPutTimeout,"ax",%progbits
 1568              		.align	1
 1569              		.p2align 4,,15
 1570              		.global	obqPutTimeout
 1571              		.syntax unified
 1572              		.thumb
 1573              		.thumb_func
 1574              		.fpu softvfp
 1575              		.type	obqPutTimeout, %function
 1576              	obqPutTimeout:
 1577              	.LFB271:
 1578              		.loc 1 672 0
 1579              		.cfi_startproc
 1580              		@ args = 0, pretend = 0, frame = 0
 1581              		@ frame_needed = 0, uses_anonymous_args = 0
 1582              	.LVL106:
 1583 0000 70B5     		push	{r4, r5, r6, lr}
 1584              		.cfi_def_cfa_offset 16
 1585              		.cfi_offset 4, -16
 1586              		.cfi_offset 5, -12
 1587              		.cfi_offset 6, -8
 1588              		.cfi_offset 14, -4
 1589              	.LBB385:
 1590              	.LBB386:
 1591              	.LBB387:
 1592              	.LBB388:
 1593              	.LBB389:
 1594              		.loc 4 493 0
 1595 0002 2023     		movs	r3, #32
 1596              	.LBE389:
ARM GAS  C:\Users\14122\AppData\Local\Temp\cctexy9f.s 			page 29


 1597              	.LBE388:
 1598              	.LBE387:
 1599              	.LBE386:
 1600              	.LBE385:
 1601              		.loc 1 672 0
 1602 0004 0E46     		mov	r6, r1
 1603 0006 0446     		mov	r4, r0
 1604              	.LBB394:
 1605              	.LBB393:
 1606              	.LBB392:
 1607              	.LBB391:
 1608              	.LBB390:
 1609              		.loc 4 493 0
 1610              		.syntax unified
 1611              	@ 493 ".//os/common/ext/ARM/CMSIS/Core/Include/cmsis_gcc.h" 1
 1612 0008 83F31188 		MSR basepri, r3
 1613              	@ 0 "" 2
 1614              	.LVL107:
 1615              		.thumb
 1616              		.syntax unified
 1617              	.LBE390:
 1618              	.LBE391:
 1619              	.LBE392:
 1620              	.LBE393:
 1621              	.LBE394:
 1622              		.loc 1 678 0
 1623 000c 856A     		ldr	r5, [r0, #40]
 1624 000e 05B3     		cbz	r5, .L110
 1625              	.LVL108:
 1626              	.L99:
 1627              		.loc 1 687 0
 1628 0010 2E70     		strb	r6, [r5]
 1629              		.loc 1 692 0
 1630 0012 D4E90A32 		ldrd	r3, r2, [r4, #40]
 1631              		.loc 1 688 0
 1632 0016 0133     		adds	r3, r3, #1
 1633              		.loc 1 692 0
 1634 0018 9342     		cmp	r3, r2
 1635              		.loc 1 688 0
 1636 001a A362     		str	r3, [r4, #40]
 1637              		.loc 1 692 0
 1638 001c 15D3     		bcc	.L103
 1639              	.LVL109:
 1640              		.loc 1 693 0
 1641 001e E269     		ldr	r2, [r4, #28]
 1642              	.LBB395:
 1643              	.LBB396:
 1644              		.loc 1 633 0
 1645 0020 2369     		ldr	r3, [r4, #16]
 1646              	.LBE396:
 1647              	.LBE395:
 1648              		.loc 1 693 0
 1649 0022 043A     		subs	r2, r2, #4
 1650              	.LVL110:
 1651              	.LBB398:
 1652              	.LBB397:
 1653              		.loc 1 633 0
ARM GAS  C:\Users\14122\AppData\Local\Temp\cctexy9f.s 			page 30


 1654 0024 1A60     		str	r2, [r3]
 1655              		.loc 1 636 0
 1656 0026 E268     		ldr	r2, [r4, #12]
 1657              	.LVL111:
 1658              		.loc 1 637 0
 1659 0028 E069     		ldr	r0, [r4, #28]
 1660              		.loc 1 636 0
 1661 002a 013A     		subs	r2, r2, #1
 1662 002c E260     		str	r2, [r4, #12]
 1663              	.LVL112:
 1664              		.loc 1 643 0
 1665 002e 0022     		movs	r2, #0
 1666              		.loc 1 638 0
 1667 0030 A169     		ldr	r1, [r4, #24]
 1668              		.loc 1 637 0
 1669 0032 0344     		add	r3, r3, r0
 1670              		.loc 1 638 0
 1671 0034 8B42     		cmp	r3, r1
 1672              		.loc 1 637 0
 1673 0036 2361     		str	r3, [r4, #16]
 1674              		.loc 1 639 0
 1675 0038 28BF     		it	cs
 1676 003a 636A     		ldrcs	r3, [r4, #36]
 1677              		.loc 1 643 0
 1678 003c A262     		str	r2, [r4, #40]
 1679              		.loc 1 639 0
 1680 003e 28BF     		it	cs
 1681 0040 2361     		strcs	r3, [r4, #16]
 1682              		.loc 1 646 0
 1683 0042 236B     		ldr	r3, [r4, #48]
 1684 0044 0BB1     		cbz	r3, .L103
 1685              		.loc 1 647 0
 1686 0046 2046     		mov	r0, r4
 1687 0048 9847     		blx	r3
 1688              	.LVL113:
 1689              	.L103:
 1690              	.LBE397:
 1691              	.LBE398:
 1692              	.LBB399:
 1693              	.LBB400:
 1694              	.LBB401:
 1695              	.LBB402:
 1696              	.LBB403:
 1697              	.LBB404:
 1698              		.loc 4 493 0
 1699 004a 0020     		movs	r0, #0
 1700              		.syntax unified
 1701              	@ 493 ".//os/common/ext/ARM/CMSIS/Core/Include/cmsis_gcc.h" 1
 1702 004c 80F31188 		MSR basepri, r0
 1703              	@ 0 "" 2
 1704              	.LVL114:
 1705              		.thumb
 1706              		.syntax unified
 1707              	.LBE404:
 1708              	.LBE403:
 1709              	.LBE402:
 1710              	.LBE401:
ARM GAS  C:\Users\14122\AppData\Local\Temp\cctexy9f.s 			page 31


 1711              	.LBE400:
 1712              	.LBE399:
 1713              		.loc 1 698 0
 1714 0050 70BD     		pop	{r4, r5, r6, pc}
 1715              	.LVL115:
 1716              	.L110:
 1717              		.loc 1 679 0
 1718 0052 1146     		mov	r1, r2
 1719              	.LVL116:
 1720 0054 FFF7FEFF 		bl	obqGetEmptyBufferTimeoutS
 1721              	.LVL117:
 1722              		.loc 1 680 0
 1723 0058 08B9     		cbnz	r0, .L100
 1724 005a A56A     		ldr	r5, [r4, #40]
 1725 005c D8E7     		b	.L99
 1726              	.L100:
 1727              	.LVL118:
 1728              	.LBB405:
 1729              	.LBB406:
 1730              	.LBB407:
 1731              	.LBB408:
 1732              	.LBB409:
 1733              	.LBB410:
 1734              		.loc 4 493 0
 1735              		.syntax unified
 1736              	@ 493 ".//os/common/ext/ARM/CMSIS/Core/Include/cmsis_gcc.h" 1
 1737 005e 85F31188 		MSR basepri, r5
 1738              	@ 0 "" 2
 1739              	.LVL119:
 1740              		.thumb
 1741              		.syntax unified
 1742              	.LBE410:
 1743              	.LBE409:
 1744              	.LBE408:
 1745              	.LBE407:
 1746              	.LBE406:
 1747              	.LBE405:
 1748              		.loc 1 698 0
 1749 0062 70BD     		pop	{r4, r5, r6, pc}
 1750              		.cfi_endproc
 1751              	.LFE271:
 1752              		.size	obqPutTimeout, .-obqPutTimeout
 1753              		.section	.text.obqWriteTimeout,"ax",%progbits
 1754              		.align	1
 1755              		.p2align 4,,15
 1756              		.global	obqWriteTimeout
 1757              		.syntax unified
 1758              		.thumb
 1759              		.thumb_func
 1760              		.fpu softvfp
 1761              		.type	obqWriteTimeout, %function
 1762              	obqWriteTimeout:
 1763              	.LFB272:
 1764              		.loc 1 722 0
 1765              		.cfi_startproc
 1766              		@ args = 0, pretend = 0, frame = 8
 1767              		@ frame_needed = 0, uses_anonymous_args = 0
ARM GAS  C:\Users\14122\AppData\Local\Temp\cctexy9f.s 			page 32


 1768              	.LVL120:
 1769 0000 2DE9F04F 		push	{r4, r5, r6, r7, r8, r9, r10, fp, lr}
 1770              		.cfi_def_cfa_offset 36
 1771              		.cfi_offset 4, -36
 1772              		.cfi_offset 5, -32
 1773              		.cfi_offset 6, -28
 1774              		.cfi_offset 7, -24
 1775              		.cfi_offset 8, -20
 1776              		.cfi_offset 9, -16
 1777              		.cfi_offset 10, -12
 1778              		.cfi_offset 11, -8
 1779              		.cfi_offset 14, -4
 1780 0004 83B0     		sub	sp, sp, #12
 1781              		.cfi_def_cfa_offset 48
 1782              		.loc 1 722 0
 1783 0006 0446     		mov	r4, r0
 1784 0008 0F46     		mov	r7, r1
 1785 000a 9046     		mov	r8, r2
 1786 000c 0193     		str	r3, [sp, #4]
 1787              	.LBB411:
 1788              	.LBB412:
 1789              	.LBB413:
 1790              	.LBB414:
 1791              	.LBB415:
 1792              		.loc 4 493 0
 1793 000e 4FF0200A 		mov	r10, #32
 1794              		.syntax unified
 1795              	@ 493 ".//os/common/ext/ARM/CMSIS/Core/Include/cmsis_gcc.h" 1
 1796 0012 8AF31188 		MSR basepri, r10
 1797              	@ 0 "" 2
 1798              	.LVL121:
 1799              		.thumb
 1800              		.syntax unified
 1801              	.LBE415:
 1802              	.LBE414:
 1803              	.LBE413:
 1804              	.LBE412:
 1805              	.LBE411:
 1806              		.loc 1 723 0
 1807 0016 4FF0000B 		mov	fp, #0
 1808              	.LVL122:
 1809              	.LBB416:
 1810              		.loc 1 733 0
 1811 001a A66A     		ldr	r6, [r4, #40]
 1812              	.LBB417:
 1813              	.LBB418:
 1814              		.loc 1 643 0
 1815 001c D946     		mov	r9, fp
 1816              	.LBE418:
 1817              	.LBE417:
 1818              		.loc 1 733 0
 1819 001e 002E     		cmp	r6, #0
 1820 0020 40D0     		beq	.L128
 1821              	.LVL123:
 1822              	.L112:
 1823              		.loc 1 747 0
 1824 0022 E26A     		ldr	r2, [r4, #44]
ARM GAS  C:\Users\14122\AppData\Local\Temp\cctexy9f.s 			page 33


 1825              		.loc 1 748 0
 1826 0024 A8EB0B05 		sub	r5, r8, fp
 1827              		.loc 1 747 0
 1828 0028 921B     		subs	r2, r2, r6
 1829              	.LVL124:
 1830 002a 9542     		cmp	r5, r2
 1831 002c 28BF     		it	cs
 1832 002e 1546     		movcs	r5, r2
 1833              	.LVL125:
 1834              		.loc 1 754 0
 1835 0030 402D     		cmp	r5, #64
 1836 0032 3ED9     		bls	.L115
 1837              		.loc 1 756 0
 1838 0034 07F14002 		add	r2, r7, #64
 1839              	.LVL126:
 1840              	.L116:
 1841 0038 D7F800C0 		ldr	ip, [r7]	@ unaligned
 1842 003c 7D68     		ldr	r5, [r7, #4]	@ unaligned
 1843 003e B868     		ldr	r0, [r7, #8]	@ unaligned
 1844 0040 F968     		ldr	r1, [r7, #12]	@ unaligned
 1845 0042 1037     		adds	r7, r7, #16
 1846 0044 9742     		cmp	r7, r2
 1847 0046 C6F800C0 		str	ip, [r6]	@ unaligned
 1848 004a 7560     		str	r5, [r6, #4]	@ unaligned
 1849 004c B060     		str	r0, [r6, #8]	@ unaligned
 1850 004e F160     		str	r1, [r6, #12]	@ unaligned
 1851 0050 06F11006 		add	r6, r6, #16
 1852 0054 F0D1     		bne	.L116
 1853              		.loc 1 758 0
 1854 0056 A26A     		ldr	r2, [r4, #40]
 1855              	.LVL127:
 1856              		.loc 1 759 0
 1857 0058 0BF1400B 		add	fp, fp, #64
 1858              	.LVL128:
 1859              		.loc 1 758 0
 1860 005c 4032     		adds	r2, r2, #64
 1861 005e A262     		str	r2, [r4, #40]
 1862              	.L117:
 1863              	.LVL129:
 1864              		.loc 1 769 0
 1865 0060 E16A     		ldr	r1, [r4, #44]
 1866 0062 9142     		cmp	r1, r2
 1867 0064 15D8     		bhi	.L119
 1868              	.LVL130:
 1869              		.loc 1 770 0
 1870 0066 E169     		ldr	r1, [r4, #28]
 1871              	.LBB421:
 1872              	.LBB419:
 1873              		.loc 1 633 0
 1874 0068 2269     		ldr	r2, [r4, #16]
 1875              	.LBE419:
 1876              	.LBE421:
 1877              		.loc 1 770 0
 1878 006a 0439     		subs	r1, r1, #4
 1879              	.LVL131:
 1880              	.LBB422:
 1881              	.LBB420:
ARM GAS  C:\Users\14122\AppData\Local\Temp\cctexy9f.s 			page 34


 1882              		.loc 1 633 0
 1883 006c 1160     		str	r1, [r2]
 1884              		.loc 1 637 0
 1885 006e E569     		ldr	r5, [r4, #28]
 1886              		.loc 1 638 0
 1887 0070 A169     		ldr	r1, [r4, #24]
 1888              	.LVL132:
 1889              		.loc 1 637 0
 1890 0072 2A44     		add	r2, r2, r5
 1891              	.LVL133:
 1892              		.loc 1 638 0
 1893 0074 8A42     		cmp	r2, r1
 1894              		.loc 1 637 0
 1895 0076 2261     		str	r2, [r4, #16]
 1896              	.LVL134:
 1897              		.loc 1 639 0
 1898 0078 28BF     		it	cs
 1899 007a 626A     		ldrcs	r2, [r4, #36]
 1900              		.loc 1 636 0
 1901 007c E068     		ldr	r0, [r4, #12]
 1902              		.loc 1 639 0
 1903 007e 28BF     		it	cs
 1904 0080 2261     		strcs	r2, [r4, #16]
 1905              		.loc 1 646 0
 1906 0082 226B     		ldr	r2, [r4, #48]
 1907              		.loc 1 636 0
 1908 0084 0138     		subs	r0, r0, #1
 1909 0086 E060     		str	r0, [r4, #12]
 1910              		.loc 1 643 0
 1911 0088 C4F82890 		str	r9, [r4, #40]
 1912              		.loc 1 646 0
 1913 008c 0AB1     		cbz	r2, .L119
 1914              		.loc 1 647 0
 1915 008e 2046     		mov	r0, r4
 1916 0090 9047     		blx	r2
 1917              	.LVL135:
 1918              	.L119:
 1919              	.LBE420:
 1920              	.LBE422:
 1921              	.LBB423:
 1922              	.LBB424:
 1923              	.LBB425:
 1924              	.LBB426:
 1925              	.LBB427:
 1926              	.LBB428:
 1927              		.loc 4 493 0
 1928              		.syntax unified
 1929              	@ 493 ".//os/common/ext/ARM/CMSIS/Core/Include/cmsis_gcc.h" 1
 1930 0092 89F31188 		MSR basepri, r9
 1931              	@ 0 "" 2
 1932              	.LVL136:
 1933              		.thumb
 1934              		.syntax unified
 1935              	.LBE428:
 1936              	.LBE427:
 1937              	.LBE426:
 1938              	.LBE425:
ARM GAS  C:\Users\14122\AppData\Local\Temp\cctexy9f.s 			page 35


 1939              	.LBE424:
 1940              	.LBE423:
 1941              		.loc 1 775 0
 1942 0096 C345     		cmp	fp, r8
 1943 0098 18D2     		bcs	.L111
 1944              	.LVL137:
 1945              	.LBB429:
 1946              	.LBB430:
 1947              	.LBB431:
 1948              	.LBB432:
 1949              	.LBB433:
 1950              		.loc 4 493 0
 1951              		.syntax unified
 1952              	@ 493 ".//os/common/ext/ARM/CMSIS/Core/Include/cmsis_gcc.h" 1
 1953 009a 8AF31188 		MSR basepri, r10
 1954              	@ 0 "" 2
 1955              	.LVL138:
 1956              		.thumb
 1957              		.syntax unified
 1958              	.LBE433:
 1959              	.LBE432:
 1960              	.LBE431:
 1961              	.LBE430:
 1962              	.LBE429:
 1963              		.loc 1 733 0
 1964 009e A66A     		ldr	r6, [r4, #40]
 1965 00a0 002E     		cmp	r6, #0
 1966 00a2 BED1     		bne	.L112
 1967              	.L128:
 1968              	.LBB434:
 1969              		.loc 1 737 0
 1970 00a4 0199     		ldr	r1, [sp, #4]
 1971 00a6 2046     		mov	r0, r4
 1972 00a8 FFF7FEFF 		bl	obqGetEmptyBufferTimeoutS
 1973              	.LVL139:
 1974              		.loc 1 740 0
 1975 00ac 60B9     		cbnz	r0, .L113
 1976 00ae A66A     		ldr	r6, [r4, #40]
 1977 00b0 B7E7     		b	.L112
 1978              	.LVL140:
 1979              	.L115:
 1980              	.LBE434:
 1981              		.loc 1 762 0
 1982 00b2 2A46     		mov	r2, r5
 1983 00b4 3946     		mov	r1, r7
 1984 00b6 3046     		mov	r0, r6
 1985 00b8 FFF7FEFF 		bl	memcpy
 1986              	.LVL141:
 1987              		.loc 1 764 0
 1988 00bc A26A     		ldr	r2, [r4, #40]
 1989              		.loc 1 765 0
 1990 00be AB44     		add	fp, fp, r5
 1991              	.LVL142:
 1992              		.loc 1 764 0
 1993 00c0 2A44     		add	r2, r2, r5
 1994              		.loc 1 763 0
 1995 00c2 2F44     		add	r7, r7, r5
ARM GAS  C:\Users\14122\AppData\Local\Temp\cctexy9f.s 			page 36


 1996              	.LVL143:
 1997              		.loc 1 764 0
 1998 00c4 A262     		str	r2, [r4, #40]
 1999 00c6 CBE7     		b	.L117
 2000              	.LVL144:
 2001              	.L113:
 2002              	.LBB441:
 2003              	.LBB435:
 2004              	.LBB436:
 2005              	.LBB437:
 2006              	.LBB438:
 2007              	.LBB439:
 2008              	.LBB440:
 2009              		.loc 4 493 0
 2010              		.syntax unified
 2011              	@ 493 ".//os/common/ext/ARM/CMSIS/Core/Include/cmsis_gcc.h" 1
 2012 00c8 86F31188 		MSR basepri, r6
 2013              	@ 0 "" 2
 2014              	.LVL145:
 2015              		.thumb
 2016              		.syntax unified
 2017              	.L111:
 2018              	.LBE440:
 2019              	.LBE439:
 2020              	.LBE438:
 2021              	.LBE437:
 2022              	.LBE436:
 2023              	.LBE435:
 2024              	.LBE441:
 2025              	.LBE416:
 2026              		.loc 1 780 0
 2027 00cc 5846     		mov	r0, fp
 2028 00ce 03B0     		add	sp, sp, #12
 2029              		.cfi_def_cfa_offset 36
 2030              		@ sp needed
 2031 00d0 BDE8F08F 		pop	{r4, r5, r6, r7, r8, r9, r10, fp, pc}
 2032              		.cfi_endproc
 2033              	.LFE272:
 2034              		.size	obqWriteTimeout, .-obqWriteTimeout
 2035              		.section	.text.obqTryFlushI,"ax",%progbits
 2036              		.align	1
 2037              		.p2align 4,,15
 2038              		.global	obqTryFlushI
 2039              		.syntax unified
 2040              		.thumb
 2041              		.thumb_func
 2042              		.fpu softvfp
 2043              		.type	obqTryFlushI, %function
 2044              	obqTryFlushI:
 2045              	.LFB273:
 2046              		.loc 1 795 0
 2047              		.cfi_startproc
 2048              		@ args = 0, pretend = 0, frame = 0
 2049              		@ frame_needed = 0, uses_anonymous_args = 0
 2050              		@ link register save eliminated.
 2051              	.LVL146:
 2052              		.loc 1 801 0
ARM GAS  C:\Users\14122\AppData\Local\Temp\cctexy9f.s 			page 37


 2053 0000 D0E90413 		ldrd	r1, r3, [r0, #16]
 2054 0004 9942     		cmp	r1, r3
 2055 0006 01D0     		beq	.L141
 2056              		.loc 1 822 0
 2057 0008 0020     		movs	r0, #0
 2058              	.LVL147:
 2059 000a 7047     		bx	lr
 2060              	.LVL148:
 2061              	.L141:
 2062 000c 0246     		mov	r2, r0
 2063              		.loc 1 801 0 discriminator 1
 2064 000e C068     		ldr	r0, [r0, #12]
 2065              	.LVL149:
 2066 0010 C0B1     		cbz	r0, .L142
 2067              		.loc 1 801 0 is_stmt 0
 2068 0012 906A     		ldr	r0, [r2, #40]
 2069 0014 B8B1     		cbz	r0, .L143
 2070              	.LBB442:
 2071              		.loc 1 802 0 is_stmt 1
 2072 0016 031F     		subs	r3, r0, #4
 2073              	.LVL150:
 2074              		.loc 1 804 0
 2075 0018 581A     		subs	r0, r3, r1
 2076              	.LVL151:
 2077 001a 12D0     		beq	.L138
 2078              	.LBE442:
 2079              		.loc 1 795 0
 2080 001c 10B4     		push	{r4}
 2081              		.cfi_def_cfa_offset 4
 2082              		.cfi_offset 4, -4
 2083              	.LBB443:
 2084              		.loc 1 807 0
 2085 001e 0860     		str	r0, [r1]
 2086              		.loc 1 810 0
 2087 0020 D368     		ldr	r3, [r2, #12]
 2088              		.loc 1 812 0
 2089 0022 D2E90604 		ldrd	r0, r4, [r2, #24]
 2090              	.LVL152:
 2091              		.loc 1 811 0
 2092 0026 2144     		add	r1, r1, r4
 2093              	.LVL153:
 2094              		.loc 1 810 0
 2095 0028 013B     		subs	r3, r3, #1
 2096              		.loc 1 812 0
 2097 002a 8142     		cmp	r1, r0
 2098              		.loc 1 810 0
 2099 002c D360     		str	r3, [r2, #12]
 2100              	.LVL154:
 2101              		.loc 1 813 0
 2102 002e 28BF     		it	cs
 2103 0030 536A     		ldrcs	r3, [r2, #36]
 2104              		.loc 1 811 0
 2105 0032 1161     		str	r1, [r2, #16]
 2106              	.LVL155:
 2107              		.loc 1 813 0
 2108 0034 28BF     		it	cs
 2109 0036 1361     		strcs	r3, [r2, #16]
ARM GAS  C:\Users\14122\AppData\Local\Temp\cctexy9f.s 			page 38


 2110              		.loc 1 817 0
 2111 0038 0023     		movs	r3, #0
 2112              		.loc 1 819 0
 2113 003a 0120     		movs	r0, #1
 2114              		.loc 1 817 0
 2115 003c 9362     		str	r3, [r2, #40]
 2116              	.LBE443:
 2117              		.loc 1 823 0
 2118 003e 10BC     		pop	{r4}
 2119              		.cfi_restore 4
 2120              		.cfi_def_cfa_offset 0
 2121 0040 7047     		bx	lr
 2122              	.LVL156:
 2123              	.L138:
 2124 0042 7047     		bx	lr
 2125              	.LVL157:
 2126              	.L142:
 2127 0044 7047     		bx	lr
 2128              	.L143:
 2129              	.LBB444:
 2130 0046 7047     		bx	lr
 2131              	.LBE444:
 2132              		.cfi_endproc
 2133              	.LFE273:
 2134              		.size	obqTryFlushI, .-obqTryFlushI
 2135              		.section	.text.obqFlush,"ax",%progbits
 2136              		.align	1
 2137              		.p2align 4,,15
 2138              		.global	obqFlush
 2139              		.syntax unified
 2140              		.thumb
 2141              		.thumb_func
 2142              		.fpu softvfp
 2143              		.type	obqFlush, %function
 2144              	obqFlush:
 2145              	.LFB274:
 2146              		.loc 1 832 0
 2147              		.cfi_startproc
 2148              		@ args = 0, pretend = 0, frame = 0
 2149              		@ frame_needed = 0, uses_anonymous_args = 0
 2150              	.LVL158:
 2151              	.LBB445:
 2152              	.LBB446:
 2153              	.LBB447:
 2154              	.LBB448:
 2155              	.LBB449:
 2156              		.loc 4 493 0
 2157 0000 2023     		movs	r3, #32
 2158              		.syntax unified
 2159              	@ 493 ".//os/common/ext/ARM/CMSIS/Core/Include/cmsis_gcc.h" 1
 2160 0002 83F31188 		MSR basepri, r3
 2161              	@ 0 "" 2
 2162              	.LVL159:
 2163              		.thumb
 2164              		.syntax unified
 2165              	.LBE449:
 2166              	.LBE448:
ARM GAS  C:\Users\14122\AppData\Local\Temp\cctexy9f.s 			page 39


 2167              	.LBE447:
 2168              	.LBE446:
 2169              	.LBE445:
 2170              		.loc 1 837 0
 2171 0006 836A     		ldr	r3, [r0, #40]
 2172 0008 DBB1     		cbz	r3, .L156
 2173              	.LBB450:
 2174              		.loc 1 838 0
 2175 000a 0269     		ldr	r2, [r0, #16]
 2176 000c 043B     		subs	r3, r3, #4
 2177              	.LVL160:
 2178              		.loc 1 840 0
 2179 000e 9B1A     		subs	r3, r3, r2
 2180              	.LVL161:
 2181 0010 17D0     		beq	.L156
 2182              	.LVL162:
 2183              	.LBE450:
 2184              		.loc 1 832 0
 2185 0012 10B5     		push	{r4, lr}
 2186              		.cfi_def_cfa_offset 8
 2187              		.cfi_offset 4, -8
 2188              		.cfi_offset 14, -4
 2189              	.LBB453:
 2190              	.LBB451:
 2191              	.LBB452:
 2192              		.loc 1 633 0
 2193 0014 1360     		str	r3, [r2]
 2194              		.loc 1 638 0
 2195 0016 D0E90614 		ldrd	r1, r4, [r0, #24]
 2196              		.loc 1 637 0
 2197 001a 2244     		add	r2, r2, r4
 2198              		.loc 1 638 0
 2199 001c 8A42     		cmp	r2, r1
 2200              		.loc 1 637 0
 2201 001e 0261     		str	r2, [r0, #16]
 2202              		.loc 1 643 0
 2203 0020 4FF00002 		mov	r2, #0
 2204              		.loc 1 636 0
 2205 0024 C368     		ldr	r3, [r0, #12]
 2206              	.LVL163:
 2207              		.loc 1 643 0
 2208 0026 8262     		str	r2, [r0, #40]
 2209              		.loc 1 636 0
 2210 0028 03F1FF33 		add	r3, r3, #-1
 2211 002c C360     		str	r3, [r0, #12]
 2212              		.loc 1 639 0
 2213 002e 24BF     		itt	cs
 2214 0030 436A     		ldrcs	r3, [r0, #36]
 2215 0032 0361     		strcs	r3, [r0, #16]
 2216              		.loc 1 646 0
 2217 0034 036B     		ldr	r3, [r0, #48]
 2218 0036 03B1     		cbz	r3, .L146
 2219              		.loc 1 647 0
 2220 0038 9847     		blx	r3
 2221              	.LVL164:
 2222              	.L146:
 2223              	.LBE452:
ARM GAS  C:\Users\14122\AppData\Local\Temp\cctexy9f.s 			page 40


 2224              	.LBE451:
 2225              	.LBE453:
 2226              	.LBB454:
 2227              	.LBB455:
 2228              	.LBB456:
 2229              	.LBB457:
 2230              	.LBB458:
 2231              	.LBB459:
 2232              		.loc 4 493 0
 2233 003a 0023     		movs	r3, #0
 2234              		.syntax unified
 2235              	@ 493 ".//os/common/ext/ARM/CMSIS/Core/Include/cmsis_gcc.h" 1
 2236 003c 83F31188 		MSR basepri, r3
 2237              	@ 0 "" 2
 2238              	.LVL165:
 2239              		.thumb
 2240              		.syntax unified
 2241              	.LBE459:
 2242              	.LBE458:
 2243              	.LBE457:
 2244              	.LBE456:
 2245              	.LBE455:
 2246              	.LBE454:
 2247              		.loc 1 846 0
 2248 0040 10BD     		pop	{r4, pc}
 2249              	.LVL166:
 2250              	.L156:
 2251              		.cfi_def_cfa_offset 0
 2252              		.cfi_restore 4
 2253              		.cfi_restore 14
 2254              	.LBB465:
 2255              	.LBB464:
 2256              	.LBB463:
 2257              	.LBB462:
 2258              	.LBB461:
 2259              	.LBB460:
 2260              		.loc 4 493 0
 2261 0042 0023     		movs	r3, #0
 2262              		.syntax unified
 2263              	@ 493 ".//os/common/ext/ARM/CMSIS/Core/Include/cmsis_gcc.h" 1
 2264 0044 83F31188 		MSR basepri, r3
 2265              	@ 0 "" 2
 2266              	.LVL167:
 2267              		.thumb
 2268              		.syntax unified
 2269 0048 7047     		bx	lr
 2270              	.LBE460:
 2271              	.LBE461:
 2272              	.LBE462:
 2273              	.LBE463:
 2274              	.LBE464:
 2275              	.LBE465:
 2276              		.cfi_endproc
 2277              	.LFE274:
 2278              		.size	obqFlush, .-obqFlush
 2279 004a 00BF     		.text
 2280              	.Letext0:
ARM GAS  C:\Users\14122\AppData\Local\Temp\cctexy9f.s 			page 41


 2281              		.file 5 "c:\\chibistudio\\tools\\gnu tools arm embedded\\7.0 2017q4\\lib\\gcc\\arm-none-eabi\\7.2.
 2282              		.file 6 "c:\\chibistudio\\tools\\gnu tools arm embedded\\7.0 2017q4\\arm-none-eabi\\include\\machi
 2283              		.file 7 "c:\\chibistudio\\tools\\gnu tools arm embedded\\7.0 2017q4\\arm-none-eabi\\include\\sys\\
 2284              		.file 8 "c:\\chibistudio\\tools\\gnu tools arm embedded\\7.0 2017q4\\arm-none-eabi\\include\\sys\\
 2285              		.file 9 "c:\\chibistudio\\tools\\gnu tools arm embedded\\7.0 2017q4\\arm-none-eabi\\include\\sys\\
 2286              		.file 10 "c:\\chibistudio\\tools\\gnu tools arm embedded\\7.0 2017q4\\arm-none-eabi\\include\\sys\
 2287              		.file 11 ".//os/common/ports/ARMCMx/compilers/GCC/chtypes.h"
 2288              		.file 12 ".//os/rt/include/chsystypes.h"
 2289              		.file 13 ".//os/rt/include/chtime.h"
 2290              		.file 14 ".//os/common/ext/ARM/CMSIS/Core/Include/core_cm3.h"
 2291              		.file 15 ".//os/common/ext/ST/STM32F1xx/system_stm32f1xx.h"
 2292              		.file 16 ".//os/common/ext/ST/STM32F1xx/stm32f103xb.h"
 2293              		.file 17 ".//os/common/ports/ARMCMx/chcore.h"
 2294              		.file 18 ".//os/common/ports/ARMCMx/chcore_v7m.h"
 2295              		.file 19 ".//os/rt/include/chsem.h"
 2296              		.file 20 ".//os/rt/include/chmtx.h"
 2297              		.file 21 ".//os/rt/include/chsys.h"
 2298              		.file 22 ".//os/rt/include/chregistry.h"
 2299              		.file 23 ".//os/rt/include/chevents.h"
 2300              		.file 24 ".//os/lib/include/chmemcore.h"
 2301              		.file 25 ".//os/lib/include/chmempools.h"
 2302              		.file 26 ".//os/lib/include/chfactory.h"
 2303              		.file 27 ".//os/hal/ports/STM32/LLD/DMAv1/stm32_dma.h"
 2304              		.file 28 ".//os/hal/include/hal_buffers.h"
 2305              		.file 29 ".//os/hal/include/hal_pal.h"
 2306              		.file 30 ".//os/hal/ports/STM32/LLD/GPIOv1/hal_pal_lld.h"
 2307              		.file 31 ".//os/hal/include/hal_can.h"
 2308              		.file 32 ".//os/hal/ports/STM32/LLD/CANv1/hal_can_lld.h"
 2309              		.file 33 ".//os/hal/include/hal_uart.h"
 2310              		.file 34 ".//os/hal/ports/STM32/LLD/USARTv1/hal_uart_lld.h"
 2311              		.file 35 ".//os/rt/include/chthreads.h"
 2312              		.file 36 "<built-in>"