ARM GAS  C:\Users\14122\AppData\Local\Temp\ccMqnaqC.s 			page 1


   1              		.cpu cortex-m3
   2              		.eabi_attribute 20, 1
   3              		.eabi_attribute 21, 1
   4              		.eabi_attribute 23, 3
   5              		.eabi_attribute 24, 1
   6              		.eabi_attribute 25, 1
   7              		.eabi_attribute 26, 1
   8              		.eabi_attribute 30, 2
   9              		.eabi_attribute 34, 1
  10              		.eabi_attribute 18, 4
  11              		.file	"hal_st_lld.c"
  12              		.text
  13              	.Ltext0:
  14              		.cfi_sections	.debug_frame
  15              		.section	.text.VectorB0,"ax",%progbits
  16              		.align	1
  17              		.p2align 4,,15
  18              		.global	VectorB0
  19              		.syntax unified
  20              		.thumb
  21              		.thumb_func
  22              		.fpu softvfp
  23              		.type	VectorB0, %function
  24              	VectorB0:
  25              	.LFB253:
  26              		.file 1 ".//os/hal/ports/STM32/LLD/TIMv1/hal_st_lld.c"
  27              		.loc 1 253 0
  28              		.cfi_startproc
  29              		@ args = 0, pretend = 0, frame = 0
  30              		@ frame_needed = 0, uses_anonymous_args = 0
  31              		.loc 1 260 0
  32 0000 4FF08043 		mov	r3, #1073741824
  33 0004 1A69     		ldr	r2, [r3, #16]
  34 0006 9207     		lsls	r2, r2, #30
  35 0008 01D4     		bmi	.L11
  36              		.loc 1 268 0
  37 000a FFF7FEBF 		b	_port_irq_epilogue
  38              	.LVL0:
  39              	.L11:
  40              		.loc 1 253 0
  41 000e 10B5     		push	{r4, lr}
  42              		.cfi_def_cfa_offset 8
  43              		.cfi_offset 4, -8
  44              		.cfi_offset 14, -4
  45              		.loc 1 261 0
  46 0010 0024     		movs	r4, #0
  47              	.LBB52:
  48              	.LBB53:
  49              	.LBB54:
  50              	.LBB55:
  51              	.LBB56:
  52              	.LBB57:
  53              		.file 2 ".//os/common/ext/ARM/CMSIS/Core/Include/cmsis_gcc.h"
  54              		.loc 2 493 0
  55 0012 2022     		movs	r2, #32
  56              	.LBE57:
  57              	.LBE56:
ARM GAS  C:\Users\14122\AppData\Local\Temp\ccMqnaqC.s 			page 2


  58              	.LBE55:
  59              	.LBE54:
  60              	.LBE53:
  61              	.LBE52:
  62              		.loc 1 261 0
  63 0014 1C61     		str	r4, [r3, #16]
  64              	.LVL1:
  65              	.LBB63:
  66              	.LBB62:
  67              	.LBB61:
  68              	.LBB60:
  69              	.LBB59:
  70              	.LBB58:
  71              		.loc 2 493 0
  72              		.syntax unified
  73              	@ 493 ".//os/common/ext/ARM/CMSIS/Core/Include/cmsis_gcc.h" 1
  74 0016 82F31188 		MSR basepri, r2
  75              	@ 0 "" 2
  76              	.LVL2:
  77              		.thumb
  78              		.syntax unified
  79              	.LBE58:
  80              	.LBE59:
  81              	.LBE60:
  82              	.LBE61:
  83              	.LBE62:
  84              	.LBE63:
  85              	.LBB64:
  86              	.LBB65:
  87              		.file 3 ".//os/hal/osal/rt/osal.h"
  88              		.loc 3 603 0
  89 001a FFF7FEFF 		bl	chSysTimerHandlerI
  90              	.LVL3:
  91              	.LBE65:
  92              	.LBE64:
  93              	.LBB66:
  94              	.LBB67:
  95              	.LBB68:
  96              	.LBB69:
  97              	.LBB70:
  98              	.LBB71:
  99              		.loc 2 493 0
 100              		.syntax unified
 101              	@ 493 ".//os/common/ext/ARM/CMSIS/Core/Include/cmsis_gcc.h" 1
 102 001e 84F31188 		MSR basepri, r4
 103              	@ 0 "" 2
 104              	.LVL4:
 105              		.thumb
 106              		.syntax unified
 107              	.LBE71:
 108              	.LBE70:
 109              	.LBE69:
 110              	.LBE68:
 111              	.LBE67:
 112              	.LBE66:
 113              		.loc 1 269 0
 114 0022 BDE81040 		pop	{r4, lr}
ARM GAS  C:\Users\14122\AppData\Local\Temp\ccMqnaqC.s 			page 3


 115              		.cfi_restore 14
 116              		.cfi_restore 4
 117              		.cfi_def_cfa_offset 0
 118              		.loc 1 268 0
 119 0026 FFF7FEBF 		b	_port_irq_epilogue
 120              	.LVL5:
 121              		.cfi_endproc
 122              	.LFE253:
 123              		.size	VectorB0, .-VectorB0
 124 002a 00BF     		.section	.text.st_lld_init,"ax",%progbits
 125              		.align	1
 126              		.p2align 4,,15
 127              		.global	st_lld_init
 128              		.syntax unified
 129              		.thumb
 130              		.thumb_func
 131              		.fpu softvfp
 132              		.type	st_lld_init, %function
 133              	st_lld_init:
 134              	.LFB254:
 135              		.loc 1 281 0
 136              		.cfi_startproc
 137              		@ args = 0, pretend = 0, frame = 0
 138              		@ frame_needed = 0, uses_anonymous_args = 0
 139              		@ link register save eliminated.
 140 0000 70B4     		push	{r4, r5, r6}
 141              		.cfi_def_cfa_offset 12
 142              		.cfi_offset 4, -12
 143              		.cfi_offset 5, -8
 144              		.cfi_offset 6, -4
 145              		.loc 1 299 0
 146 0002 0124     		movs	r4, #1
 147              		.loc 1 293 0
 148 0004 4FF08043 		mov	r3, #1073741824
 149              		.loc 1 295 0
 150 0008 0022     		movs	r2, #0
 151              		.loc 1 293 0
 152 000a 48F69F46 		movw	r6, #35999
 153              		.loc 1 294 0
 154 000e 4FF6FF75 		movw	r5, #65535
 155              		.loc 1 287 0
 156 0012 0B49     		ldr	r1, .L14
 157 0014 C869     		ldr	r0, [r1, #28]
 158 0016 2043     		orrs	r0, r0, r4
 159 0018 C861     		str	r0, [r1, #28]
 160              		.loc 1 290 0
 161 001a 0A48     		ldr	r0, .L14+4
 162              		.loc 1 287 0
 163 001c C969     		ldr	r1, [r1, #28]
 164              		.loc 1 290 0
 165 001e 4168     		ldr	r1, [r0, #4]
 166 0020 41F40061 		orr	r1, r1, #2048
 167 0024 4160     		str	r1, [r0, #4]
 168              		.loc 1 293 0
 169 0026 9E62     		str	r6, [r3, #40]
 170              		.loc 1 303 0
 171 0028 0821     		movs	r1, #8
ARM GAS  C:\Users\14122\AppData\Local\Temp\ccMqnaqC.s 			page 4


 172              		.loc 1 294 0
 173 002a DD62     		str	r5, [r3, #44]
 174              		.loc 1 303 0
 175 002c 1C20     		movs	r0, #28
 176              		.loc 1 295 0
 177 002e 9A61     		str	r2, [r3, #24]
 178              		.loc 1 296 0
 179 0030 5A63     		str	r2, [r3, #52]
 180              		.loc 1 297 0
 181 0032 DA60     		str	r2, [r3, #12]
 182              		.loc 1 298 0
 183 0034 5A60     		str	r2, [r3, #4]
 184              		.loc 1 299 0
 185 0036 5C61     		str	r4, [r3, #20]
 186              		.loc 1 300 0
 187 0038 1C60     		str	r4, [r3]
 188              		.loc 1 318 0
 189 003a 70BC     		pop	{r4, r5, r6}
 190              		.cfi_restore 6
 191              		.cfi_restore 5
 192              		.cfi_restore 4
 193              		.cfi_def_cfa_offset 0
 194              		.loc 1 303 0
 195 003c FFF7FEBF 		b	nvicEnableVector
 196              	.LVL6:
 197              	.L15:
 198              		.align	2
 199              	.L14:
 200 0040 00100240 		.word	1073876992
 201 0044 002004E0 		.word	-536600576
 202              		.cfi_endproc
 203              	.LFE254:
 204              		.size	st_lld_init, .-st_lld_init
 205              		.text
 206              	.Letext0:
 207              		.file 4 "c:\\chibistudio\\tools\\gnu tools arm embedded\\7.0 2017q4\\lib\\gcc\\arm-none-eabi\\7.2.
 208              		.file 5 "c:\\chibistudio\\tools\\gnu tools arm embedded\\7.0 2017q4\\arm-none-eabi\\include\\machi
 209              		.file 6 "c:\\chibistudio\\tools\\gnu tools arm embedded\\7.0 2017q4\\arm-none-eabi\\include\\sys\\
 210              		.file 7 ".//os/common/ports/ARMCMx/compilers/GCC/chtypes.h"
 211              		.file 8 ".//os/rt/include/chsystypes.h"
 212              		.file 9 ".//os/rt/include/chschd.h"
 213              		.file 10 ".//os/rt/include/chtime.h"
 214              		.file 11 ".//os/common/ext/ARM/CMSIS/Core/Include/core_cm3.h"
 215              		.file 12 ".//os/common/ext/ST/STM32F1xx/system_stm32f1xx.h"
 216              		.file 13 ".//os/common/ext/ST/STM32F1xx/stm32f103xb.h"
 217              		.file 14 ".//os/common/ports/ARMCMx/chcore.h"
 218              		.file 15 ".//os/common/ports/ARMCMx/chcore_v7m.h"
 219              		.file 16 ".//os/hal/ports/STM32/LLD/TIMv1/stm32_tim.h"
 220              		.file 17 ".//os/rt/include/chsem.h"
 221              		.file 18 ".//os/rt/include/chmtx.h"
 222              		.file 19 ".//os/rt/include/chsys.h"
 223              		.file 20 ".//os/rt/include/chregistry.h"
 224              		.file 21 ".//os/rt/include/chevents.h"
 225              		.file 22 ".//os/lib/include/chmemcore.h"
 226              		.file 23 ".//os/lib/include/chmempools.h"
 227              		.file 24 ".//os/lib/include/chfactory.h"
 228              		.file 25 ".//os/hal/ports/STM32/LLD/DMAv1/stm32_dma.h"
ARM GAS  C:\Users\14122\AppData\Local\Temp\ccMqnaqC.s 			page 5


 229              		.file 26 ".//os/hal/include/hal_pal.h"
 230              		.file 27 ".//os/hal/ports/STM32/LLD/GPIOv1/hal_pal_lld.h"
 231              		.file 28 ".//os/hal/include/hal_can.h"
 232              		.file 29 ".//os/hal/ports/STM32/LLD/CANv1/hal_can_lld.h"
 233              		.file 30 ".//os/hal/include/hal_uart.h"
 234              		.file 31 ".//os/hal/ports/STM32/LLD/USARTv1/hal_uart_lld.h"
 235              		.file 32 ".//os/hal/ports/common/ARMCMx/nvic.h"