ARM GAS  C:\Users\14122\AppData\Local\Temp\cclBTU82.s 			page 1


   1              		.cpu cortex-m3
   2              		.eabi_attribute 20, 1
   3              		.eabi_attribute 21, 1
   4              		.eabi_attribute 23, 3
   5              		.eabi_attribute 24, 1
   6              		.eabi_attribute 25, 1
   7              		.eabi_attribute 26, 1
   8              		.eabi_attribute 30, 2
   9              		.eabi_attribute 34, 1
  10              		.eabi_attribute 18, 4
  11              		.file	"hal_uart_lld.c"
  12              		.text
  13              	.Ltext0:
  14              		.cfi_sections	.debug_frame
  15              		.section	.text.usart_stop,"ax",%progbits
  16              		.align	1
  17              		.p2align 4,,15
  18              		.syntax unified
  19              		.thumb
  20              		.thumb_func
  21              		.fpu softvfp
  22              		.type	usart_stop, %function
  23              	usart_stop:
  24              	.LFB255:
  25              		.file 1 ".//os/hal/ports/STM32/LLD/USARTv1/hal_uart_lld.c"
  26              		.loc 1 180 0
  27              		.cfi_startproc
  28              		@ args = 0, pretend = 0, frame = 0
  29              		@ frame_needed = 0, uses_anonymous_args = 0
  30              		@ link register save eliminated.
  31              	.LVL0:
  32              		.loc 1 183 0
  33 0000 0E23     		movs	r3, #14
  34              		.loc 1 187 0
  35 0002 0021     		movs	r1, #0
  36              		.loc 1 180 0
  37 0004 30B4     		push	{r4, r5}
  38              		.cfi_def_cfa_offset 8
  39              		.cfi_offset 4, -8
  40              		.cfi_offset 5, -4
  41              		.loc 1 183 0
  42 0006 0569     		ldr	r5, [r0, #16]
  43 0008 6C68     		ldr	r4, [r5, #4]
  44 000a 2268     		ldr	r2, [r4]
  45 000c 22F00F02 		bic	r2, r2, #15
  46 0010 2260     		str	r2, [r4]
  47 0012 6A7B     		ldrb	r2, [r5, #13]	@ zero_extendqisi2
  48              		.loc 1 184 0
  49 0014 4469     		ldr	r4, [r0, #20]
  50              		.loc 1 183 0
  51 0016 2D68     		ldr	r5, [r5]
  52 0018 03FA02F2 		lsl	r2, r3, r2
  53 001c 6A60     		str	r2, [r5, #4]
  54              		.loc 1 184 0
  55 001e 6568     		ldr	r5, [r4, #4]
  56              		.loc 1 187 0
  57 0020 8268     		ldr	r2, [r0, #8]
ARM GAS  C:\Users\14122\AppData\Local\Temp\cclBTU82.s 			page 2


  58              		.loc 1 184 0
  59 0022 2868     		ldr	r0, [r5]
  60              	.LVL1:
  61 0024 20F00F00 		bic	r0, r0, #15
  62 0028 2860     		str	r0, [r5]
  63 002a 657B     		ldrb	r5, [r4, #13]	@ zero_extendqisi2
  64 002c 2068     		ldr	r0, [r4]
  65 002e AB40     		lsls	r3, r3, r5
  66 0030 4360     		str	r3, [r0, #4]
  67              		.loc 1 190 0
  68 0032 30BC     		pop	{r4, r5}
  69              		.cfi_restore 5
  70              		.cfi_restore 4
  71              		.cfi_def_cfa_offset 0
  72              		.loc 1 187 0
  73 0034 D160     		str	r1, [r2, #12]
  74              		.loc 1 188 0
  75 0036 1161     		str	r1, [r2, #16]
  76              		.loc 1 189 0
  77 0038 5161     		str	r1, [r2, #20]
  78              		.loc 1 190 0
  79 003a 7047     		bx	lr
  80              		.cfi_endproc
  81              	.LFE255:
  82              		.size	usart_stop, .-usart_stop
  83              		.section	.text.uart_lld_serve_tx_end_irq,"ax",%progbits
  84              		.align	1
  85              		.p2align 4,,15
  86              		.syntax unified
  87              		.thumb
  88              		.thumb_func
  89              		.fpu softvfp
  90              		.type	uart_lld_serve_tx_end_irq, %function
  91              	uart_lld_serve_tx_end_irq:
  92              	.LFB258:
  93              		.loc 1 281 0
  94              		.cfi_startproc
  95              		@ args = 0, pretend = 0, frame = 0
  96              		@ frame_needed = 0, uses_anonymous_args = 0
  97              	.LVL2:
  98              		.loc 1 285 0
  99 0000 0B07     		lsls	r3, r1, #28
 100              		.loc 1 281 0
 101 0002 70B5     		push	{r4, r5, r6, lr}
 102              		.cfi_def_cfa_offset 16
 103              		.cfi_offset 4, -16
 104              		.cfi_offset 5, -12
 105              		.cfi_offset 6, -8
 106              		.cfi_offset 14, -4
 107              		.loc 1 281 0
 108 0004 0446     		mov	r4, r0
 109              		.loc 1 285 0
 110 0006 18D4     		bmi	.L16
 111              	.LVL3:
 112              	.L5:
 113              		.loc 1 292 0
 114 0008 0E23     		movs	r3, #14
ARM GAS  C:\Users\14122\AppData\Local\Temp\cclBTU82.s 			page 3


 115              		.loc 1 295 0
 116 000a 0225     		movs	r5, #2
 117              		.loc 1 292 0
 118 000c 6269     		ldr	r2, [r4, #20]
 119              		.loc 1 295 0
 120 000e 6668     		ldr	r6, [r4, #4]
 121              		.loc 1 292 0
 122 0010 5068     		ldr	r0, [r2, #4]
 123 0012 0168     		ldr	r1, [r0]
 124 0014 21F00F01 		bic	r1, r1, #15
 125 0018 0160     		str	r1, [r0]
 126 001a 507B     		ldrb	r0, [r2, #13]	@ zero_extendqisi2
 127 001c 1168     		ldr	r1, [r2]
 128              		.loc 1 295 0
 129 001e 3268     		ldr	r2, [r6]
 130              		.loc 1 292 0
 131 0020 8340     		lsls	r3, r3, r0
 132 0022 4B60     		str	r3, [r1, #4]
 133              		.loc 1 295 0
 134 0024 6570     		strb	r5, [r4, #1]
 135 0026 2AB1     		cbz	r2, .L8
 136              		.loc 1 295 0 is_stmt 0 discriminator 1
 137 0028 2046     		mov	r0, r4
 138 002a 9047     		blx	r2
 139              	.LVL4:
 140 002c 6378     		ldrb	r3, [r4, #1]	@ zero_extendqisi2
 141 002e 022B     		cmp	r3, #2
 142 0030 00D0     		beq	.L8
 143              		.loc 1 296 0 is_stmt 1
 144 0032 70BD     		pop	{r4, r5, r6, pc}
 145              	.LVL5:
 146              	.L8:
 147              		.loc 1 295 0
 148 0034 0023     		movs	r3, #0
 149 0036 6370     		strb	r3, [r4, #1]
 150              		.loc 1 296 0
 151 0038 70BD     		pop	{r4, r5, r6, pc}
 152              	.LVL6:
 153              	.L16:
 154              	.LBB16:
 155              	.LBB17:
 156              		.file 2 ".//os/hal/osal/rt/osal.h"
 157              		.loc 2 480 0
 158 003a 0248     		ldr	r0, .L17
 159              	.LVL7:
 160 003c FFF7FEFF 		bl	chSysHalt
 161              	.LVL8:
 162 0040 E2E7     		b	.L5
 163              	.L18:
 164 0042 00BF     		.align	2
 165              	.L17:
 166 0044 00000000 		.word	.LC0
 167              	.LBE17:
 168              	.LBE16:
 169              		.cfi_endproc
 170              	.LFE258:
 171              		.size	uart_lld_serve_tx_end_irq, .-uart_lld_serve_tx_end_irq
ARM GAS  C:\Users\14122\AppData\Local\Temp\cclBTU82.s 			page 4


 172              		.section	.text.uart_lld_serve_rx_end_irq,"ax",%progbits
 173              		.align	1
 174              		.p2align 4,,15
 175              		.syntax unified
 176              		.thumb
 177              		.thumb_func
 178              		.fpu softvfp
 179              		.type	uart_lld_serve_rx_end_irq, %function
 180              	uart_lld_serve_rx_end_irq:
 181              	.LFB257:
 182              		.loc 1 251 0
 183              		.cfi_startproc
 184              		@ args = 0, pretend = 0, frame = 0
 185              		@ frame_needed = 0, uses_anonymous_args = 0
 186              	.LVL9:
 187              		.loc 1 255 0
 188 0000 0B07     		lsls	r3, r1, #28
 189              		.loc 1 251 0
 190 0002 70B5     		push	{r4, r5, r6, lr}
 191              		.cfi_def_cfa_offset 16
 192              		.cfi_offset 4, -16
 193              		.cfi_offset 5, -12
 194              		.cfi_offset 6, -8
 195              		.cfi_offset 14, -4
 196              		.loc 1 251 0
 197 0004 0446     		mov	r4, r0
 198              		.loc 1 255 0
 199 0006 33D4     		bmi	.L35
 200              	.LVL10:
 201              	.L20:
 202              		.loc 1 262 0
 203 0008 A378     		ldrb	r3, [r4, #2]	@ zero_extendqisi2
 204 000a 6268     		ldr	r2, [r4, #4]
 205 000c 3BB9     		cbnz	r3, .L21
 206              		.loc 1 265 0
 207 000e D368     		ldr	r3, [r2, #12]
 208 0010 002B     		cmp	r3, #0
 209 0012 2CD0     		beq	.L19
 210              		.loc 1 265 0 is_stmt 0 discriminator 1
 211 0014 218B     		ldrh	r1, [r4, #24]
 212 0016 2046     		mov	r0, r4
 213              		.loc 1 273 0 is_stmt 1 discriminator 1
 214 0018 BDE87040 		pop	{r4, r5, r6, lr}
 215              		.cfi_remember_state
 216              		.cfi_restore 14
 217              		.cfi_restore 6
 218              		.cfi_restore 5
 219              		.cfi_restore 4
 220              		.cfi_def_cfa_offset 0
 221              	.LVL11:
 222              		.loc 1 265 0 discriminator 1
 223 001c 1847     		bx	r3	@ indirect register sibling call
 224              	.LVL12:
 225              	.L21:
 226              		.cfi_restore_state
 227              	.LBB26:
 228              	.LBB27:
ARM GAS  C:\Users\14122\AppData\Local\Temp\cclBTU82.s 			page 5


 229              		.loc 1 270 0
 230 001e 0E21     		movs	r1, #14
 231              		.loc 1 271 0
 232 0020 0226     		movs	r6, #2
 233              		.loc 1 270 0
 234 0022 2069     		ldr	r0, [r4, #16]
 235 0024 4368     		ldr	r3, [r0, #4]
 236 0026 1D68     		ldr	r5, [r3]
 237 0028 25F00F05 		bic	r5, r5, #15
 238 002c 1D60     		str	r5, [r3]
 239 002e 457B     		ldrb	r5, [r0, #13]	@ zero_extendqisi2
 240 0030 0068     		ldr	r0, [r0]
 241 0032 A940     		lsls	r1, r1, r5
 242              		.loc 1 271 0
 243 0034 9568     		ldr	r5, [r2, #8]
 244              		.loc 1 270 0
 245 0036 4160     		str	r1, [r0, #4]
 246              		.loc 1 271 0
 247 0038 A670     		strb	r6, [r4, #2]
 248 003a 3DB1     		cbz	r5, .L24
 249 003c 2046     		mov	r0, r4
 250 003e A847     		blx	r5
 251              	.LVL13:
 252 0040 A378     		ldrb	r3, [r4, #2]	@ zero_extendqisi2
 253 0042 B342     		cmp	r3, r6
 254 0044 13D1     		bne	.L19
 255 0046 2369     		ldr	r3, [r4, #16]
 256 0048 6268     		ldr	r2, [r4, #4]
 257 004a 5B68     		ldr	r3, [r3, #4]
 258              	.L24:
 259 004c 0025     		movs	r5, #0
 260              	.LBB28:
 261              	.LBB29:
 262              		.loc 1 164 0
 263 004e D268     		ldr	r2, [r2, #12]
 264              		.loc 1 169 0
 265 0050 0121     		movs	r1, #1
 266              		.loc 1 165 0
 267 0052 AA42     		cmp	r2, r5
 268 0054 14BF     		ite	ne
 269 0056 2222     		movne	r2, #34
 270 0058 2022     		moveq	r2, #32
 271              		.loc 1 170 0
 272 005a E068     		ldr	r0, [r4, #12]
 273              	.LBE29:
 274              	.LBE28:
 275              		.loc 1 271 0
 276 005c A570     		strb	r5, [r4, #2]
 277              	.LVL14:
 278              	.LBB31:
 279              	.LBB30:
 280              		.loc 1 170 0
 281 005e 0243     		orrs	r2, r2, r0
 282              	.LVL15:
 283              		.loc 1 168 0
 284 0060 1834     		adds	r4, r4, #24
 285              	.LVL16:
ARM GAS  C:\Users\14122\AppData\Local\Temp\cclBTU82.s 			page 6


 286 0062 DC60     		str	r4, [r3, #12]
 287              		.loc 1 169 0
 288 0064 5960     		str	r1, [r3, #4]
 289              		.loc 1 170 0
 290 0066 1A60     		str	r2, [r3]
 291              		.loc 1 171 0
 292 0068 1A68     		ldr	r2, [r3]
 293 006a 0A43     		orrs	r2, r2, r1
 294 006c 1A60     		str	r2, [r3]
 295              	.LVL17:
 296              	.L19:
 297              	.LBE30:
 298              	.LBE31:
 299              	.LBE27:
 300              	.LBE26:
 301              		.loc 1 273 0
 302 006e 70BD     		pop	{r4, r5, r6, pc}
 303              	.LVL18:
 304              	.L35:
 305              	.LBB32:
 306              	.LBB33:
 307              		.loc 2 480 0
 308 0070 0148     		ldr	r0, .L36
 309              	.LVL19:
 310 0072 FFF7FEFF 		bl	chSysHalt
 311              	.LVL20:
 312 0076 C7E7     		b	.L20
 313              	.L37:
 314              		.align	2
 315              	.L36:
 316 0078 00000000 		.word	.LC0
 317              	.LBE33:
 318              	.LBE32:
 319              		.cfi_endproc
 320              	.LFE257:
 321              		.size	uart_lld_serve_rx_end_irq, .-uart_lld_serve_rx_end_irq
 322              		.section	.text.VectorD8,"ax",%progbits
 323              		.align	1
 324              		.p2align 4,,15
 325              		.global	VectorD8
 326              		.syntax unified
 327              		.thumb
 328              		.thumb_func
 329              		.fpu softvfp
 330              		.type	VectorD8, %function
 331              	VectorD8:
 332              	.LFB260:
 333              		.loc 1 359 0
 334              		.cfi_startproc
 335              		@ args = 0, pretend = 0, frame = 0
 336              		@ frame_needed = 0, uses_anonymous_args = 0
 337              	.LVL21:
 338 0000 F8B5     		push	{r3, r4, r5, r6, r7, lr}
 339              		.cfi_def_cfa_offset 24
 340              		.cfi_offset 3, -24
 341              		.cfi_offset 4, -20
 342              		.cfi_offset 5, -16
ARM GAS  C:\Users\14122\AppData\Local\Temp\cclBTU82.s 			page 7


 343              		.cfi_offset 6, -12
 344              		.cfi_offset 7, -8
 345              		.cfi_offset 14, -4
 346              	.LBB38:
 347              	.LBB39:
 348              		.loc 1 311 0
 349 0002 40F20F13 		movw	r3, #271
 350              		.loc 1 305 0
 351 0006 1B4E     		ldr	r6, .L73
 352 0008 B468     		ldr	r4, [r6, #8]
 353              	.LVL22:
 354              		.loc 1 306 0
 355 000a E768     		ldr	r7, [r4, #12]
 356              	.LVL23:
 357              		.loc 1 308 0
 358 000c 2568     		ldr	r5, [r4]
 359              	.LVL24:
 360              		.loc 1 309 0
 361 000e 6268     		ldr	r2, [r4, #4]
 362              		.loc 1 311 0
 363 0010 1D42     		tst	r5, r3
 364 0012 1DD0     		beq	.L40
 365              		.loc 1 313 0
 366 0014 6FF48072 		mvn	r2, #256
 367              		.loc 1 314 0
 368 0018 7368     		ldr	r3, [r6, #4]
 369              		.loc 1 313 0
 370 001a 2260     		str	r2, [r4]
 371              		.loc 1 314 0
 372 001c 1A69     		ldr	r2, [r3, #16]
 373 001e BAB1     		cbz	r2, .L40
 374              		.loc 1 308 0
 375 0020 ABB2     		uxth	r3, r5
 376              	.LVL25:
 377              	.LBB40:
 378              	.LBB41:
 379              		.loc 1 142 0
 380 0022 13F0080F 		tst	r3, #8
 381 0026 0CBF     		ite	eq
 382 0028 0021     		moveq	r1, #0
 383 002a 1021     		movne	r1, #16
 384              	.LVL26:
 385              		.loc 1 143 0
 386 002c D807     		lsls	r0, r3, #31
 387              		.loc 1 144 0
 388 002e 48BF     		it	mi
 389 0030 41F00401 		orrmi	r1, r1, #4
 390              	.LVL27:
 391              		.loc 1 145 0
 392 0034 9807     		lsls	r0, r3, #30
 393              		.loc 1 146 0
 394 0036 48BF     		it	mi
 395 0038 41F00801 		orrmi	r1, r1, #8
 396              	.LVL28:
 397              		.loc 1 147 0
 398 003c 5807     		lsls	r0, r3, #29
 399              		.loc 1 148 0
ARM GAS  C:\Users\14122\AppData\Local\Temp\cclBTU82.s 			page 8


 400 003e 48BF     		it	mi
 401 0040 41F02001 		orrmi	r1, r1, #32
 402              	.LVL29:
 403              		.loc 1 149 0
 404 0044 D805     		lsls	r0, r3, #23
 405              		.loc 1 150 0
 406 0046 48BF     		it	mi
 407 0048 41F04001 		orrmi	r1, r1, #64
 408              	.LVL30:
 409              	.LBE41:
 410              	.LBE40:
 411              		.loc 1 314 0
 412 004c 0948     		ldr	r0, .L73
 413 004e 9047     		blx	r2
 414              	.LVL31:
 415              	.L40:
 416              		.loc 1 317 0
 417 0050 6A06     		lsls	r2, r5, #25
 418 0052 0BD5     		bpl	.L48
 419 0054 7B06     		lsls	r3, r7, #25
 420 0056 09D5     		bpl	.L48
 421              		.loc 1 319 0
 422 0058 6FF04002 		mvn	r2, #64
 423              		.loc 1 323 0
 424 005c 7368     		ldr	r3, [r6, #4]
 425              		.loc 1 320 0
 426 005e 1740     		ands	r7, r7, r2
 427              	.LVL32:
 428              		.loc 1 323 0
 429 0060 5B68     		ldr	r3, [r3, #4]
 430              		.loc 1 319 0
 431 0062 2260     		str	r2, [r4]
 432              		.loc 1 320 0
 433 0064 E760     		str	r7, [r4, #12]
 434              		.loc 1 323 0
 435 0066 0BB1     		cbz	r3, .L48
 436 0068 0248     		ldr	r0, .L73
 437 006a 9847     		blx	r3
 438              	.LVL33:
 439              	.L48:
 440              	.LBE39:
 441              	.LBE38:
 442              		.loc 1 366 0
 443 006c BDE8F840 		pop	{r3, r4, r5, r6, r7, lr}
 444              		.cfi_restore 14
 445              		.cfi_restore 7
 446              		.cfi_restore 6
 447              		.cfi_restore 5
 448              		.cfi_restore 4
 449              		.cfi_restore 3
 450              		.cfi_def_cfa_offset 0
 451              		.loc 1 365 0
 452 0070 FFF7FEBF 		b	_port_irq_epilogue
 453              	.LVL34:
 454              	.L74:
 455              		.align	2
 456              	.L73:
ARM GAS  C:\Users\14122\AppData\Local\Temp\cclBTU82.s 			page 9


 457 0074 00000000 		.word	.LANCHOR0
 458              		.cfi_endproc
 459              	.LFE260:
 460              		.size	VectorD8, .-VectorD8
 461              		.section	.text.uart_lld_init,"ax",%progbits
 462              		.align	1
 463              		.p2align 4,,15
 464              		.global	uart_lld_init
 465              		.syntax unified
 466              		.thumb
 467              		.thumb_func
 468              		.fpu softvfp
 469              		.type	uart_lld_init, %function
 470              	uart_lld_init:
 471              	.LFB261:
 472              		.loc 1 454 0
 473              		.cfi_startproc
 474              		@ args = 0, pretend = 0, frame = 0
 475              		@ frame_needed = 0, uses_anonymous_args = 0
 476 0000 10B5     		push	{r4, lr}
 477              		.cfi_def_cfa_offset 8
 478              		.cfi_offset 4, -8
 479              		.cfi_offset 14, -4
 480              		.loc 1 465 0
 481 0002 074C     		ldr	r4, .L77
 482 0004 2046     		mov	r0, r4
 483 0006 FFF7FEFF 		bl	uartObjectInit
 484              	.LVL35:
 485              		.loc 1 467 0
 486 000a 0821     		movs	r1, #8
 487              		.loc 1 468 0
 488 000c 054B     		ldr	r3, .L77+4
 489              		.loc 1 466 0
 490 000e 0648     		ldr	r0, .L77+8
 491              		.loc 1 469 0
 492 0010 03F11002 		add	r2, r3, #16
 493              		.loc 1 467 0
 494 0014 C4E90201 		strd	r0, r1, [r4, #8]
 495              		.loc 1 469 0
 496 0018 C4E90432 		strd	r3, r2, [r4, #16]
 497              		.loc 1 502 0
 498 001c 10BD     		pop	{r4, pc}
 499              	.L78:
 500 001e 00BF     		.align	2
 501              	.L77:
 502 0020 00000000 		.word	.LANCHOR0
 503 0024 50000000 		.word	_stm32_dma_streams+80
 504 0028 00440040 		.word	1073759232
 505              		.cfi_endproc
 506              	.LFE261:
 507              		.size	uart_lld_init, .-uart_lld_init
 508              		.section	.text.uart_lld_start,"ax",%progbits
 509              		.align	1
 510              		.p2align 4,,15
 511              		.global	uart_lld_start
 512              		.syntax unified
 513              		.thumb
ARM GAS  C:\Users\14122\AppData\Local\Temp\cclBTU82.s 			page 10


 514              		.thumb_func
 515              		.fpu softvfp
 516              		.type	uart_lld_start, %function
 517              	uart_lld_start:
 518              	.LFB262:
 519              		.loc 1 511 0
 520              		.cfi_startproc
 521              		@ args = 0, pretend = 0, frame = 0
 522              		@ frame_needed = 0, uses_anonymous_args = 0
 523              	.LVL36:
 524 0000 F8B5     		push	{r3, r4, r5, r6, r7, lr}
 525              		.cfi_def_cfa_offset 24
 526              		.cfi_offset 3, -24
 527              		.cfi_offset 4, -20
 528              		.cfi_offset 5, -16
 529              		.cfi_offset 6, -12
 530              		.cfi_offset 7, -8
 531              		.cfi_offset 14, -4
 532              		.loc 1 513 0
 533 0002 0378     		ldrb	r3, [r0]	@ zero_extendqisi2
 534              		.loc 1 511 0
 535 0004 0446     		mov	r4, r0
 536              		.loc 1 513 0
 537 0006 012B     		cmp	r3, #1
 538 0008 32D0     		beq	.L80
 539 000a 8568     		ldr	r5, [r0, #8]
 540              	.LVL37:
 541              	.L81:
 542              		.loc 1 655 0
 543 000c 0023     		movs	r3, #0
 544              	.LBB47:
 545              	.LBB48:
 546              		.loc 1 204 0
 547 000e 2046     		mov	r0, r4
 548              	.LBE48:
 549              	.LBE47:
 550              		.loc 1 655 0
 551 0010 A370     		strb	r3, [r4, #2]
 552              		.loc 1 656 0
 553 0012 6370     		strb	r3, [r4, #1]
 554              	.LVL38:
 555              	.LBB62:
 556              	.LBB61:
 557              		.loc 1 204 0
 558 0014 FFF7FEFF 		bl	usart_stop
 559              	.LVL39:
 560              		.loc 1 212 0
 561 0018 6168     		ldr	r1, [r4, #4]
 562 001a 2D4B     		ldr	r3, .L90
 563 001c 4A69     		ldr	r2, [r1, #20]
 564              		.loc 1 228 0
 565 001e 0026     		movs	r6, #0
 566              		.loc 1 212 0
 567 0020 B3FBF2F3 		udiv	r3, r3, r2
 568              	.LVL40:
 569              	.LBB49:
 570              	.LBB50:
ARM GAS  C:\Users\14122\AppData\Local\Temp\cclBTU82.s 			page 11


 571              		.loc 1 164 0
 572 0024 CA68     		ldr	r2, [r1, #12]
 573              		.loc 1 169 0
 574 0026 0127     		movs	r7, #1
 575              		.loc 1 164 0
 576 0028 002A     		cmp	r2, #0
 577              		.loc 1 165 0
 578 002a 14BF     		ite	ne
 579 002c 2220     		movne	r0, #34
 580 002e 2020     		moveq	r0, #32
 581              	.LBE50:
 582              	.LBE49:
 583              		.loc 1 223 0
 584 0030 AB60     		str	r3, [r5, #8]
 585              	.LBB56:
 586              	.LBB51:
 587              		.loc 1 168 0
 588 0032 2369     		ldr	r3, [r4, #16]
 589              	.LVL41:
 590              	.LBE51:
 591              	.LBE56:
 592              		.loc 1 239 0
 593 0034 0A8B     		ldrh	r2, [r1, #24]
 594              		.loc 1 226 0
 595 0036 D5F800C0 		ldr	ip, [r5]
 596              	.LBB57:
 597              	.LBB52:
 598              		.loc 1 168 0
 599 003a 5B68     		ldr	r3, [r3, #4]
 600              	.LBE52:
 601              	.LBE57:
 602              		.loc 1 227 0
 603 003c D5F804C0 		ldr	ip, [r5, #4]
 604              		.loc 1 228 0
 605 0040 2E60     		str	r6, [r5]
 606              	.LVL42:
 607              		.loc 1 232 0
 608 0042 4E8B     		ldrh	r6, [r1, #26]
 609              		.loc 1 233 0
 610 0044 898B     		ldrh	r1, [r1, #28]
 611              		.loc 1 232 0
 612 0046 46F04006 		orr	r6, r6, #64
 613              		.loc 1 233 0
 614 004a 41F0C101 		orr	r1, r1, #193
 615              		.loc 1 232 0
 616 004e 2E61     		str	r6, [r5, #16]
 617              		.loc 1 233 0
 618 0050 6961     		str	r1, [r5, #20]
 619              	.LVL43:
 620              	.LBB58:
 621              	.LBB53:
 622              		.loc 1 170 0
 623 0052 E168     		ldr	r1, [r4, #12]
 624              	.LBE53:
 625              	.LBE58:
 626              		.loc 1 239 0
 627 0054 42F40452 		orr	r2, r2, #8448
ARM GAS  C:\Users\14122\AppData\Local\Temp\cclBTU82.s 			page 12


 628 0058 42F00C02 		orr	r2, r2, #12
 629              	.LBB59:
 630              	.LBB54:
 631              		.loc 1 168 0
 632 005c 1834     		adds	r4, r4, #24
 633              	.LVL44:
 634              		.loc 1 170 0
 635 005e 0143     		orrs	r1, r1, r0
 636              	.LBE54:
 637              	.LBE59:
 638              		.loc 1 239 0
 639 0060 EA60     		str	r2, [r5, #12]
 640              	.LVL45:
 641              	.LBB60:
 642              	.LBB55:
 643              		.loc 1 168 0
 644 0062 DC60     		str	r4, [r3, #12]
 645              		.loc 1 169 0
 646 0064 5F60     		str	r7, [r3, #4]
 647              		.loc 1 170 0
 648 0066 1960     		str	r1, [r3]
 649              		.loc 1 171 0
 650 0068 1A68     		ldr	r2, [r3]
 651 006a 3A43     		orrs	r2, r2, r7
 652 006c 1A60     		str	r2, [r3]
 653              	.LVL46:
 654              	.LBE55:
 655              	.LBE60:
 656              	.LBE61:
 657              	.LBE62:
 658              		.loc 1 658 0
 659 006e F8BD     		pop	{r3, r4, r5, r6, r7, pc}
 660              	.LVL47:
 661              	.L80:
 662              		.loc 1 535 0
 663 0070 184B     		ldr	r3, .L90+4
 664 0072 9842     		cmp	r0, r3
 665 0074 15D0     		beq	.L89
 666              	.LVL48:
 667              	.L82:
 668              		.loc 1 648 0
 669 0076 6368     		ldr	r3, [r4, #4]
 670 0078 1B8B     		ldrh	r3, [r3, #24]
 671 007a 03F4A053 		and	r3, r3, #5120
 672 007e B3F5805F 		cmp	r3, #4096
 673 0082 03D1     		bne	.L83
 674              		.loc 1 649 0
 675 0084 E368     		ldr	r3, [r4, #12]
 676 0086 43F4A063 		orr	r3, r3, #1280
 677 008a E360     		str	r3, [r4, #12]
 678              	.L83:
 679              		.loc 1 652 0
 680 008c 0022     		movs	r2, #0
 681              		.loc 1 651 0
 682 008e D4E90413 		ldrd	r1, r3, [r4, #16]
 683              		.loc 1 650 0
 684 0092 A568     		ldr	r5, [r4, #8]
ARM GAS  C:\Users\14122\AppData\Local\Temp\cclBTU82.s 			page 13


 685 0094 4868     		ldr	r0, [r1, #4]
 686              		.loc 1 651 0
 687 0096 5968     		ldr	r1, [r3, #4]
 688              		.loc 1 650 0
 689 0098 2B1D     		adds	r3, r5, #4
 690 009a 8360     		str	r3, [r0, #8]
 691              		.loc 1 651 0
 692 009c 8B60     		str	r3, [r1, #8]
 693              		.loc 1 652 0
 694 009e 2283     		strh	r2, [r4, #24]	@ movhi
 695 00a0 B4E7     		b	.L81
 696              	.LVL49:
 697              	.L89:
 698              	.LBB63:
 699              		.loc 1 537 0
 700 00a2 0346     		mov	r3, r0
 701 00a4 0C4A     		ldr	r2, .L90+8
 702 00a6 0C21     		movs	r1, #12
 703 00a8 0069     		ldr	r0, [r0, #16]
 704              	.LVL50:
 705 00aa FFF7FEFF 		bl	dmaStreamAllocate
 706              	.LVL51:
 707              		.loc 1 542 0
 708 00ae 2346     		mov	r3, r4
 709 00b0 0A4A     		ldr	r2, .L90+12
 710 00b2 0C21     		movs	r1, #12
 711 00b4 6069     		ldr	r0, [r4, #20]
 712 00b6 FFF7FEFF 		bl	dmaStreamAllocate
 713              	.LVL52:
 714              		.loc 1 547 0
 715 00ba 094B     		ldr	r3, .L90+16
 716              		.loc 1 548 0
 717 00bc 0C21     		movs	r1, #12
 718              		.loc 1 547 0
 719 00be DA69     		ldr	r2, [r3, #28]
 720              		.loc 1 548 0
 721 00c0 2620     		movs	r0, #38
 722              		.loc 1 547 0
 723 00c2 42F40032 		orr	r2, r2, #131072
 724 00c6 DA61     		str	r2, [r3, #28]
 725 00c8 DB69     		ldr	r3, [r3, #28]
 726              		.loc 1 548 0
 727 00ca FFF7FEFF 		bl	nvicEnableVector
 728              	.LVL53:
 729 00ce D2E7     		b	.L82
 730              	.L91:
 731              		.align	2
 732              	.L90:
 733 00d0 00512502 		.word	36000000
 734 00d4 00000000 		.word	.LANCHOR0
 735 00d8 00000000 		.word	uart_lld_serve_rx_end_irq
 736 00dc 00000000 		.word	uart_lld_serve_tx_end_irq
 737 00e0 00100240 		.word	1073876992
 738              	.LBE63:
 739              		.cfi_endproc
 740              	.LFE262:
 741              		.size	uart_lld_start, .-uart_lld_start
ARM GAS  C:\Users\14122\AppData\Local\Temp\cclBTU82.s 			page 14


 742              		.section	.text.uart_lld_stop,"ax",%progbits
 743              		.align	1
 744              		.p2align 4,,15
 745              		.global	uart_lld_stop
 746              		.syntax unified
 747              		.thumb
 748              		.thumb_func
 749              		.fpu softvfp
 750              		.type	uart_lld_stop, %function
 751              	uart_lld_stop:
 752              	.LFB263:
 753              		.loc 1 667 0
 754              		.cfi_startproc
 755              		@ args = 0, pretend = 0, frame = 0
 756              		@ frame_needed = 0, uses_anonymous_args = 0
 757              	.LVL54:
 758              		.loc 1 669 0
 759 0000 0278     		ldrb	r2, [r0]	@ zero_extendqisi2
 760 0002 022A     		cmp	r2, #2
 761 0004 00D0     		beq	.L100
 762 0006 7047     		bx	lr
 763              	.L100:
 764              		.loc 1 667 0
 765 0008 10B5     		push	{r4, lr}
 766              		.cfi_def_cfa_offset 8
 767              		.cfi_offset 4, -8
 768              		.cfi_offset 14, -4
 769 000a 0446     		mov	r4, r0
 770              		.loc 1 670 0
 771 000c FFF7FEFF 		bl	usart_stop
 772              	.LVL55:
 773              		.loc 1 671 0
 774 0010 2069     		ldr	r0, [r4, #16]
 775 0012 FFF7FEFF 		bl	dmaStreamRelease
 776              	.LVL56:
 777              		.loc 1 672 0
 778 0016 6069     		ldr	r0, [r4, #20]
 779 0018 FFF7FEFF 		bl	dmaStreamRelease
 780              	.LVL57:
 781              		.loc 1 683 0
 782 001c 064B     		ldr	r3, .L102
 783 001e 9C42     		cmp	r4, r3
 784 0020 00D0     		beq	.L101
 785              		.loc 1 722 0
 786 0022 10BD     		pop	{r4, pc}
 787              	.LVL58:
 788              	.L101:
 789              		.loc 1 684 0
 790 0024 2620     		movs	r0, #38
 791 0026 FFF7FEFF 		bl	nvicDisableVector
 792              	.LVL59:
 793              		.loc 1 685 0
 794 002a 044B     		ldr	r3, .L102+4
 795 002c DA69     		ldr	r2, [r3, #28]
 796 002e 22F40032 		bic	r2, r2, #131072
 797 0032 DA61     		str	r2, [r3, #28]
 798 0034 DB69     		ldr	r3, [r3, #28]
ARM GAS  C:\Users\14122\AppData\Local\Temp\cclBTU82.s 			page 15


 799              		.loc 1 722 0
 800 0036 10BD     		pop	{r4, pc}
 801              	.LVL60:
 802              	.L103:
 803              		.align	2
 804              	.L102:
 805 0038 00000000 		.word	.LANCHOR0
 806 003c 00100240 		.word	1073876992
 807              		.cfi_endproc
 808              	.LFE263:
 809              		.size	uart_lld_stop, .-uart_lld_stop
 810              		.section	.text.uart_lld_start_send,"ax",%progbits
 811              		.align	1
 812              		.p2align 4,,15
 813              		.global	uart_lld_start_send
 814              		.syntax unified
 815              		.thumb
 816              		.thumb_func
 817              		.fpu softvfp
 818              		.type	uart_lld_start_send, %function
 819              	uart_lld_start_send:
 820              	.LFB264:
 821              		.loc 1 735 0
 822              		.cfi_startproc
 823              		@ args = 0, pretend = 0, frame = 0
 824              		@ frame_needed = 0, uses_anonymous_args = 0
 825              		@ link register save eliminated.
 826              	.LVL61:
 827 0000 30B4     		push	{r4, r5}
 828              		.cfi_def_cfa_offset 8
 829              		.cfi_offset 4, -8
 830              		.cfi_offset 5, -4
 831              		.loc 1 738 0
 832 0002 4369     		ldr	r3, [r0, #20]
 833              		.loc 1 749 0
 834 0004 4568     		ldr	r5, [r0, #4]
 835              		.loc 1 740 0
 836 0006 C468     		ldr	r4, [r0, #12]
 837              		.loc 1 738 0
 838 0008 5B68     		ldr	r3, [r3, #4]
 839              		.loc 1 749 0
 840 000a 6D68     		ldr	r5, [r5, #4]
 841              		.loc 1 740 0
 842 000c 44F09204 		orr	r4, r4, #146
 843              		.loc 1 738 0
 844 0010 DA60     		str	r2, [r3, #12]
 845              		.loc 1 739 0
 846 0012 5960     		str	r1, [r3, #4]
 847              		.loc 1 740 0
 848 0014 1C60     		str	r4, [r3]
 849              		.loc 1 749 0
 850 0016 3DB1     		cbz	r5, .L105
 851              		.loc 1 751 0
 852 0018 6FF04001 		mvn	r1, #64
 853              	.LVL62:
 854 001c 8268     		ldr	r2, [r0, #8]
 855              	.LVL63:
ARM GAS  C:\Users\14122\AppData\Local\Temp\cclBTU82.s 			page 16


 856 001e 1160     		str	r1, [r2]
 857              		.loc 1 752 0
 858 0020 D168     		ldr	r1, [r2, #12]
 859 0022 41F04001 		orr	r1, r1, #64
 860 0026 D160     		str	r1, [r2, #12]
 861              	.L105:
 862              		.loc 1 756 0
 863 0028 1A68     		ldr	r2, [r3]
 864              		.loc 1 757 0
 865 002a 30BC     		pop	{r4, r5}
 866              		.cfi_restore 5
 867              		.cfi_restore 4
 868              		.cfi_def_cfa_offset 0
 869              		.loc 1 756 0
 870 002c 42F00102 		orr	r2, r2, #1
 871 0030 1A60     		str	r2, [r3]
 872              		.loc 1 757 0
 873 0032 7047     		bx	lr
 874              		.cfi_endproc
 875              	.LFE264:
 876              		.size	uart_lld_start_send, .-uart_lld_start_send
 877              		.section	.text.uart_lld_stop_send,"ax",%progbits
 878              		.align	1
 879              		.p2align 4,,15
 880              		.global	uart_lld_stop_send
 881              		.syntax unified
 882              		.thumb
 883              		.thumb_func
 884              		.fpu softvfp
 885              		.type	uart_lld_stop_send, %function
 886              	uart_lld_stop_send:
 887              	.LFB265:
 888              		.loc 1 770 0
 889              		.cfi_startproc
 890              		@ args = 0, pretend = 0, frame = 0
 891              		@ frame_needed = 0, uses_anonymous_args = 0
 892              		@ link register save eliminated.
 893              	.LVL64:
 894              		.loc 1 772 0
 895 0000 0E22     		movs	r2, #14
 896 0002 4169     		ldr	r1, [r0, #20]
 897              		.loc 1 770 0
 898 0004 10B4     		push	{r4}
 899              		.cfi_def_cfa_offset 4
 900              		.cfi_offset 4, -4
 901              		.loc 1 772 0
 902 0006 D1E90043 		ldrd	r4, r3, [r1]
 903 000a 1868     		ldr	r0, [r3]
 904              	.LVL65:
 905 000c 20F00F00 		bic	r0, r0, #15
 906 0010 1860     		str	r0, [r3]
 907 0012 497B     		ldrb	r1, [r1, #13]	@ zero_extendqisi2
 908 0014 8A40     		lsls	r2, r2, r1
 909 0016 6260     		str	r2, [r4, #4]
 910              		.loc 1 774 0
 911 0018 5868     		ldr	r0, [r3, #4]
 912              		.loc 1 775 0
ARM GAS  C:\Users\14122\AppData\Local\Temp\cclBTU82.s 			page 17


 913 001a 10BC     		pop	{r4}
 914              		.cfi_restore 4
 915              		.cfi_def_cfa_offset 0
 916 001c 7047     		bx	lr
 917              		.cfi_endproc
 918              	.LFE265:
 919              		.size	uart_lld_stop_send, .-uart_lld_stop_send
 920 001e 00BF     		.section	.text.uart_lld_start_receive,"ax",%progbits
 921              		.align	1
 922              		.p2align 4,,15
 923              		.global	uart_lld_start_receive
 924              		.syntax unified
 925              		.thumb
 926              		.thumb_func
 927              		.fpu softvfp
 928              		.type	uart_lld_start_receive, %function
 929              	uart_lld_start_receive:
 930              	.LFB266:
 931              		.loc 1 788 0
 932              		.cfi_startproc
 933              		@ args = 0, pretend = 0, frame = 0
 934              		@ frame_needed = 0, uses_anonymous_args = 0
 935              		@ link register save eliminated.
 936              	.LVL66:
 937 0000 F0B4     		push	{r4, r5, r6, r7}
 938              		.cfi_def_cfa_offset 16
 939              		.cfi_offset 4, -16
 940              		.cfi_offset 5, -12
 941              		.cfi_offset 6, -8
 942              		.cfi_offset 7, -4
 943              		.loc 1 791 0
 944 0002 0E24     		movs	r4, #14
 945 0004 0569     		ldr	r5, [r0, #16]
 946              		.loc 1 796 0
 947 0006 C068     		ldr	r0, [r0, #12]
 948              	.LVL67:
 949              		.loc 1 791 0
 950 0008 6B68     		ldr	r3, [r5, #4]
 951 000a 2F68     		ldr	r7, [r5]
 952 000c 1E68     		ldr	r6, [r3]
 953              		.loc 1 796 0
 954 000e 40F08200 		orr	r0, r0, #130
 955              		.loc 1 791 0
 956 0012 26F00F06 		bic	r6, r6, #15
 957 0016 1E60     		str	r6, [r3]
 958 0018 6D7B     		ldrb	r5, [r5, #13]	@ zero_extendqisi2
 959 001a AC40     		lsls	r4, r4, r5
 960 001c 7C60     		str	r4, [r7, #4]
 961              		.loc 1 794 0
 962 001e DA60     		str	r2, [r3, #12]
 963              		.loc 1 795 0
 964 0020 5960     		str	r1, [r3, #4]
 965              		.loc 1 796 0
 966 0022 1860     		str	r0, [r3]
 967              		.loc 1 800 0
 968 0024 1A68     		ldr	r2, [r3]
 969              	.LVL68:
ARM GAS  C:\Users\14122\AppData\Local\Temp\cclBTU82.s 			page 18


 970              		.loc 1 801 0
 971 0026 F0BC     		pop	{r4, r5, r6, r7}
 972              		.cfi_restore 7
 973              		.cfi_restore 6
 974              		.cfi_restore 5
 975              		.cfi_restore 4
 976              		.cfi_def_cfa_offset 0
 977              		.loc 1 800 0
 978 0028 42F00102 		orr	r2, r2, #1
 979 002c 1A60     		str	r2, [r3]
 980              		.loc 1 801 0
 981 002e 7047     		bx	lr
 982              		.cfi_endproc
 983              	.LFE266:
 984              		.size	uart_lld_start_receive, .-uart_lld_start_receive
 985              		.section	.text.uart_lld_stop_receive,"ax",%progbits
 986              		.align	1
 987              		.p2align 4,,15
 988              		.global	uart_lld_stop_receive
 989              		.syntax unified
 990              		.thumb
 991              		.thumb_func
 992              		.fpu softvfp
 993              		.type	uart_lld_stop_receive, %function
 994              	uart_lld_stop_receive:
 995              	.LFB267:
 996              		.loc 1 814 0
 997              		.cfi_startproc
 998              		@ args = 0, pretend = 0, frame = 0
 999              		@ frame_needed = 0, uses_anonymous_args = 0
 1000              		@ link register save eliminated.
 1001              	.LVL69:
 1002              	.LBB64:
 1003              	.LBB65:
 1004              		.loc 1 164 0
 1005 0000 4368     		ldr	r3, [r0, #4]
 1006              	.LBE65:
 1007              	.LBE64:
 1008              		.loc 1 817 0
 1009 0002 0E22     		movs	r2, #14
 1010              	.LBB70:
 1011              	.LBB66:
 1012              		.loc 1 164 0
 1013 0004 DB68     		ldr	r3, [r3, #12]
 1014              	.LBE66:
 1015              	.LBE70:
 1016              		.loc 1 814 0
 1017 0006 70B4     		push	{r4, r5, r6}
 1018              		.cfi_def_cfa_offset 12
 1019              		.cfi_offset 4, -12
 1020              		.cfi_offset 5, -8
 1021              		.cfi_offset 6, -4
 1022              	.LBB71:
 1023              	.LBB67:
 1024              		.loc 1 164 0
 1025 0008 002B     		cmp	r3, #0
 1026              		.loc 1 167 0
ARM GAS  C:\Users\14122\AppData\Local\Temp\cclBTU82.s 			page 19


 1027 000a 0CBF     		ite	eq
 1028 000c 2021     		moveq	r1, #32
 1029 000e 2221     		movne	r1, #34
 1030              		.loc 1 169 0
 1031 0010 0126     		movs	r6, #1
 1032              	.LBE67:
 1033              	.LBE71:
 1034              		.loc 1 817 0
 1035 0012 0469     		ldr	r4, [r0, #16]
 1036 0014 6368     		ldr	r3, [r4, #4]
 1037 0016 1D68     		ldr	r5, [r3]
 1038 0018 25F00F05 		bic	r5, r5, #15
 1039 001c 1D60     		str	r5, [r3]
 1040 001e 657B     		ldrb	r5, [r4, #13]	@ zero_extendqisi2
 1041 0020 2468     		ldr	r4, [r4]
 1042 0022 AA40     		lsls	r2, r2, r5
 1043 0024 6260     		str	r2, [r4, #4]
 1044              	.LBB72:
 1045              	.LBB68:
 1046              		.loc 1 170 0
 1047 0026 C468     		ldr	r4, [r0, #12]
 1048              		.loc 1 168 0
 1049 0028 00F11802 		add	r2, r0, #24
 1050              		.loc 1 170 0
 1051 002c 2143     		orrs	r1, r1, r4
 1052              	.LBE68:
 1053              	.LBE72:
 1054              		.loc 1 818 0
 1055 002e 5868     		ldr	r0, [r3, #4]
 1056              	.LVL70:
 1057              	.LBB73:
 1058              	.LBB69:
 1059              		.loc 1 168 0
 1060 0030 DA60     		str	r2, [r3, #12]
 1061              		.loc 1 169 0
 1062 0032 5E60     		str	r6, [r3, #4]
 1063              		.loc 1 170 0
 1064 0034 1960     		str	r1, [r3]
 1065              		.loc 1 171 0
 1066 0036 1A68     		ldr	r2, [r3]
 1067              	.LVL71:
 1068 0038 3243     		orrs	r2, r2, r6
 1069 003a 1A60     		str	r2, [r3]
 1070              	.LVL72:
 1071              	.LBE69:
 1072              	.LBE73:
 1073              		.loc 1 822 0
 1074 003c 70BC     		pop	{r4, r5, r6}
 1075              		.cfi_restore 6
 1076              		.cfi_restore 5
 1077              		.cfi_restore 4
 1078              		.cfi_def_cfa_offset 0
 1079 003e 7047     		bx	lr
 1080              		.cfi_endproc
 1081              	.LFE267:
 1082              		.size	uart_lld_stop_receive, .-uart_lld_stop_receive
 1083              		.global	UARTD2
ARM GAS  C:\Users\14122\AppData\Local\Temp\cclBTU82.s 			page 20


 1084              		.section	.bss.UARTD2,"aw",%nobits
 1085              		.align	2
 1086              		.set	.LANCHOR0,. + 0
 1087              		.type	UARTD2, %object
 1088              		.size	UARTD2, 28
 1089              	UARTD2:
 1090 0000 00000000 		.space	28
 1090      00000000 
 1090      00000000 
 1090      00000000 
 1090      00000000 
 1091              		.section	.rodata.uart_lld_serve_tx_end_irq.str1.4,"aMS",%progbits,1
 1092              		.align	2
 1093              	.LC0:
 1094 0000 444D4120 		.ascii	"DMA failure\000"
 1094      6661696C 
 1094      75726500 
 1095              		.text
 1096              	.Letext0:
 1097              		.file 3 "c:\\chibistudio\\tools\\gnu tools arm embedded\\7.0 2017q4\\lib\\gcc\\arm-none-eabi\\7.2.
 1098              		.file 4 "c:\\chibistudio\\tools\\gnu tools arm embedded\\7.0 2017q4\\arm-none-eabi\\include\\machi
 1099              		.file 5 "c:\\chibistudio\\tools\\gnu tools arm embedded\\7.0 2017q4\\arm-none-eabi\\include\\sys\\
 1100              		.file 6 ".//os/common/ports/ARMCMx/compilers/GCC/chtypes.h"
 1101              		.file 7 ".//os/rt/include/chsystypes.h"
 1102              		.file 8 ".//os/rt/include/chschd.h"
 1103              		.file 9 ".//os/rt/include/chtime.h"
 1104              		.file 10 ".//os/common/ext/ARM/CMSIS/Core/Include/core_cm3.h"
 1105              		.file 11 ".//os/common/ext/ST/STM32F1xx/system_stm32f1xx.h"
 1106              		.file 12 ".//os/common/ext/ST/STM32F1xx/stm32f103xb.h"
 1107              		.file 13 ".//os/common/ports/ARMCMx/chcore.h"
 1108              		.file 14 ".//os/common/ports/ARMCMx/chcore_v7m.h"
 1109              		.file 15 ".//os/rt/include/chsem.h"
 1110              		.file 16 ".//os/rt/include/chmtx.h"
 1111              		.file 17 ".//os/rt/include/chsys.h"
 1112              		.file 18 ".//os/rt/include/chregistry.h"
 1113              		.file 19 ".//os/rt/include/chevents.h"
 1114              		.file 20 ".//os/lib/include/chmemcore.h"
 1115              		.file 21 ".//os/lib/include/chmempools.h"
 1116              		.file 22 ".//os/lib/include/chfactory.h"
 1117              		.file 23 ".//os/hal/ports/STM32/LLD/DMAv1/stm32_dma.h"
 1118              		.file 24 ".//os/hal/include/hal_pal.h"
 1119              		.file 25 ".//os/hal/ports/STM32/LLD/GPIOv1/hal_pal_lld.h"
 1120              		.file 26 ".//os/hal/include/hal_can.h"
 1121              		.file 27 ".//os/hal/ports/STM32/LLD/CANv1/hal_can_lld.h"
 1122              		.file 28 ".//os/hal/include/hal_uart.h"
 1123              		.file 29 ".//os/hal/ports/STM32/LLD/USARTv1/hal_uart_lld.h"
 1124              		.file 30 ".//os/hal/ports/common/ARMCMx/nvic.h"
 1125              		.file 31 ".//os/rt/include/ch.h"