ARM GAS  C:\Users\14122\AppData\Local\Temp\cc2eSDGZ.s 			page 1


   1              		.cpu cortex-m3
   2              		.eabi_attribute 20, 1
   3              		.eabi_attribute 21, 1
   4              		.eabi_attribute 23, 3
   5              		.eabi_attribute 24, 1
   6              		.eabi_attribute 25, 1
   7              		.eabi_attribute 26, 1
   8              		.eabi_attribute 30, 2
   9              		.eabi_attribute 34, 1
  10              		.eabi_attribute 18, 4
  11              		.file	"hal_st.c"
  12              		.text
  13              	.Ltext0:
  14              		.cfi_sections	.debug_frame
  15              		.section	.text.stInit,"ax",%progbits
  16              		.align	1
  17              		.p2align 4,,15
  18              		.global	stInit
  19              		.syntax unified
  20              		.thumb
  21              		.thumb_func
  22              		.fpu softvfp
  23              		.type	stInit, %function
  24              	stInit:
  25              	.LFB253:
  26              		.file 1 ".//os/hal/src/hal_st.c"
  27              		.loc 1 60 0
  28              		.cfi_startproc
  29              		@ args = 0, pretend = 0, frame = 0
  30              		@ frame_needed = 0, uses_anonymous_args = 0
  31              		@ link register save eliminated.
  32              		.loc 1 62 0
  33 0000 FFF7FEBF 		b	st_lld_init
  34              	.LVL0:
  35              		.cfi_endproc
  36              	.LFE253:
  37              		.size	stInit, .-stInit
  38              		.section	.text.stStartAlarm,"ax",%progbits
  39              		.align	1
  40              		.p2align 4,,15
  41              		.global	stStartAlarm
  42              		.syntax unified
  43              		.thumb
  44              		.thumb_func
  45              		.fpu softvfp
  46              		.type	stStartAlarm, %function
  47              	stStartAlarm:
  48              	.LFB254:
  49              		.loc 1 76 0
  50              		.cfi_startproc
  51              		@ args = 0, pretend = 0, frame = 0
  52              		@ frame_needed = 0, uses_anonymous_args = 0
  53              		@ link register save eliminated.
  54              	.LVL1:
  55              	.LBB10:
  56              	.LBB11:
  57              		.file 2 ".//os/hal/ports/STM32/LLD/TIMv1/hal_st_lld.h"
ARM GAS  C:\Users\14122\AppData\Local\Temp\cc2eSDGZ.s 			page 2


  58              		.loc 2 155 0
  59 0000 4FF08043 		mov	r3, #1073741824
  60              		.loc 2 156 0
  61 0004 0021     		movs	r1, #0
  62              		.loc 2 157 0
  63 0006 0222     		movs	r2, #2
  64              		.loc 2 155 0
  65 0008 5863     		str	r0, [r3, #52]
  66              		.loc 2 156 0
  67 000a 1961     		str	r1, [r3, #16]
  68              		.loc 2 157 0
  69 000c DA60     		str	r2, [r3, #12]
  70              	.LVL2:
  71              	.LBE11:
  72              	.LBE10:
  73              		.loc 1 81 0
  74 000e 7047     		bx	lr
  75              		.cfi_endproc
  76              	.LFE254:
  77              		.size	stStartAlarm, .-stStartAlarm
  78              		.section	.text.stStopAlarm,"ax",%progbits
  79              		.align	1
  80              		.p2align 4,,15
  81              		.global	stStopAlarm
  82              		.syntax unified
  83              		.thumb
  84              		.thumb_func
  85              		.fpu softvfp
  86              		.type	stStopAlarm, %function
  87              	stStopAlarm:
  88              	.LFB255:
  89              		.loc 1 90 0
  90              		.cfi_startproc
  91              		@ args = 0, pretend = 0, frame = 0
  92              		@ frame_needed = 0, uses_anonymous_args = 0
  93              		@ link register save eliminated.
  94              	.LBB12:
  95              	.LBB13:
  96              		.loc 2 167 0
  97 0000 4FF08043 		mov	r3, #1073741824
  98 0004 0022     		movs	r2, #0
  99 0006 DA60     		str	r2, [r3, #12]
 100              	.LBE13:
 101              	.LBE12:
 102              		.loc 1 93 0
 103 0008 7047     		bx	lr
 104              		.cfi_endproc
 105              	.LFE255:
 106              		.size	stStopAlarm, .-stStopAlarm
 107 000a 00BF     		.section	.text.stSetAlarm,"ax",%progbits
 108              		.align	1
 109              		.p2align 4,,15
 110              		.global	stSetAlarm
 111              		.syntax unified
 112              		.thumb
 113              		.thumb_func
 114              		.fpu softvfp
ARM GAS  C:\Users\14122\AppData\Local\Temp\cc2eSDGZ.s 			page 3


 115              		.type	stSetAlarm, %function
 116              	stSetAlarm:
 117              	.LFB256:
 118              		.loc 1 104 0
 119              		.cfi_startproc
 120              		@ args = 0, pretend = 0, frame = 0
 121              		@ frame_needed = 0, uses_anonymous_args = 0
 122              		@ link register save eliminated.
 123              	.LVL3:
 124              	.LBB14:
 125              	.LBB15:
 126              		.loc 2 179 0
 127 0000 4FF08043 		mov	r3, #1073741824
 128 0004 5863     		str	r0, [r3, #52]
 129              	.LVL4:
 130              	.LBE15:
 131              	.LBE14:
 132              		.loc 1 109 0
 133 0006 7047     		bx	lr
 134              		.cfi_endproc
 135              	.LFE256:
 136              		.size	stSetAlarm, .-stSetAlarm
 137              		.section	.text.stGetAlarm,"ax",%progbits
 138              		.align	1
 139              		.p2align 4,,15
 140              		.global	stGetAlarm
 141              		.syntax unified
 142              		.thumb
 143              		.thumb_func
 144              		.fpu softvfp
 145              		.type	stGetAlarm, %function
 146              	stGetAlarm:
 147              	.LFB257:
 148              		.loc 1 120 0
 149              		.cfi_startproc
 150              		@ args = 0, pretend = 0, frame = 0
 151              		@ frame_needed = 0, uses_anonymous_args = 0
 152              		@ link register save eliminated.
 153              	.LBB16:
 154              	.LBB17:
 155              		.loc 2 191 0
 156 0000 4FF08043 		mov	r3, #1073741824
 157 0004 586B     		ldr	r0, [r3, #52]
 158              	.LBE17:
 159              	.LBE16:
 160              		.loc 1 125 0
 161 0006 80B2     		uxth	r0, r0
 162 0008 7047     		bx	lr
 163              		.cfi_endproc
 164              	.LFE257:
 165              		.size	stGetAlarm, .-stGetAlarm
 166 000a 00BF     		.text
 167              	.Letext0:
 168              		.file 3 "c:\\chibistudio\\tools\\gnu tools arm embedded\\7.0 2017q4\\lib\\gcc\\arm-none-eabi\\7.2.
 169              		.file 4 "c:\\chibistudio\\tools\\gnu tools arm embedded\\7.0 2017q4\\arm-none-eabi\\include\\machi
 170              		.file 5 "c:\\chibistudio\\tools\\gnu tools arm embedded\\7.0 2017q4\\arm-none-eabi\\include\\sys\\
 171              		.file 6 ".//os/common/ports/ARMCMx/compilers/GCC/chtypes.h"
ARM GAS  C:\Users\14122\AppData\Local\Temp\cc2eSDGZ.s 			page 4


 172              		.file 7 ".//os/rt/include/chsystypes.h"
 173              		.file 8 ".//os/rt/include/chschd.h"
 174              		.file 9 ".//os/rt/include/chtime.h"
 175              		.file 10 ".//os/common/ext/ARM/CMSIS/Core/Include/core_cm3.h"
 176              		.file 11 ".//os/common/ext/ST/STM32F1xx/system_stm32f1xx.h"
 177              		.file 12 ".//os/common/ext/ST/STM32F1xx/stm32f103xb.h"
 178              		.file 13 ".//os/common/ports/ARMCMx/chcore.h"
 179              		.file 14 ".//os/common/ports/ARMCMx/chcore_v7m.h"
 180              		.file 15 ".//os/hal/ports/STM32/LLD/TIMv1/stm32_tim.h"
 181              		.file 16 ".//os/rt/include/chsem.h"
 182              		.file 17 ".//os/rt/include/chmtx.h"
 183              		.file 18 ".//os/rt/include/chsys.h"
 184              		.file 19 ".//os/rt/include/chregistry.h"
 185              		.file 20 ".//os/rt/include/chevents.h"
 186              		.file 21 ".//os/lib/include/chmemcore.h"
 187              		.file 22 ".//os/lib/include/chmempools.h"
 188              		.file 23 ".//os/lib/include/chfactory.h"
 189              		.file 24 ".//os/hal/ports/STM32/LLD/DMAv1/stm32_dma.h"
 190              		.file 25 ".//os/hal/include/hal_pal.h"
 191              		.file 26 ".//os/hal/ports/STM32/LLD/GPIOv1/hal_pal_lld.h"
 192              		.file 27 ".//os/hal/include/hal_can.h"
 193              		.file 28 ".//os/hal/ports/STM32/LLD/CANv1/hal_can_lld.h"
 194              		.file 29 ".//os/hal/include/hal_uart.h"
 195              		.file 30 ".//os/hal/ports/STM32/LLD/USARTv1/hal_uart_lld.h"