ARM GAS  C:\Users\14122\AppData\Local\Temp\ccv6zkBe.s 			page 1


   1              		.cpu cortex-m3
   2              		.eabi_attribute 20, 1
   3              		.eabi_attribute 21, 1
   4              		.eabi_attribute 23, 3
   5              		.eabi_attribute 24, 1
   6              		.eabi_attribute 25, 1
   7              		.eabi_attribute 26, 1
   8              		.eabi_attribute 30, 2
   9              		.eabi_attribute 34, 1
  10              		.eabi_attribute 18, 4
  11              		.file	"pid.c"
  12              		.text
  13              	.Ltext0:
  14              		.cfi_sections	.debug_frame
  15              		.section	.text.pid_init,"ax",%progbits
  16              		.align	1
  17              		.p2align 4,,15
  18              		.global	pid_init
  19              		.syntax unified
  20              		.thumb
  21              		.thumb_func
  22              		.fpu softvfp
  23              		.type	pid_init, %function
  24              	pid_init:
  25              	.LFB0:
  26              		.file 1 "./src/pid.c"
  27              		.loc 1 6 0
  28              		.cfi_startproc
  29              		@ args = 12, pretend = 0, frame = 0
  30              		@ frame_needed = 0, uses_anonymous_args = 0
  31              		@ link register save eliminated.
  32              	.LVL0:
  33              		.loc 1 8 0
  34 0000 4260     		str	r2, [r0, #4]	@ float
  35              		.loc 1 11 0
  36 0002 0022     		movs	r2, #0
  37              	.LVL1:
  38              		.loc 1 6 0
  39 0004 30B4     		push	{r4, r5}
  40              		.cfi_def_cfa_offset 8
  41              		.cfi_offset 4, -8
  42              		.cfi_offset 5, -4
  43              		.loc 1 6 0
  44 0006 029D     		ldr	r5, [sp, #8]	@ float
  45 0008 039C     		ldr	r4, [sp, #12]	@ float
  46              		.loc 1 7 0
  47 000a 0160     		str	r1, [r0]	@ float
  48              		.loc 1 6 0
  49 000c 0499     		ldr	r1, [sp, #16]	@ float
  50              	.LVL2:
  51              		.loc 1 10 0
  52 000e C560     		str	r5, [r0, #12]	@ float
  53              		.loc 1 17 0
  54 0010 8462     		str	r4, [r0, #40]	@ float
  55              		.loc 1 9 0
  56 0012 8360     		str	r3, [r0, #8]	@ float
  57              		.loc 1 18 0
ARM GAS  C:\Users\14122\AppData\Local\Temp\ccv6zkBe.s 			page 2


  58 0014 C162     		str	r1, [r0, #44]	@ float
  59              		.loc 1 11 0
  60 0016 4262     		str	r2, [r0, #36]	@ float
  61              		.loc 1 12 0
  62 0018 0261     		str	r2, [r0, #16]	@ float
  63              		.loc 1 13 0
  64 001a 4261     		str	r2, [r0, #20]	@ float
  65              		.loc 1 14 0
  66 001c 8261     		str	r2, [r0, #24]	@ float
  67              		.loc 1 15 0
  68 001e C261     		str	r2, [r0, #28]	@ float
  69              		.loc 1 16 0
  70 0020 0262     		str	r2, [r0, #32]	@ float
  71              		.loc 1 19 0
  72 0022 30BC     		pop	{r4, r5}
  73              		.cfi_restore 5
  74              		.cfi_restore 4
  75              		.cfi_def_cfa_offset 0
  76              	.LVL3:
  77 0024 7047     		bx	lr
  78              		.cfi_endproc
  79              	.LFE0:
  80              		.size	pid_init, .-pid_init
  81              		.global	__aeabi_fcmpgt
  82 0026 00BF     		.section	.text.limit,"ax",%progbits
  83              		.align	1
  84              		.p2align 4,,15
  85              		.global	limit
  86              		.syntax unified
  87              		.thumb
  88              		.thumb_func
  89              		.fpu softvfp
  90              		.type	limit, %function
  91              	limit:
  92              	.LFB1:
  93              		.loc 1 22 0
  94              		.cfi_startproc
  95              		@ args = 0, pretend = 0, frame = 0
  96              		@ frame_needed = 0, uses_anonymous_args = 0
  97              	.LVL4:
  98 0000 38B5     		push	{r3, r4, r5, lr}
  99              		.cfi_def_cfa_offset 16
 100              		.cfi_offset 3, -16
 101              		.cfi_offset 4, -12
 102              		.cfi_offset 5, -8
 103              		.cfi_offset 14, -4
 104              		.loc 1 22 0
 105 0002 0D46     		mov	r5, r1
 106 0004 0446     		mov	r4, r0
 107              		.loc 1 23 0
 108 0006 0146     		mov	r1, r0
 109              	.LVL5:
 110 0008 2846     		mov	r0, r5
 111              	.LVL6:
 112 000a FFF7FEFF 		bl	__aeabi_fcmpgt
 113              	.LVL7:
 114 000e 30B9     		cbnz	r0, .L4
ARM GAS  C:\Users\14122\AppData\Local\Temp\ccv6zkBe.s 			page 3


 115              		.loc 1 25 0
 116 0010 04F10044 		add	r4, r4, #-2147483648
 117              	.LVL8:
 118 0014 2046     		mov	r0, r4
 119 0016 2946     		mov	r1, r5
 120 0018 FFF7FEFF 		bl	__aeabi_fcmpgt
 121              	.LVL9:
 122 001c 08B1     		cbz	r0, .L11
 123              	.L4:
 124              		.loc 1 29 0
 125 001e 2046     		mov	r0, r4
 126 0020 38BD     		pop	{r3, r4, r5, pc}
 127              	.LVL10:
 128              	.L11:
 129              		.loc 1 28 0
 130 0022 2C46     		mov	r4, r5
 131              		.loc 1 29 0
 132 0024 2046     		mov	r0, r4
 133 0026 38BD     		pop	{r3, r4, r5, pc}
 134              		.cfi_endproc
 135              	.LFE1:
 136              		.size	limit, .-limit
 137              		.global	__aeabi_fsub
 138              		.global	__aeabi_fmul
 139              		.global	__aeabi_fadd
 140              		.global	__aeabi_fdiv
 141              		.global	__aeabi_fcmplt
 142              		.section	.text.pid_update,"ax",%progbits
 143              		.align	1
 144              		.p2align 4,,15
 145              		.global	pid_update
 146              		.syntax unified
 147              		.thumb
 148              		.thumb_func
 149              		.fpu softvfp
 150              		.type	pid_update, %function
 151              	pid_update:
 152              	.LFB2:
 153              		.loc 1 32 0
 154              		.cfi_startproc
 155              		@ args = 0, pretend = 0, frame = 0
 156              		@ frame_needed = 0, uses_anonymous_args = 0
 157              	.LVL11:
 158 0000 2DE9F843 		push	{r3, r4, r5, r6, r7, r8, r9, lr}
 159              		.cfi_def_cfa_offset 32
 160              		.cfi_offset 3, -32
 161              		.cfi_offset 4, -28
 162              		.cfi_offset 5, -24
 163              		.cfi_offset 6, -20
 164              		.cfi_offset 7, -16
 165              		.cfi_offset 8, -12
 166              		.cfi_offset 9, -8
 167              		.cfi_offset 14, -4
 168              		.loc 1 32 0
 169 0004 0B46     		mov	r3, r1
 170 0006 0446     		mov	r4, r0
 171              		.loc 1 33 0
ARM GAS  C:\Users\14122\AppData\Local\Temp\ccv6zkBe.s 			page 4


 172 0008 1146     		mov	r1, r2
 173              	.LVL12:
 174 000a 1846     		mov	r0, r3
 175              	.LVL13:
 176 000c FFF7FEFF 		bl	__aeabi_fsub
 177              	.LVL14:
 178              		.loc 1 35 0
 179 0010 2168     		ldr	r1, [r4]	@ float
 180              		.loc 1 33 0
 181 0012 E061     		str	r0, [r4, #28]	@ float
 182 0014 0646     		mov	r6, r0
 183              		.loc 1 35 0
 184 0016 FFF7FEFF 		bl	__aeabi_fmul
 185              	.LVL15:
 186              		.loc 1 36 0
 187 001a 6168     		ldr	r1, [r4, #4]	@ float
 188              		.loc 1 35 0
 189 001c 2061     		str	r0, [r4, #16]	@ float
 190 001e 8046     		mov	r8, r0
 191              		.loc 1 36 0
 192 0020 3046     		mov	r0, r6
 193 0022 FFF7FEFF 		bl	__aeabi_fmul
 194              	.LVL16:
 195 0026 6169     		ldr	r1, [r4, #20]	@ float
 196 0028 FFF7FEFF 		bl	__aeabi_fadd
 197              	.LVL17:
 198              		.loc 1 38 0
 199 002c 216A     		ldr	r1, [r4, #32]	@ float
 200              		.loc 1 36 0
 201 002e 8146     		mov	r9, r0
 202              		.loc 1 38 0
 203 0030 3046     		mov	r0, r6
 204 0032 FFF7FEFF 		bl	__aeabi_fsub
 205              	.LVL18:
 206              		.loc 1 37 0
 207 0036 A168     		ldr	r1, [r4, #8]	@ float
 208 0038 FFF7FEFF 		bl	__aeabi_fmul
 209              	.LVL19:
 210              		.loc 1 38 0
 211 003c E168     		ldr	r1, [r4, #12]	@ float
 212 003e FFF7FEFF 		bl	__aeabi_fdiv
 213              	.LVL20:
 214              		.loc 1 40 0
 215 0042 E56A     		ldr	r5, [r4, #44]	@ float
 216              	.LVL21:
 217              		.loc 1 38 0
 218 0044 0746     		mov	r7, r0
 219              		.loc 1 37 0
 220 0046 A061     		str	r0, [r4, #24]	@ float
 221              	.LBB6:
 222              	.LBB7:
 223              		.loc 1 23 0
 224 0048 2946     		mov	r1, r5
 225 004a 4846     		mov	r0, r9
 226 004c FFF7FEFF 		bl	__aeabi_fcmpgt
 227              	.LVL22:
 228 0050 30B9     		cbnz	r0, .L13
ARM GAS  C:\Users\14122\AppData\Local\Temp\ccv6zkBe.s 			page 5


 229              		.loc 1 25 0
 230 0052 05F10045 		add	r5, r5, #-2147483648
 231              	.LVL23:
 232 0056 4846     		mov	r0, r9
 233 0058 2946     		mov	r1, r5
 234 005a FFF7FEFF 		bl	__aeabi_fcmplt
 235              	.LVL24:
 236 005e C0B1     		cbz	r0, .L20
 237              	.L13:
 238              	.LVL25:
 239              	.LBE7:
 240              	.LBE6:
 241              		.loc 1 41 0
 242 0060 2946     		mov	r1, r5
 243              		.loc 1 40 0
 244 0062 6561     		str	r5, [r4, #20]	@ float
 245              		.loc 1 41 0
 246 0064 4046     		mov	r0, r8
 247 0066 FFF7FEFF 		bl	__aeabi_fadd
 248              	.LVL26:
 249 006a 3946     		mov	r1, r7
 250 006c FFF7FEFF 		bl	__aeabi_fadd
 251              	.LVL27:
 252              		.loc 1 43 0
 253 0070 A56A     		ldr	r5, [r4, #40]	@ float
 254              	.LVL28:
 255              		.loc 1 42 0
 256 0072 2662     		str	r6, [r4, #32]	@ float
 257              	.LBB9:
 258              	.LBB10:
 259              		.loc 1 23 0
 260 0074 2946     		mov	r1, r5
 261              	.LBE10:
 262              	.LBE9:
 263              		.loc 1 41 0
 264 0076 0746     		mov	r7, r0
 265              	.LVL29:
 266              	.LBB13:
 267              	.LBB11:
 268              		.loc 1 23 0
 269 0078 FFF7FEFF 		bl	__aeabi_fcmpgt
 270              	.LVL30:
 271 007c 30B9     		cbnz	r0, .L15
 272              		.loc 1 25 0
 273 007e 05F10045 		add	r5, r5, #-2147483648
 274              	.LVL31:
 275 0082 3846     		mov	r0, r7
 276 0084 2946     		mov	r1, r5
 277 0086 FFF7FEFF 		bl	__aeabi_fcmplt
 278              	.LVL32:
 279 008a 20B1     		cbz	r0, .L21
 280              	.L15:
 281              	.LVL33:
 282              	.LBE11:
 283              	.LBE13:
 284              		.loc 1 43 0
 285 008c 6562     		str	r5, [r4, #36]	@ float
ARM GAS  C:\Users\14122\AppData\Local\Temp\ccv6zkBe.s 			page 6


 286              		.loc 1 45 0
 287 008e BDE8F883 		pop	{r3, r4, r5, r6, r7, r8, r9, pc}
 288              	.LVL34:
 289              	.L20:
 290              	.LBB14:
 291              	.LBB8:
 292              		.loc 1 28 0
 293 0092 4D46     		mov	r5, r9
 294 0094 E4E7     		b	.L13
 295              	.LVL35:
 296              	.L21:
 297              	.LBE8:
 298              	.LBE14:
 299              	.LBB15:
 300              	.LBB12:
 301 0096 3D46     		mov	r5, r7
 302              	.LVL36:
 303              	.LBE12:
 304              	.LBE15:
 305              		.loc 1 43 0
 306 0098 6562     		str	r5, [r4, #36]	@ float
 307              		.loc 1 45 0
 308 009a BDE8F883 		pop	{r3, r4, r5, r6, r7, r8, r9, pc}
 309              		.cfi_endproc
 310              	.LFE2:
 311              		.size	pid_update, .-pid_update
 312 009e 00BF     		.text
 313              	.Letext0:
 314              		.file 2 "./src/pid.h"