ARM GAS  C:\Users\14122\AppData\Local\Temp\ccz6EvhC.s 			page 1


   1              		.cpu cortex-m3
   2              		.eabi_attribute 20, 1
   3              		.eabi_attribute 21, 1
   4              		.eabi_attribute 23, 3
   5              		.eabi_attribute 24, 1
   6              		.eabi_attribute 25, 1
   7              		.eabi_attribute 26, 1
   8              		.eabi_attribute 30, 2
   9              		.eabi_attribute 34, 1
  10              		.eabi_attribute 18, 4
  11              		.file	"stm32_isr.c"
  12              		.text
  13              	.Ltext0:
  14              		.cfi_sections	.debug_frame
  15              		.section	.text.irqInit,"ax",%progbits
  16              		.align	1
  17              		.p2align 4,,15
  18              		.global	irqInit
  19              		.syntax unified
  20              		.thumb
  21              		.thumb_func
  22              		.fpu softvfp
  23              		.type	irqInit, %function
  24              	irqInit:
  25              	.LFB253:
  26              		.file 1 ".//os/hal/ports/STM32/STM32F1xx/stm32_isr.c"
  27              		.loc 1 224 0
  28              		.cfi_startproc
  29              		@ args = 0, pretend = 0, frame = 0
  30              		@ frame_needed = 0, uses_anonymous_args = 0
  31              		.loc 1 227 0
  32 0000 0621     		movs	r1, #6
  33              		.loc 1 224 0
  34 0002 08B5     		push	{r3, lr}
  35              		.cfi_def_cfa_offset 8
  36              		.cfi_offset 3, -8
  37              		.cfi_offset 14, -4
  38              		.loc 1 227 0
  39 0004 0846     		mov	r0, r1
  40 0006 FFF7FEFF 		bl	nvicEnableVector
  41              	.LVL0:
  42              		.loc 1 228 0
  43 000a 0621     		movs	r1, #6
  44 000c 0720     		movs	r0, #7
  45 000e FFF7FEFF 		bl	nvicEnableVector
  46              	.LVL1:
  47              		.loc 1 229 0
  48 0012 0621     		movs	r1, #6
  49 0014 0820     		movs	r0, #8
  50 0016 FFF7FEFF 		bl	nvicEnableVector
  51              	.LVL2:
  52              		.loc 1 230 0
  53 001a 0621     		movs	r1, #6
  54 001c 0920     		movs	r0, #9
  55 001e FFF7FEFF 		bl	nvicEnableVector
  56              	.LVL3:
  57              		.loc 1 231 0
ARM GAS  C:\Users\14122\AppData\Local\Temp\ccz6EvhC.s 			page 2


  58 0022 0621     		movs	r1, #6
  59 0024 0A20     		movs	r0, #10
  60 0026 FFF7FEFF 		bl	nvicEnableVector
  61              	.LVL4:
  62              		.loc 1 232 0
  63 002a 0621     		movs	r1, #6
  64 002c 1720     		movs	r0, #23
  65 002e FFF7FEFF 		bl	nvicEnableVector
  66              	.LVL5:
  67              		.loc 1 235 0
  68 0032 BDE80840 		pop	{r3, lr}
  69              		.cfi_restore 14
  70              		.cfi_restore 3
  71              		.cfi_def_cfa_offset 0
  72              		.loc 1 233 0
  73 0036 0621     		movs	r1, #6
  74 0038 2820     		movs	r0, #40
  75 003a FFF7FEBF 		b	nvicEnableVector
  76              	.LVL6:
  77              		.cfi_endproc
  78              	.LFE253:
  79              		.size	irqInit, .-irqInit
  80 003e 00BF     		.section	.text.irqDeinit,"ax",%progbits
  81              		.align	1
  82              		.p2align 4,,15
  83              		.global	irqDeinit
  84              		.syntax unified
  85              		.thumb
  86              		.thumb_func
  87              		.fpu softvfp
  88              		.type	irqDeinit, %function
  89              	irqDeinit:
  90              	.LFB254:
  91              		.loc 1 242 0
  92              		.cfi_startproc
  93              		@ args = 0, pretend = 0, frame = 0
  94              		@ frame_needed = 0, uses_anonymous_args = 0
  95 0000 08B5     		push	{r3, lr}
  96              		.cfi_def_cfa_offset 8
  97              		.cfi_offset 3, -8
  98              		.cfi_offset 14, -4
  99              		.loc 1 245 0
 100 0002 0620     		movs	r0, #6
 101 0004 FFF7FEFF 		bl	nvicDisableVector
 102              	.LVL7:
 103              		.loc 1 246 0
 104 0008 0720     		movs	r0, #7
 105 000a FFF7FEFF 		bl	nvicDisableVector
 106              	.LVL8:
 107              		.loc 1 247 0
 108 000e 0820     		movs	r0, #8
 109 0010 FFF7FEFF 		bl	nvicDisableVector
 110              	.LVL9:
 111              		.loc 1 248 0
 112 0014 0920     		movs	r0, #9
 113 0016 FFF7FEFF 		bl	nvicDisableVector
 114              	.LVL10:
ARM GAS  C:\Users\14122\AppData\Local\Temp\ccz6EvhC.s 			page 3


 115              		.loc 1 249 0
 116 001a 0A20     		movs	r0, #10
 117 001c FFF7FEFF 		bl	nvicDisableVector
 118              	.LVL11:
 119              		.loc 1 250 0
 120 0020 1720     		movs	r0, #23
 121 0022 FFF7FEFF 		bl	nvicDisableVector
 122              	.LVL12:
 123              		.loc 1 253 0
 124 0026 BDE80840 		pop	{r3, lr}
 125              		.cfi_restore 14
 126              		.cfi_restore 3
 127              		.cfi_def_cfa_offset 0
 128              		.loc 1 251 0
 129 002a 2820     		movs	r0, #40
 130 002c FFF7FEBF 		b	nvicDisableVector
 131              	.LVL13:
 132              		.cfi_endproc
 133              	.LFE254:
 134              		.size	irqDeinit, .-irqDeinit
 135              		.text
 136              	.Letext0:
 137              		.file 2 "c:\\chibistudio\\tools\\gnu tools arm embedded\\7.0 2017q4\\lib\\gcc\\arm-none-eabi\\7.2.
 138              		.file 3 "c:\\chibistudio\\tools\\gnu tools arm embedded\\7.0 2017q4\\arm-none-eabi\\include\\machi
 139              		.file 4 "c:\\chibistudio\\tools\\gnu tools arm embedded\\7.0 2017q4\\arm-none-eabi\\include\\sys\\
 140              		.file 5 ".//os/common/ports/ARMCMx/compilers/GCC/chtypes.h"
 141              		.file 6 ".//os/rt/include/chsystypes.h"
 142              		.file 7 ".//os/rt/include/chschd.h"
 143              		.file 8 ".//os/rt/include/chtime.h"
 144              		.file 9 ".//os/common/ext/ARM/CMSIS/Core/Include/core_cm3.h"
 145              		.file 10 ".//os/common/ext/ST/STM32F1xx/system_stm32f1xx.h"
 146              		.file 11 ".//os/common/ext/ST/STM32F1xx/stm32f103xb.h"
 147              		.file 12 ".//os/common/ports/ARMCMx/chcore.h"
 148              		.file 13 ".//os/common/ports/ARMCMx/chcore_v7m.h"
 149              		.file 14 ".//os/rt/include/chsem.h"
 150              		.file 15 ".//os/rt/include/chmtx.h"
 151              		.file 16 ".//os/rt/include/chsys.h"
 152              		.file 17 ".//os/rt/include/chregistry.h"
 153              		.file 18 ".//os/rt/include/chevents.h"
 154              		.file 19 ".//os/lib/include/chmemcore.h"
 155              		.file 20 ".//os/lib/include/chmempools.h"
 156              		.file 21 ".//os/lib/include/chfactory.h"
 157              		.file 22 ".//os/hal/ports/STM32/LLD/DMAv1/stm32_dma.h"
 158              		.file 23 ".//os/hal/include/hal_pal.h"
 159              		.file 24 ".//os/hal/ports/STM32/LLD/GPIOv1/hal_pal_lld.h"
 160              		.file 25 ".//os/hal/include/hal_can.h"
 161              		.file 26 ".//os/hal/ports/STM32/LLD/CANv1/hal_can_lld.h"
 162              		.file 27 ".//os/hal/include/hal_uart.h"
 163              		.file 28 ".//os/hal/ports/STM32/LLD/USARTv1/hal_uart_lld.h"
 164              		.file 29 ".//os/hal/ports/common/ARMCMx/nvic.h"
 165              		.section	.debug_info,"",%progbits
 166              	.Ldebug_info0:
 167 0000 F3140000 		.4byte	0x14f3
 168 0004 0400     		.2byte	0x4
 169 0006 00000000 		.4byte	.Ldebug_abbrev0
 170 000a 04       		.byte	0x4
 171 000b 01       		.uleb128 0x1
ARM GAS  C:\Users\14122\AppData\Local\Temp\ccz6EvhC.s 			page 4


 172 000c 04080000 		.4byte	.LASF310
 173 0010 0C       		.byte	0xc
 174 0011 510D0000 		.4byte	.LASF311
 175 0015 480E0000 		.4byte	.LASF312
 176 0019 00000000 		.4byte	.Ldebug_ranges0+0
 177 001d 00000000 		.4byte	0
 178 0021 00000000 		.4byte	.Ldebug_line0
 179 0025 02       		.uleb128 0x2
 180 0026 04       		.byte	0x4
 181 0027 05       		.byte	0x5
 182 0028 696E7400 		.ascii	"int\000"
 183 002c 03       		.uleb128 0x3
 184 002d 26000000 		.4byte	.LASF4
 185 0031 02       		.byte	0x2
 186 0032 D8       		.byte	0xd8
 187 0033 37000000 		.4byte	0x37
 188 0037 04       		.uleb128 0x4
 189 0038 04       		.byte	0x4
 190 0039 07       		.byte	0x7
 191 003a 84070000 		.4byte	.LASF0
 192 003e 04       		.uleb128 0x4
 193 003f 08       		.byte	0x8
 194 0040 05       		.byte	0x5
 195 0041 BD060000 		.4byte	.LASF1
 196 0045 04       		.uleb128 0x4
 197 0046 08       		.byte	0x8
 198 0047 04       		.byte	0x4
 199 0048 EE080000 		.4byte	.LASF2
 200 004c 04       		.uleb128 0x4
 201 004d 01       		.byte	0x1
 202 004e 06       		.byte	0x6
 203 004f 51020000 		.4byte	.LASF3
 204 0053 03       		.uleb128 0x3
 205 0054 6A010000 		.4byte	.LASF5
 206 0058 03       		.byte	0x3
 207 0059 2B       		.byte	0x2b
 208 005a 5E000000 		.4byte	0x5e
 209 005e 04       		.uleb128 0x4
 210 005f 01       		.byte	0x1
 211 0060 08       		.byte	0x8
 212 0061 C7020000 		.4byte	.LASF6
 213 0065 04       		.uleb128 0x4
 214 0066 02       		.byte	0x2
 215 0067 05       		.byte	0x5
 216 0068 A80B0000 		.4byte	.LASF7
 217 006c 03       		.uleb128 0x3
 218 006d C4030000 		.4byte	.LASF8
 219 0071 03       		.byte	0x3
 220 0072 39       		.byte	0x39
 221 0073 77000000 		.4byte	0x77
 222 0077 04       		.uleb128 0x4
 223 0078 02       		.byte	0x2
 224 0079 07       		.byte	0x7
 225 007a 280D0000 		.4byte	.LASF9
 226 007e 03       		.uleb128 0x3
 227 007f AF0D0000 		.4byte	.LASF10
 228 0083 03       		.byte	0x3
ARM GAS  C:\Users\14122\AppData\Local\Temp\ccz6EvhC.s 			page 5


 229 0084 4D       		.byte	0x4d
 230 0085 89000000 		.4byte	0x89
 231 0089 04       		.uleb128 0x4
 232 008a 04       		.byte	0x4
 233 008b 05       		.byte	0x5
 234 008c A2010000 		.4byte	.LASF11
 235 0090 03       		.uleb128 0x3
 236 0091 AA060000 		.4byte	.LASF12
 237 0095 03       		.byte	0x3
 238 0096 4F       		.byte	0x4f
 239 0097 9B000000 		.4byte	0x9b
 240 009b 04       		.uleb128 0x4
 241 009c 04       		.byte	0x4
 242 009d 07       		.byte	0x7
 243 009e 1D050000 		.4byte	.LASF13
 244 00a2 03       		.uleb128 0x3
 245 00a3 FE040000 		.4byte	.LASF14
 246 00a7 03       		.byte	0x3
 247 00a8 69       		.byte	0x69
 248 00a9 AD000000 		.4byte	0xad
 249 00ad 04       		.uleb128 0x4
 250 00ae 08       		.byte	0x8
 251 00af 07       		.byte	0x7
 252 00b0 C3090000 		.4byte	.LASF15
 253 00b4 03       		.uleb128 0x3
 254 00b5 64020000 		.4byte	.LASF16
 255 00b9 04       		.byte	0x4
 256 00ba 18       		.byte	0x18
 257 00bb 53000000 		.4byte	0x53
 258 00bf 05       		.uleb128 0x5
 259 00c0 B4000000 		.4byte	0xb4
 260 00c4 03       		.uleb128 0x3
 261 00c5 E1090000 		.4byte	.LASF17
 262 00c9 04       		.byte	0x4
 263 00ca 24       		.byte	0x24
 264 00cb 6C000000 		.4byte	0x6c
 265 00cf 06       		.uleb128 0x6
 266 00d0 C4000000 		.4byte	0xc4
 267 00d4 03       		.uleb128 0x3
 268 00d5 7A000000 		.4byte	.LASF18
 269 00d9 04       		.byte	0x4
 270 00da 2C       		.byte	0x2c
 271 00db 7E000000 		.4byte	0x7e
 272 00df 06       		.uleb128 0x6
 273 00e0 D4000000 		.4byte	0xd4
 274 00e4 03       		.uleb128 0x3
 275 00e5 D60C0000 		.4byte	.LASF19
 276 00e9 04       		.byte	0x4
 277 00ea 30       		.byte	0x30
 278 00eb 90000000 		.4byte	0x90
 279 00ef 06       		.uleb128 0x6
 280 00f0 E4000000 		.4byte	0xe4
 281 00f4 03       		.uleb128 0x3
 282 00f5 BF0B0000 		.4byte	.LASF20
 283 00f9 04       		.byte	0x4
 284 00fa 3C       		.byte	0x3c
 285 00fb A2000000 		.4byte	0xa2
ARM GAS  C:\Users\14122\AppData\Local\Temp\ccz6EvhC.s 			page 6


 286 00ff 03       		.uleb128 0x3
 287 0100 FD0A0000 		.4byte	.LASF21
 288 0104 05       		.byte	0x5
 289 0105 2A       		.byte	0x2a
 290 0106 B4000000 		.4byte	0xb4
 291 010a 03       		.uleb128 0x3
 292 010b C1010000 		.4byte	.LASF22
 293 010f 05       		.byte	0x5
 294 0110 2B       		.byte	0x2b
 295 0111 B4000000 		.4byte	0xb4
 296 0115 03       		.uleb128 0x3
 297 0116 7B0C0000 		.4byte	.LASF23
 298 011a 05       		.byte	0x5
 299 011b 2C       		.byte	0x2c
 300 011c B4000000 		.4byte	0xb4
 301 0120 03       		.uleb128 0x3
 302 0121 60000000 		.4byte	.LASF24
 303 0125 05       		.byte	0x5
 304 0126 2E       		.byte	0x2e
 305 0127 E4000000 		.4byte	0xe4
 306 012b 03       		.uleb128 0x3
 307 012c 020A0000 		.4byte	.LASF25
 308 0130 05       		.byte	0x5
 309 0131 2F       		.byte	0x2f
 310 0132 D4000000 		.4byte	0xd4
 311 0136 03       		.uleb128 0x3
 312 0137 6C020000 		.4byte	.LASF26
 313 013b 05       		.byte	0x5
 314 013c 31       		.byte	0x31
 315 013d E4000000 		.4byte	0xe4
 316 0141 03       		.uleb128 0x3
 317 0142 190A0000 		.4byte	.LASF27
 318 0146 05       		.byte	0x5
 319 0147 32       		.byte	0x32
 320 0148 E4000000 		.4byte	0xe4
 321 014c 03       		.uleb128 0x3
 322 014d 74040000 		.4byte	.LASF28
 323 0151 05       		.byte	0x5
 324 0152 33       		.byte	0x33
 325 0153 D4000000 		.4byte	0xd4
 326 0157 03       		.uleb128 0x3
 327 0158 36060000 		.4byte	.LASF29
 328 015c 05       		.byte	0x5
 329 015d 34       		.byte	0x34
 330 015e E4000000 		.4byte	0xe4
 331 0162 03       		.uleb128 0x3
 332 0163 E5080000 		.4byte	.LASF30
 333 0167 06       		.byte	0x6
 334 0168 34       		.byte	0x34
 335 0169 6D010000 		.4byte	0x16d
 336 016d 07       		.uleb128 0x7
 337 016e 99050000 		.4byte	.LASF48
 338 0172 44       		.byte	0x44
 339 0173 07       		.byte	0x7
 340 0174 8E       		.byte	0x8e
 341 0175 4B020000 		.4byte	0x24b
 342 0179 08       		.uleb128 0x8
ARM GAS  C:\Users\14122\AppData\Local\Temp\ccz6EvhC.s 			page 7


 343 017a 640A0000 		.4byte	.LASF31
 344 017e 07       		.byte	0x7
 345 017f 8F       		.byte	0x8f
 346 0180 80020000 		.4byte	0x280
 347 0184 00       		.byte	0
 348 0185 08       		.uleb128 0x8
 349 0186 49010000 		.4byte	.LASF32
 350 018a 07       		.byte	0x7
 351 018b 90       		.byte	0x90
 352 018c 20010000 		.4byte	0x120
 353 0190 08       		.byte	0x8
 354 0191 09       		.uleb128 0x9
 355 0192 63747800 		.ascii	"ctx\000"
 356 0196 07       		.byte	0x7
 357 0197 91       		.byte	0x91
 358 0198 56090000 		.4byte	0x956
 359 019c 0C       		.byte	0xc
 360 019d 08       		.uleb128 0x8
 361 019e BF0C0000 		.4byte	.LASF33
 362 01a2 07       		.byte	0x7
 363 01a3 93       		.byte	0x93
 364 01a4 56020000 		.4byte	0x256
 365 01a8 10       		.byte	0x10
 366 01a9 08       		.uleb128 0x8
 367 01aa 1D060000 		.4byte	.LASF34
 368 01ae 07       		.byte	0x7
 369 01af 94       		.byte	0x94
 370 01b0 56020000 		.4byte	0x256
 371 01b4 14       		.byte	0x14
 372 01b5 08       		.uleb128 0x8
 373 01b6 4E0B0000 		.4byte	.LASF35
 374 01ba 07       		.byte	0x7
 375 01bb 9B       		.byte	0x9b
 376 01bc BA0A0000 		.4byte	0xaba
 377 01c0 18       		.byte	0x18
 378 01c1 08       		.uleb128 0x8
 379 01c2 C40A0000 		.4byte	.LASF36
 380 01c6 07       		.byte	0x7
 381 01c7 A4       		.byte	0xa4
 382 01c8 D10A0000 		.4byte	0xad1
 383 01cc 1C       		.byte	0x1c
 384 01cd 08       		.uleb128 0x8
 385 01ce FE000000 		.4byte	.LASF37
 386 01d2 07       		.byte	0x7
 387 01d3 A9       		.byte	0xa9
 388 01d4 0A010000 		.4byte	0x10a
 389 01d8 20       		.byte	0x20
 390 01d9 08       		.uleb128 0x8
 391 01da EA030000 		.4byte	.LASF38
 392 01de 07       		.byte	0x7
 393 01df AD       		.byte	0xad
 394 01e0 FF000000 		.4byte	0xff
 395 01e4 21       		.byte	0x21
 396 01e5 08       		.uleb128 0x8
 397 01e6 5F0A0000 		.4byte	.LASF39
 398 01ea 07       		.byte	0x7
 399 01eb B2       		.byte	0xb2
ARM GAS  C:\Users\14122\AppData\Local\Temp\ccz6EvhC.s 			page 8


 400 01ec 15010000 		.4byte	0x115
 401 01f0 22       		.byte	0x22
 402 01f1 0A       		.uleb128 0xa
 403 01f2 7500     		.ascii	"u\000"
 404 01f4 07       		.byte	0x7
 405 01f5 0301     		.2byte	0x103
 406 01f7 F0090000 		.4byte	0x9f0
 407 01fb 24       		.byte	0x24
 408 01fc 0B       		.uleb128 0xb
 409 01fd 6B0C0000 		.4byte	.LASF40
 410 0201 07       		.byte	0x7
 411 0202 0801     		.2byte	0x108
 412 0204 5C020000 		.4byte	0x25c
 413 0208 28       		.byte	0x28
 414 0209 0B       		.uleb128 0xb
 415 020a E50B0000 		.4byte	.LASF41
 416 020e 07       		.byte	0x7
 417 020f 0E01     		.2byte	0x10e
 418 0211 80020000 		.4byte	0x280
 419 0215 2C       		.byte	0x2c
 420 0216 0B       		.uleb128 0xb
 421 0217 CA010000 		.4byte	.LASF42
 422 021b 07       		.byte	0x7
 423 021c 1401     		.2byte	0x114
 424 021e 36010000 		.4byte	0x136
 425 0222 34       		.byte	0x34
 426 0223 0B       		.uleb128 0xb
 427 0224 B5060000 		.4byte	.LASF43
 428 0228 07       		.byte	0x7
 429 0229 1B01     		.2byte	0x11b
 430 022b B40A0000 		.4byte	0xab4
 431 022f 38       		.byte	0x38
 432 0230 0B       		.uleb128 0xb
 433 0231 2D060000 		.4byte	.LASF44
 434 0235 07       		.byte	0x7
 435 0236 1F01     		.2byte	0x11f
 436 0238 20010000 		.4byte	0x120
 437 023c 3C       		.byte	0x3c
 438 023d 0B       		.uleb128 0xb
 439 023e 18040000 		.4byte	.LASF45
 440 0242 07       		.byte	0x7
 441 0243 2601     		.2byte	0x126
 442 0245 33030000 		.4byte	0x333
 443 0249 40       		.byte	0x40
 444 024a 00       		.byte	0
 445 024b 03       		.uleb128 0x3
 446 024c 13090000 		.4byte	.LASF46
 447 0250 06       		.byte	0x6
 448 0251 39       		.byte	0x39
 449 0252 56020000 		.4byte	0x256
 450 0256 0C       		.uleb128 0xc
 451 0257 04       		.byte	0x4
 452 0258 62010000 		.4byte	0x162
 453 025c 03       		.uleb128 0x3
 454 025d 900C0000 		.4byte	.LASF47
 455 0261 06       		.byte	0x6
 456 0262 3E       		.byte	0x3e
ARM GAS  C:\Users\14122\AppData\Local\Temp\ccz6EvhC.s 			page 9


 457 0263 67020000 		.4byte	0x267
 458 0267 07       		.uleb128 0x7
 459 0268 6F060000 		.4byte	.LASF49
 460 026c 04       		.byte	0x4
 461 026d 07       		.byte	0x7
 462 026e 7C       		.byte	0x7c
 463 026f 80020000 		.4byte	0x280
 464 0273 08       		.uleb128 0x8
 465 0274 ED0D0000 		.4byte	.LASF50
 466 0278 07       		.byte	0x7
 467 0279 7D       		.byte	0x7d
 468 027a 56020000 		.4byte	0x256
 469 027e 00       		.byte	0
 470 027f 00       		.byte	0
 471 0280 03       		.uleb128 0x3
 472 0281 D3010000 		.4byte	.LASF51
 473 0285 06       		.byte	0x6
 474 0286 45       		.byte	0x45
 475 0287 8B020000 		.4byte	0x28b
 476 028b 07       		.uleb128 0x7
 477 028c 080A0000 		.4byte	.LASF52
 478 0290 08       		.byte	0x8
 479 0291 07       		.byte	0x7
 480 0292 83       		.byte	0x83
 481 0293 B0020000 		.4byte	0x2b0
 482 0297 08       		.uleb128 0x8
 483 0298 ED0D0000 		.4byte	.LASF50
 484 029c 07       		.byte	0x7
 485 029d 84       		.byte	0x84
 486 029e 56020000 		.4byte	0x256
 487 02a2 00       		.byte	0
 488 02a3 08       		.uleb128 0x8
 489 02a4 0A0E0000 		.4byte	.LASF53
 490 02a8 07       		.byte	0x7
 491 02a9 85       		.byte	0x85
 492 02aa 56020000 		.4byte	0x256
 493 02ae 04       		.byte	0x4
 494 02af 00       		.byte	0
 495 02b0 03       		.uleb128 0x3
 496 02b1 10060000 		.4byte	.LASF54
 497 02b5 06       		.byte	0x6
 498 02b6 4C       		.byte	0x4c
 499 02b7 BB020000 		.4byte	0x2bb
 500 02bb 0D       		.uleb128 0xd
 501 02bc AC040000 		.4byte	.LASF55
 502 02c0 1C       		.byte	0x1c
 503 02c1 07       		.byte	0x7
 504 02c2 5E01     		.2byte	0x15e
 505 02c4 17030000 		.4byte	0x317
 506 02c8 0B       		.uleb128 0xb
 507 02c9 640A0000 		.4byte	.LASF31
 508 02cd 07       		.byte	0x7
 509 02ce 5F01     		.2byte	0x15f
 510 02d0 80020000 		.4byte	0x280
 511 02d4 00       		.byte	0
 512 02d5 0B       		.uleb128 0xb
 513 02d6 49010000 		.4byte	.LASF32
ARM GAS  C:\Users\14122\AppData\Local\Temp\ccz6EvhC.s 			page 10


 514 02da 07       		.byte	0x7
 515 02db 6001     		.2byte	0x160
 516 02dd 20010000 		.4byte	0x120
 517 02e1 08       		.byte	0x8
 518 02e2 0A       		.uleb128 0xa
 519 02e3 63747800 		.ascii	"ctx\000"
 520 02e7 07       		.byte	0x7
 521 02e8 6201     		.2byte	0x162
 522 02ea 56090000 		.4byte	0x956
 523 02ee 0C       		.byte	0xc
 524 02ef 0B       		.uleb128 0xb
 525 02f0 BF0C0000 		.4byte	.LASF33
 526 02f4 07       		.byte	0x7
 527 02f5 6501     		.2byte	0x165
 528 02f7 56020000 		.4byte	0x256
 529 02fb 10       		.byte	0x10
 530 02fc 0B       		.uleb128 0xb
 531 02fd 1D060000 		.4byte	.LASF34
 532 0301 07       		.byte	0x7
 533 0302 6601     		.2byte	0x166
 534 0304 56020000 		.4byte	0x256
 535 0308 14       		.byte	0x14
 536 0309 0B       		.uleb128 0xb
 537 030a D4070000 		.4byte	.LASF56
 538 030e 07       		.byte	0x7
 539 030f 6901     		.2byte	0x169
 540 0311 56020000 		.4byte	0x256
 541 0315 18       		.byte	0x18
 542 0316 00       		.byte	0
 543 0317 03       		.uleb128 0x3
 544 0318 9A000000 		.4byte	.LASF57
 545 031c 06       		.byte	0x6
 546 031d 51       		.byte	0x51
 547 031e 22030000 		.4byte	0x322
 548 0322 0C       		.uleb128 0xc
 549 0323 04       		.byte	0x4
 550 0324 28030000 		.4byte	0x328
 551 0328 0E       		.uleb128 0xe
 552 0329 33030000 		.4byte	0x333
 553 032d 0F       		.uleb128 0xf
 554 032e 33030000 		.4byte	0x333
 555 0332 00       		.byte	0
 556 0333 10       		.uleb128 0x10
 557 0334 04       		.byte	0x4
 558 0335 03       		.uleb128 0x3
 559 0336 00060000 		.4byte	.LASF58
 560 033a 06       		.byte	0x6
 561 033b 56       		.byte	0x56
 562 033c 40030000 		.4byte	0x340
 563 0340 0D       		.uleb128 0xd
 564 0341 8F090000 		.4byte	.LASF59
 565 0345 14       		.byte	0x14
 566 0346 07       		.byte	0x7
 567 0347 3901     		.2byte	0x139
 568 0349 8F030000 		.4byte	0x38f
 569 034d 0B       		.uleb128 0xb
 570 034e ED0D0000 		.4byte	.LASF50
ARM GAS  C:\Users\14122\AppData\Local\Temp\ccz6EvhC.s 			page 11


 571 0352 07       		.byte	0x7
 572 0353 3A01     		.2byte	0x13a
 573 0355 D70A0000 		.4byte	0xad7
 574 0359 00       		.byte	0
 575 035a 0B       		.uleb128 0xb
 576 035b 0A0E0000 		.4byte	.LASF53
 577 035f 07       		.byte	0x7
 578 0360 3B01     		.2byte	0x13b
 579 0362 D70A0000 		.4byte	0xad7
 580 0366 04       		.byte	0x4
 581 0367 0B       		.uleb128 0xb
 582 0368 3C0A0000 		.4byte	.LASF60
 583 036c 07       		.byte	0x7
 584 036d 3C01     		.2byte	0x13c
 585 036f 5A040000 		.4byte	0x45a
 586 0373 08       		.byte	0x8
 587 0374 0B       		.uleb128 0xb
 588 0375 D10B0000 		.4byte	.LASF61
 589 0379 07       		.byte	0x7
 590 037a 3D01     		.2byte	0x13d
 591 037c 17030000 		.4byte	0x317
 592 0380 0C       		.byte	0xc
 593 0381 0A       		.uleb128 0xa
 594 0382 70617200 		.ascii	"par\000"
 595 0386 07       		.byte	0x7
 596 0387 3F01     		.2byte	0x13f
 597 0389 33030000 		.4byte	0x333
 598 038d 10       		.byte	0x10
 599 038e 00       		.byte	0
 600 038f 03       		.uleb128 0x3
 601 0390 B1050000 		.4byte	.LASF62
 602 0394 06       		.byte	0x6
 603 0395 5B       		.byte	0x5b
 604 0396 9A030000 		.4byte	0x39a
 605 039a 0D       		.uleb128 0xd
 606 039b AF000000 		.4byte	.LASF63
 607 039f 10       		.byte	0x10
 608 03a0 07       		.byte	0x7
 609 03a1 4901     		.2byte	0x149
 610 03a3 DC030000 		.4byte	0x3dc
 611 03a7 0B       		.uleb128 0xb
 612 03a8 ED0D0000 		.4byte	.LASF50
 613 03ac 07       		.byte	0x7
 614 03ad 4A01     		.2byte	0x14a
 615 03af D70A0000 		.4byte	0xad7
 616 03b3 00       		.byte	0
 617 03b4 0B       		.uleb128 0xb
 618 03b5 0A0E0000 		.4byte	.LASF53
 619 03b9 07       		.byte	0x7
 620 03ba 4C01     		.2byte	0x14c
 621 03bc D70A0000 		.4byte	0xad7
 622 03c0 04       		.byte	0x4
 623 03c1 0B       		.uleb128 0xb
 624 03c2 3C0A0000 		.4byte	.LASF60
 625 03c6 07       		.byte	0x7
 626 03c7 4E01     		.2byte	0x14e
 627 03c9 5A040000 		.4byte	0x45a
ARM GAS  C:\Users\14122\AppData\Local\Temp\ccz6EvhC.s 			page 12


 628 03cd 08       		.byte	0x8
 629 03ce 0B       		.uleb128 0xb
 630 03cf F3020000 		.4byte	.LASF64
 631 03d3 07       		.byte	0x7
 632 03d4 5601     		.2byte	0x156
 633 03d6 4F040000 		.4byte	0x44f
 634 03da 0C       		.byte	0xc
 635 03db 00       		.byte	0
 636 03dc 03       		.uleb128 0x3
 637 03dd 2B030000 		.4byte	.LASF65
 638 03e1 06       		.byte	0x6
 639 03e2 60       		.byte	0x60
 640 03e3 E7030000 		.4byte	0x3e7
 641 03e7 0D       		.uleb128 0xd
 642 03e8 0E0C0000 		.4byte	.LASF66
 643 03ec 04       		.byte	0x4
 644 03ed 07       		.byte	0x7
 645 03ee 7001     		.2byte	0x170
 646 03f0 02040000 		.4byte	0x402
 647 03f4 0B       		.uleb128 0xb
 648 03f5 14030000 		.4byte	.LASF67
 649 03f9 07       		.byte	0x7
 650 03fa 7801     		.2byte	0x178
 651 03fc C00A0000 		.4byte	0xac0
 652 0400 00       		.byte	0
 653 0401 00       		.byte	0
 654 0402 03       		.uleb128 0x3
 655 0403 3B0D0000 		.4byte	.LASF68
 656 0407 06       		.byte	0x6
 657 0408 65       		.byte	0x65
 658 0409 0D040000 		.4byte	0x40d
 659 040d 0D       		.uleb128 0xd
 660 040e B50C0000 		.4byte	.LASF69
 661 0412 74       		.byte	0x74
 662 0413 07       		.byte	0x7
 663 0414 9001     		.2byte	0x190
 664 0416 4F040000 		.4byte	0x44f
 665 041a 0B       		.uleb128 0xb
 666 041b F70A0000 		.4byte	.LASF70
 667 041f 07       		.byte	0x7
 668 0420 9401     		.2byte	0x194
 669 0422 B0020000 		.4byte	0x2b0
 670 0426 00       		.byte	0
 671 0427 0B       		.uleb128 0xb
 672 0428 510C0000 		.4byte	.LASF71
 673 042c 07       		.byte	0x7
 674 042d 9801     		.2byte	0x198
 675 042f 8F030000 		.4byte	0x38f
 676 0433 1C       		.byte	0x1c
 677 0434 0A       		.uleb128 0xa
 678 0435 64626700 		.ascii	"dbg\000"
 679 0439 07       		.byte	0x7
 680 043a 9C01     		.2byte	0x19c
 681 043c DC030000 		.4byte	0x3dc
 682 0440 2C       		.byte	0x2c
 683 0441 0B       		.uleb128 0xb
 684 0442 920A0000 		.4byte	.LASF72
ARM GAS  C:\Users\14122\AppData\Local\Temp\ccz6EvhC.s 			page 13


 685 0446 07       		.byte	0x7
 686 0447 A001     		.2byte	0x1a0
 687 0449 62010000 		.4byte	0x162
 688 044d 30       		.byte	0x30
 689 044e 00       		.byte	0
 690 044f 03       		.uleb128 0x3
 691 0450 44000000 		.4byte	.LASF73
 692 0454 08       		.byte	0x8
 693 0455 6F       		.byte	0x6f
 694 0456 C4000000 		.4byte	0xc4
 695 045a 03       		.uleb128 0x3
 696 045b D8060000 		.4byte	.LASF74
 697 045f 08       		.byte	0x8
 698 0460 79       		.byte	0x79
 699 0461 E4000000 		.4byte	0xe4
 700 0465 11       		.uleb128 0x11
 701 0466 05       		.byte	0x5
 702 0467 01       		.byte	0x1
 703 0468 4C000000 		.4byte	0x4c
 704 046c 0B       		.byte	0xb
 705 046d 58       		.byte	0x58
 706 046e AB050000 		.4byte	0x5ab
 707 0472 12       		.uleb128 0x12
 708 0473 EA040000 		.4byte	.LASF75
 709 0477 72       		.sleb128 -14
 710 0478 12       		.uleb128 0x12
 711 0479 CE0D0000 		.4byte	.LASF76
 712 047d 73       		.sleb128 -13
 713 047e 12       		.uleb128 0x12
 714 047f 45050000 		.4byte	.LASF77
 715 0483 74       		.sleb128 -12
 716 0484 12       		.uleb128 0x12
 717 0485 90060000 		.4byte	.LASF78
 718 0489 75       		.sleb128 -11
 719 048a 12       		.uleb128 0x12
 720 048b 82030000 		.4byte	.LASF79
 721 048f 76       		.sleb128 -10
 722 0490 12       		.uleb128 0x12
 723 0491 03070000 		.4byte	.LASF80
 724 0495 7B       		.sleb128 -5
 725 0496 12       		.uleb128 0x12
 726 0497 150B0000 		.4byte	.LASF81
 727 049b 7C       		.sleb128 -4
 728 049c 12       		.uleb128 0x12
 729 049d 880D0000 		.4byte	.LASF82
 730 04a1 7E       		.sleb128 -2
 731 04a2 12       		.uleb128 0x12
 732 04a3 0B020000 		.4byte	.LASF83
 733 04a7 7F       		.sleb128 -1
 734 04a8 13       		.uleb128 0x13
 735 04a9 13050000 		.4byte	.LASF84
 736 04ad 00       		.byte	0
 737 04ae 13       		.uleb128 0x13
 738 04af CB0A0000 		.4byte	.LASF85
 739 04b3 01       		.byte	0x1
 740 04b4 13       		.uleb128 0x13
 741 04b5 B5010000 		.4byte	.LASF86
ARM GAS  C:\Users\14122\AppData\Local\Temp\ccz6EvhC.s 			page 14


 742 04b9 02       		.byte	0x2
 743 04ba 13       		.uleb128 0x13
 744 04bb 2B0E0000 		.4byte	.LASF87
 745 04bf 03       		.byte	0x3
 746 04c0 13       		.uleb128 0x13
 747 04c1 DF000000 		.4byte	.LASF88
 748 04c5 04       		.byte	0x4
 749 04c6 13       		.uleb128 0x13
 750 04c7 C80B0000 		.4byte	.LASF89
 751 04cb 05       		.byte	0x5
 752 04cc 13       		.uleb128 0x13
 753 04cd EC0A0000 		.4byte	.LASF90
 754 04d1 06       		.byte	0x6
 755 04d2 13       		.uleb128 0x13
 756 04d3 D7040000 		.4byte	.LASF91
 757 04d7 07       		.byte	0x7
 758 04d8 13       		.uleb128 0x13
 759 04d9 08000000 		.4byte	.LASF92
 760 04dd 08       		.byte	0x8
 761 04de 13       		.uleb128 0x13
 762 04df 7D0D0000 		.4byte	.LASF93
 763 04e3 09       		.byte	0x9
 764 04e4 13       		.uleb128 0x13
 765 04e5 1D0D0000 		.4byte	.LASF94
 766 04e9 0A       		.byte	0xa
 767 04ea 13       		.uleb128 0x13
 768 04eb 3A030000 		.4byte	.LASF95
 769 04ef 0B       		.byte	0xb
 770 04f0 13       		.uleb128 0x13
 771 04f1 580C0000 		.4byte	.LASF96
 772 04f5 0C       		.byte	0xc
 773 04f6 13       		.uleb128 0x13
 774 04f7 5C0B0000 		.4byte	.LASF97
 775 04fb 0D       		.byte	0xd
 776 04fc 13       		.uleb128 0x13
 777 04fd 5B050000 		.4byte	.LASF98
 778 0501 0E       		.byte	0xe
 779 0502 13       		.uleb128 0x13
 780 0503 87000000 		.4byte	.LASF99
 781 0507 0F       		.byte	0xf
 782 0508 13       		.uleb128 0x13
 783 0509 F20D0000 		.4byte	.LASF100
 784 050d 10       		.byte	0x10
 785 050e 13       		.uleb128 0x13
 786 050f BC070000 		.4byte	.LASF101
 787 0513 11       		.byte	0x11
 788 0514 13       		.uleb128 0x13
 789 0515 020C0000 		.4byte	.LASF102
 790 0519 12       		.byte	0x12
 791 051a 13       		.uleb128 0x13
 792 051b 92030000 		.4byte	.LASF103
 793 051f 13       		.byte	0x13
 794 0520 13       		.uleb128 0x13
 795 0521 390B0000 		.4byte	.LASF104
 796 0525 14       		.byte	0x14
 797 0526 13       		.uleb128 0x13
 798 0527 EC0C0000 		.4byte	.LASF105
ARM GAS  C:\Users\14122\AppData\Local\Temp\ccz6EvhC.s 			page 15


 799 052b 15       		.byte	0x15
 800 052c 13       		.uleb128 0x13
 801 052d A3050000 		.4byte	.LASF106
 802 0531 16       		.byte	0x16
 803 0532 13       		.uleb128 0x13
 804 0533 FA0C0000 		.4byte	.LASF107
 805 0537 17       		.byte	0x17
 806 0538 13       		.uleb128 0x13
 807 0539 60030000 		.4byte	.LASF108
 808 053d 18       		.byte	0x18
 809 053e 13       		.uleb128 0x13
 810 053f DF0C0000 		.4byte	.LASF109
 811 0543 19       		.byte	0x19
 812 0544 13       		.uleb128 0x13
 813 0545 5B090000 		.4byte	.LASF110
 814 0549 1A       		.byte	0x1a
 815 054a 13       		.uleb128 0x13
 816 054b CA040000 		.4byte	.LASF111
 817 054f 1B       		.byte	0x1b
 818 0550 13       		.uleb128 0x13
 819 0551 23010000 		.4byte	.LASF112
 820 0555 1C       		.byte	0x1c
 821 0556 13       		.uleb128 0x13
 822 0557 260A0000 		.4byte	.LASF113
 823 055b 1D       		.byte	0x1d
 824 055c 13       		.uleb128 0x13
 825 055d 1E040000 		.4byte	.LASF114
 826 0561 1E       		.byte	0x1e
 827 0562 13       		.uleb128 0x13
 828 0563 7A040000 		.4byte	.LASF115
 829 0567 1F       		.byte	0x1f
 830 0568 13       		.uleb128 0x13
 831 0569 1E030000 		.4byte	.LASF116
 832 056d 20       		.byte	0x20
 833 056e 13       		.uleb128 0x13
 834 056f 91070000 		.4byte	.LASF117
 835 0573 21       		.byte	0x21
 836 0574 13       		.uleb128 0x13
 837 0575 4A060000 		.4byte	.LASF118
 838 0579 22       		.byte	0x22
 839 057a 13       		.uleb128 0x13
 840 057b F9060000 		.4byte	.LASF119
 841 057f 23       		.byte	0x23
 842 0580 13       		.uleb128 0x13
 843 0581 74010000 		.4byte	.LASF120
 844 0585 24       		.byte	0x24
 845 0586 13       		.uleb128 0x13
 846 0587 300A0000 		.4byte	.LASF121
 847 058b 25       		.byte	0x25
 848 058c 13       		.uleb128 0x13
 849 058d 28040000 		.4byte	.LASF122
 850 0591 26       		.byte	0x26
 851 0592 13       		.uleb128 0x13
 852 0593 18020000 		.4byte	.LASF123
 853 0597 27       		.byte	0x27
 854 0598 13       		.uleb128 0x13
 855 0599 B4090000 		.4byte	.LASF124
ARM GAS  C:\Users\14122\AppData\Local\Temp\ccz6EvhC.s 			page 16


 856 059d 28       		.byte	0x28
 857 059e 13       		.uleb128 0x13
 858 059f A0090000 		.4byte	.LASF125
 859 05a3 29       		.byte	0x29
 860 05a4 13       		.uleb128 0x13
 861 05a5 09040000 		.4byte	.LASF126
 862 05a9 2A       		.byte	0x2a
 863 05aa 00       		.byte	0
 864 05ab 14       		.uleb128 0x14
 865 05ac E4000000 		.4byte	0xe4
 866 05b0 BB050000 		.4byte	0x5bb
 867 05b4 15       		.uleb128 0x15
 868 05b5 37000000 		.4byte	0x37
 869 05b9 07       		.byte	0x7
 870 05ba 00       		.byte	0
 871 05bb 16       		.uleb128 0x16
 872 05bc 24070000 		.4byte	.LASF127
 873 05c0 09       		.byte	0x9
 874 05c1 4007     		.2byte	0x740
 875 05c3 DF000000 		.4byte	0xdf
 876 05c7 17       		.uleb128 0x17
 877 05c8 6E050000 		.4byte	.LASF128
 878 05cc 0A       		.byte	0xa
 879 05cd 45       		.byte	0x45
 880 05ce E4000000 		.4byte	0xe4
 881 05d2 14       		.uleb128 0x14
 882 05d3 BF000000 		.4byte	0xbf
 883 05d7 E2050000 		.4byte	0x5e2
 884 05db 15       		.uleb128 0x15
 885 05dc 37000000 		.4byte	0x37
 886 05e0 0F       		.byte	0xf
 887 05e1 00       		.byte	0
 888 05e2 05       		.uleb128 0x5
 889 05e3 D2050000 		.4byte	0x5d2
 890 05e7 17       		.uleb128 0x17
 891 05e8 81090000 		.4byte	.LASF129
 892 05ec 0A       		.byte	0xa
 893 05ed 46       		.byte	0x46
 894 05ee E2050000 		.4byte	0x5e2
 895 05f2 14       		.uleb128 0x14
 896 05f3 BF000000 		.4byte	0xbf
 897 05f7 02060000 		.4byte	0x602
 898 05fb 15       		.uleb128 0x15
 899 05fc 37000000 		.4byte	0x37
 900 0600 07       		.byte	0x7
 901 0601 00       		.byte	0
 902 0602 05       		.uleb128 0x5
 903 0603 F2050000 		.4byte	0x5f2
 904 0607 17       		.uleb128 0x17
 905 0608 6F0B0000 		.4byte	.LASF130
 906 060c 0A       		.byte	0xa
 907 060d 47       		.byte	0x47
 908 060e 02060000 		.4byte	0x602
 909 0612 18       		.uleb128 0x18
 910 0613 10       		.byte	0x10
 911 0614 0B       		.byte	0xb
 912 0615 DD       		.byte	0xdd
ARM GAS  C:\Users\14122\AppData\Local\Temp\ccz6EvhC.s 			page 17


 913 0616 4B060000 		.4byte	0x64b
 914 061a 09       		.uleb128 0x9
 915 061b 54495200 		.ascii	"TIR\000"
 916 061f 0B       		.byte	0xb
 917 0620 DF       		.byte	0xdf
 918 0621 EF000000 		.4byte	0xef
 919 0625 00       		.byte	0
 920 0626 08       		.uleb128 0x8
 921 0627 260E0000 		.4byte	.LASF131
 922 062b 0B       		.byte	0xb
 923 062c E0       		.byte	0xe0
 924 062d EF000000 		.4byte	0xef
 925 0631 04       		.byte	0x4
 926 0632 08       		.uleb128 0x8
 927 0633 6A0A0000 		.4byte	.LASF132
 928 0637 0B       		.byte	0xb
 929 0638 E1       		.byte	0xe1
 930 0639 EF000000 		.4byte	0xef
 931 063d 08       		.byte	0x8
 932 063e 08       		.uleb128 0x8
 933 063f CF070000 		.4byte	.LASF133
 934 0643 0B       		.byte	0xb
 935 0644 E2       		.byte	0xe2
 936 0645 EF000000 		.4byte	0xef
 937 0649 0C       		.byte	0xc
 938 064a 00       		.byte	0
 939 064b 03       		.uleb128 0x3
 940 064c 7D0B0000 		.4byte	.LASF134
 941 0650 0B       		.byte	0xb
 942 0651 E3       		.byte	0xe3
 943 0652 12060000 		.4byte	0x612
 944 0656 18       		.uleb128 0x18
 945 0657 10       		.byte	0x10
 946 0658 0B       		.byte	0xb
 947 0659 E9       		.byte	0xe9
 948 065a 8F060000 		.4byte	0x68f
 949 065e 09       		.uleb128 0x9
 950 065f 52495200 		.ascii	"RIR\000"
 951 0663 0B       		.byte	0xb
 952 0664 EB       		.byte	0xeb
 953 0665 EF000000 		.4byte	0xef
 954 0669 00       		.byte	0
 955 066a 08       		.uleb128 0x8
 956 066b 050E0000 		.4byte	.LASF135
 957 066f 0B       		.byte	0xb
 958 0670 EC       		.byte	0xec
 959 0671 EF000000 		.4byte	0xef
 960 0675 04       		.byte	0x4
 961 0676 08       		.uleb128 0x8
 962 0677 420A0000 		.4byte	.LASF136
 963 067b 0B       		.byte	0xb
 964 067c ED       		.byte	0xed
 965 067d EF000000 		.4byte	0xef
 966 0681 08       		.byte	0x8
 967 0682 08       		.uleb128 0x8
 968 0683 B2070000 		.4byte	.LASF137
 969 0687 0B       		.byte	0xb
ARM GAS  C:\Users\14122\AppData\Local\Temp\ccz6EvhC.s 			page 18


 970 0688 EE       		.byte	0xee
 971 0689 EF000000 		.4byte	0xef
 972 068d 0C       		.byte	0xc
 973 068e 00       		.byte	0
 974 068f 03       		.uleb128 0x3
 975 0690 470A0000 		.4byte	.LASF138
 976 0694 0B       		.byte	0xb
 977 0695 EF       		.byte	0xef
 978 0696 56060000 		.4byte	0x656
 979 069a 18       		.uleb128 0x18
 980 069b 08       		.byte	0x8
 981 069c 0B       		.byte	0xb
 982 069d F5       		.byte	0xf5
 983 069e BB060000 		.4byte	0x6bb
 984 06a2 09       		.uleb128 0x9
 985 06a3 46523100 		.ascii	"FR1\000"
 986 06a7 0B       		.byte	0xb
 987 06a8 F7       		.byte	0xf7
 988 06a9 EF000000 		.4byte	0xef
 989 06ad 00       		.byte	0
 990 06ae 09       		.uleb128 0x9
 991 06af 46523200 		.ascii	"FR2\000"
 992 06b3 0B       		.byte	0xb
 993 06b4 F8       		.byte	0xf8
 994 06b5 EF000000 		.4byte	0xef
 995 06b9 04       		.byte	0x4
 996 06ba 00       		.byte	0
 997 06bb 03       		.uleb128 0x3
 998 06bc 78020000 		.4byte	.LASF139
 999 06c0 0B       		.byte	0xb
 1000 06c1 F9       		.byte	0xf9
 1001 06c2 9A060000 		.4byte	0x69a
 1002 06c6 19       		.uleb128 0x19
 1003 06c7 B002     		.2byte	0x2b0
 1004 06c9 0B       		.byte	0xb
 1005 06ca FF       		.byte	0xff
 1006 06cb FB070000 		.4byte	0x7fb
 1007 06cf 0A       		.uleb128 0xa
 1008 06d0 4D435200 		.ascii	"MCR\000"
 1009 06d4 0B       		.byte	0xb
 1010 06d5 0101     		.2byte	0x101
 1011 06d7 EF000000 		.4byte	0xef
 1012 06db 00       		.byte	0
 1013 06dc 0A       		.uleb128 0xa
 1014 06dd 4D535200 		.ascii	"MSR\000"
 1015 06e1 0B       		.byte	0xb
 1016 06e2 0201     		.2byte	0x102
 1017 06e4 EF000000 		.4byte	0xef
 1018 06e8 04       		.byte	0x4
 1019 06e9 0A       		.uleb128 0xa
 1020 06ea 54535200 		.ascii	"TSR\000"
 1021 06ee 0B       		.byte	0xb
 1022 06ef 0301     		.2byte	0x103
 1023 06f1 EF000000 		.4byte	0xef
 1024 06f5 08       		.byte	0x8
 1025 06f6 0B       		.uleb128 0xb
 1026 06f7 42020000 		.4byte	.LASF140
ARM GAS  C:\Users\14122\AppData\Local\Temp\ccz6EvhC.s 			page 19


 1027 06fb 0B       		.byte	0xb
 1028 06fc 0401     		.2byte	0x104
 1029 06fe EF000000 		.4byte	0xef
 1030 0702 0C       		.byte	0xc
 1031 0703 0B       		.uleb128 0xb
 1032 0704 0F030000 		.4byte	.LASF141
 1033 0708 0B       		.byte	0xb
 1034 0709 0501     		.2byte	0x105
 1035 070b EF000000 		.4byte	0xef
 1036 070f 10       		.byte	0x10
 1037 0710 0A       		.uleb128 0xa
 1038 0711 49455200 		.ascii	"IER\000"
 1039 0715 0B       		.byte	0xb
 1040 0716 0601     		.2byte	0x106
 1041 0718 EF000000 		.4byte	0xef
 1042 071c 14       		.byte	0x14
 1043 071d 0A       		.uleb128 0xa
 1044 071e 45535200 		.ascii	"ESR\000"
 1045 0722 0B       		.byte	0xb
 1046 0723 0701     		.2byte	0x107
 1047 0725 EF000000 		.4byte	0xef
 1048 0729 18       		.byte	0x18
 1049 072a 0A       		.uleb128 0xa
 1050 072b 42545200 		.ascii	"BTR\000"
 1051 072f 0B       		.byte	0xb
 1052 0730 0801     		.2byte	0x108
 1053 0732 EF000000 		.4byte	0xef
 1054 0736 1C       		.byte	0x1c
 1055 0737 0B       		.uleb128 0xb
 1056 0738 B3020000 		.4byte	.LASF142
 1057 073c 0B       		.byte	0xb
 1058 073d 0901     		.2byte	0x109
 1059 073f FB070000 		.4byte	0x7fb
 1060 0743 20       		.byte	0x20
 1061 0744 1A       		.uleb128 0x1a
 1062 0745 940D0000 		.4byte	.LASF143
 1063 0749 0B       		.byte	0xb
 1064 074a 0A01     		.2byte	0x10a
 1065 074c 0B080000 		.4byte	0x80b
 1066 0750 8001     		.2byte	0x180
 1067 0752 1A       		.uleb128 0x1a
 1068 0753 93020000 		.4byte	.LASF144
 1069 0757 0B       		.byte	0xb
 1070 0758 0B01     		.2byte	0x10b
 1071 075a 1B080000 		.4byte	0x81b
 1072 075e B001     		.2byte	0x1b0
 1073 0760 1A       		.uleb128 0x1a
 1074 0761 BD020000 		.4byte	.LASF145
 1075 0765 0B       		.byte	0xb
 1076 0766 0C01     		.2byte	0x10c
 1077 0768 2B080000 		.4byte	0x82b
 1078 076c D001     		.2byte	0x1d0
 1079 076e 1B       		.uleb128 0x1b
 1080 076f 464D5200 		.ascii	"FMR\000"
 1081 0773 0B       		.byte	0xb
 1082 0774 0D01     		.2byte	0x10d
 1083 0776 EF000000 		.4byte	0xef
ARM GAS  C:\Users\14122\AppData\Local\Temp\ccz6EvhC.s 			page 20


 1084 077a 0002     		.2byte	0x200
 1085 077c 1A       		.uleb128 0x1a
 1086 077d AD070000 		.4byte	.LASF146
 1087 0781 0B       		.byte	0xb
 1088 0782 0E01     		.2byte	0x10e
 1089 0784 EF000000 		.4byte	0xef
 1090 0788 0402     		.2byte	0x204
 1091 078a 1A       		.uleb128 0x1a
 1092 078b 78030000 		.4byte	.LASF147
 1093 078f 0B       		.byte	0xb
 1094 0790 0F01     		.2byte	0x10f
 1095 0792 E4000000 		.4byte	0xe4
 1096 0796 0802     		.2byte	0x208
 1097 0798 1A       		.uleb128 0x1a
 1098 0799 340B0000 		.4byte	.LASF148
 1099 079d 0B       		.byte	0xb
 1100 079e 1001     		.2byte	0x110
 1101 07a0 EF000000 		.4byte	0xef
 1102 07a4 0C02     		.2byte	0x20c
 1103 07a6 1A       		.uleb128 0x1a
 1104 07a7 D5020000 		.4byte	.LASF149
 1105 07ab 0B       		.byte	0xb
 1106 07ac 1101     		.2byte	0x111
 1107 07ae E4000000 		.4byte	0xe4
 1108 07b2 1002     		.2byte	0x210
 1109 07b4 1A       		.uleb128 0x1a
 1110 07b5 DF0B0000 		.4byte	.LASF150
 1111 07b9 0B       		.byte	0xb
 1112 07ba 1201     		.2byte	0x112
 1113 07bc EF000000 		.4byte	0xef
 1114 07c0 1402     		.2byte	0x214
 1115 07c2 1A       		.uleb128 0x1a
 1116 07c3 DF020000 		.4byte	.LASF151
 1117 07c7 0B       		.byte	0xb
 1118 07c8 1301     		.2byte	0x113
 1119 07ca E4000000 		.4byte	0xe4
 1120 07ce 1802     		.2byte	0x218
 1121 07d0 1A       		.uleb128 0x1a
 1122 07d1 B0010000 		.4byte	.LASF152
 1123 07d5 0B       		.byte	0xb
 1124 07d6 1401     		.2byte	0x114
 1125 07d8 EF000000 		.4byte	0xef
 1126 07dc 1C02     		.2byte	0x21c
 1127 07de 1A       		.uleb128 0x1a
 1128 07df E9020000 		.4byte	.LASF153
 1129 07e3 0B       		.byte	0xb
 1130 07e4 1501     		.2byte	0x115
 1131 07e6 AB050000 		.4byte	0x5ab
 1132 07ea 2002     		.2byte	0x220
 1133 07ec 1A       		.uleb128 0x1a
 1134 07ed C9080000 		.4byte	.LASF154
 1135 07f1 0B       		.byte	0xb
 1136 07f2 1601     		.2byte	0x116
 1137 07f4 3B080000 		.4byte	0x83b
 1138 07f8 4002     		.2byte	0x240
 1139 07fa 00       		.byte	0
 1140 07fb 14       		.uleb128 0x14
ARM GAS  C:\Users\14122\AppData\Local\Temp\ccz6EvhC.s 			page 21


 1141 07fc E4000000 		.4byte	0xe4
 1142 0800 0B080000 		.4byte	0x80b
 1143 0804 15       		.uleb128 0x15
 1144 0805 37000000 		.4byte	0x37
 1145 0809 57       		.byte	0x57
 1146 080a 00       		.byte	0
 1147 080b 14       		.uleb128 0x14
 1148 080c 4B060000 		.4byte	0x64b
 1149 0810 1B080000 		.4byte	0x81b
 1150 0814 15       		.uleb128 0x15
 1151 0815 37000000 		.4byte	0x37
 1152 0819 02       		.byte	0x2
 1153 081a 00       		.byte	0
 1154 081b 14       		.uleb128 0x14
 1155 081c 8F060000 		.4byte	0x68f
 1156 0820 2B080000 		.4byte	0x82b
 1157 0824 15       		.uleb128 0x15
 1158 0825 37000000 		.4byte	0x37
 1159 0829 01       		.byte	0x1
 1160 082a 00       		.byte	0
 1161 082b 14       		.uleb128 0x14
 1162 082c E4000000 		.4byte	0xe4
 1163 0830 3B080000 		.4byte	0x83b
 1164 0834 15       		.uleb128 0x15
 1165 0835 37000000 		.4byte	0x37
 1166 0839 0B       		.byte	0xb
 1167 083a 00       		.byte	0
 1168 083b 14       		.uleb128 0x14
 1169 083c BB060000 		.4byte	0x6bb
 1170 0840 4B080000 		.4byte	0x84b
 1171 0844 15       		.uleb128 0x15
 1172 0845 37000000 		.4byte	0x37
 1173 0849 0D       		.byte	0xd
 1174 084a 00       		.byte	0
 1175 084b 1C       		.uleb128 0x1c
 1176 084c E8070000 		.4byte	.LASF155
 1177 0850 0B       		.byte	0xb
 1178 0851 1701     		.2byte	0x117
 1179 0853 C6060000 		.4byte	0x6c6
 1180 0857 1D       		.uleb128 0x1d
 1181 0858 10       		.byte	0x10
 1182 0859 0B       		.byte	0xb
 1183 085a 3501     		.2byte	0x135
 1184 085c 95080000 		.4byte	0x895
 1185 0860 0A       		.uleb128 0xa
 1186 0861 43435200 		.ascii	"CCR\000"
 1187 0865 0B       		.byte	0xb
 1188 0866 3701     		.2byte	0x137
 1189 0868 EF000000 		.4byte	0xef
 1190 086c 00       		.byte	0
 1191 086d 0B       		.uleb128 0xb
 1192 086e 1D010000 		.4byte	.LASF156
 1193 0872 0B       		.byte	0xb
 1194 0873 3801     		.2byte	0x138
 1195 0875 EF000000 		.4byte	0xef
 1196 0879 04       		.byte	0x4
 1197 087a 0B       		.uleb128 0xb
ARM GAS  C:\Users\14122\AppData\Local\Temp\ccz6EvhC.s 			page 22


 1198 087b 24020000 		.4byte	.LASF157
 1199 087f 0B       		.byte	0xb
 1200 0880 3901     		.2byte	0x139
 1201 0882 EF000000 		.4byte	0xef
 1202 0886 08       		.byte	0x8
 1203 0887 0B       		.uleb128 0xb
 1204 0888 B7070000 		.4byte	.LASF158
 1205 088c 0B       		.byte	0xb
 1206 088d 3A01     		.2byte	0x13a
 1207 088f EF000000 		.4byte	0xef
 1208 0893 0C       		.byte	0xc
 1209 0894 00       		.byte	0
 1210 0895 1C       		.uleb128 0x1c
 1211 0896 6D090000 		.4byte	.LASF159
 1212 089a 0B       		.byte	0xb
 1213 089b 3B01     		.2byte	0x13b
 1214 089d 57080000 		.4byte	0x857
 1215 08a1 1D       		.uleb128 0x1d
 1216 08a2 08       		.byte	0x8
 1217 08a3 0B       		.byte	0xb
 1218 08a4 3D01     		.2byte	0x13d
 1219 08a6 C5080000 		.4byte	0x8c5
 1220 08aa 0A       		.uleb128 0xa
 1221 08ab 49535200 		.ascii	"ISR\000"
 1222 08af 0B       		.byte	0xb
 1223 08b0 3F01     		.2byte	0x13f
 1224 08b2 EF000000 		.4byte	0xef
 1225 08b6 00       		.byte	0
 1226 08b7 0B       		.uleb128 0xb
 1227 08b8 B6030000 		.4byte	.LASF160
 1228 08bc 0B       		.byte	0xb
 1229 08bd 4001     		.2byte	0x140
 1230 08bf EF000000 		.4byte	0xef
 1231 08c3 04       		.byte	0x4
 1232 08c4 00       		.byte	0
 1233 08c5 1C       		.uleb128 0x1c
 1234 08c6 03030000 		.4byte	.LASF161
 1235 08ca 0B       		.byte	0xb
 1236 08cb 4101     		.2byte	0x141
 1237 08cd A1080000 		.4byte	0x8a1
 1238 08d1 1D       		.uleb128 0x1d
 1239 08d2 1C       		.byte	0x1c
 1240 08d3 0B       		.byte	0xb
 1241 08d4 2902     		.2byte	0x229
 1242 08d6 34090000 		.4byte	0x934
 1243 08da 0A       		.uleb128 0xa
 1244 08db 535200   		.ascii	"SR\000"
 1245 08de 0B       		.byte	0xb
 1246 08df 2B02     		.2byte	0x22b
 1247 08e1 EF000000 		.4byte	0xef
 1248 08e5 00       		.byte	0
 1249 08e6 0A       		.uleb128 0xa
 1250 08e7 445200   		.ascii	"DR\000"
 1251 08ea 0B       		.byte	0xb
 1252 08eb 2C02     		.2byte	0x22c
 1253 08ed EF000000 		.4byte	0xef
 1254 08f1 04       		.byte	0x4
ARM GAS  C:\Users\14122\AppData\Local\Temp\ccz6EvhC.s 			page 23


 1255 08f2 0A       		.uleb128 0xa
 1256 08f3 42525200 		.ascii	"BRR\000"
 1257 08f7 0B       		.byte	0xb
 1258 08f8 2D02     		.2byte	0x22d
 1259 08fa EF000000 		.4byte	0xef
 1260 08fe 08       		.byte	0x8
 1261 08ff 0A       		.uleb128 0xa
 1262 0900 43523100 		.ascii	"CR1\000"
 1263 0904 0B       		.byte	0xb
 1264 0905 2E02     		.2byte	0x22e
 1265 0907 EF000000 		.4byte	0xef
 1266 090b 0C       		.byte	0xc
 1267 090c 0A       		.uleb128 0xa
 1268 090d 43523200 		.ascii	"CR2\000"
 1269 0911 0B       		.byte	0xb
 1270 0912 2F02     		.2byte	0x22f
 1271 0914 EF000000 		.4byte	0xef
 1272 0918 10       		.byte	0x10
 1273 0919 0A       		.uleb128 0xa
 1274 091a 43523300 		.ascii	"CR3\000"
 1275 091e 0B       		.byte	0xb
 1276 091f 3002     		.2byte	0x230
 1277 0921 EF000000 		.4byte	0xef
 1278 0925 14       		.byte	0x14
 1279 0926 0B       		.uleb128 0xb
 1280 0927 82000000 		.4byte	.LASF162
 1281 092b 0B       		.byte	0xb
 1282 092c 3102     		.2byte	0x231
 1283 092e EF000000 		.4byte	0xef
 1284 0932 18       		.byte	0x18
 1285 0933 00       		.byte	0
 1286 0934 1C       		.uleb128 0x1c
 1287 0935 FB030000 		.4byte	.LASF163
 1288 0939 0B       		.byte	0xb
 1289 093a 3202     		.2byte	0x232
 1290 093c D1080000 		.4byte	0x8d1
 1291 0940 03       		.uleb128 0x3
 1292 0941 E3010000 		.4byte	.LASF164
 1293 0945 0C       		.byte	0xc
 1294 0946 65       		.byte	0x65
 1295 0947 33030000 		.4byte	0x333
 1296 094b 03       		.uleb128 0x3
 1297 094c F0030000 		.4byte	.LASF165
 1298 0950 0C       		.byte	0xc
 1299 0951 6D       		.byte	0x6d
 1300 0952 F4000000 		.4byte	0xf4
 1301 0956 07       		.uleb128 0x7
 1302 0957 830C0000 		.4byte	.LASF166
 1303 095b 04       		.byte	0x4
 1304 095c 0C       		.byte	0xc
 1305 095d 89       		.byte	0x89
 1306 095e 6E090000 		.4byte	0x96e
 1307 0962 09       		.uleb128 0x9
 1308 0963 737000   		.ascii	"sp\000"
 1309 0966 0C       		.byte	0xc
 1310 0967 8A       		.byte	0x8a
 1311 0968 EA090000 		.4byte	0x9ea
ARM GAS  C:\Users\14122\AppData\Local\Temp\ccz6EvhC.s 			page 24


 1312 096c 00       		.byte	0
 1313 096d 00       		.byte	0
 1314 096e 0D       		.uleb128 0xd
 1315 096f 2E090000 		.4byte	.LASF167
 1316 0973 24       		.byte	0x24
 1317 0974 0D       		.byte	0xd
 1318 0975 5901     		.2byte	0x159
 1319 0977 EA090000 		.4byte	0x9ea
 1320 097b 0A       		.uleb128 0xa
 1321 097c 723400   		.ascii	"r4\000"
 1322 097f 0D       		.byte	0xd
 1323 0980 6C01     		.2byte	0x16c
 1324 0982 40090000 		.4byte	0x940
 1325 0986 00       		.byte	0
 1326 0987 0A       		.uleb128 0xa
 1327 0988 723500   		.ascii	"r5\000"
 1328 098b 0D       		.byte	0xd
 1329 098c 6D01     		.2byte	0x16d
 1330 098e 40090000 		.4byte	0x940
 1331 0992 04       		.byte	0x4
 1332 0993 0A       		.uleb128 0xa
 1333 0994 723600   		.ascii	"r6\000"
 1334 0997 0D       		.byte	0xd
 1335 0998 6E01     		.2byte	0x16e
 1336 099a 40090000 		.4byte	0x940
 1337 099e 08       		.byte	0x8
 1338 099f 0A       		.uleb128 0xa
 1339 09a0 723700   		.ascii	"r7\000"
 1340 09a3 0D       		.byte	0xd
 1341 09a4 6F01     		.2byte	0x16f
 1342 09a6 40090000 		.4byte	0x940
 1343 09aa 0C       		.byte	0xc
 1344 09ab 0A       		.uleb128 0xa
 1345 09ac 723800   		.ascii	"r8\000"
 1346 09af 0D       		.byte	0xd
 1347 09b0 7001     		.2byte	0x170
 1348 09b2 40090000 		.4byte	0x940
 1349 09b6 10       		.byte	0x10
 1350 09b7 0A       		.uleb128 0xa
 1351 09b8 723900   		.ascii	"r9\000"
 1352 09bb 0D       		.byte	0xd
 1353 09bc 7101     		.2byte	0x171
 1354 09be 40090000 		.4byte	0x940
 1355 09c2 14       		.byte	0x14
 1356 09c3 0A       		.uleb128 0xa
 1357 09c4 72313000 		.ascii	"r10\000"
 1358 09c8 0D       		.byte	0xd
 1359 09c9 7201     		.2byte	0x172
 1360 09cb 40090000 		.4byte	0x940
 1361 09cf 18       		.byte	0x18
 1362 09d0 0A       		.uleb128 0xa
 1363 09d1 72313100 		.ascii	"r11\000"
 1364 09d5 0D       		.byte	0xd
 1365 09d6 7301     		.2byte	0x173
 1366 09d8 40090000 		.4byte	0x940
 1367 09dc 1C       		.byte	0x1c
 1368 09dd 0A       		.uleb128 0xa
ARM GAS  C:\Users\14122\AppData\Local\Temp\ccz6EvhC.s 			page 25


 1369 09de 6C7200   		.ascii	"lr\000"
 1370 09e1 0D       		.byte	0xd
 1371 09e2 7401     		.2byte	0x174
 1372 09e4 40090000 		.4byte	0x940
 1373 09e8 20       		.byte	0x20
 1374 09e9 00       		.byte	0
 1375 09ea 0C       		.uleb128 0xc
 1376 09eb 04       		.byte	0x4
 1377 09ec 6E090000 		.4byte	0x96e
 1378 09f0 1E       		.uleb128 0x1e
 1379 09f1 04       		.byte	0x4
 1380 09f2 07       		.byte	0x7
 1381 09f3 C6       		.byte	0xc6
 1382 09f4 520A0000 		.4byte	0xa52
 1383 09f8 1F       		.uleb128 0x1f
 1384 09f9 160D0000 		.4byte	.LASF168
 1385 09fd 07       		.byte	0x7
 1386 09fe CD       		.byte	0xcd
 1387 09ff 2B010000 		.4byte	0x12b
 1388 0a03 1F       		.uleb128 0x1f
 1389 0a04 61010000 		.4byte	.LASF169
 1390 0a08 07       		.byte	0x7
 1391 0a09 D4       		.byte	0xd4
 1392 0a0a 2B010000 		.4byte	0x12b
 1393 0a0e 1F       		.uleb128 0x1f
 1394 0a0f CF030000 		.4byte	.LASF170
 1395 0a13 07       		.byte	0x7
 1396 0a14 DB       		.byte	0xdb
 1397 0a15 33030000 		.4byte	0x333
 1398 0a19 1F       		.uleb128 0x1f
 1399 0a1a AD020000 		.4byte	.LASF171
 1400 0a1e 07       		.byte	0x7
 1401 0a1f E2       		.byte	0xe2
 1402 0a20 520A0000 		.4byte	0xa52
 1403 0a24 1F       		.uleb128 0x1f
 1404 0a25 26090000 		.4byte	.LASF172
 1405 0a29 07       		.byte	0x7
 1406 0a2a E7       		.byte	0xe7
 1407 0a2b 2B010000 		.4byte	0x12b
 1408 0a2f 1F       		.uleb128 0x1f
 1409 0a30 3D000000 		.4byte	.LASF173
 1410 0a34 07       		.byte	0x7
 1411 0a35 F0       		.byte	0xf0
 1412 0a36 7D0A0000 		.4byte	0xa7d
 1413 0a3a 1F       		.uleb128 0x1f
 1414 0a3b A5040000 		.4byte	.LASF174
 1415 0a3f 07       		.byte	0x7
 1416 0a40 F9       		.byte	0xf9
 1417 0a41 B40A0000 		.4byte	0xab4
 1418 0a45 20       		.uleb128 0x20
 1419 0a46 5D020000 		.4byte	.LASF175
 1420 0a4a 07       		.byte	0x7
 1421 0a4b 0101     		.2byte	0x101
 1422 0a4d 36010000 		.4byte	0x136
 1423 0a51 00       		.byte	0
 1424 0a52 0C       		.uleb128 0xc
 1425 0a53 04       		.byte	0x4
ARM GAS  C:\Users\14122\AppData\Local\Temp\ccz6EvhC.s 			page 26


 1426 0a54 4B020000 		.4byte	0x24b
 1427 0a58 07       		.uleb128 0x7
 1428 0a59 7E050000 		.4byte	.LASF176
 1429 0a5d 0C       		.byte	0xc
 1430 0a5e 0E       		.byte	0xe
 1431 0a5f 34       		.byte	0x34
 1432 0a60 7D0A0000 		.4byte	0xa7d
 1433 0a64 08       		.uleb128 0x8
 1434 0a65 640A0000 		.4byte	.LASF31
 1435 0a69 0E       		.byte	0xe
 1436 0a6a 35       		.byte	0x35
 1437 0a6b 80020000 		.4byte	0x280
 1438 0a6f 00       		.byte	0
 1439 0a70 09       		.uleb128 0x9
 1440 0a71 636E7400 		.ascii	"cnt\000"
 1441 0a75 0E       		.byte	0xe
 1442 0a76 37       		.byte	0x37
 1443 0a77 4C010000 		.4byte	0x14c
 1444 0a7b 08       		.byte	0x8
 1445 0a7c 00       		.byte	0
 1446 0a7d 0C       		.uleb128 0xc
 1447 0a7e 04       		.byte	0x4
 1448 0a7f 580A0000 		.4byte	0xa58
 1449 0a83 07       		.uleb128 0x7
 1450 0a84 D60B0000 		.4byte	.LASF177
 1451 0a88 10       		.byte	0x10
 1452 0a89 0F       		.byte	0xf
 1453 0a8a 39       		.byte	0x39
 1454 0a8b B40A0000 		.4byte	0xab4
 1455 0a8f 08       		.uleb128 0x8
 1456 0a90 640A0000 		.4byte	.LASF31
 1457 0a94 0F       		.byte	0xf
 1458 0a95 3A       		.byte	0x3a
 1459 0a96 80020000 		.4byte	0x280
 1460 0a9a 00       		.byte	0
 1461 0a9b 08       		.uleb128 0x8
 1462 0a9c 5A000000 		.4byte	.LASF178
 1463 0aa0 0F       		.byte	0xf
 1464 0aa1 3C       		.byte	0x3c
 1465 0aa2 56020000 		.4byte	0x256
 1466 0aa6 08       		.byte	0x8
 1467 0aa7 08       		.uleb128 0x8
 1468 0aa8 ED0D0000 		.4byte	.LASF50
 1469 0aac 0F       		.byte	0xf
 1470 0aad 3E       		.byte	0x3e
 1471 0aae 160C0000 		.4byte	0xc16
 1472 0ab2 0C       		.byte	0xc
 1473 0ab3 00       		.byte	0
 1474 0ab4 0C       		.uleb128 0xc
 1475 0ab5 04       		.byte	0x4
 1476 0ab6 830A0000 		.4byte	0xa83
 1477 0aba 0C       		.uleb128 0xc
 1478 0abb 04       		.byte	0x4
 1479 0abc CC0A0000 		.4byte	0xacc
 1480 0ac0 06       		.uleb128 0x6
 1481 0ac1 BA0A0000 		.4byte	0xaba
 1482 0ac5 04       		.uleb128 0x4
ARM GAS  C:\Users\14122\AppData\Local\Temp\ccz6EvhC.s 			page 27


 1483 0ac6 01       		.byte	0x1
 1484 0ac7 08       		.byte	0x8
 1485 0ac8 B1030000 		.4byte	.LASF179
 1486 0acc 05       		.uleb128 0x5
 1487 0acd C50A0000 		.4byte	0xac5
 1488 0ad1 0C       		.uleb128 0xc
 1489 0ad2 04       		.byte	0x4
 1490 0ad3 4B090000 		.4byte	0x94b
 1491 0ad7 0C       		.uleb128 0xc
 1492 0ad8 04       		.byte	0x4
 1493 0ad9 35030000 		.4byte	0x335
 1494 0add 21       		.uleb128 0x21
 1495 0ade 636800   		.ascii	"ch\000"
 1496 0ae1 07       		.byte	0x7
 1497 0ae2 C701     		.2byte	0x1c7
 1498 0ae4 02040000 		.4byte	0x402
 1499 0ae8 14       		.uleb128 0x14
 1500 0ae9 4B090000 		.4byte	0x94b
 1501 0aed F30A0000 		.4byte	0xaf3
 1502 0af1 22       		.uleb128 0x22
 1503 0af2 00       		.byte	0
 1504 0af3 16       		.uleb128 0x16
 1505 0af4 C7050000 		.4byte	.LASF180
 1506 0af8 10       		.byte	0x10
 1507 0af9 1701     		.2byte	0x117
 1508 0afb E80A0000 		.4byte	0xae8
 1509 0aff 18       		.uleb128 0x18
 1510 0b00 16       		.byte	0x16
 1511 0b01 11       		.byte	0x11
 1512 0b02 34       		.byte	0x34
 1513 0b03 E00B0000 		.4byte	0xbe0
 1514 0b07 08       		.uleb128 0x8
 1515 0b08 1B0E0000 		.4byte	.LASF181
 1516 0b0c 11       		.byte	0x11
 1517 0b0d 35       		.byte	0x35
 1518 0b0e E00B0000 		.4byte	0xbe0
 1519 0b12 00       		.byte	0
 1520 0b13 08       		.uleb128 0x8
 1521 0b14 AB010000 		.4byte	.LASF182
 1522 0b18 11       		.byte	0x11
 1523 0b19 36       		.byte	0x36
 1524 0b1a B4000000 		.4byte	0xb4
 1525 0b1e 04       		.byte	0x4
 1526 0b1f 08       		.uleb128 0x8
 1527 0b20 AF090000 		.4byte	.LASF183
 1528 0b24 11       		.byte	0x11
 1529 0b25 37       		.byte	0x37
 1530 0b26 B4000000 		.4byte	0xb4
 1531 0b2a 05       		.byte	0x5
 1532 0b2b 08       		.uleb128 0x8
 1533 0b2c 9D0A0000 		.4byte	.LASF184
 1534 0b30 11       		.byte	0x11
 1535 0b31 38       		.byte	0x38
 1536 0b32 C4000000 		.4byte	0xc4
 1537 0b36 06       		.byte	0x6
 1538 0b37 08       		.uleb128 0x8
 1539 0b38 45040000 		.4byte	.LASF185
ARM GAS  C:\Users\14122\AppData\Local\Temp\ccz6EvhC.s 			page 28


 1540 0b3c 11       		.byte	0x11
 1541 0b3d 39       		.byte	0x39
 1542 0b3e B4000000 		.4byte	0xb4
 1543 0b42 08       		.byte	0x8
 1544 0b43 08       		.uleb128 0x8
 1545 0b44 9F0D0000 		.4byte	.LASF186
 1546 0b48 11       		.byte	0x11
 1547 0b49 3A       		.byte	0x3a
 1548 0b4a B4000000 		.4byte	0xb4
 1549 0b4e 09       		.byte	0x9
 1550 0b4f 08       		.uleb128 0x8
 1551 0b50 2F050000 		.4byte	.LASF187
 1552 0b54 11       		.byte	0x11
 1553 0b55 3B       		.byte	0x3b
 1554 0b56 B4000000 		.4byte	0xb4
 1555 0b5a 0A       		.byte	0xa
 1556 0b5b 08       		.uleb128 0x8
 1557 0b5c 2D000000 		.4byte	.LASF188
 1558 0b60 11       		.byte	0x11
 1559 0b61 3C       		.byte	0x3c
 1560 0b62 B4000000 		.4byte	0xb4
 1561 0b66 0B       		.byte	0xb
 1562 0b67 08       		.uleb128 0x8
 1563 0b68 00000000 		.4byte	.LASF189
 1564 0b6c 11       		.byte	0x11
 1565 0b6d 3D       		.byte	0x3d
 1566 0b6e B4000000 		.4byte	0xb4
 1567 0b72 0C       		.byte	0xc
 1568 0b73 08       		.uleb128 0x8
 1569 0b74 67070000 		.4byte	.LASF190
 1570 0b78 11       		.byte	0x11
 1571 0b79 3E       		.byte	0x3e
 1572 0b7a B4000000 		.4byte	0xb4
 1573 0b7e 0D       		.byte	0xd
 1574 0b7f 08       		.uleb128 0x8
 1575 0b80 3F010000 		.4byte	.LASF191
 1576 0b84 11       		.byte	0x11
 1577 0b85 3F       		.byte	0x3f
 1578 0b86 B4000000 		.4byte	0xb4
 1579 0b8a 0E       		.byte	0xe
 1580 0b8b 08       		.uleb128 0x8
 1581 0b8c F9090000 		.4byte	.LASF192
 1582 0b90 11       		.byte	0x11
 1583 0b91 40       		.byte	0x40
 1584 0b92 B4000000 		.4byte	0xb4
 1585 0b96 0F       		.byte	0xf
 1586 0b97 08       		.uleb128 0x8
 1587 0b98 3D060000 		.4byte	.LASF193
 1588 0b9c 11       		.byte	0x11
 1589 0b9d 41       		.byte	0x41
 1590 0b9e B4000000 		.4byte	0xb4
 1591 0ba2 10       		.byte	0x10
 1592 0ba3 08       		.uleb128 0x8
 1593 0ba4 09050000 		.4byte	.LASF194
 1594 0ba8 11       		.byte	0x11
 1595 0ba9 42       		.byte	0x42
 1596 0baa B4000000 		.4byte	0xb4
ARM GAS  C:\Users\14122\AppData\Local\Temp\ccz6EvhC.s 			page 29


 1597 0bae 11       		.byte	0x11
 1598 0baf 08       		.uleb128 0x8
 1599 0bb0 C40D0000 		.4byte	.LASF195
 1600 0bb4 11       		.byte	0x11
 1601 0bb5 43       		.byte	0x43
 1602 0bb6 B4000000 		.4byte	0xb4
 1603 0bba 12       		.byte	0x12
 1604 0bbb 08       		.uleb128 0x8
 1605 0bbc E1030000 		.4byte	.LASF196
 1606 0bc0 11       		.byte	0x11
 1607 0bc1 44       		.byte	0x44
 1608 0bc2 B4000000 		.4byte	0xb4
 1609 0bc6 13       		.byte	0x13
 1610 0bc7 08       		.uleb128 0x8
 1611 0bc8 4E000000 		.4byte	.LASF197
 1612 0bcc 11       		.byte	0x11
 1613 0bcd 45       		.byte	0x45
 1614 0bce B4000000 		.4byte	0xb4
 1615 0bd2 14       		.byte	0x14
 1616 0bd3 08       		.uleb128 0x8
 1617 0bd4 62040000 		.4byte	.LASF198
 1618 0bd8 11       		.byte	0x11
 1619 0bd9 46       		.byte	0x46
 1620 0bda B4000000 		.4byte	0xb4
 1621 0bde 15       		.byte	0x15
 1622 0bdf 00       		.byte	0
 1623 0be0 14       		.uleb128 0x14
 1624 0be1 C50A0000 		.4byte	0xac5
 1625 0be5 F00B0000 		.4byte	0xbf0
 1626 0be9 15       		.uleb128 0x15
 1627 0bea 37000000 		.4byte	0x37
 1628 0bee 03       		.byte	0x3
 1629 0bef 00       		.byte	0
 1630 0bf0 03       		.uleb128 0x3
 1631 0bf1 470D0000 		.4byte	.LASF199
 1632 0bf5 11       		.byte	0x11
 1633 0bf6 47       		.byte	0x47
 1634 0bf7 FF0A0000 		.4byte	0xaff
 1635 0bfb 05       		.uleb128 0x5
 1636 0bfc F00B0000 		.4byte	0xbf0
 1637 0c00 17       		.uleb128 0x17
 1638 0c01 68000000 		.4byte	.LASF200
 1639 0c05 11       		.byte	0x11
 1640 0c06 6C       		.byte	0x6c
 1641 0c07 FB0B0000 		.4byte	0xbfb
 1642 0c0b 03       		.uleb128 0x3
 1643 0c0c 730C0000 		.4byte	.LASF201
 1644 0c10 0F       		.byte	0xf
 1645 0c11 34       		.byte	0x34
 1646 0c12 830A0000 		.4byte	0xa83
 1647 0c16 0C       		.uleb128 0xc
 1648 0c17 04       		.byte	0x4
 1649 0c18 0B0C0000 		.4byte	0xc0b
 1650 0c1c 03       		.uleb128 0x3
 1651 0c1d 34040000 		.4byte	.LASF202
 1652 0c21 12       		.byte	0x12
 1653 0c22 34       		.byte	0x34
ARM GAS  C:\Users\14122\AppData\Local\Temp\ccz6EvhC.s 			page 30


 1654 0c23 270C0000 		.4byte	0xc27
 1655 0c27 07       		.uleb128 0x7
 1656 0c28 070D0000 		.4byte	.LASF203
 1657 0c2c 14       		.byte	0x14
 1658 0c2d 12       		.byte	0x12
 1659 0c2e 39       		.byte	0x39
 1660 0c2f 700C0000 		.4byte	0xc70
 1661 0c33 08       		.uleb128 0x8
 1662 0c34 ED0D0000 		.4byte	.LASF50
 1663 0c38 12       		.byte	0x12
 1664 0c39 3A       		.byte	0x3a
 1665 0c3a 700C0000 		.4byte	0xc70
 1666 0c3e 00       		.byte	0
 1667 0c3f 08       		.uleb128 0x8
 1668 0c40 530B0000 		.4byte	.LASF204
 1669 0c44 12       		.byte	0x12
 1670 0c45 3D       		.byte	0x3d
 1671 0c46 56020000 		.4byte	0x256
 1672 0c4a 04       		.byte	0x4
 1673 0c4b 08       		.uleb128 0x8
 1674 0c4c E60D0000 		.4byte	.LASF205
 1675 0c50 12       		.byte	0x12
 1676 0c51 3F       		.byte	0x3f
 1677 0c52 36010000 		.4byte	0x136
 1678 0c56 08       		.byte	0x8
 1679 0c57 08       		.uleb128 0x8
 1680 0c58 EA030000 		.4byte	.LASF38
 1681 0c5c 12       		.byte	0x12
 1682 0c5d 41       		.byte	0x41
 1683 0c5e 41010000 		.4byte	0x141
 1684 0c62 0C       		.byte	0xc
 1685 0c63 08       		.uleb128 0x8
 1686 0c64 FA080000 		.4byte	.LASF206
 1687 0c68 12       		.byte	0x12
 1688 0c69 43       		.byte	0x43
 1689 0c6a 41010000 		.4byte	0x141
 1690 0c6e 10       		.byte	0x10
 1691 0c6f 00       		.byte	0
 1692 0c70 0C       		.uleb128 0xc
 1693 0c71 04       		.byte	0x4
 1694 0c72 1C0C0000 		.4byte	0xc1c
 1695 0c76 07       		.uleb128 0x7
 1696 0c77 B20B0000 		.4byte	.LASF207
 1697 0c7b 04       		.byte	0x4
 1698 0c7c 12       		.byte	0x12
 1699 0c7d 4A       		.byte	0x4a
 1700 0c7e 8F0C0000 		.4byte	0xc8f
 1701 0c82 08       		.uleb128 0x8
 1702 0c83 ED0D0000 		.4byte	.LASF50
 1703 0c87 12       		.byte	0x12
 1704 0c88 4B       		.byte	0x4b
 1705 0c89 700C0000 		.4byte	0xc70
 1706 0c8d 00       		.byte	0
 1707 0c8e 00       		.byte	0
 1708 0c8f 03       		.uleb128 0x3
 1709 0c90 0F070000 		.4byte	.LASF208
 1710 0c94 12       		.byte	0x12
ARM GAS  C:\Users\14122\AppData\Local\Temp\ccz6EvhC.s 			page 31


 1711 0c95 4E       		.byte	0x4e
 1712 0c96 760C0000 		.4byte	0xc76
 1713 0c9a 04       		.uleb128 0x4
 1714 0c9b 01       		.byte	0x1
 1715 0c9c 02       		.byte	0x2
 1716 0c9d 4D030000 		.4byte	.LASF209
 1717 0ca1 03       		.uleb128 0x3
 1718 0ca2 53030000 		.4byte	.LASF210
 1719 0ca6 13       		.byte	0x13
 1720 0ca7 47       		.byte	0x47
 1721 0ca8 AC0C0000 		.4byte	0xcac
 1722 0cac 0C       		.uleb128 0xc
 1723 0cad 04       		.byte	0x4
 1724 0cae B20C0000 		.4byte	0xcb2
 1725 0cb2 23       		.uleb128 0x23
 1726 0cb3 33030000 		.4byte	0x333
 1727 0cb7 C60C0000 		.4byte	0xcc6
 1728 0cbb 0F       		.uleb128 0xf
 1729 0cbc 2C000000 		.4byte	0x2c
 1730 0cc0 0F       		.uleb128 0xf
 1731 0cc1 37000000 		.4byte	0x37
 1732 0cc5 00       		.byte	0
 1733 0cc6 18       		.uleb128 0x18
 1734 0cc7 08       		.byte	0x8
 1735 0cc8 13       		.byte	0x13
 1736 0cc9 51       		.byte	0x51
 1737 0cca E70C0000 		.4byte	0xce7
 1738 0cce 08       		.uleb128 0x8
 1739 0ccf E2040000 		.4byte	.LASF211
 1740 0cd3 13       		.byte	0x13
 1741 0cd4 55       		.byte	0x55
 1742 0cd5 E70C0000 		.4byte	0xce7
 1743 0cd9 00       		.byte	0
 1744 0cda 08       		.uleb128 0x8
 1745 0cdb 36000000 		.4byte	.LASF212
 1746 0cdf 13       		.byte	0x13
 1747 0ce0 59       		.byte	0x59
 1748 0ce1 E70C0000 		.4byte	0xce7
 1749 0ce5 04       		.byte	0x4
 1750 0ce6 00       		.byte	0
 1751 0ce7 0C       		.uleb128 0xc
 1752 0ce8 04       		.byte	0x4
 1753 0ce9 B4000000 		.4byte	0xb4
 1754 0ced 03       		.uleb128 0x3
 1755 0cee 47020000 		.4byte	.LASF213
 1756 0cf2 13       		.byte	0x13
 1757 0cf3 5A       		.byte	0x5a
 1758 0cf4 C60C0000 		.4byte	0xcc6
 1759 0cf8 17       		.uleb128 0x17
 1760 0cf9 B90D0000 		.4byte	.LASF214
 1761 0cfd 13       		.byte	0x13
 1762 0cfe 65       		.byte	0x65
 1763 0cff ED0C0000 		.4byte	0xced
 1764 0d03 07       		.uleb128 0x7
 1765 0d04 57060000 		.4byte	.LASF215
 1766 0d08 04       		.byte	0x4
 1767 0d09 14       		.byte	0x14
ARM GAS  C:\Users\14122\AppData\Local\Temp\ccz6EvhC.s 			page 32


 1768 0d0a 38       		.byte	0x38
 1769 0d0b 1C0D0000 		.4byte	0xd1c
 1770 0d0f 08       		.uleb128 0x8
 1771 0d10 ED0D0000 		.4byte	.LASF50
 1772 0d14 14       		.byte	0x14
 1773 0d15 39       		.byte	0x39
 1774 0d16 1C0D0000 		.4byte	0xd1c
 1775 0d1a 00       		.byte	0
 1776 0d1b 00       		.byte	0
 1777 0d1c 0C       		.uleb128 0xc
 1778 0d1d 04       		.byte	0x4
 1779 0d1e 030D0000 		.4byte	0xd03
 1780 0d22 18       		.uleb128 0x18
 1781 0d23 10       		.byte	0x10
 1782 0d24 14       		.byte	0x14
 1783 0d25 40       		.byte	0x40
 1784 0d26 5B0D0000 		.4byte	0xd5b
 1785 0d2a 08       		.uleb128 0x8
 1786 0d2b ED0D0000 		.4byte	.LASF50
 1787 0d2f 14       		.byte	0x14
 1788 0d30 41       		.byte	0x41
 1789 0d31 1C0D0000 		.4byte	0xd1c
 1790 0d35 00       		.byte	0
 1791 0d36 08       		.uleb128 0x8
 1792 0d37 3D0C0000 		.4byte	.LASF216
 1793 0d3b 14       		.byte	0x14
 1794 0d3c 42       		.byte	0x42
 1795 0d3d 2C000000 		.4byte	0x2c
 1796 0d41 04       		.byte	0x4
 1797 0d42 08       		.uleb128 0x8
 1798 0d43 1E070000 		.4byte	.LASF217
 1799 0d47 14       		.byte	0x14
 1800 0d48 44       		.byte	0x44
 1801 0d49 37000000 		.4byte	0x37
 1802 0d4d 08       		.byte	0x8
 1803 0d4e 08       		.uleb128 0x8
 1804 0d4f 71000000 		.4byte	.LASF218
 1805 0d53 14       		.byte	0x14
 1806 0d54 45       		.byte	0x45
 1807 0d55 A10C0000 		.4byte	0xca1
 1808 0d59 0C       		.byte	0xc
 1809 0d5a 00       		.byte	0
 1810 0d5b 03       		.uleb128 0x3
 1811 0d5c DE0A0000 		.4byte	.LASF219
 1812 0d60 14       		.byte	0x14
 1813 0d61 47       		.byte	0x47
 1814 0d62 220D0000 		.4byte	0xd22
 1815 0d66 07       		.uleb128 0x7
 1816 0d67 D0000000 		.4byte	.LASF220
 1817 0d6b 10       		.byte	0x10
 1818 0d6c 15       		.byte	0x15
 1819 0d6d 93       		.byte	0x93
 1820 0d6e 970D0000 		.4byte	0xd97
 1821 0d72 08       		.uleb128 0x8
 1822 0d73 ED0D0000 		.4byte	.LASF50
 1823 0d77 15       		.byte	0x15
 1824 0d78 97       		.byte	0x97
ARM GAS  C:\Users\14122\AppData\Local\Temp\ccz6EvhC.s 			page 33


 1825 0d79 970D0000 		.4byte	0xd97
 1826 0d7d 00       		.byte	0
 1827 0d7e 08       		.uleb128 0x8
 1828 0d7f 5F0A0000 		.4byte	.LASF39
 1829 0d83 15       		.byte	0x15
 1830 0d84 9B       		.byte	0x9b
 1831 0d85 57010000 		.4byte	0x157
 1832 0d89 04       		.byte	0x4
 1833 0d8a 08       		.uleb128 0x8
 1834 0d8b 4E0B0000 		.4byte	.LASF35
 1835 0d8f 15       		.byte	0x15
 1836 0d90 9D       		.byte	0x9d
 1837 0d91 9D0D0000 		.4byte	0xd9d
 1838 0d95 08       		.byte	0x8
 1839 0d96 00       		.byte	0
 1840 0d97 0C       		.uleb128 0xc
 1841 0d98 04       		.byte	0x4
 1842 0d99 660D0000 		.4byte	0xd66
 1843 0d9d 14       		.uleb128 0x14
 1844 0d9e C50A0000 		.4byte	0xac5
 1845 0da2 AD0D0000 		.4byte	0xdad
 1846 0da6 15       		.uleb128 0x15
 1847 0da7 37000000 		.4byte	0x37
 1848 0dab 07       		.byte	0x7
 1849 0dac 00       		.byte	0
 1850 0dad 03       		.uleb128 0x3
 1851 0dae 91040000 		.4byte	.LASF221
 1852 0db2 15       		.byte	0x15
 1853 0db3 A1       		.byte	0xa1
 1854 0db4 660D0000 		.4byte	0xd66
 1855 0db8 07       		.uleb128 0x7
 1856 0db9 0F0E0000 		.4byte	.LASF222
 1857 0dbd 04       		.byte	0x4
 1858 0dbe 15       		.byte	0x15
 1859 0dbf A6       		.byte	0xa6
 1860 0dc0 D10D0000 		.4byte	0xdd1
 1861 0dc4 08       		.uleb128 0x8
 1862 0dc5 ED0D0000 		.4byte	.LASF50
 1863 0dc9 15       		.byte	0x15
 1864 0dca A7       		.byte	0xa7
 1865 0dcb D10D0000 		.4byte	0xdd1
 1866 0dcf 00       		.byte	0
 1867 0dd0 00       		.byte	0
 1868 0dd1 0C       		.uleb128 0xc
 1869 0dd2 04       		.byte	0x4
 1870 0dd3 AD0D0000 		.4byte	0xdad
 1871 0dd7 03       		.uleb128 0x3
 1872 0dd8 1E0C0000 		.4byte	.LASF223
 1873 0ddc 15       		.byte	0x15
 1874 0ddd A8       		.byte	0xa8
 1875 0dde B80D0000 		.4byte	0xdb8
 1876 0de2 0D       		.uleb128 0xd
 1877 0de3 E6060000 		.4byte	.LASF224
 1878 0de7 44       		.byte	0x44
 1879 0de8 15       		.byte	0x15
 1880 0de9 1101     		.2byte	0x111
 1881 0deb 580E0000 		.4byte	0xe58
ARM GAS  C:\Users\14122\AppData\Local\Temp\ccz6EvhC.s 			page 34


 1882 0def 0A       		.uleb128 0xa
 1883 0df0 6D747800 		.ascii	"mtx\000"
 1884 0df4 15       		.byte	0x15
 1885 0df5 1601     		.2byte	0x116
 1886 0df7 0B0C0000 		.4byte	0xc0b
 1887 0dfb 00       		.byte	0
 1888 0dfc 0B       		.uleb128 0xb
 1889 0dfd 2D010000 		.4byte	.LASF225
 1890 0e01 15       		.byte	0x15
 1891 0e02 1D01     		.2byte	0x11d
 1892 0e04 D70D0000 		.4byte	0xdd7
 1893 0e08 10       		.byte	0x10
 1894 0e09 0B       		.uleb128 0xb
 1895 0e0a F4010000 		.4byte	.LASF226
 1896 0e0e 15       		.byte	0x15
 1897 0e0f 2101     		.2byte	0x121
 1898 0e11 5B0D0000 		.4byte	0xd5b
 1899 0e15 14       		.byte	0x14
 1900 0e16 0B       		.uleb128 0xb
 1901 0e17 4C090000 		.4byte	.LASF227
 1902 0e1b 15       		.byte	0x15
 1903 0e1c 2601     		.2byte	0x126
 1904 0e1e D70D0000 		.4byte	0xdd7
 1905 0e22 24       		.byte	0x24
 1906 0e23 0B       		.uleb128 0xb
 1907 0e24 BB030000 		.4byte	.LASF228
 1908 0e28 15       		.byte	0x15
 1909 0e29 2C01     		.2byte	0x12c
 1910 0e2b D70D0000 		.4byte	0xdd7
 1911 0e2f 28       		.byte	0x28
 1912 0e30 0B       		.uleb128 0xb
 1913 0e31 BA040000 		.4byte	.LASF229
 1914 0e35 15       		.byte	0x15
 1915 0e36 3001     		.2byte	0x130
 1916 0e38 5B0D0000 		.4byte	0xd5b
 1917 0e3c 2C       		.byte	0x2c
 1918 0e3d 0B       		.uleb128 0xb
 1919 0e3e 890A0000 		.4byte	.LASF230
 1920 0e42 15       		.byte	0x15
 1921 0e43 3601     		.2byte	0x136
 1922 0e45 D70D0000 		.4byte	0xdd7
 1923 0e49 3C       		.byte	0x3c
 1924 0e4a 0B       		.uleb128 0xb
 1925 0e4b F6050000 		.4byte	.LASF231
 1926 0e4f 15       		.byte	0x15
 1927 0e50 3C01     		.2byte	0x13c
 1928 0e52 D70D0000 		.4byte	0xdd7
 1929 0e56 40       		.byte	0x40
 1930 0e57 00       		.byte	0
 1931 0e58 1C       		.uleb128 0x1c
 1932 0e59 3A090000 		.4byte	.LASF232
 1933 0e5d 15       		.byte	0x15
 1934 0e5e 3E01     		.2byte	0x13e
 1935 0e60 E20D0000 		.4byte	0xde2
 1936 0e64 16       		.uleb128 0x16
 1937 0e65 760A0000 		.4byte	.LASF233
 1938 0e69 15       		.byte	0x15
ARM GAS  C:\Users\14122\AppData\Local\Temp\ccz6EvhC.s 			page 35


 1939 0e6a 4901     		.2byte	0x149
 1940 0e6c 580E0000 		.4byte	0xe58
 1941 0e70 18       		.uleb128 0x18
 1942 0e71 10       		.byte	0x10
 1943 0e72 16       		.byte	0x16
 1944 0e73 F0       		.byte	0xf0
 1945 0e74 CD0E0000 		.4byte	0xecd
 1946 0e78 09       		.uleb128 0x9
 1947 0e79 646D6100 		.ascii	"dma\000"
 1948 0e7d 16       		.byte	0x16
 1949 0e7e F1       		.byte	0xf1
 1950 0e7f CD0E0000 		.4byte	0xecd
 1951 0e83 00       		.byte	0
 1952 0e84 08       		.uleb128 0x8
 1953 0e85 91050000 		.4byte	.LASF234
 1954 0e89 16       		.byte	0x16
 1955 0e8a F2       		.byte	0xf2
 1956 0e8b D30E0000 		.4byte	0xed3
 1957 0e8f 04       		.byte	0x4
 1958 0e90 08       		.uleb128 0x8
 1959 0e91 55090000 		.4byte	.LASF235
 1960 0e95 16       		.byte	0x16
 1961 0e96 F3       		.byte	0xf3
 1962 0e97 E4000000 		.4byte	0xe4
 1963 0e9b 08       		.byte	0x8
 1964 0e9c 08       		.uleb128 0x8
 1965 0e9d 050B0000 		.4byte	.LASF236
 1966 0ea1 16       		.byte	0x16
 1967 0ea2 FA       		.byte	0xfa
 1968 0ea3 B4000000 		.4byte	0xb4
 1969 0ea7 0C       		.byte	0xc
 1970 0ea8 08       		.uleb128 0x8
 1971 0ea9 8B050000 		.4byte	.LASF237
 1972 0ead 16       		.byte	0x16
 1973 0eae FC       		.byte	0xfc
 1974 0eaf B4000000 		.4byte	0xb4
 1975 0eb3 0D       		.byte	0xd
 1976 0eb4 08       		.uleb128 0x8
 1977 0eb5 71070000 		.4byte	.LASF238
 1978 0eb9 16       		.byte	0x16
 1979 0eba FE       		.byte	0xfe
 1980 0ebb B4000000 		.4byte	0xb4
 1981 0ebf 0E       		.byte	0xe
 1982 0ec0 08       		.uleb128 0x8
 1983 0ec1 6F0A0000 		.4byte	.LASF239
 1984 0ec5 16       		.byte	0x16
 1985 0ec6 FF       		.byte	0xff
 1986 0ec7 B4000000 		.4byte	0xb4
 1987 0ecb 0F       		.byte	0xf
 1988 0ecc 00       		.byte	0
 1989 0ecd 0C       		.uleb128 0xc
 1990 0ece 04       		.byte	0x4
 1991 0ecf C5080000 		.4byte	0x8c5
 1992 0ed3 0C       		.uleb128 0xc
 1993 0ed4 04       		.byte	0x4
 1994 0ed5 95080000 		.4byte	0x895
 1995 0ed9 1C       		.uleb128 0x1c
ARM GAS  C:\Users\14122\AppData\Local\Temp\ccz6EvhC.s 			page 36


 1996 0eda 13000000 		.4byte	.LASF240
 1997 0ede 16       		.byte	0x16
 1998 0edf 0001     		.2byte	0x100
 1999 0ee1 700E0000 		.4byte	0xe70
 2000 0ee5 05       		.uleb128 0x5
 2001 0ee6 D90E0000 		.4byte	0xed9
 2002 0eea 1C       		.uleb128 0x1c
 2003 0eeb 9E070000 		.4byte	.LASF241
 2004 0eef 16       		.byte	0x16
 2005 0ef0 0901     		.2byte	0x109
 2006 0ef2 F60E0000 		.4byte	0xef6
 2007 0ef6 0C       		.uleb128 0xc
 2008 0ef7 04       		.byte	0x4
 2009 0ef8 FC0E0000 		.4byte	0xefc
 2010 0efc 0E       		.uleb128 0xe
 2011 0efd 0C0F0000 		.4byte	0xf0c
 2012 0f01 0F       		.uleb128 0xf
 2013 0f02 33030000 		.4byte	0x333
 2014 0f06 0F       		.uleb128 0xf
 2015 0f07 E4000000 		.4byte	0xe4
 2016 0f0b 00       		.byte	0
 2017 0f0c 1D       		.uleb128 0x1d
 2018 0f0d 08       		.byte	0x8
 2019 0f0e 16       		.byte	0x16
 2020 0f0f 0E01     		.2byte	0x10e
 2021 0f11 300F0000 		.4byte	0xf30
 2022 0f15 0B       		.uleb128 0xb
 2023 0f16 6B040000 		.4byte	.LASF242
 2024 0f1a 16       		.byte	0x16
 2025 0f1b 0F01     		.2byte	0x10f
 2026 0f1d EA0E0000 		.4byte	0xeea
 2027 0f21 00       		.byte	0
 2028 0f22 0B       		.uleb128 0xb
 2029 0f23 330C0000 		.4byte	.LASF243
 2030 0f27 16       		.byte	0x16
 2031 0f28 1001     		.2byte	0x110
 2032 0f2a 33030000 		.4byte	0x333
 2033 0f2e 04       		.byte	0x4
 2034 0f2f 00       		.byte	0
 2035 0f30 1C       		.uleb128 0x1c
 2036 0f31 F4070000 		.4byte	.LASF244
 2037 0f35 16       		.byte	0x16
 2038 0f36 1101     		.2byte	0x111
 2039 0f38 0C0F0000 		.4byte	0xf0c
 2040 0f3c 14       		.uleb128 0x14
 2041 0f3d E50E0000 		.4byte	0xee5
 2042 0f41 4C0F0000 		.4byte	0xf4c
 2043 0f45 15       		.uleb128 0x15
 2044 0f46 37000000 		.4byte	0x37
 2045 0f4a 06       		.byte	0x6
 2046 0f4b 00       		.byte	0
 2047 0f4c 05       		.uleb128 0x5
 2048 0f4d 3C0F0000 		.4byte	0xf3c
 2049 0f51 16       		.uleb128 0x16
 2050 0f52 D9050000 		.4byte	.LASF245
 2051 0f56 16       		.byte	0x16
 2052 0f57 DF01     		.2byte	0x1df
ARM GAS  C:\Users\14122\AppData\Local\Temp\ccz6EvhC.s 			page 37


 2053 0f59 4C0F0000 		.4byte	0xf4c
 2054 0f5d 14       		.uleb128 0x14
 2055 0f5e 300F0000 		.4byte	0xf30
 2056 0f62 6D0F0000 		.4byte	0xf6d
 2057 0f66 15       		.uleb128 0x15
 2058 0f67 37000000 		.4byte	0x37
 2059 0f6b 06       		.byte	0x6
 2060 0f6c 00       		.byte	0
 2061 0f6d 16       		.uleb128 0x16
 2062 0f6e 930B0000 		.4byte	.LASF246
 2063 0f72 16       		.byte	0x16
 2064 0f73 E001     		.2byte	0x1e0
 2065 0f75 5D0F0000 		.4byte	0xf5d
 2066 0f79 24       		.uleb128 0x24
 2067 0f7a 00       		.byte	0
 2068 0f7b 17       		.byte	0x17
 2069 0f7c 99       		.byte	0x99
 2070 0f7d 03       		.uleb128 0x3
 2071 0f7e D6030000 		.4byte	.LASF247
 2072 0f82 17       		.byte	0x17
 2073 0f83 AA       		.byte	0xaa
 2074 0f84 790F0000 		.4byte	0xf79
 2075 0f88 18       		.uleb128 0x18
 2076 0f89 0C       		.byte	0xc
 2077 0f8a 18       		.byte	0x18
 2078 0f8b 68       		.byte	0x68
 2079 0f8c B50F0000 		.4byte	0xfb5
 2080 0f90 09       		.uleb128 0x9
 2081 0f91 6F647200 		.ascii	"odr\000"
 2082 0f95 18       		.byte	0x18
 2083 0f96 6A       		.byte	0x6a
 2084 0f97 E4000000 		.4byte	0xe4
 2085 0f9b 00       		.byte	0
 2086 0f9c 09       		.uleb128 0x9
 2087 0f9d 63726C00 		.ascii	"crl\000"
 2088 0fa1 18       		.byte	0x18
 2089 0fa2 6C       		.byte	0x6c
 2090 0fa3 E4000000 		.4byte	0xe4
 2091 0fa7 04       		.byte	0x4
 2092 0fa8 09       		.uleb128 0x9
 2093 0fa9 63726800 		.ascii	"crh\000"
 2094 0fad 18       		.byte	0x18
 2095 0fae 6E       		.byte	0x6e
 2096 0faf E4000000 		.4byte	0xe4
 2097 0fb3 08       		.byte	0x8
 2098 0fb4 00       		.byte	0
 2099 0fb5 03       		.uleb128 0x3
 2100 0fb6 4E010000 		.4byte	.LASF248
 2101 0fba 18       		.byte	0x18
 2102 0fbb 6F       		.byte	0x6f
 2103 0fbc 880F0000 		.4byte	0xf88
 2104 0fc0 18       		.uleb128 0x18
 2105 0fc1 3C       		.byte	0x3c
 2106 0fc2 18       		.byte	0x18
 2107 0fc3 78       		.byte	0x78
 2108 0fc4 05100000 		.4byte	0x1005
 2109 0fc8 08       		.uleb128 0x8
ARM GAS  C:\Users\14122\AppData\Local\Temp\ccz6EvhC.s 			page 38


 2110 0fc9 DA090000 		.4byte	.LASF249
 2111 0fcd 18       		.byte	0x18
 2112 0fce 7A       		.byte	0x7a
 2113 0fcf B50F0000 		.4byte	0xfb5
 2114 0fd3 00       		.byte	0
 2115 0fd4 08       		.uleb128 0x8
 2116 0fd5 31070000 		.4byte	.LASF250
 2117 0fd9 18       		.byte	0x18
 2118 0fda 7C       		.byte	0x7c
 2119 0fdb B50F0000 		.4byte	0xfb5
 2120 0fdf 0C       		.byte	0xc
 2121 0fe0 08       		.uleb128 0x8
 2122 0fe1 C3040000 		.4byte	.LASF251
 2123 0fe5 18       		.byte	0x18
 2124 0fe6 7E       		.byte	0x7e
 2125 0fe7 B50F0000 		.4byte	0xfb5
 2126 0feb 18       		.byte	0x18
 2127 0fec 08       		.uleb128 0x8
 2128 0fed FC020000 		.4byte	.LASF252
 2129 0ff1 18       		.byte	0x18
 2130 0ff2 80       		.byte	0x80
 2131 0ff3 B50F0000 		.4byte	0xfb5
 2132 0ff7 24       		.byte	0x24
 2133 0ff8 08       		.uleb128 0x8
 2134 0ff9 04010000 		.4byte	.LASF253
 2135 0ffd 18       		.byte	0x18
 2136 0ffe 83       		.byte	0x83
 2137 0fff B50F0000 		.4byte	0xfb5
 2138 1003 30       		.byte	0x30
 2139 1004 00       		.byte	0
 2140 1005 03       		.uleb128 0x3
 2141 1006 290C0000 		.4byte	.LASF254
 2142 100a 18       		.byte	0x18
 2143 100b 8D       		.byte	0x8d
 2144 100c C00F0000 		.4byte	0xfc0
 2145 1010 05       		.uleb128 0x5
 2146 1011 05100000 		.4byte	0x1005
 2147 1015 16       		.uleb128 0x16
 2148 1016 2F020000 		.4byte	.LASF255
 2149 101a 18       		.byte	0x18
 2150 101b A001     		.2byte	0x1a0
 2151 101d 10100000 		.4byte	0x1010
 2152 1021 14       		.uleb128 0x14
 2153 1022 7D0F0000 		.4byte	0xf7d
 2154 1026 31100000 		.4byte	0x1031
 2155 102a 15       		.uleb128 0x15
 2156 102b 37000000 		.4byte	0x37
 2157 102f 0F       		.byte	0xf
 2158 1030 00       		.byte	0
 2159 1031 16       		.uleb128 0x16
 2160 1032 D9080000 		.4byte	.LASF256
 2161 1036 18       		.byte	0x18
 2162 1037 A101     		.2byte	0x1a1
 2163 1039 21100000 		.4byte	0x1021
 2164 103d 11       		.uleb128 0x11
 2165 103e 07       		.byte	0x7
 2166 103f 01       		.byte	0x1
ARM GAS  C:\Users\14122\AppData\Local\Temp\ccz6EvhC.s 			page 39


 2167 1040 5E000000 		.4byte	0x5e
 2168 1044 19       		.byte	0x19
 2169 1045 66       		.byte	0x66
 2170 1046 69100000 		.4byte	0x1069
 2171 104a 13       		.uleb128 0x13
 2172 104b 40070000 		.4byte	.LASF257
 2173 104f 00       		.byte	0
 2174 1050 13       		.uleb128 0x13
 2175 1051 DD0D0000 		.4byte	.LASF258
 2176 1055 01       		.byte	0x1
 2177 1056 13       		.uleb128 0x13
 2178 1057 CB060000 		.4byte	.LASF259
 2179 105b 02       		.byte	0x2
 2180 105c 13       		.uleb128 0x13
 2181 105d 58040000 		.4byte	.LASF260
 2182 1061 03       		.byte	0x3
 2183 1062 13       		.uleb128 0x13
 2184 1063 5D070000 		.4byte	.LASF261
 2185 1067 04       		.byte	0x4
 2186 1068 00       		.byte	0
 2187 1069 03       		.uleb128 0x3
 2188 106a 4D040000 		.4byte	.LASF262
 2189 106e 19       		.byte	0x19
 2190 106f 6C       		.byte	0x6c
 2191 1070 3D100000 		.4byte	0x103d
 2192 1074 03       		.uleb128 0x3
 2193 1075 7E010000 		.4byte	.LASF263
 2194 1079 1A       		.byte	0x1a
 2195 107a C2       		.byte	0xc2
 2196 107b 7F100000 		.4byte	0x107f
 2197 107f 0D       		.uleb128 0xd
 2198 1080 7E010000 		.4byte	.LASF263
 2199 1084 30       		.byte	0x30
 2200 1085 1A       		.byte	0x1a
 2201 1086 4801     		.2byte	0x148
 2202 1088 0F110000 		.4byte	0x110f
 2203 108c 0B       		.uleb128 0xb
 2204 108d FE000000 		.4byte	.LASF37
 2205 1091 1A       		.byte	0x1a
 2206 1092 4C01     		.2byte	0x14c
 2207 1094 69100000 		.4byte	0x1069
 2208 1098 00       		.byte	0
 2209 1099 0B       		.uleb128 0xb
 2210 109a F7000000 		.4byte	.LASF264
 2211 109e 1A       		.byte	0x1a
 2212 109f 5001     		.2byte	0x150
 2213 10a1 44110000 		.4byte	0x1144
 2214 10a5 04       		.byte	0x4
 2215 10a6 0B       		.uleb128 0xb
 2216 10a7 EE0B0000 		.4byte	.LASF265
 2217 10ab 1A       		.byte	0x1a
 2218 10ac 5401     		.2byte	0x154
 2219 10ae 80020000 		.4byte	0x280
 2220 10b2 08       		.byte	0x8
 2221 10b3 0B       		.uleb128 0xb
 2222 10b4 810A0000 		.4byte	.LASF266
 2223 10b8 1A       		.byte	0x1a
ARM GAS  C:\Users\14122\AppData\Local\Temp\ccz6EvhC.s 			page 40


 2224 10b9 5801     		.2byte	0x158
 2225 10bb 80020000 		.4byte	0x280
 2226 10bf 10       		.byte	0x10
 2227 10c0 0B       		.uleb128 0xb
 2228 10c1 A0020000 		.4byte	.LASF267
 2229 10c5 1A       		.byte	0x1a
 2230 10c6 6601     		.2byte	0x166
 2231 10c8 8F0C0000 		.4byte	0xc8f
 2232 10cc 18       		.byte	0x18
 2233 10cd 0B       		.uleb128 0xb
 2234 10ce 3A0E0000 		.4byte	.LASF268
 2235 10d2 1A       		.byte	0x1a
 2236 10d3 6E01     		.2byte	0x16e
 2237 10d5 8F0C0000 		.4byte	0xc8f
 2238 10d9 1C       		.byte	0x1c
 2239 10da 0B       		.uleb128 0xb
 2240 10db DC070000 		.4byte	.LASF269
 2241 10df 1A       		.byte	0x1a
 2242 10e0 7601     		.2byte	0x176
 2243 10e2 8F0C0000 		.4byte	0xc8f
 2244 10e6 20       		.byte	0x20
 2245 10e7 0B       		.uleb128 0xb
 2246 10e8 A3000000 		.4byte	.LASF270
 2247 10ec 1A       		.byte	0x1a
 2248 10ed 7B01     		.2byte	0x17b
 2249 10ef 8F0C0000 		.4byte	0xc8f
 2250 10f3 24       		.byte	0x24
 2251 10f4 0B       		.uleb128 0xb
 2252 10f5 EA000000 		.4byte	.LASF271
 2253 10f9 1A       		.byte	0x1a
 2254 10fa 7F01     		.2byte	0x17f
 2255 10fc 8F0C0000 		.4byte	0xc8f
 2256 1100 28       		.byte	0x28
 2257 1101 0A       		.uleb128 0xa
 2258 1102 63616E00 		.ascii	"can\000"
 2259 1106 1A       		.byte	0x1a
 2260 1107 A201     		.2byte	0x1a2
 2261 1109 4A110000 		.4byte	0x114a
 2262 110d 2C       		.byte	0x2c
 2263 110e 00       		.byte	0
 2264 110f 1D       		.uleb128 0x1d
 2265 1110 08       		.byte	0x8
 2266 1111 1A       		.byte	0x1a
 2267 1112 3601     		.2byte	0x136
 2268 1114 33110000 		.4byte	0x1133
 2269 1118 0A       		.uleb128 0xa
 2270 1119 6D637200 		.ascii	"mcr\000"
 2271 111d 1A       		.byte	0x1a
 2272 111e 3C01     		.2byte	0x13c
 2273 1120 E4000000 		.4byte	0xe4
 2274 1124 00       		.byte	0
 2275 1125 0A       		.uleb128 0xa
 2276 1126 62747200 		.ascii	"btr\000"
 2277 112a 1A       		.byte	0x1a
 2278 112b 4201     		.2byte	0x142
 2279 112d E4000000 		.4byte	0xe4
 2280 1131 04       		.byte	0x4
ARM GAS  C:\Users\14122\AppData\Local\Temp\ccz6EvhC.s 			page 41


 2281 1132 00       		.byte	0
 2282 1133 1C       		.uleb128 0x1c
 2283 1134 13010000 		.4byte	.LASF272
 2284 1138 1A       		.byte	0x1a
 2285 1139 4301     		.2byte	0x143
 2286 113b 0F110000 		.4byte	0x110f
 2287 113f 05       		.uleb128 0x5
 2288 1140 33110000 		.4byte	0x1133
 2289 1144 0C       		.uleb128 0xc
 2290 1145 04       		.byte	0x4
 2291 1146 3F110000 		.4byte	0x113f
 2292 114a 0C       		.uleb128 0xc
 2293 114b 04       		.byte	0x4
 2294 114c 4B080000 		.4byte	0x84b
 2295 1150 16       		.uleb128 0x16
 2296 1151 340E0000 		.4byte	.LASF273
 2297 1155 1A       		.byte	0x1a
 2298 1156 AE01     		.2byte	0x1ae
 2299 1158 74100000 		.4byte	0x1074
 2300 115c 11       		.uleb128 0x11
 2301 115d 07       		.byte	0x7
 2302 115e 01       		.byte	0x1
 2303 115f 5E000000 		.4byte	0x5e
 2304 1163 1B       		.byte	0x1b
 2305 1164 59       		.byte	0x59
 2306 1165 7C110000 		.4byte	0x117c
 2307 1169 13       		.uleb128 0x13
 2308 116a 63060000 		.4byte	.LASF274
 2309 116e 00       		.byte	0
 2310 116f 13       		.uleb128 0x13
 2311 1170 C6000000 		.4byte	.LASF275
 2312 1174 01       		.byte	0x1
 2313 1175 13       		.uleb128 0x13
 2314 1176 A6030000 		.4byte	.LASF276
 2315 117a 02       		.byte	0x2
 2316 117b 00       		.byte	0
 2317 117c 03       		.uleb128 0x3
 2318 117d F60B0000 		.4byte	.LASF277
 2319 1181 1B       		.byte	0x1b
 2320 1182 5D       		.byte	0x5d
 2321 1183 5C110000 		.4byte	0x115c
 2322 1187 11       		.uleb128 0x11
 2323 1188 07       		.byte	0x7
 2324 1189 01       		.byte	0x1
 2325 118a 5E000000 		.4byte	0x5e
 2326 118e 1B       		.byte	0x1b
 2327 118f 62       		.byte	0x62
 2328 1190 A7110000 		.4byte	0x11a7
 2329 1194 13       		.uleb128 0x13
 2330 1195 9F0C0000 		.4byte	.LASF278
 2331 1199 00       		.byte	0
 2332 119a 13       		.uleb128 0x13
 2333 119b 88010000 		.4byte	.LASF279
 2334 119f 01       		.byte	0x1
 2335 11a0 13       		.uleb128 0x13
 2336 11a1 A50A0000 		.4byte	.LASF280
 2337 11a5 02       		.byte	0x2
ARM GAS  C:\Users\14122\AppData\Local\Temp\ccz6EvhC.s 			page 42


 2338 11a6 00       		.byte	0
 2339 11a7 03       		.uleb128 0x3
 2340 11a8 FD010000 		.4byte	.LASF281
 2341 11ac 1B       		.byte	0x1b
 2342 11ad 66       		.byte	0x66
 2343 11ae 87110000 		.4byte	0x1187
 2344 11b2 11       		.uleb128 0x11
 2345 11b3 07       		.byte	0x7
 2346 11b4 01       		.byte	0x1
 2347 11b5 5E000000 		.4byte	0x5e
 2348 11b9 1B       		.byte	0x1b
 2349 11ba 6B       		.byte	0x6b
 2350 11bb D2110000 		.4byte	0x11d2
 2351 11bf 13       		.uleb128 0x13
 2352 11c0 270B0000 		.4byte	.LASF282
 2353 11c4 00       		.byte	0
 2354 11c5 13       		.uleb128 0x13
 2355 11c6 EA090000 		.4byte	.LASF283
 2356 11ca 01       		.byte	0x1
 2357 11cb 13       		.uleb128 0x13
 2358 11cc 7F060000 		.4byte	.LASF284
 2359 11d0 02       		.byte	0x2
 2360 11d1 00       		.byte	0
 2361 11d2 03       		.uleb128 0x3
 2362 11d3 B60A0000 		.4byte	.LASF285
 2363 11d7 1B       		.byte	0x1b
 2364 11d8 6F       		.byte	0x6f
 2365 11d9 B2110000 		.4byte	0x11b2
 2366 11dd 1C       		.uleb128 0x1c
 2367 11de 4B070000 		.4byte	.LASF286
 2368 11e2 1C       		.byte	0x1c
 2369 11e3 B301     		.2byte	0x1b3
 2370 11e5 E4000000 		.4byte	0xe4
 2371 11e9 1C       		.uleb128 0x1c
 2372 11ea 97010000 		.4byte	.LASF287
 2373 11ee 1C       		.byte	0x1c
 2374 11ef B801     		.2byte	0x1b8
 2375 11f1 F5110000 		.4byte	0x11f5
 2376 11f5 0D       		.uleb128 0xd
 2377 11f6 97010000 		.4byte	.LASF287
 2378 11fa 1C       		.byte	0x1c
 2379 11fb 1C       		.byte	0x1c
 2380 11fc 0002     		.2byte	0x200
 2381 11fe 78120000 		.4byte	0x1278
 2382 1202 0B       		.uleb128 0xb
 2383 1203 FE000000 		.4byte	.LASF37
 2384 1207 1C       		.byte	0x1c
 2385 1208 0402     		.2byte	0x204
 2386 120a 7C110000 		.4byte	0x117c
 2387 120e 00       		.byte	0
 2388 120f 0B       		.uleb128 0xb
 2389 1210 EC010000 		.4byte	.LASF288
 2390 1214 1C       		.byte	0x1c
 2391 1215 0802     		.2byte	0x208
 2392 1217 A7110000 		.4byte	0x11a7
 2393 121b 01       		.byte	0x1
 2394 121c 0B       		.uleb128 0xb
ARM GAS  C:\Users\14122\AppData\Local\Temp\ccz6EvhC.s 			page 43


 2395 121d 0B010000 		.4byte	.LASF289
 2396 1221 1C       		.byte	0x1c
 2397 1222 0C02     		.2byte	0x20c
 2398 1224 D2110000 		.4byte	0x11d2
 2399 1228 02       		.byte	0x2
 2400 1229 0B       		.uleb128 0xb
 2401 122a F7000000 		.4byte	.LASF264
 2402 122e 1C       		.byte	0x1c
 2403 122f 1002     		.2byte	0x210
 2404 1231 6F130000 		.4byte	0x136f
 2405 1235 04       		.byte	0x4
 2406 1236 0B       		.uleb128 0xb
 2407 1237 29020000 		.4byte	.LASF290
 2408 123b 1C       		.byte	0x1c
 2409 123c 2C02     		.2byte	0x22c
 2410 123e 75130000 		.4byte	0x1375
 2411 1242 08       		.byte	0x8
 2412 1243 0B       		.uleb128 0xb
 2413 1244 38070000 		.4byte	.LASF291
 2414 1248 1C       		.byte	0x1c
 2415 1249 3002     		.2byte	0x230
 2416 124b E4000000 		.4byte	0xe4
 2417 124f 0C       		.byte	0xc
 2418 1250 0B       		.uleb128 0xb
 2419 1251 A4060000 		.4byte	.LASF292
 2420 1255 1C       		.byte	0x1c
 2421 1256 3402     		.2byte	0x234
 2422 1258 7B130000 		.4byte	0x137b
 2423 125c 10       		.byte	0x10
 2424 125d 0B       		.uleb128 0xb
 2425 125e 57070000 		.4byte	.LASF293
 2426 1262 1C       		.byte	0x1c
 2427 1263 3802     		.2byte	0x238
 2428 1265 7B130000 		.4byte	0x137b
 2429 1269 14       		.byte	0x14
 2430 126a 0B       		.uleb128 0xb
 2431 126b 9E060000 		.4byte	.LASF294
 2432 126f 1C       		.byte	0x1c
 2433 1270 3C02     		.2byte	0x23c
 2434 1272 CF000000 		.4byte	0xcf
 2435 1276 18       		.byte	0x18
 2436 1277 00       		.byte	0
 2437 1278 1C       		.uleb128 0x1c
 2438 1279 AC0C0000 		.4byte	.LASF295
 2439 127d 1C       		.byte	0x1c
 2440 127e BF01     		.2byte	0x1bf
 2441 1280 84120000 		.4byte	0x1284
 2442 1284 0C       		.uleb128 0xc
 2443 1285 04       		.byte	0x4
 2444 1286 8A120000 		.4byte	0x128a
 2445 128a 0E       		.uleb128 0xe
 2446 128b 95120000 		.4byte	0x1295
 2447 128f 0F       		.uleb128 0xf
 2448 1290 95120000 		.4byte	0x1295
 2449 1294 00       		.byte	0
 2450 1295 0C       		.uleb128 0xc
 2451 1296 04       		.byte	0x4
ARM GAS  C:\Users\14122\AppData\Local\Temp\ccz6EvhC.s 			page 44


 2452 1297 E9110000 		.4byte	0x11e9
 2453 129b 1C       		.uleb128 0x1c
 2454 129c D40A0000 		.4byte	.LASF296
 2455 12a0 1C       		.byte	0x1c
 2456 12a1 C701     		.2byte	0x1c7
 2457 12a3 A7120000 		.4byte	0x12a7
 2458 12a7 0C       		.uleb128 0xc
 2459 12a8 04       		.byte	0x4
 2460 12a9 AD120000 		.4byte	0x12ad
 2461 12ad 0E       		.uleb128 0xe
 2462 12ae BD120000 		.4byte	0x12bd
 2463 12b2 0F       		.uleb128 0xf
 2464 12b3 95120000 		.4byte	0x1295
 2465 12b7 0F       		.uleb128 0xf
 2466 12b8 C4000000 		.4byte	0xc4
 2467 12bc 00       		.byte	0
 2468 12bd 1C       		.uleb128 0x1c
 2469 12be 23060000 		.4byte	.LASF297
 2470 12c2 1C       		.byte	0x1c
 2471 12c3 CF01     		.2byte	0x1cf
 2472 12c5 C9120000 		.4byte	0x12c9
 2473 12c9 0C       		.uleb128 0xc
 2474 12ca 04       		.byte	0x4
 2475 12cb CF120000 		.4byte	0x12cf
 2476 12cf 0E       		.uleb128 0xe
 2477 12d0 DF120000 		.4byte	0x12df
 2478 12d4 0F       		.uleb128 0xf
 2479 12d5 95120000 		.4byte	0x1295
 2480 12d9 0F       		.uleb128 0xf
 2481 12da DD110000 		.4byte	0x11dd
 2482 12de 00       		.byte	0
 2483 12df 1D       		.uleb128 0x1d
 2484 12e0 20       		.byte	0x20
 2485 12e1 1C       		.byte	0x1c
 2486 12e2 D501     		.2byte	0x1d5
 2487 12e4 5E130000 		.4byte	0x135e
 2488 12e8 0B       		.uleb128 0xb
 2489 12e9 0B0B0000 		.4byte	.LASF298
 2490 12ed 1C       		.byte	0x1c
 2491 12ee D901     		.2byte	0x1d9
 2492 12f0 78120000 		.4byte	0x1278
 2493 12f4 00       		.byte	0
 2494 12f5 0B       		.uleb128 0xb
 2495 12f6 EC050000 		.4byte	.LASF299
 2496 12fa 1C       		.byte	0x1c
 2497 12fb DD01     		.2byte	0x1dd
 2498 12fd 78120000 		.4byte	0x1278
 2499 1301 04       		.byte	0x4
 2500 1302 0B       		.uleb128 0xb
 2501 1303 36010000 		.4byte	.LASF300
 2502 1307 1C       		.byte	0x1c
 2503 1308 E101     		.2byte	0x1e1
 2504 130a 78120000 		.4byte	0x1278
 2505 130e 08       		.byte	0x8
 2506 130f 0B       		.uleb128 0xb
 2507 1310 87040000 		.4byte	.LASF301
 2508 1314 1C       		.byte	0x1c
ARM GAS  C:\Users\14122\AppData\Local\Temp\ccz6EvhC.s 			page 45


 2509 1315 E501     		.2byte	0x1e5
 2510 1317 9B120000 		.4byte	0x129b
 2511 131b 0C       		.byte	0xc
 2512 131c 0B       		.uleb128 0xb
 2513 131d 7B070000 		.4byte	.LASF302
 2514 1321 1C       		.byte	0x1c
 2515 1322 E901     		.2byte	0x1e9
 2516 1324 BD120000 		.4byte	0x12bd
 2517 1328 10       		.byte	0x10
 2518 1329 0B       		.uleb128 0xb
 2519 132a 9F040000 		.4byte	.LASF303
 2520 132e 1C       		.byte	0x1c
 2521 132f EE01     		.2byte	0x1ee
 2522 1331 E4000000 		.4byte	0xe4
 2523 1335 14       		.byte	0x14
 2524 1336 0A       		.uleb128 0xa
 2525 1337 63723100 		.ascii	"cr1\000"
 2526 133b 1C       		.byte	0x1c
 2527 133c F201     		.2byte	0x1f2
 2528 133e C4000000 		.4byte	0xc4
 2529 1342 18       		.byte	0x18
 2530 1343 0A       		.uleb128 0xa
 2531 1344 63723200 		.ascii	"cr2\000"
 2532 1348 1C       		.byte	0x1c
 2533 1349 F601     		.2byte	0x1f6
 2534 134b C4000000 		.4byte	0xc4
 2535 134f 1A       		.byte	0x1a
 2536 1350 0A       		.uleb128 0xa
 2537 1351 63723300 		.ascii	"cr3\000"
 2538 1355 1C       		.byte	0x1c
 2539 1356 FA01     		.2byte	0x1fa
 2540 1358 C4000000 		.4byte	0xc4
 2541 135c 1C       		.byte	0x1c
 2542 135d 00       		.byte	0
 2543 135e 1C       		.uleb128 0x1c
 2544 135f 3A050000 		.4byte	.LASF304
 2545 1363 1C       		.byte	0x1c
 2546 1364 FB01     		.2byte	0x1fb
 2547 1366 DF120000 		.4byte	0x12df
 2548 136a 05       		.uleb128 0x5
 2549 136b 5E130000 		.4byte	0x135e
 2550 136f 0C       		.uleb128 0xc
 2551 1370 04       		.byte	0x4
 2552 1371 6A130000 		.4byte	0x136a
 2553 1375 0C       		.uleb128 0xc
 2554 1376 04       		.byte	0x4
 2555 1377 34090000 		.4byte	0x934
 2556 137b 0C       		.uleb128 0xc
 2557 137c 04       		.byte	0x4
 2558 137d E50E0000 		.4byte	0xee5
 2559 1381 16       		.uleb128 0x16
 2560 1382 A80D0000 		.4byte	.LASF305
 2561 1386 1C       		.byte	0x1c
 2562 1387 4C02     		.2byte	0x24c
 2563 1389 E9110000 		.4byte	0x11e9
 2564 138d 25       		.uleb128 0x25
 2565 138e 6E030000 		.4byte	.LASF306
ARM GAS  C:\Users\14122\AppData\Local\Temp\ccz6EvhC.s 			page 46


 2566 1392 01       		.byte	0x1
 2567 1393 F2       		.byte	0xf2
 2568 1394 00000000 		.4byte	.LFB254
 2569 1398 30000000 		.4byte	.LFE254-.LFB254
 2570 139c 01       		.uleb128 0x1
 2571 139d 9C       		.byte	0x9c
 2572 139e 25140000 		.4byte	0x1425
 2573 13a2 26       		.uleb128 0x26
 2574 13a3 08000000 		.4byte	.LVL7
 2575 13a7 E0140000 		.4byte	0x14e0
 2576 13ab B5130000 		.4byte	0x13b5
 2577 13af 27       		.uleb128 0x27
 2578 13b0 01       		.uleb128 0x1
 2579 13b1 50       		.byte	0x50
 2580 13b2 01       		.uleb128 0x1
 2581 13b3 36       		.byte	0x36
 2582 13b4 00       		.byte	0
 2583 13b5 26       		.uleb128 0x26
 2584 13b6 0E000000 		.4byte	.LVL8
 2585 13ba E0140000 		.4byte	0x14e0
 2586 13be C8130000 		.4byte	0x13c8
 2587 13c2 27       		.uleb128 0x27
 2588 13c3 01       		.uleb128 0x1
 2589 13c4 50       		.byte	0x50
 2590 13c5 01       		.uleb128 0x1
 2591 13c6 37       		.byte	0x37
 2592 13c7 00       		.byte	0
 2593 13c8 26       		.uleb128 0x26
 2594 13c9 14000000 		.4byte	.LVL9
 2595 13cd E0140000 		.4byte	0x14e0
 2596 13d1 DB130000 		.4byte	0x13db
 2597 13d5 27       		.uleb128 0x27
 2598 13d6 01       		.uleb128 0x1
 2599 13d7 50       		.byte	0x50
 2600 13d8 01       		.uleb128 0x1
 2601 13d9 38       		.byte	0x38
 2602 13da 00       		.byte	0
 2603 13db 26       		.uleb128 0x26
 2604 13dc 1A000000 		.4byte	.LVL10
 2605 13e0 E0140000 		.4byte	0x14e0
 2606 13e4 EE130000 		.4byte	0x13ee
 2607 13e8 27       		.uleb128 0x27
 2608 13e9 01       		.uleb128 0x1
 2609 13ea 50       		.byte	0x50
 2610 13eb 01       		.uleb128 0x1
 2611 13ec 39       		.byte	0x39
 2612 13ed 00       		.byte	0
 2613 13ee 26       		.uleb128 0x26
 2614 13ef 20000000 		.4byte	.LVL11
 2615 13f3 E0140000 		.4byte	0x14e0
 2616 13f7 01140000 		.4byte	0x1401
 2617 13fb 27       		.uleb128 0x27
 2618 13fc 01       		.uleb128 0x1
 2619 13fd 50       		.byte	0x50
 2620 13fe 01       		.uleb128 0x1
 2621 13ff 3A       		.byte	0x3a
 2622 1400 00       		.byte	0
ARM GAS  C:\Users\14122\AppData\Local\Temp\ccz6EvhC.s 			page 47


 2623 1401 26       		.uleb128 0x26
 2624 1402 26000000 		.4byte	.LVL12
 2625 1406 E0140000 		.4byte	0x14e0
 2626 140a 14140000 		.4byte	0x1414
 2627 140e 27       		.uleb128 0x27
 2628 140f 01       		.uleb128 0x1
 2629 1410 50       		.byte	0x50
 2630 1411 01       		.uleb128 0x1
 2631 1412 47       		.byte	0x47
 2632 1413 00       		.byte	0
 2633 1414 28       		.uleb128 0x28
 2634 1415 30000000 		.4byte	.LVL13
 2635 1419 E0140000 		.4byte	0x14e0
 2636 141d 27       		.uleb128 0x27
 2637 141e 01       		.uleb128 0x1
 2638 141f 50       		.byte	0x50
 2639 1420 02       		.uleb128 0x2
 2640 1421 08       		.byte	0x8
 2641 1422 28       		.byte	0x28
 2642 1423 00       		.byte	0
 2643 1424 00       		.byte	0
 2644 1425 25       		.uleb128 0x25
 2645 1426 490C0000 		.4byte	.LASF307
 2646 142a 01       		.byte	0x1
 2647 142b E0       		.byte	0xe0
 2648 142c 00000000 		.4byte	.LFB253
 2649 1430 3E000000 		.4byte	.LFE253-.LFB253
 2650 1434 01       		.uleb128 0x1
 2651 1435 9C       		.byte	0x9c
 2652 1436 E0140000 		.4byte	0x14e0
 2653 143a 26       		.uleb128 0x26
 2654 143b 0A000000 		.4byte	.LVL0
 2655 143f EB140000 		.4byte	0x14eb
 2656 1443 52140000 		.4byte	0x1452
 2657 1447 27       		.uleb128 0x27
 2658 1448 01       		.uleb128 0x1
 2659 1449 50       		.byte	0x50
 2660 144a 01       		.uleb128 0x1
 2661 144b 36       		.byte	0x36
 2662 144c 27       		.uleb128 0x27
 2663 144d 01       		.uleb128 0x1
 2664 144e 51       		.byte	0x51
 2665 144f 01       		.uleb128 0x1
 2666 1450 36       		.byte	0x36
 2667 1451 00       		.byte	0
 2668 1452 26       		.uleb128 0x26
 2669 1453 12000000 		.4byte	.LVL1
 2670 1457 EB140000 		.4byte	0x14eb
 2671 145b 6A140000 		.4byte	0x146a
 2672 145f 27       		.uleb128 0x27
 2673 1460 01       		.uleb128 0x1
 2674 1461 50       		.byte	0x50
 2675 1462 01       		.uleb128 0x1
 2676 1463 37       		.byte	0x37
 2677 1464 27       		.uleb128 0x27
 2678 1465 01       		.uleb128 0x1
 2679 1466 51       		.byte	0x51
ARM GAS  C:\Users\14122\AppData\Local\Temp\ccz6EvhC.s 			page 48


 2680 1467 01       		.uleb128 0x1
 2681 1468 36       		.byte	0x36
 2682 1469 00       		.byte	0
 2683 146a 26       		.uleb128 0x26
 2684 146b 1A000000 		.4byte	.LVL2
 2685 146f EB140000 		.4byte	0x14eb
 2686 1473 82140000 		.4byte	0x1482
 2687 1477 27       		.uleb128 0x27
 2688 1478 01       		.uleb128 0x1
 2689 1479 50       		.byte	0x50
 2690 147a 01       		.uleb128 0x1
 2691 147b 38       		.byte	0x38
 2692 147c 27       		.uleb128 0x27
 2693 147d 01       		.uleb128 0x1
 2694 147e 51       		.byte	0x51
 2695 147f 01       		.uleb128 0x1
 2696 1480 36       		.byte	0x36
 2697 1481 00       		.byte	0
 2698 1482 26       		.uleb128 0x26
 2699 1483 22000000 		.4byte	.LVL3
 2700 1487 EB140000 		.4byte	0x14eb
 2701 148b 9A140000 		.4byte	0x149a
 2702 148f 27       		.uleb128 0x27
 2703 1490 01       		.uleb128 0x1
 2704 1491 50       		.byte	0x50
 2705 1492 01       		.uleb128 0x1
 2706 1493 39       		.byte	0x39
 2707 1494 27       		.uleb128 0x27
 2708 1495 01       		.uleb128 0x1
 2709 1496 51       		.byte	0x51
 2710 1497 01       		.uleb128 0x1
 2711 1498 36       		.byte	0x36
 2712 1499 00       		.byte	0
 2713 149a 26       		.uleb128 0x26
 2714 149b 2A000000 		.4byte	.LVL4
 2715 149f EB140000 		.4byte	0x14eb
 2716 14a3 B2140000 		.4byte	0x14b2
 2717 14a7 27       		.uleb128 0x27
 2718 14a8 01       		.uleb128 0x1
 2719 14a9 50       		.byte	0x50
 2720 14aa 01       		.uleb128 0x1
 2721 14ab 3A       		.byte	0x3a
 2722 14ac 27       		.uleb128 0x27
 2723 14ad 01       		.uleb128 0x1
 2724 14ae 51       		.byte	0x51
 2725 14af 01       		.uleb128 0x1
 2726 14b0 36       		.byte	0x36
 2727 14b1 00       		.byte	0
 2728 14b2 26       		.uleb128 0x26
 2729 14b3 32000000 		.4byte	.LVL5
 2730 14b7 EB140000 		.4byte	0x14eb
 2731 14bb CA140000 		.4byte	0x14ca
 2732 14bf 27       		.uleb128 0x27
 2733 14c0 01       		.uleb128 0x1
 2734 14c1 50       		.byte	0x50
 2735 14c2 01       		.uleb128 0x1
 2736 14c3 47       		.byte	0x47
ARM GAS  C:\Users\14122\AppData\Local\Temp\ccz6EvhC.s 			page 49


 2737 14c4 27       		.uleb128 0x27
 2738 14c5 01       		.uleb128 0x1
 2739 14c6 51       		.byte	0x51
 2740 14c7 01       		.uleb128 0x1
 2741 14c8 36       		.byte	0x36
 2742 14c9 00       		.byte	0
 2743 14ca 28       		.uleb128 0x28
 2744 14cb 3E000000 		.4byte	.LVL6
 2745 14cf EB140000 		.4byte	0x14eb
 2746 14d3 27       		.uleb128 0x27
 2747 14d4 01       		.uleb128 0x1
 2748 14d5 50       		.byte	0x50
 2749 14d6 02       		.uleb128 0x2
 2750 14d7 08       		.byte	0x8
 2751 14d8 28       		.byte	0x28
 2752 14d9 27       		.uleb128 0x27
 2753 14da 01       		.uleb128 0x1
 2754 14db 51       		.byte	0x51
 2755 14dc 01       		.uleb128 0x1
 2756 14dd 36       		.byte	0x36
 2757 14de 00       		.byte	0
 2758 14df 00       		.byte	0
 2759 14e0 29       		.uleb128 0x29
 2760 14e1 01090000 		.4byte	.LASF308
 2761 14e5 01090000 		.4byte	.LASF308
 2762 14e9 1D       		.byte	0x1d
 2763 14ea 4F       		.byte	0x4f
 2764 14eb 29       		.uleb128 0x29
 2765 14ec C50C0000 		.4byte	.LASF309
 2766 14f0 C50C0000 		.4byte	.LASF309
 2767 14f4 1D       		.byte	0x1d
 2768 14f5 4E       		.byte	0x4e
 2769 14f6 00       		.byte	0
 2770              		.section	.debug_abbrev,"",%progbits
 2771              	.Ldebug_abbrev0:
 2772 0000 01       		.uleb128 0x1
 2773 0001 11       		.uleb128 0x11
 2774 0002 01       		.byte	0x1
 2775 0003 25       		.uleb128 0x25
 2776 0004 0E       		.uleb128 0xe
 2777 0005 13       		.uleb128 0x13
 2778 0006 0B       		.uleb128 0xb
 2779 0007 03       		.uleb128 0x3
 2780 0008 0E       		.uleb128 0xe
 2781 0009 1B       		.uleb128 0x1b
 2782 000a 0E       		.uleb128 0xe
 2783 000b 55       		.uleb128 0x55
 2784 000c 17       		.uleb128 0x17
 2785 000d 11       		.uleb128 0x11
 2786 000e 01       		.uleb128 0x1
 2787 000f 10       		.uleb128 0x10
 2788 0010 17       		.uleb128 0x17
 2789 0011 00       		.byte	0
 2790 0012 00       		.byte	0
 2791 0013 02       		.uleb128 0x2
 2792 0014 24       		.uleb128 0x24
 2793 0015 00       		.byte	0
ARM GAS  C:\Users\14122\AppData\Local\Temp\ccz6EvhC.s 			page 50


 2794 0016 0B       		.uleb128 0xb
 2795 0017 0B       		.uleb128 0xb
 2796 0018 3E       		.uleb128 0x3e
 2797 0019 0B       		.uleb128 0xb
 2798 001a 03       		.uleb128 0x3
 2799 001b 08       		.uleb128 0x8
 2800 001c 00       		.byte	0
 2801 001d 00       		.byte	0
 2802 001e 03       		.uleb128 0x3
 2803 001f 16       		.uleb128 0x16
 2804 0020 00       		.byte	0
 2805 0021 03       		.uleb128 0x3
 2806 0022 0E       		.uleb128 0xe
 2807 0023 3A       		.uleb128 0x3a
 2808 0024 0B       		.uleb128 0xb
 2809 0025 3B       		.uleb128 0x3b
 2810 0026 0B       		.uleb128 0xb
 2811 0027 49       		.uleb128 0x49
 2812 0028 13       		.uleb128 0x13
 2813 0029 00       		.byte	0
 2814 002a 00       		.byte	0
 2815 002b 04       		.uleb128 0x4
 2816 002c 24       		.uleb128 0x24
 2817 002d 00       		.byte	0
 2818 002e 0B       		.uleb128 0xb
 2819 002f 0B       		.uleb128 0xb
 2820 0030 3E       		.uleb128 0x3e
 2821 0031 0B       		.uleb128 0xb
 2822 0032 03       		.uleb128 0x3
 2823 0033 0E       		.uleb128 0xe
 2824 0034 00       		.byte	0
 2825 0035 00       		.byte	0
 2826 0036 05       		.uleb128 0x5
 2827 0037 26       		.uleb128 0x26
 2828 0038 00       		.byte	0
 2829 0039 49       		.uleb128 0x49
 2830 003a 13       		.uleb128 0x13
 2831 003b 00       		.byte	0
 2832 003c 00       		.byte	0
 2833 003d 06       		.uleb128 0x6
 2834 003e 35       		.uleb128 0x35
 2835 003f 00       		.byte	0
 2836 0040 49       		.uleb128 0x49
 2837 0041 13       		.uleb128 0x13
 2838 0042 00       		.byte	0
 2839 0043 00       		.byte	0
 2840 0044 07       		.uleb128 0x7
 2841 0045 13       		.uleb128 0x13
 2842 0046 01       		.byte	0x1
 2843 0047 03       		.uleb128 0x3
 2844 0048 0E       		.uleb128 0xe
 2845 0049 0B       		.uleb128 0xb
 2846 004a 0B       		.uleb128 0xb
 2847 004b 3A       		.uleb128 0x3a
 2848 004c 0B       		.uleb128 0xb
 2849 004d 3B       		.uleb128 0x3b
 2850 004e 0B       		.uleb128 0xb
ARM GAS  C:\Users\14122\AppData\Local\Temp\ccz6EvhC.s 			page 51


 2851 004f 01       		.uleb128 0x1
 2852 0050 13       		.uleb128 0x13
 2853 0051 00       		.byte	0
 2854 0052 00       		.byte	0
 2855 0053 08       		.uleb128 0x8
 2856 0054 0D       		.uleb128 0xd
 2857 0055 00       		.byte	0
 2858 0056 03       		.uleb128 0x3
 2859 0057 0E       		.uleb128 0xe
 2860 0058 3A       		.uleb128 0x3a
 2861 0059 0B       		.uleb128 0xb
 2862 005a 3B       		.uleb128 0x3b
 2863 005b 0B       		.uleb128 0xb
 2864 005c 49       		.uleb128 0x49
 2865 005d 13       		.uleb128 0x13
 2866 005e 38       		.uleb128 0x38
 2867 005f 0B       		.uleb128 0xb
 2868 0060 00       		.byte	0
 2869 0061 00       		.byte	0
 2870 0062 09       		.uleb128 0x9
 2871 0063 0D       		.uleb128 0xd
 2872 0064 00       		.byte	0
 2873 0065 03       		.uleb128 0x3
 2874 0066 08       		.uleb128 0x8
 2875 0067 3A       		.uleb128 0x3a
 2876 0068 0B       		.uleb128 0xb
 2877 0069 3B       		.uleb128 0x3b
 2878 006a 0B       		.uleb128 0xb
 2879 006b 49       		.uleb128 0x49
 2880 006c 13       		.uleb128 0x13
 2881 006d 38       		.uleb128 0x38
 2882 006e 0B       		.uleb128 0xb
 2883 006f 00       		.byte	0
 2884 0070 00       		.byte	0
 2885 0071 0A       		.uleb128 0xa
 2886 0072 0D       		.uleb128 0xd
 2887 0073 00       		.byte	0
 2888 0074 03       		.uleb128 0x3
 2889 0075 08       		.uleb128 0x8
 2890 0076 3A       		.uleb128 0x3a
 2891 0077 0B       		.uleb128 0xb
 2892 0078 3B       		.uleb128 0x3b
 2893 0079 05       		.uleb128 0x5
 2894 007a 49       		.uleb128 0x49
 2895 007b 13       		.uleb128 0x13
 2896 007c 38       		.uleb128 0x38
 2897 007d 0B       		.uleb128 0xb
 2898 007e 00       		.byte	0
 2899 007f 00       		.byte	0
 2900 0080 0B       		.uleb128 0xb
 2901 0081 0D       		.uleb128 0xd
 2902 0082 00       		.byte	0
 2903 0083 03       		.uleb128 0x3
 2904 0084 0E       		.uleb128 0xe
 2905 0085 3A       		.uleb128 0x3a
 2906 0086 0B       		.uleb128 0xb
 2907 0087 3B       		.uleb128 0x3b
ARM GAS  C:\Users\14122\AppData\Local\Temp\ccz6EvhC.s 			page 52


 2908 0088 05       		.uleb128 0x5
 2909 0089 49       		.uleb128 0x49
 2910 008a 13       		.uleb128 0x13
 2911 008b 38       		.uleb128 0x38
 2912 008c 0B       		.uleb128 0xb
 2913 008d 00       		.byte	0
 2914 008e 00       		.byte	0
 2915 008f 0C       		.uleb128 0xc
 2916 0090 0F       		.uleb128 0xf
 2917 0091 00       		.byte	0
 2918 0092 0B       		.uleb128 0xb
 2919 0093 0B       		.uleb128 0xb
 2920 0094 49       		.uleb128 0x49
 2921 0095 13       		.uleb128 0x13
 2922 0096 00       		.byte	0
 2923 0097 00       		.byte	0
 2924 0098 0D       		.uleb128 0xd
 2925 0099 13       		.uleb128 0x13
 2926 009a 01       		.byte	0x1
 2927 009b 03       		.uleb128 0x3
 2928 009c 0E       		.uleb128 0xe
 2929 009d 0B       		.uleb128 0xb
 2930 009e 0B       		.uleb128 0xb
 2931 009f 3A       		.uleb128 0x3a
 2932 00a0 0B       		.uleb128 0xb
 2933 00a1 3B       		.uleb128 0x3b
 2934 00a2 05       		.uleb128 0x5
 2935 00a3 01       		.uleb128 0x1
 2936 00a4 13       		.uleb128 0x13
 2937 00a5 00       		.byte	0
 2938 00a6 00       		.byte	0
 2939 00a7 0E       		.uleb128 0xe
 2940 00a8 15       		.uleb128 0x15
 2941 00a9 01       		.byte	0x1
 2942 00aa 27       		.uleb128 0x27
 2943 00ab 19       		.uleb128 0x19
 2944 00ac 01       		.uleb128 0x1
 2945 00ad 13       		.uleb128 0x13
 2946 00ae 00       		.byte	0
 2947 00af 00       		.byte	0
 2948 00b0 0F       		.uleb128 0xf
 2949 00b1 05       		.uleb128 0x5
 2950 00b2 00       		.byte	0
 2951 00b3 49       		.uleb128 0x49
 2952 00b4 13       		.uleb128 0x13
 2953 00b5 00       		.byte	0
 2954 00b6 00       		.byte	0
 2955 00b7 10       		.uleb128 0x10
 2956 00b8 0F       		.uleb128 0xf
 2957 00b9 00       		.byte	0
 2958 00ba 0B       		.uleb128 0xb
 2959 00bb 0B       		.uleb128 0xb
 2960 00bc 00       		.byte	0
 2961 00bd 00       		.byte	0
 2962 00be 11       		.uleb128 0x11
 2963 00bf 04       		.uleb128 0x4
 2964 00c0 01       		.byte	0x1
ARM GAS  C:\Users\14122\AppData\Local\Temp\ccz6EvhC.s 			page 53


 2965 00c1 3E       		.uleb128 0x3e
 2966 00c2 0B       		.uleb128 0xb
 2967 00c3 0B       		.uleb128 0xb
 2968 00c4 0B       		.uleb128 0xb
 2969 00c5 49       		.uleb128 0x49
 2970 00c6 13       		.uleb128 0x13
 2971 00c7 3A       		.uleb128 0x3a
 2972 00c8 0B       		.uleb128 0xb
 2973 00c9 3B       		.uleb128 0x3b
 2974 00ca 0B       		.uleb128 0xb
 2975 00cb 01       		.uleb128 0x1
 2976 00cc 13       		.uleb128 0x13
 2977 00cd 00       		.byte	0
 2978 00ce 00       		.byte	0
 2979 00cf 12       		.uleb128 0x12
 2980 00d0 28       		.uleb128 0x28
 2981 00d1 00       		.byte	0
 2982 00d2 03       		.uleb128 0x3
 2983 00d3 0E       		.uleb128 0xe
 2984 00d4 1C       		.uleb128 0x1c
 2985 00d5 0D       		.uleb128 0xd
 2986 00d6 00       		.byte	0
 2987 00d7 00       		.byte	0
 2988 00d8 13       		.uleb128 0x13
 2989 00d9 28       		.uleb128 0x28
 2990 00da 00       		.byte	0
 2991 00db 03       		.uleb128 0x3
 2992 00dc 0E       		.uleb128 0xe
 2993 00dd 1C       		.uleb128 0x1c
 2994 00de 0B       		.uleb128 0xb
 2995 00df 00       		.byte	0
 2996 00e0 00       		.byte	0
 2997 00e1 14       		.uleb128 0x14
 2998 00e2 01       		.uleb128 0x1
 2999 00e3 01       		.byte	0x1
 3000 00e4 49       		.uleb128 0x49
 3001 00e5 13       		.uleb128 0x13
 3002 00e6 01       		.uleb128 0x1
 3003 00e7 13       		.uleb128 0x13
 3004 00e8 00       		.byte	0
 3005 00e9 00       		.byte	0
 3006 00ea 15       		.uleb128 0x15
 3007 00eb 21       		.uleb128 0x21
 3008 00ec 00       		.byte	0
 3009 00ed 49       		.uleb128 0x49
 3010 00ee 13       		.uleb128 0x13
 3011 00ef 2F       		.uleb128 0x2f
 3012 00f0 0B       		.uleb128 0xb
 3013 00f1 00       		.byte	0
 3014 00f2 00       		.byte	0
 3015 00f3 16       		.uleb128 0x16
 3016 00f4 34       		.uleb128 0x34
 3017 00f5 00       		.byte	0
 3018 00f6 03       		.uleb128 0x3
 3019 00f7 0E       		.uleb128 0xe
 3020 00f8 3A       		.uleb128 0x3a
 3021 00f9 0B       		.uleb128 0xb
ARM GAS  C:\Users\14122\AppData\Local\Temp\ccz6EvhC.s 			page 54


 3022 00fa 3B       		.uleb128 0x3b
 3023 00fb 05       		.uleb128 0x5
 3024 00fc 49       		.uleb128 0x49
 3025 00fd 13       		.uleb128 0x13
 3026 00fe 3F       		.uleb128 0x3f
 3027 00ff 19       		.uleb128 0x19
 3028 0100 3C       		.uleb128 0x3c
 3029 0101 19       		.uleb128 0x19
 3030 0102 00       		.byte	0
 3031 0103 00       		.byte	0
 3032 0104 17       		.uleb128 0x17
 3033 0105 34       		.uleb128 0x34
 3034 0106 00       		.byte	0
 3035 0107 03       		.uleb128 0x3
 3036 0108 0E       		.uleb128 0xe
 3037 0109 3A       		.uleb128 0x3a
 3038 010a 0B       		.uleb128 0xb
 3039 010b 3B       		.uleb128 0x3b
 3040 010c 0B       		.uleb128 0xb
 3041 010d 49       		.uleb128 0x49
 3042 010e 13       		.uleb128 0x13
 3043 010f 3F       		.uleb128 0x3f
 3044 0110 19       		.uleb128 0x19
 3045 0111 3C       		.uleb128 0x3c
 3046 0112 19       		.uleb128 0x19
 3047 0113 00       		.byte	0
 3048 0114 00       		.byte	0
 3049 0115 18       		.uleb128 0x18
 3050 0116 13       		.uleb128 0x13
 3051 0117 01       		.byte	0x1
 3052 0118 0B       		.uleb128 0xb
 3053 0119 0B       		.uleb128 0xb
 3054 011a 3A       		.uleb128 0x3a
 3055 011b 0B       		.uleb128 0xb
 3056 011c 3B       		.uleb128 0x3b
 3057 011d 0B       		.uleb128 0xb
 3058 011e 01       		.uleb128 0x1
 3059 011f 13       		.uleb128 0x13
 3060 0120 00       		.byte	0
 3061 0121 00       		.byte	0
 3062 0122 19       		.uleb128 0x19
 3063 0123 13       		.uleb128 0x13
 3064 0124 01       		.byte	0x1
 3065 0125 0B       		.uleb128 0xb
 3066 0126 05       		.uleb128 0x5
 3067 0127 3A       		.uleb128 0x3a
 3068 0128 0B       		.uleb128 0xb
 3069 0129 3B       		.uleb128 0x3b
 3070 012a 0B       		.uleb128 0xb
 3071 012b 01       		.uleb128 0x1
 3072 012c 13       		.uleb128 0x13
 3073 012d 00       		.byte	0
 3074 012e 00       		.byte	0
 3075 012f 1A       		.uleb128 0x1a
 3076 0130 0D       		.uleb128 0xd
 3077 0131 00       		.byte	0
 3078 0132 03       		.uleb128 0x3
ARM GAS  C:\Users\14122\AppData\Local\Temp\ccz6EvhC.s 			page 55


 3079 0133 0E       		.uleb128 0xe
 3080 0134 3A       		.uleb128 0x3a
 3081 0135 0B       		.uleb128 0xb
 3082 0136 3B       		.uleb128 0x3b
 3083 0137 05       		.uleb128 0x5
 3084 0138 49       		.uleb128 0x49
 3085 0139 13       		.uleb128 0x13
 3086 013a 38       		.uleb128 0x38
 3087 013b 05       		.uleb128 0x5
 3088 013c 00       		.byte	0
 3089 013d 00       		.byte	0
 3090 013e 1B       		.uleb128 0x1b
 3091 013f 0D       		.uleb128 0xd
 3092 0140 00       		.byte	0
 3093 0141 03       		.uleb128 0x3
 3094 0142 08       		.uleb128 0x8
 3095 0143 3A       		.uleb128 0x3a
 3096 0144 0B       		.uleb128 0xb
 3097 0145 3B       		.uleb128 0x3b
 3098 0146 05       		.uleb128 0x5
 3099 0147 49       		.uleb128 0x49
 3100 0148 13       		.uleb128 0x13
 3101 0149 38       		.uleb128 0x38
 3102 014a 05       		.uleb128 0x5
 3103 014b 00       		.byte	0
 3104 014c 00       		.byte	0
 3105 014d 1C       		.uleb128 0x1c
 3106 014e 16       		.uleb128 0x16
 3107 014f 00       		.byte	0
 3108 0150 03       		.uleb128 0x3
 3109 0151 0E       		.uleb128 0xe
 3110 0152 3A       		.uleb128 0x3a
 3111 0153 0B       		.uleb128 0xb
 3112 0154 3B       		.uleb128 0x3b
 3113 0155 05       		.uleb128 0x5
 3114 0156 49       		.uleb128 0x49
 3115 0157 13       		.uleb128 0x13
 3116 0158 00       		.byte	0
 3117 0159 00       		.byte	0
 3118 015a 1D       		.uleb128 0x1d
 3119 015b 13       		.uleb128 0x13
 3120 015c 01       		.byte	0x1
 3121 015d 0B       		.uleb128 0xb
 3122 015e 0B       		.uleb128 0xb
 3123 015f 3A       		.uleb128 0x3a
 3124 0160 0B       		.uleb128 0xb
 3125 0161 3B       		.uleb128 0x3b
 3126 0162 05       		.uleb128 0x5
 3127 0163 01       		.uleb128 0x1
 3128 0164 13       		.uleb128 0x13
 3129 0165 00       		.byte	0
 3130 0166 00       		.byte	0
 3131 0167 1E       		.uleb128 0x1e
 3132 0168 17       		.uleb128 0x17
 3133 0169 01       		.byte	0x1
 3134 016a 0B       		.uleb128 0xb
 3135 016b 0B       		.uleb128 0xb
ARM GAS  C:\Users\14122\AppData\Local\Temp\ccz6EvhC.s 			page 56


 3136 016c 3A       		.uleb128 0x3a
 3137 016d 0B       		.uleb128 0xb
 3138 016e 3B       		.uleb128 0x3b
 3139 016f 0B       		.uleb128 0xb
 3140 0170 01       		.uleb128 0x1
 3141 0171 13       		.uleb128 0x13
 3142 0172 00       		.byte	0
 3143 0173 00       		.byte	0
 3144 0174 1F       		.uleb128 0x1f
 3145 0175 0D       		.uleb128 0xd
 3146 0176 00       		.byte	0
 3147 0177 03       		.uleb128 0x3
 3148 0178 0E       		.uleb128 0xe
 3149 0179 3A       		.uleb128 0x3a
 3150 017a 0B       		.uleb128 0xb
 3151 017b 3B       		.uleb128 0x3b
 3152 017c 0B       		.uleb128 0xb
 3153 017d 49       		.uleb128 0x49
 3154 017e 13       		.uleb128 0x13
 3155 017f 00       		.byte	0
 3156 0180 00       		.byte	0
 3157 0181 20       		.uleb128 0x20
 3158 0182 0D       		.uleb128 0xd
 3159 0183 00       		.byte	0
 3160 0184 03       		.uleb128 0x3
 3161 0185 0E       		.uleb128 0xe
 3162 0186 3A       		.uleb128 0x3a
 3163 0187 0B       		.uleb128 0xb
 3164 0188 3B       		.uleb128 0x3b
 3165 0189 05       		.uleb128 0x5
 3166 018a 49       		.uleb128 0x49
 3167 018b 13       		.uleb128 0x13
 3168 018c 00       		.byte	0
 3169 018d 00       		.byte	0
 3170 018e 21       		.uleb128 0x21
 3171 018f 34       		.uleb128 0x34
 3172 0190 00       		.byte	0
 3173 0191 03       		.uleb128 0x3
 3174 0192 08       		.uleb128 0x8
 3175 0193 3A       		.uleb128 0x3a
 3176 0194 0B       		.uleb128 0xb
 3177 0195 3B       		.uleb128 0x3b
 3178 0196 05       		.uleb128 0x5
 3179 0197 49       		.uleb128 0x49
 3180 0198 13       		.uleb128 0x13
 3181 0199 3F       		.uleb128 0x3f
 3182 019a 19       		.uleb128 0x19
 3183 019b 3C       		.uleb128 0x3c
 3184 019c 19       		.uleb128 0x19
 3185 019d 00       		.byte	0
 3186 019e 00       		.byte	0
 3187 019f 22       		.uleb128 0x22
 3188 01a0 21       		.uleb128 0x21
 3189 01a1 00       		.byte	0
 3190 01a2 00       		.byte	0
 3191 01a3 00       		.byte	0
 3192 01a4 23       		.uleb128 0x23
ARM GAS  C:\Users\14122\AppData\Local\Temp\ccz6EvhC.s 			page 57


 3193 01a5 15       		.uleb128 0x15
 3194 01a6 01       		.byte	0x1
 3195 01a7 27       		.uleb128 0x27
 3196 01a8 19       		.uleb128 0x19
 3197 01a9 49       		.uleb128 0x49
 3198 01aa 13       		.uleb128 0x13
 3199 01ab 01       		.uleb128 0x1
 3200 01ac 13       		.uleb128 0x13
 3201 01ad 00       		.byte	0
 3202 01ae 00       		.byte	0
 3203 01af 24       		.uleb128 0x24
 3204 01b0 13       		.uleb128 0x13
 3205 01b1 00       		.byte	0
 3206 01b2 0B       		.uleb128 0xb
 3207 01b3 0B       		.uleb128 0xb
 3208 01b4 3A       		.uleb128 0x3a
 3209 01b5 0B       		.uleb128 0xb
 3210 01b6 3B       		.uleb128 0x3b
 3211 01b7 0B       		.uleb128 0xb
 3212 01b8 00       		.byte	0
 3213 01b9 00       		.byte	0
 3214 01ba 25       		.uleb128 0x25
 3215 01bb 2E       		.uleb128 0x2e
 3216 01bc 01       		.byte	0x1
 3217 01bd 3F       		.uleb128 0x3f
 3218 01be 19       		.uleb128 0x19
 3219 01bf 03       		.uleb128 0x3
 3220 01c0 0E       		.uleb128 0xe
 3221 01c1 3A       		.uleb128 0x3a
 3222 01c2 0B       		.uleb128 0xb
 3223 01c3 3B       		.uleb128 0x3b
 3224 01c4 0B       		.uleb128 0xb
 3225 01c5 27       		.uleb128 0x27
 3226 01c6 19       		.uleb128 0x19
 3227 01c7 11       		.uleb128 0x11
 3228 01c8 01       		.uleb128 0x1
 3229 01c9 12       		.uleb128 0x12
 3230 01ca 06       		.uleb128 0x6
 3231 01cb 40       		.uleb128 0x40
 3232 01cc 18       		.uleb128 0x18
 3233 01cd 9742     		.uleb128 0x2117
 3234 01cf 19       		.uleb128 0x19
 3235 01d0 01       		.uleb128 0x1
 3236 01d1 13       		.uleb128 0x13
 3237 01d2 00       		.byte	0
 3238 01d3 00       		.byte	0
 3239 01d4 26       		.uleb128 0x26
 3240 01d5 898201   		.uleb128 0x4109
 3241 01d8 01       		.byte	0x1
 3242 01d9 11       		.uleb128 0x11
 3243 01da 01       		.uleb128 0x1
 3244 01db 31       		.uleb128 0x31
 3245 01dc 13       		.uleb128 0x13
 3246 01dd 01       		.uleb128 0x1
 3247 01de 13       		.uleb128 0x13
 3248 01df 00       		.byte	0
 3249 01e0 00       		.byte	0
ARM GAS  C:\Users\14122\AppData\Local\Temp\ccz6EvhC.s 			page 58


 3250 01e1 27       		.uleb128 0x27
 3251 01e2 8A8201   		.uleb128 0x410a
 3252 01e5 00       		.byte	0
 3253 01e6 02       		.uleb128 0x2
 3254 01e7 18       		.uleb128 0x18
 3255 01e8 9142     		.uleb128 0x2111
 3256 01ea 18       		.uleb128 0x18
 3257 01eb 00       		.byte	0
 3258 01ec 00       		.byte	0
 3259 01ed 28       		.uleb128 0x28
 3260 01ee 898201   		.uleb128 0x4109
 3261 01f1 01       		.byte	0x1
 3262 01f2 11       		.uleb128 0x11
 3263 01f3 01       		.uleb128 0x1
 3264 01f4 9542     		.uleb128 0x2115
 3265 01f6 19       		.uleb128 0x19
 3266 01f7 31       		.uleb128 0x31
 3267 01f8 13       		.uleb128 0x13
 3268 01f9 00       		.byte	0
 3269 01fa 00       		.byte	0
 3270 01fb 29       		.uleb128 0x29
 3271 01fc 2E       		.uleb128 0x2e
 3272 01fd 00       		.byte	0
 3273 01fe 3F       		.uleb128 0x3f
 3274 01ff 19       		.uleb128 0x19
 3275 0200 3C       		.uleb128 0x3c
 3276 0201 19       		.uleb128 0x19
 3277 0202 6E       		.uleb128 0x6e
 3278 0203 0E       		.uleb128 0xe
 3279 0204 03       		.uleb128 0x3
 3280 0205 0E       		.uleb128 0xe
 3281 0206 3A       		.uleb128 0x3a
 3282 0207 0B       		.uleb128 0xb
 3283 0208 3B       		.uleb128 0x3b
 3284 0209 0B       		.uleb128 0xb
 3285 020a 00       		.byte	0
 3286 020b 00       		.byte	0
 3287 020c 00       		.byte	0
 3288              		.section	.debug_aranges,"",%progbits
 3289 0000 24000000 		.4byte	0x24
 3290 0004 0200     		.2byte	0x2
 3291 0006 00000000 		.4byte	.Ldebug_info0
 3292 000a 04       		.byte	0x4
 3293 000b 00       		.byte	0
 3294 000c 0000     		.2byte	0
 3295 000e 0000     		.2byte	0
 3296 0010 00000000 		.4byte	.LFB253
 3297 0014 3E000000 		.4byte	.LFE253-.LFB253
 3298 0018 00000000 		.4byte	.LFB254
 3299 001c 30000000 		.4byte	.LFE254-.LFB254
 3300 0020 00000000 		.4byte	0
 3301 0024 00000000 		.4byte	0
 3302              		.section	.debug_ranges,"",%progbits
 3303              	.Ldebug_ranges0:
 3304 0000 00000000 		.4byte	.LFB253
 3305 0004 3E000000 		.4byte	.LFE253
 3306 0008 00000000 		.4byte	.LFB254
ARM GAS  C:\Users\14122\AppData\Local\Temp\ccz6EvhC.s 			page 59


 3307 000c 30000000 		.4byte	.LFE254
 3308 0010 00000000 		.4byte	0
 3309 0014 00000000 		.4byte	0
 3310              		.section	.debug_line,"",%progbits
 3311              	.Ldebug_line0:
 3312 0000 6E040000 		.section	.debug_str,"MS",%progbits,1
 3312      02003604 
 3312      00000201 
 3312      FB0E0D00 
 3312      01010101 
 3313              	.LASF189:
 3314 0000 6F66665F 		.ascii	"off_ctx\000"
 3314      63747800 
 3315              	.LASF92:
 3316 0008 45585449 		.ascii	"EXTI2_IRQn\000"
 3316      325F4952 
 3316      516E00
 3317              	.LASF240:
 3318 0013 73746D33 		.ascii	"stm32_dma_stream_t\000"
 3318      325F646D 
 3318      615F7374 
 3318      7265616D 
 3318      5F7400
 3319              	.LASF4:
 3320 0026 73697A65 		.ascii	"size_t\000"
 3320      5F7400
 3321              	.LASF188:
 3322 002d 6F66665F 		.ascii	"off_prio\000"
 3322      7072696F 
 3322      00
 3323              	.LASF212:
 3324 0036 656E646D 		.ascii	"endmem\000"
 3324      656D00
 3325              	.LASF173:
 3326 003d 77747365 		.ascii	"wtsemp\000"
 3326      6D7000
 3327              	.LASF73:
 3328 0044 73797374 		.ascii	"systime_t\000"
 3328      696D655F 
 3328      7400
 3329              	.LASF197:
 3330 004e 6F66665F 		.ascii	"off_preempt\000"
 3330      70726565 
 3330      6D707400 
 3331              	.LASF178:
 3332 005a 6F776E65 		.ascii	"owner\000"
 3332      7200
 3333              	.LASF24:
 3334 0060 74707269 		.ascii	"tprio_t\000"
 3334      6F5F7400 
 3335              	.LASF200:
 3336 0068 63685F64 		.ascii	"ch_debug\000"
 3336      65627567 
 3336      00
 3337              	.LASF218:
 3338 0071 70726F76 		.ascii	"provider\000"
 3338      69646572 
ARM GAS  C:\Users\14122\AppData\Local\Temp\ccz6EvhC.s 			page 60


 3338      00
 3339              	.LASF18:
 3340 007a 696E7433 		.ascii	"int32_t\000"
 3340      325F7400 
 3341              	.LASF162:
 3342 0082 47545052 		.ascii	"GTPR\000"
 3342      00
 3343              	.LASF99:
 3344 0087 444D4131 		.ascii	"DMA1_Channel5_IRQn\000"
 3344      5F436861 
 3344      6E6E656C 
 3344      355F4952 
 3344      516E00
 3345              	.LASF57:
 3346 009a 76746675 		.ascii	"vtfunc_t\000"
 3346      6E635F74 
 3346      00
 3347              	.LASF270:
 3348 00a3 736C6565 		.ascii	"sleep_event\000"
 3348      705F6576 
 3348      656E7400 
 3349              	.LASF63:
 3350 00af 63685F76 		.ascii	"ch_virtual_timers_list\000"
 3350      69727475 
 3350      616C5F74 
 3350      696D6572 
 3350      735F6C69 
 3351              	.LASF275:
 3352 00c6 55415254 		.ascii	"UART_STOP\000"
 3352      5F53544F 
 3352      5000
 3353              	.LASF220:
 3354 00d0 63685F64 		.ascii	"ch_dyn_element\000"
 3354      796E5F65 
 3354      6C656D65 
 3354      6E7400
 3355              	.LASF88:
 3356 00df 464C4153 		.ascii	"FLASH_IRQn\000"
 3356      485F4952 
 3356      516E00
 3357              	.LASF271:
 3358 00ea 77616B65 		.ascii	"wakeup_event\000"
 3358      75705F65 
 3358      76656E74 
 3358      00
 3359              	.LASF264:
 3360 00f7 636F6E66 		.ascii	"config\000"
 3360      696700
 3361              	.LASF37:
 3362 00fe 73746174 		.ascii	"state\000"
 3362      6500
 3363              	.LASF253:
 3364 0104 50454461 		.ascii	"PEData\000"
 3364      746100
 3365              	.LASF289:
 3366 010b 72787374 		.ascii	"rxstate\000"
 3366      61746500 
ARM GAS  C:\Users\14122\AppData\Local\Temp\ccz6EvhC.s 			page 61


 3367              	.LASF272:
 3368 0113 43414E43 		.ascii	"CANConfig\000"
 3368      6F6E6669 
 3368      6700
 3369              	.LASF156:
 3370 011d 434E4454 		.ascii	"CNDTR\000"
 3370      5200
 3371              	.LASF112:
 3372 0123 54494D32 		.ascii	"TIM2_IRQn\000"
 3372      5F495251 
 3372      6E00
 3373              	.LASF225:
 3374 012d 6F626A5F 		.ascii	"obj_list\000"
 3374      6C697374 
 3374      00
 3375              	.LASF300:
 3376 0136 7278656E 		.ascii	"rxend_cb\000"
 3376      645F6362 
 3376      00
 3377              	.LASF191:
 3378 013f 6F66665F 		.ascii	"off_older\000"
 3378      6F6C6465 
 3378      7200
 3379              	.LASF32:
 3380 0149 7072696F 		.ascii	"prio\000"
 3380      00
 3381              	.LASF248:
 3382 014e 73746D33 		.ascii	"stm32_gpio_setup_t\000"
 3382      325F6770 
 3382      696F5F73 
 3382      65747570 
 3382      5F7400
 3383              	.LASF169:
 3384 0161 65786974 		.ascii	"exitcode\000"
 3384      636F6465 
 3384      00
 3385              	.LASF5:
 3386 016a 5F5F7569 		.ascii	"__uint8_t\000"
 3386      6E74385F 
 3386      7400
 3387              	.LASF120:
 3388 0174 53504932 		.ascii	"SPI2_IRQn\000"
 3388      5F495251 
 3388      6E00
 3389              	.LASF263:
 3390 017e 43414E44 		.ascii	"CANDriver\000"
 3390      72697665 
 3390      7200
 3391              	.LASF279:
 3392 0188 55415254 		.ascii	"UART_TX_ACTIVE\000"
 3392      5F54585F 
 3392      41435449 
 3392      564500
 3393              	.LASF287:
 3394 0197 55415254 		.ascii	"UARTDriver\000"
 3394      44726976 
 3394      657200
ARM GAS  C:\Users\14122\AppData\Local\Temp\ccz6EvhC.s 			page 62


 3395              	.LASF11:
 3396 01a2 6C6F6E67 		.ascii	"long int\000"
 3396      20696E74 
 3396      00
 3397              	.LASF182:
 3398 01ab 7A65726F 		.ascii	"zero\000"
 3398      00
 3399              	.LASF152:
 3400 01b0 46413152 		.ascii	"FA1R\000"
 3400      00
 3401              	.LASF86:
 3402 01b5 54414D50 		.ascii	"TAMPER_IRQn\000"
 3402      45525F49 
 3402      52516E00 
 3403              	.LASF22:
 3404 01c1 74737461 		.ascii	"tstate_t\000"
 3404      74655F74 
 3404      00
 3405              	.LASF42:
 3406 01ca 6570656E 		.ascii	"epending\000"
 3406      64696E67 
 3406      00
 3407              	.LASF51:
 3408 01d3 74687265 		.ascii	"threads_queue_t\000"
 3408      6164735F 
 3408      71756575 
 3408      655F7400 
 3409              	.LASF164:
 3410 01e3 72656761 		.ascii	"regarm_t\000"
 3410      726D5F74 
 3410      00
 3411              	.LASF288:
 3412 01ec 74787374 		.ascii	"txstate\000"
 3412      61746500 
 3413              	.LASF226:
 3414 01f4 6F626A5F 		.ascii	"obj_pool\000"
 3414      706F6F6C 
 3414      00
 3415              	.LASF281:
 3416 01fd 75617274 		.ascii	"uarttxstate_t\000"
 3416      74787374 
 3416      6174655F 
 3416      7400
 3417              	.LASF83:
 3418 020b 53797354 		.ascii	"SysTick_IRQn\000"
 3418      69636B5F 
 3418      4952516E 
 3418      00
 3419              	.LASF123:
 3420 0218 55534152 		.ascii	"USART3_IRQn\000"
 3420      54335F49 
 3420      52516E00 
 3421              	.LASF157:
 3422 0224 43504152 		.ascii	"CPAR\000"
 3422      00
 3423              	.LASF290:
 3424 0229 75736172 		.ascii	"usart\000"
ARM GAS  C:\Users\14122\AppData\Local\Temp\ccz6EvhC.s 			page 63


 3424      7400
 3425              	.LASF255:
 3426 022f 70616C5F 		.ascii	"pal_default_config\000"
 3426      64656661 
 3426      756C745F 
 3426      636F6E66 
 3426      696700
 3427              	.LASF140:
 3428 0242 52463052 		.ascii	"RF0R\000"
 3428      00
 3429              	.LASF213:
 3430 0247 6D656D63 		.ascii	"memcore_t\000"
 3430      6F72655F 
 3430      7400
 3431              	.LASF3:
 3432 0251 7369676E 		.ascii	"signed char\000"
 3432      65642063 
 3432      68617200 
 3433              	.LASF175:
 3434 025d 65776D61 		.ascii	"ewmask\000"
 3434      736B00
 3435              	.LASF16:
 3436 0264 75696E74 		.ascii	"uint8_t\000"
 3436      385F7400 
 3437              	.LASF26:
 3438 026c 6576656E 		.ascii	"eventmask_t\000"
 3438      746D6173 
 3438      6B5F7400 
 3439              	.LASF139:
 3440 0278 43414E5F 		.ascii	"CAN_FilterRegister_TypeDef\000"
 3440      46696C74 
 3440      65725265 
 3440      67697374 
 3440      65725F54 
 3441              	.LASF144:
 3442 0293 73464946 		.ascii	"sFIFOMailBox\000"
 3442      4F4D6169 
 3442      6C426F78 
 3442      00
 3443              	.LASF267:
 3444 02a0 72786675 		.ascii	"rxfull_event\000"
 3444      6C6C5F65 
 3444      76656E74 
 3444      00
 3445              	.LASF171:
 3446 02ad 77747472 		.ascii	"wttrp\000"
 3446      7000
 3447              	.LASF142:
 3448 02b3 52455345 		.ascii	"RESERVED0\000"
 3448      52564544 
 3448      3000
 3449              	.LASF145:
 3450 02bd 52455345 		.ascii	"RESERVED1\000"
 3450      52564544 
 3450      3100
 3451              	.LASF6:
 3452 02c7 756E7369 		.ascii	"unsigned char\000"
ARM GAS  C:\Users\14122\AppData\Local\Temp\ccz6EvhC.s 			page 64


 3452      676E6564 
 3452      20636861 
 3452      7200
 3453              	.LASF149:
 3454 02d5 52455345 		.ascii	"RESERVED3\000"
 3454      52564544 
 3454      3300
 3455              	.LASF151:
 3456 02df 52455345 		.ascii	"RESERVED4\000"
 3456      52564544 
 3456      3400
 3457              	.LASF153:
 3458 02e9 52455345 		.ascii	"RESERVED5\000"
 3458      52564544 
 3458      3500
 3459              	.LASF64:
 3460 02f3 6C617374 		.ascii	"lasttime\000"
 3460      74696D65 
 3460      00
 3461              	.LASF252:
 3462 02fc 50444461 		.ascii	"PDData\000"
 3462      746100
 3463              	.LASF161:
 3464 0303 444D415F 		.ascii	"DMA_TypeDef\000"
 3464      54797065 
 3464      44656600 
 3465              	.LASF141:
 3466 030f 52463152 		.ascii	"RF1R\000"
 3466      00
 3467              	.LASF67:
 3468 0314 70616E69 		.ascii	"panic_msg\000"
 3468      635F6D73 
 3468      6700
 3469              	.LASF116:
 3470 031e 49324331 		.ascii	"I2C1_ER_IRQn\000"
 3470      5F45525F 
 3470      4952516E 
 3470      00
 3471              	.LASF65:
 3472 032b 73797374 		.ascii	"system_debug_t\000"
 3472      656D5F64 
 3472      65627567 
 3472      5F7400
 3473              	.LASF95:
 3474 033a 444D4131 		.ascii	"DMA1_Channel1_IRQn\000"
 3474      5F436861 
 3474      6E6E656C 
 3474      315F4952 
 3474      516E00
 3475              	.LASF209:
 3476 034d 5F426F6F 		.ascii	"_Bool\000"
 3476      6C00
 3477              	.LASF210:
 3478 0353 6D656D67 		.ascii	"memgetfunc_t\000"
 3478      65746675 
 3478      6E635F74 
 3478      00
ARM GAS  C:\Users\14122\AppData\Local\Temp\ccz6EvhC.s 			page 65


 3479              	.LASF108:
 3480 0360 54494D31 		.ascii	"TIM1_BRK_IRQn\000"
 3480      5F42524B 
 3480      5F495251 
 3480      6E00
 3481              	.LASF306:
 3482 036e 69727144 		.ascii	"irqDeinit\000"
 3482      65696E69 
 3482      7400
 3483              	.LASF147:
 3484 0378 52455345 		.ascii	"RESERVED2\000"
 3484      52564544 
 3484      3200
 3485              	.LASF79:
 3486 0382 55736167 		.ascii	"UsageFault_IRQn\000"
 3486      65466175 
 3486      6C745F49 
 3486      52516E00 
 3487              	.LASF103:
 3488 0392 5553425F 		.ascii	"USB_HP_CAN1_TX_IRQn\000"
 3488      48505F43 
 3488      414E315F 
 3488      54585F49 
 3488      52516E00 
 3489              	.LASF276:
 3490 03a6 55415254 		.ascii	"UART_READY\000"
 3490      5F524541 
 3490      445900
 3491              	.LASF179:
 3492 03b1 63686172 		.ascii	"char\000"
 3492      00
 3493              	.LASF160:
 3494 03b6 49464352 		.ascii	"IFCR\000"
 3494      00
 3495              	.LASF228:
 3496 03bb 73656D5F 		.ascii	"sem_list\000"
 3496      6C697374 
 3496      00
 3497              	.LASF8:
 3498 03c4 5F5F7569 		.ascii	"__uint16_t\000"
 3498      6E743136 
 3498      5F7400
 3499              	.LASF170:
 3500 03cf 77746F62 		.ascii	"wtobjp\000"
 3500      6A7000
 3501              	.LASF247:
 3502 03d6 70616C65 		.ascii	"palevent_t\000"
 3502      76656E74 
 3502      5F7400
 3503              	.LASF196:
 3504 03e1 6F66665F 		.ascii	"off_refs\000"
 3504      72656673 
 3504      00
 3505              	.LASF38:
 3506 03ea 666C6167 		.ascii	"flags\000"
 3506      7300
 3507              	.LASF165:
ARM GAS  C:\Users\14122\AppData\Local\Temp\ccz6EvhC.s 			page 66


 3508 03f0 73746B61 		.ascii	"stkalign_t\000"
 3508      6C69676E 
 3508      5F7400
 3509              	.LASF163:
 3510 03fb 55534152 		.ascii	"USART_TypeDef\000"
 3510      545F5479 
 3510      70654465 
 3510      6600
 3511              	.LASF126:
 3512 0409 55534257 		.ascii	"USBWakeUp_IRQn\000"
 3512      616B6555 
 3512      705F4952 
 3512      516E00
 3513              	.LASF45:
 3514 0418 6D706F6F 		.ascii	"mpool\000"
 3514      6C00
 3515              	.LASF114:
 3516 041e 54494D34 		.ascii	"TIM4_IRQn\000"
 3516      5F495251 
 3516      6E00
 3517              	.LASF122:
 3518 0428 55534152 		.ascii	"USART2_IRQn\000"
 3518      54325F49 
 3518      52516E00 
 3519              	.LASF202:
 3520 0434 6576656E 		.ascii	"event_listener_t\000"
 3520      745F6C69 
 3520      7374656E 
 3520      65725F74 
 3520      00
 3521              	.LASF185:
 3522 0445 70747273 		.ascii	"ptrsize\000"
 3522      697A6500 
 3523              	.LASF262:
 3524 044d 63616E73 		.ascii	"canstate_t\000"
 3524      74617465 
 3524      5F7400
 3525              	.LASF260:
 3526 0458 43414E5F 		.ascii	"CAN_READY\000"
 3526      52454144 
 3526      5900
 3527              	.LASF198:
 3528 0462 6F66665F 		.ascii	"off_time\000"
 3528      74696D65 
 3528      00
 3529              	.LASF242:
 3530 046b 646D615F 		.ascii	"dma_func\000"
 3530      66756E63 
 3530      00
 3531              	.LASF28:
 3532 0474 636E745F 		.ascii	"cnt_t\000"
 3532      7400
 3533              	.LASF115:
 3534 047a 49324331 		.ascii	"I2C1_EV_IRQn\000"
 3534      5F45565F 
 3534      4952516E 
 3534      00
ARM GAS  C:\Users\14122\AppData\Local\Temp\ccz6EvhC.s 			page 67


 3535              	.LASF301:
 3536 0487 72786368 		.ascii	"rxchar_cb\000"
 3536      61725F63 
 3536      6200
 3537              	.LASF221:
 3538 0491 64796E5F 		.ascii	"dyn_element_t\000"
 3538      656C656D 
 3538      656E745F 
 3538      7400
 3539              	.LASF303:
 3540 049f 73706565 		.ascii	"speed\000"
 3540      6400
 3541              	.LASF174:
 3542 04a5 77746D74 		.ascii	"wtmtxp\000"
 3542      787000
 3543              	.LASF55:
 3544 04ac 63685F72 		.ascii	"ch_ready_list\000"
 3544      65616479 
 3544      5F6C6973 
 3544      7400
 3545              	.LASF229:
 3546 04ba 73656D5F 		.ascii	"sem_pool\000"
 3546      706F6F6C 
 3546      00
 3547              	.LASF251:
 3548 04c3 50434461 		.ascii	"PCData\000"
 3548      746100
 3549              	.LASF111:
 3550 04ca 54494D31 		.ascii	"TIM1_CC_IRQn\000"
 3550      5F43435F 
 3550      4952516E 
 3550      00
 3551              	.LASF91:
 3552 04d7 45585449 		.ascii	"EXTI1_IRQn\000"
 3552      315F4952 
 3552      516E00
 3553              	.LASF211:
 3554 04e2 6E657874 		.ascii	"nextmem\000"
 3554      6D656D00 
 3555              	.LASF75:
 3556 04ea 4E6F6E4D 		.ascii	"NonMaskableInt_IRQn\000"
 3556      61736B61 
 3556      626C6549 
 3556      6E745F49 
 3556      52516E00 
 3557              	.LASF14:
 3558 04fe 5F5F7569 		.ascii	"__uint64_t\000"
 3558      6E743634 
 3558      5F7400
 3559              	.LASF194:
 3560 0509 6F66665F 		.ascii	"off_state\000"
 3560      73746174 
 3560      6500
 3561              	.LASF84:
 3562 0513 57574447 		.ascii	"WWDG_IRQn\000"
 3562      5F495251 
 3562      6E00
ARM GAS  C:\Users\14122\AppData\Local\Temp\ccz6EvhC.s 			page 68


 3563              	.LASF13:
 3564 051d 6C6F6E67 		.ascii	"long unsigned int\000"
 3564      20756E73 
 3564      69676E65 
 3564      6420696E 
 3564      7400
 3565              	.LASF187:
 3566 052f 74687265 		.ascii	"threadsize\000"
 3566      61647369 
 3566      7A6500
 3567              	.LASF304:
 3568 053a 55415254 		.ascii	"UARTConfig\000"
 3568      436F6E66 
 3568      696700
 3569              	.LASF77:
 3570 0545 4D656D6F 		.ascii	"MemoryManagement_IRQn\000"
 3570      72794D61 
 3570      6E616765 
 3570      6D656E74 
 3570      5F495251 
 3571              	.LASF98:
 3572 055b 444D4131 		.ascii	"DMA1_Channel4_IRQn\000"
 3572      5F436861 
 3572      6E6E656C 
 3572      345F4952 
 3572      516E00
 3573              	.LASF128:
 3574 056e 53797374 		.ascii	"SystemCoreClock\000"
 3574      656D436F 
 3574      7265436C 
 3574      6F636B00 
 3575              	.LASF176:
 3576 057e 63685F73 		.ascii	"ch_semaphore\000"
 3576      656D6170 
 3576      686F7265 
 3576      00
 3577              	.LASF237:
 3578 058b 73686966 		.ascii	"shift\000"
 3578      7400
 3579              	.LASF234:
 3580 0591 6368616E 		.ascii	"channel\000"
 3580      6E656C00 
 3581              	.LASF48:
 3582 0599 63685F74 		.ascii	"ch_thread\000"
 3582      68726561 
 3582      6400
 3583              	.LASF106:
 3584 05a3 43414E31 		.ascii	"CAN1_SCE_IRQn\000"
 3584      5F534345 
 3584      5F495251 
 3584      6E00
 3585              	.LASF62:
 3586 05b1 76697274 		.ascii	"virtual_timers_list_t\000"
 3586      75616C5F 
 3586      74696D65 
 3586      72735F6C 
 3586      6973745F 
ARM GAS  C:\Users\14122\AppData\Local\Temp\ccz6EvhC.s 			page 69


 3587              	.LASF180:
 3588 05c7 63685F69 		.ascii	"ch_idle_thread_wa\000"
 3588      646C655F 
 3588      74687265 
 3588      61645F77 
 3588      6100
 3589              	.LASF245:
 3590 05d9 5F73746D 		.ascii	"_stm32_dma_streams\000"
 3590      33325F64 
 3590      6D615F73 
 3590      74726561 
 3590      6D7300
 3591              	.LASF299:
 3592 05ec 7478656E 		.ascii	"txend2_cb\000"
 3592      64325F63 
 3592      6200
 3593              	.LASF231:
 3594 05f6 6669666F 		.ascii	"fifo_list\000"
 3594      5F6C6973 
 3594      7400
 3595              	.LASF58:
 3596 0600 76697274 		.ascii	"virtual_timer_t\000"
 3596      75616C5F 
 3596      74696D65 
 3596      725F7400 
 3597              	.LASF54:
 3598 0610 72656164 		.ascii	"ready_list_t\000"
 3598      795F6C69 
 3598      73745F74 
 3598      00
 3599              	.LASF34:
 3600 061d 6F6C6465 		.ascii	"older\000"
 3600      7200
 3601              	.LASF297:
 3602 0623 75617274 		.ascii	"uartecb_t\000"
 3602      6563625F 
 3602      7400
 3603              	.LASF44:
 3604 062d 7265616C 		.ascii	"realprio\000"
 3604      7072696F 
 3604      00
 3605              	.LASF29:
 3606 0636 75636E74 		.ascii	"ucnt_t\000"
 3606      5F7400
 3607              	.LASF193:
 3608 063d 6F66665F 		.ascii	"off_stklimit\000"
 3608      73746B6C 
 3608      696D6974 
 3608      00
 3609              	.LASF118:
 3610 064a 49324332 		.ascii	"I2C2_ER_IRQn\000"
 3610      5F45525F 
 3610      4952516E 
 3610      00
 3611              	.LASF215:
 3612 0657 706F6F6C 		.ascii	"pool_header\000"
 3612      5F686561 
ARM GAS  C:\Users\14122\AppData\Local\Temp\ccz6EvhC.s 			page 70


 3612      64657200 
 3613              	.LASF274:
 3614 0663 55415254 		.ascii	"UART_UNINIT\000"
 3614      5F554E49 
 3614      4E495400 
 3615              	.LASF49:
 3616 066f 63685F74 		.ascii	"ch_threads_list\000"
 3616      68726561 
 3616      64735F6C 
 3616      69737400 
 3617              	.LASF284:
 3618 067f 55415254 		.ascii	"UART_RX_COMPLETE\000"
 3618      5F52585F 
 3618      434F4D50 
 3618      4C455445 
 3618      00
 3619              	.LASF78:
 3620 0690 42757346 		.ascii	"BusFault_IRQn\000"
 3620      61756C74 
 3620      5F495251 
 3620      6E00
 3621              	.LASF294:
 3622 069e 72786275 		.ascii	"rxbuf\000"
 3622      6600
 3623              	.LASF292:
 3624 06a4 646D6172 		.ascii	"dmarx\000"
 3624      7800
 3625              	.LASF12:
 3626 06aa 5F5F7569 		.ascii	"__uint32_t\000"
 3626      6E743332 
 3626      5F7400
 3627              	.LASF43:
 3628 06b5 6D74786C 		.ascii	"mtxlist\000"
 3628      69737400 
 3629              	.LASF1:
 3630 06bd 6C6F6E67 		.ascii	"long long int\000"
 3630      206C6F6E 
 3630      6720696E 
 3630      7400
 3631              	.LASF259:
 3632 06cb 43414E5F 		.ascii	"CAN_STARTING\000"
 3632      53544152 
 3632      54494E47 
 3632      00
 3633              	.LASF74:
 3634 06d8 73797369 		.ascii	"sysinterval_t\000"
 3634      6E746572 
 3634      76616C5F 
 3634      7400
 3635              	.LASF224:
 3636 06e6 63685F6F 		.ascii	"ch_objects_factory\000"
 3636      626A6563 
 3636      74735F66 
 3636      6163746F 
 3636      727900
 3637              	.LASF119:
 3638 06f9 53504931 		.ascii	"SPI1_IRQn\000"
ARM GAS  C:\Users\14122\AppData\Local\Temp\ccz6EvhC.s 			page 71


 3638      5F495251 
 3638      6E00
 3639              	.LASF80:
 3640 0703 53564361 		.ascii	"SVCall_IRQn\000"
 3640      6C6C5F49 
 3640      52516E00 
 3641              	.LASF208:
 3642 070f 6576656E 		.ascii	"event_source_t\000"
 3642      745F736F 
 3642      75726365 
 3642      5F7400
 3643              	.LASF217:
 3644 071e 616C6967 		.ascii	"align\000"
 3644      6E00
 3645              	.LASF127:
 3646 0724 49544D5F 		.ascii	"ITM_RxBuffer\000"
 3646      52784275 
 3646      66666572 
 3646      00
 3647              	.LASF250:
 3648 0731 50424461 		.ascii	"PBData\000"
 3648      746100
 3649              	.LASF291:
 3650 0738 646D616D 		.ascii	"dmamode\000"
 3650      6F646500 
 3651              	.LASF257:
 3652 0740 43414E5F 		.ascii	"CAN_UNINIT\000"
 3652      554E494E 
 3652      495400
 3653              	.LASF286:
 3654 074b 75617274 		.ascii	"uartflags_t\000"
 3654      666C6167 
 3654      735F7400 
 3655              	.LASF293:
 3656 0757 646D6174 		.ascii	"dmatx\000"
 3656      7800
 3657              	.LASF261:
 3658 075d 43414E5F 		.ascii	"CAN_SLEEP\000"
 3658      534C4545 
 3658      5000
 3659              	.LASF190:
 3660 0767 6F66665F 		.ascii	"off_newer\000"
 3660      6E657765 
 3660      7200
 3661              	.LASF238:
 3662 0771 73656C66 		.ascii	"selfindex\000"
 3662      696E6465 
 3662      7800
 3663              	.LASF302:
 3664 077b 72786572 		.ascii	"rxerr_cb\000"
 3664      725F6362 
 3664      00
 3665              	.LASF0:
 3666 0784 756E7369 		.ascii	"unsigned int\000"
 3666      676E6564 
 3666      20696E74 
 3666      00
ARM GAS  C:\Users\14122\AppData\Local\Temp\ccz6EvhC.s 			page 72


 3667              	.LASF117:
 3668 0791 49324332 		.ascii	"I2C2_EV_IRQn\000"
 3668      5F45565F 
 3668      4952516E 
 3668      00
 3669              	.LASF241:
 3670 079e 73746D33 		.ascii	"stm32_dmaisr_t\000"
 3670      325F646D 
 3670      61697372 
 3670      5F7400
 3671              	.LASF146:
 3672 07ad 464D3152 		.ascii	"FM1R\000"
 3672      00
 3673              	.LASF137:
 3674 07b2 52444852 		.ascii	"RDHR\000"
 3674      00
 3675              	.LASF158:
 3676 07b7 434D4152 		.ascii	"CMAR\000"
 3676      00
 3677              	.LASF101:
 3678 07bc 444D4131 		.ascii	"DMA1_Channel7_IRQn\000"
 3678      5F436861 
 3678      6E6E656C 
 3678      375F4952 
 3678      516E00
 3679              	.LASF133:
 3680 07cf 54444852 		.ascii	"TDHR\000"
 3680      00
 3681              	.LASF56:
 3682 07d4 63757272 		.ascii	"current\000"
 3682      656E7400 
 3683              	.LASF269:
 3684 07dc 6572726F 		.ascii	"error_event\000"
 3684      725F6576 
 3684      656E7400 
 3685              	.LASF155:
 3686 07e8 43414E5F 		.ascii	"CAN_TypeDef\000"
 3686      54797065 
 3686      44656600 
 3687              	.LASF244:
 3688 07f4 646D615F 		.ascii	"dma_isr_redir_t\000"
 3688      6973725F 
 3688      72656469 
 3688      725F7400 
 3689              	.LASF310:
 3690 0804 474E5520 		.ascii	"GNU C11 7.2.1 20170904 (release) [ARM/embedded-7-br"
 3690      43313120 
 3690      372E322E 
 3690      31203230 
 3690      31373039 
 3691 0837 616E6368 		.ascii	"anch revision 255204] -mcpu=cortex-m3 -mthumb -ggdb"
 3691      20726576 
 3691      6973696F 
 3691      6E203235 
 3691      35323034 
 3692 086a 202D4F32 		.ascii	" -O2 -fomit-frame-pointer -falign-functions=16 -ffu"
 3692      202D666F 
ARM GAS  C:\Users\14122\AppData\Local\Temp\ccz6EvhC.s 			page 73


 3692      6D69742D 
 3692      6672616D 
 3692      652D706F 
 3693 089d 6E637469 		.ascii	"nction-sections -fdata-sections -fno-common\000"
 3693      6F6E2D73 
 3693      65637469 
 3693      6F6E7320 
 3693      2D666461 
 3694              	.LASF154:
 3695 08c9 7346696C 		.ascii	"sFilterRegister\000"
 3695      74657252 
 3695      65676973 
 3695      74657200 
 3696              	.LASF256:
 3697 08d9 5F70616C 		.ascii	"_pal_events\000"
 3697      5F657665 
 3697      6E747300 
 3698              	.LASF30:
 3699 08e5 74687265 		.ascii	"thread_t\000"
 3699      61645F74 
 3699      00
 3700              	.LASF2:
 3701 08ee 6C6F6E67 		.ascii	"long double\000"
 3701      20646F75 
 3701      626C6500 
 3702              	.LASF206:
 3703 08fa 77666C61 		.ascii	"wflags\000"
 3703      677300
 3704              	.LASF308:
 3705 0901 6E766963 		.ascii	"nvicDisableVector\000"
 3705      44697361 
 3705      626C6556 
 3705      6563746F 
 3705      7200
 3706              	.LASF46:
 3707 0913 74687265 		.ascii	"thread_reference_t\000"
 3707      61645F72 
 3707      65666572 
 3707      656E6365 
 3707      5F7400
 3708              	.LASF172:
 3709 0926 73656E74 		.ascii	"sentmsg\000"
 3709      6D736700 
 3710              	.LASF167:
 3711 092e 706F7274 		.ascii	"port_intctx\000"
 3711      5F696E74 
 3711      63747800 
 3712              	.LASF232:
 3713 093a 6F626A65 		.ascii	"objects_factory_t\000"
 3713      6374735F 
 3713      66616374 
 3713      6F72795F 
 3713      7400
 3714              	.LASF227:
 3715 094c 6275665F 		.ascii	"buf_list\000"
 3715      6C697374 
 3715      00
ARM GAS  C:\Users\14122\AppData\Local\Temp\ccz6EvhC.s 			page 74


 3716              	.LASF235:
 3717 0955 636D6173 		.ascii	"cmask\000"
 3717      6B00
 3718              	.LASF110:
 3719 095b 54494D31 		.ascii	"TIM1_TRG_COM_IRQn\000"
 3719      5F545247 
 3719      5F434F4D 
 3719      5F495251 
 3719      6E00
 3720              	.LASF159:
 3721 096d 444D415F 		.ascii	"DMA_Channel_TypeDef\000"
 3721      4368616E 
 3721      6E656C5F 
 3721      54797065 
 3721      44656600 
 3722              	.LASF129:
 3723 0981 41484250 		.ascii	"AHBPrescTable\000"
 3723      72657363 
 3723      5461626C 
 3723      6500
 3724              	.LASF59:
 3725 098f 63685F76 		.ascii	"ch_virtual_timer\000"
 3725      69727475 
 3725      616C5F74 
 3725      696D6572 
 3725      00
 3726              	.LASF125:
 3727 09a0 5254435F 		.ascii	"RTC_Alarm_IRQn\000"
 3727      416C6172 
 3727      6D5F4952 
 3727      516E00
 3728              	.LASF183:
 3729 09af 73697A65 		.ascii	"size\000"
 3729      00
 3730              	.LASF124:
 3731 09b4 45585449 		.ascii	"EXTI15_10_IRQn\000"
 3731      31355F31 
 3731      305F4952 
 3731      516E00
 3732              	.LASF15:
 3733 09c3 6C6F6E67 		.ascii	"long long unsigned int\000"
 3733      206C6F6E 
 3733      6720756E 
 3733      7369676E 
 3733      65642069 
 3734              	.LASF249:
 3735 09da 50414461 		.ascii	"PAData\000"
 3735      746100
 3736              	.LASF17:
 3737 09e1 75696E74 		.ascii	"uint16_t\000"
 3737      31365F74 
 3737      00
 3738              	.LASF283:
 3739 09ea 55415254 		.ascii	"UART_RX_ACTIVE\000"
 3739      5F52585F 
 3739      41435449 
 3739      564500
ARM GAS  C:\Users\14122\AppData\Local\Temp\ccz6EvhC.s 			page 75


 3740              	.LASF192:
 3741 09f9 6F66665F 		.ascii	"off_name\000"
 3741      6E616D65 
 3741      00
 3742              	.LASF25:
 3743 0a02 6D73675F 		.ascii	"msg_t\000"
 3743      7400
 3744              	.LASF52:
 3745 0a08 63685F74 		.ascii	"ch_threads_queue\000"
 3745      68726561 
 3745      64735F71 
 3745      75657565 
 3745      00
 3746              	.LASF27:
 3747 0a19 6576656E 		.ascii	"eventflags_t\000"
 3747      74666C61 
 3747      67735F74 
 3747      00
 3748              	.LASF113:
 3749 0a26 54494D33 		.ascii	"TIM3_IRQn\000"
 3749      5F495251 
 3749      6E00
 3750              	.LASF121:
 3751 0a30 55534152 		.ascii	"USART1_IRQn\000"
 3751      54315F49 
 3751      52516E00 
 3752              	.LASF60:
 3753 0a3c 64656C74 		.ascii	"delta\000"
 3753      6100
 3754              	.LASF136:
 3755 0a42 52444C52 		.ascii	"RDLR\000"
 3755      00
 3756              	.LASF138:
 3757 0a47 43414E5F 		.ascii	"CAN_FIFOMailBox_TypeDef\000"
 3757      4649464F 
 3757      4D61696C 
 3757      426F785F 
 3757      54797065 
 3758              	.LASF39:
 3759 0a5f 72656673 		.ascii	"refs\000"
 3759      00
 3760              	.LASF31:
 3761 0a64 71756575 		.ascii	"queue\000"
 3761      6500
 3762              	.LASF132:
 3763 0a6a 54444C52 		.ascii	"TDLR\000"
 3763      00
 3764              	.LASF239:
 3765 0a6f 76656374 		.ascii	"vector\000"
 3765      6F7200
 3766              	.LASF233:
 3767 0a76 63685F66 		.ascii	"ch_factory\000"
 3767      6163746F 
 3767      727900
 3768              	.LASF266:
 3769 0a81 72787175 		.ascii	"rxqueue\000"
 3769      65756500 
ARM GAS  C:\Users\14122\AppData\Local\Temp\ccz6EvhC.s 			page 76


 3770              	.LASF230:
 3771 0a89 6D62785F 		.ascii	"mbx_list\000"
 3771      6C697374 
 3771      00
 3772              	.LASF72:
 3773 0a92 6D61696E 		.ascii	"mainthread\000"
 3773      74687265 
 3773      616400
 3774              	.LASF184:
 3775 0a9d 76657273 		.ascii	"version\000"
 3775      696F6E00 
 3776              	.LASF280:
 3777 0aa5 55415254 		.ascii	"UART_TX_COMPLETE\000"
 3777      5F54585F 
 3777      434F4D50 
 3777      4C455445 
 3777      00
 3778              	.LASF285:
 3779 0ab6 75617274 		.ascii	"uartrxstate_t\000"
 3779      72787374 
 3779      6174655F 
 3779      7400
 3780              	.LASF36:
 3781 0ac4 77616261 		.ascii	"wabase\000"
 3781      736500
 3782              	.LASF85:
 3783 0acb 5056445F 		.ascii	"PVD_IRQn\000"
 3783      4952516E 
 3783      00
 3784              	.LASF296:
 3785 0ad4 75617274 		.ascii	"uartccb_t\000"
 3785      6363625F 
 3785      7400
 3786              	.LASF219:
 3787 0ade 6D656D6F 		.ascii	"memory_pool_t\000"
 3787      72795F70 
 3787      6F6F6C5F 
 3787      7400
 3788              	.LASF90:
 3789 0aec 45585449 		.ascii	"EXTI0_IRQn\000"
 3789      305F4952 
 3789      516E00
 3790              	.LASF70:
 3791 0af7 726C6973 		.ascii	"rlist\000"
 3791      7400
 3792              	.LASF21:
 3793 0afd 746D6F64 		.ascii	"tmode_t\000"
 3793      655F7400 
 3794              	.LASF236:
 3795 0b05 64756D6D 		.ascii	"dummy\000"
 3795      7900
 3796              	.LASF298:
 3797 0b0b 7478656E 		.ascii	"txend1_cb\000"
 3797      64315F63 
 3797      6200
 3798              	.LASF81:
 3799 0b15 44656275 		.ascii	"DebugMonitor_IRQn\000"
ARM GAS  C:\Users\14122\AppData\Local\Temp\ccz6EvhC.s 			page 77


 3799      674D6F6E 
 3799      69746F72 
 3799      5F495251 
 3799      6E00
 3800              	.LASF282:
 3801 0b27 55415254 		.ascii	"UART_RX_IDLE\000"
 3801      5F52585F 
 3801      49444C45 
 3801      00
 3802              	.LASF148:
 3803 0b34 46533152 		.ascii	"FS1R\000"
 3803      00
 3804              	.LASF104:
 3805 0b39 5553425F 		.ascii	"USB_LP_CAN1_RX0_IRQn\000"
 3805      4C505F43 
 3805      414E315F 
 3805      5258305F 
 3805      4952516E 
 3806              	.LASF35:
 3807 0b4e 6E616D65 		.ascii	"name\000"
 3807      00
 3808              	.LASF204:
 3809 0b53 6C697374 		.ascii	"listener\000"
 3809      656E6572 
 3809      00
 3810              	.LASF97:
 3811 0b5c 444D4131 		.ascii	"DMA1_Channel3_IRQn\000"
 3811      5F436861 
 3811      6E6E656C 
 3811      335F4952 
 3811      516E00
 3812              	.LASF130:
 3813 0b6f 41504250 		.ascii	"APBPrescTable\000"
 3813      72657363 
 3813      5461626C 
 3813      6500
 3814              	.LASF134:
 3815 0b7d 43414E5F 		.ascii	"CAN_TxMailBox_TypeDef\000"
 3815      54784D61 
 3815      696C426F 
 3815      785F5479 
 3815      70654465 
 3816              	.LASF246:
 3817 0b93 5F73746D 		.ascii	"_stm32_dma_isr_redir\000"
 3817      33325F64 
 3817      6D615F69 
 3817      73725F72 
 3817      65646972 
 3818              	.LASF7:
 3819 0ba8 73686F72 		.ascii	"short int\000"
 3819      7420696E 
 3819      7400
 3820              	.LASF207:
 3821 0bb2 6576656E 		.ascii	"event_source\000"
 3821      745F736F 
 3821      75726365 
 3821      00
ARM GAS  C:\Users\14122\AppData\Local\Temp\ccz6EvhC.s 			page 78


 3822              	.LASF20:
 3823 0bbf 75696E74 		.ascii	"uint64_t\000"
 3823      36345F74 
 3823      00
 3824              	.LASF89:
 3825 0bc8 5243435F 		.ascii	"RCC_IRQn\000"
 3825      4952516E 
 3825      00
 3826              	.LASF61:
 3827 0bd1 66756E63 		.ascii	"func\000"
 3827      00
 3828              	.LASF177:
 3829 0bd6 63685F6D 		.ascii	"ch_mutex\000"
 3829      75746578 
 3829      00
 3830              	.LASF150:
 3831 0bdf 46464131 		.ascii	"FFA1R\000"
 3831      5200
 3832              	.LASF41:
 3833 0be5 6D736771 		.ascii	"msgqueue\000"
 3833      75657565 
 3833      00
 3834              	.LASF265:
 3835 0bee 74787175 		.ascii	"txqueue\000"
 3835      65756500 
 3836              	.LASF277:
 3837 0bf6 75617274 		.ascii	"uartstate_t\000"
 3837      73746174 
 3837      655F7400 
 3838              	.LASF102:
 3839 0c02 41444331 		.ascii	"ADC1_2_IRQn\000"
 3839      5F325F49 
 3839      52516E00 
 3840              	.LASF66:
 3841 0c0e 63685F73 		.ascii	"ch_system_debug\000"
 3841      79737465 
 3841      6D5F6465 
 3841      62756700 
 3842              	.LASF223:
 3843 0c1e 64796E5F 		.ascii	"dyn_list_t\000"
 3843      6C697374 
 3843      5F7400
 3844              	.LASF254:
 3845 0c29 50414C43 		.ascii	"PALConfig\000"
 3845      6F6E6669 
 3845      6700
 3846              	.LASF243:
 3847 0c33 646D615F 		.ascii	"dma_param\000"
 3847      70617261 
 3847      6D00
 3848              	.LASF216:
 3849 0c3d 6F626A65 		.ascii	"object_size\000"
 3849      63745F73 
 3849      697A6500 
 3850              	.LASF307:
 3851 0c49 69727149 		.ascii	"irqInit\000"
 3851      6E697400 
ARM GAS  C:\Users\14122\AppData\Local\Temp\ccz6EvhC.s 			page 79


 3852              	.LASF71:
 3853 0c51 76746C69 		.ascii	"vtlist\000"
 3853      737400
 3854              	.LASF96:
 3855 0c58 444D4131 		.ascii	"DMA1_Channel2_IRQn\000"
 3855      5F436861 
 3855      6E6E656C 
 3855      325F4952 
 3855      516E00
 3856              	.LASF40:
 3857 0c6b 77616974 		.ascii	"waiting\000"
 3857      696E6700 
 3858              	.LASF201:
 3859 0c73 6D757465 		.ascii	"mutex_t\000"
 3859      785F7400 
 3860              	.LASF23:
 3861 0c7b 74726566 		.ascii	"trefs_t\000"
 3861      735F7400 
 3862              	.LASF166:
 3863 0c83 706F7274 		.ascii	"port_context\000"
 3863      5F636F6E 
 3863      74657874 
 3863      00
 3864              	.LASF47:
 3865 0c90 74687265 		.ascii	"threads_list_t\000"
 3865      6164735F 
 3865      6C697374 
 3865      5F7400
 3866              	.LASF278:
 3867 0c9f 55415254 		.ascii	"UART_TX_IDLE\000"
 3867      5F54585F 
 3867      49444C45 
 3867      00
 3868              	.LASF295:
 3869 0cac 75617274 		.ascii	"uartcb_t\000"
 3869      63625F74 
 3869      00
 3870              	.LASF69:
 3871 0cb5 63685F73 		.ascii	"ch_system\000"
 3871      79737465 
 3871      6D00
 3872              	.LASF33:
 3873 0cbf 6E657765 		.ascii	"newer\000"
 3873      7200
 3874              	.LASF309:
 3875 0cc5 6E766963 		.ascii	"nvicEnableVector\000"
 3875      456E6162 
 3875      6C655665 
 3875      63746F72 
 3875      00
 3876              	.LASF19:
 3877 0cd6 75696E74 		.ascii	"uint32_t\000"
 3877      33325F74 
 3877      00
 3878              	.LASF109:
 3879 0cdf 54494D31 		.ascii	"TIM1_UP_IRQn\000"
 3879      5F55505F 
ARM GAS  C:\Users\14122\AppData\Local\Temp\ccz6EvhC.s 			page 80


 3879      4952516E 
 3879      00
 3880              	.LASF105:
 3881 0cec 43414E31 		.ascii	"CAN1_RX1_IRQn\000"
 3881      5F525831 
 3881      5F495251 
 3881      6E00
 3882              	.LASF107:
 3883 0cfa 45585449 		.ascii	"EXTI9_5_IRQn\000"
 3883      395F355F 
 3883      4952516E 
 3883      00
 3884              	.LASF203:
 3885 0d07 6576656E 		.ascii	"event_listener\000"
 3885      745F6C69 
 3885      7374656E 
 3885      657200
 3886              	.LASF168:
 3887 0d16 7264796D 		.ascii	"rdymsg\000"
 3887      736700
 3888              	.LASF94:
 3889 0d1d 45585449 		.ascii	"EXTI4_IRQn\000"
 3889      345F4952 
 3889      516E00
 3890              	.LASF9:
 3891 0d28 73686F72 		.ascii	"short unsigned int\000"
 3891      7420756E 
 3891      7369676E 
 3891      65642069 
 3891      6E7400
 3892              	.LASF68:
 3893 0d3b 63685F73 		.ascii	"ch_system_t\000"
 3893      79737465 
 3893      6D5F7400 
 3894              	.LASF199:
 3895 0d47 63686465 		.ascii	"chdebug_t\000"
 3895      6275675F 
 3895      7400
 3896              	.LASF311:
 3897 0d51 2E2F2F6F 		.ascii	".//os/hal/ports/STM32/STM32F1xx/stm32_isr.c\000"
 3897      732F6861 
 3897      6C2F706F 
 3897      7274732F 
 3897      53544D33 
 3898              	.LASF93:
 3899 0d7d 45585449 		.ascii	"EXTI3_IRQn\000"
 3899      335F4952 
 3899      516E00
 3900              	.LASF82:
 3901 0d88 50656E64 		.ascii	"PendSV_IRQn\000"
 3901      53565F49 
 3901      52516E00 
 3902              	.LASF143:
 3903 0d94 7354784D 		.ascii	"sTxMailBox\000"
 3903      61696C42 
 3903      6F7800
 3904              	.LASF186:
ARM GAS  C:\Users\14122\AppData\Local\Temp\ccz6EvhC.s 			page 81


 3905 0d9f 74696D65 		.ascii	"timesize\000"
 3905      73697A65 
 3905      00
 3906              	.LASF305:
 3907 0da8 55415254 		.ascii	"UARTD2\000"
 3907      443200
 3908              	.LASF10:
 3909 0daf 5F5F696E 		.ascii	"__int32_t\000"
 3909      7433325F 
 3909      7400
 3910              	.LASF214:
 3911 0db9 63685F6D 		.ascii	"ch_memcore\000"
 3911      656D636F 
 3911      726500
 3912              	.LASF195:
 3913 0dc4 6F66665F 		.ascii	"off_flags\000"
 3913      666C6167 
 3913      7300
 3914              	.LASF76:
 3915 0dce 48617264 		.ascii	"HardFault_IRQn\000"
 3915      4661756C 
 3915      745F4952 
 3915      516E00
 3916              	.LASF258:
 3917 0ddd 43414E5F 		.ascii	"CAN_STOP\000"
 3917      53544F50 
 3917      00
 3918              	.LASF205:
 3919 0de6 6576656E 		.ascii	"events\000"
 3919      747300
 3920              	.LASF50:
 3921 0ded 6E657874 		.ascii	"next\000"
 3921      00
 3922              	.LASF100:
 3923 0df2 444D4131 		.ascii	"DMA1_Channel6_IRQn\000"
 3923      5F436861 
 3923      6E6E656C 
 3923      365F4952 
 3923      516E00
 3924              	.LASF135:
 3925 0e05 52445452 		.ascii	"RDTR\000"
 3925      00
 3926              	.LASF53:
 3927 0e0a 70726576 		.ascii	"prev\000"
 3927      00
 3928              	.LASF222:
 3929 0e0f 63685F64 		.ascii	"ch_dyn_list\000"
 3929      796E5F6C 
 3929      69737400 
 3930              	.LASF181:
 3931 0e1b 6964656E 		.ascii	"identifier\000"
 3931      74696669 
 3931      657200
 3932              	.LASF131:
 3933 0e26 54445452 		.ascii	"TDTR\000"
 3933      00
 3934              	.LASF87:
ARM GAS  C:\Users\14122\AppData\Local\Temp\ccz6EvhC.s 			page 82


 3935 0e2b 5254435F 		.ascii	"RTC_IRQn\000"
 3935      4952516E 
 3935      00
 3936              	.LASF273:
 3937 0e34 43414E44 		.ascii	"CAND1\000"
 3937      3100
 3938              	.LASF268:
 3939 0e3a 7478656D 		.ascii	"txempty_event\000"
 3939      7074795F 
 3939      6576656E 
 3939      7400
 3940              	.LASF312:
 3941 0e48 443A5C68 		.ascii	"D:\\hkust\\robomaster\\eclipse___files\\cundang\\as"
 3941      6B757374 
 3941      5C726F62 
 3941      6F6D6173 
 3941      7465725C 
 3942 0e76 7369676E 		.ascii	"signment2-master_10.20_turret_2\000"
 3942      6D656E74 
 3942      322D6D61 
 3942      73746572 
 3942      5F31302E 
 3943              		.ident	"GCC: (GNU Tools for Arm Embedded Processors 7-2017-q4-major) 7.2.1 20170904 (release) [ARM
ARM GAS  C:\Users\14122\AppData\Local\Temp\ccz6EvhC.s 			page 83


DEFINED SYMBOLS
                            *ABS*:00000000 stm32_isr.c
C:\Users\14122\AppData\Local\Temp\ccz6EvhC.s:16     .text.irqInit:00000000 $t
C:\Users\14122\AppData\Local\Temp\ccz6EvhC.s:24     .text.irqInit:00000000 irqInit
C:\Users\14122\AppData\Local\Temp\ccz6EvhC.s:81     .text.irqDeinit:00000000 $t
C:\Users\14122\AppData\Local\Temp\ccz6EvhC.s:89     .text.irqDeinit:00000000 irqDeinit

UNDEFINED SYMBOLS
nvicEnableVector
nvicDisableVector
