ARM GAS  C:\Users\14122\AppData\Local\Temp\ccz6EvhC.s 			page 1


   1              		.cpu cortex-m3
   2              		.eabi_attribute 20, 1
   3              		.eabi_attribute 21, 1
   4              		.eabi_attribute 23, 3
   5              		.eabi_attribute 24, 1
   6              		.eabi_attribute 25, 1
   7              		.eabi_attribute 26, 1
   8              		.eabi_attribute 30, 2
   9              		.eabi_attribute 34, 1
  10              		.eabi_attribute 18, 4
  11              		.file	"stm32_isr.c"
  12              		.text
  13              	.Ltext0:
  14              		.cfi_sections	.debug_frame
  15              		.section	.text.irqInit,"ax",%progbits
  16              		.align	1
  17              		.p2align 4,,15
  18              		.global	irqInit
  19              		.syntax unified
  20              		.thumb
  21              		.thumb_func
  22              		.fpu softvfp
  23              		.type	irqInit, %function
  24              	irqInit:
  25              	.LFB253:
  26              		.file 1 ".//os/hal/ports/STM32/STM32F1xx/stm32_isr.c"
  27              		.loc 1 224 0
  28              		.cfi_startproc
  29              		@ args = 0, pretend = 0, frame = 0
  30              		@ frame_needed = 0, uses_anonymous_args = 0
  31              		.loc 1 227 0
  32 0000 0621     		movs	r1, #6
  33              		.loc 1 224 0
  34 0002 08B5     		push	{r3, lr}
  35              		.cfi_def_cfa_offset 8
  36              		.cfi_offset 3, -8
  37              		.cfi_offset 14, -4
  38              		.loc 1 227 0
  39 0004 0846     		mov	r0, r1
  40 0006 FFF7FEFF 		bl	nvicEnableVector
  41              	.LVL0:
  42              		.loc 1 228 0
  43 000a 0621     		movs	r1, #6
  44 000c 0720     		movs	r0, #7
  45 000e FFF7FEFF 		bl	nvicEnableVector
  46              	.LVL1:
  47              		.loc 1 229 0
  48 0012 0621     		movs	r1, #6
  49 0014 0820     		movs	r0, #8
  50 0016 FFF7FEFF 		bl	nvicEnableVector
  51              	.LVL2:
  52              		.loc 1 230 0
  53 001a 0621     		movs	r1, #6
  54 001c 0920     		movs	r0, #9
  55 001e FFF7FEFF 		bl	nvicEnableVector
  56              	.LVL3:
  57              		.loc 1 231 0
ARM GAS  C:\Users\14122\AppData\Local\Temp\ccz6EvhC.s 			page 2


  58 0022 0621     		movs	r1, #6
  59 0024 0A20     		movs	r0, #10
  60 0026 FFF7FEFF 		bl	nvicEnableVector
  61              	.LVL4:
  62              		.loc 1 232 0
  63 002a 0621     		movs	r1, #6
  64 002c 1720     		movs	r0, #23
  65 002e FFF7FEFF 		bl	nvicEnableVector
  66              	.LVL5:
  67              		.loc 1 235 0
  68 0032 BDE80840 		pop	{r3, lr}
  69              		.cfi_restore 14
  70              		.cfi_restore 3
  71              		.cfi_def_cfa_offset 0
  72              		.loc 1 233 0
  73 0036 0621     		movs	r1, #6
  74 0038 2820     		movs	r0, #40
  75 003a FFF7FEBF 		b	nvicEnableVector
  76              	.LVL6:
  77              		.cfi_endproc
  78              	.LFE253:
  79              		.size	irqInit, .-irqInit
  80 003e 00BF     		.section	.text.irqDeinit,"ax",%progbits
  81              		.align	1
  82              		.p2align 4,,15
  83              		.global	irqDeinit
  84              		.syntax unified
  85              		.thumb
  86              		.thumb_func
  87              		.fpu softvfp
  88              		.type	irqDeinit, %function
  89              	irqDeinit:
  90              	.LFB254:
  91              		.loc 1 242 0
  92              		.cfi_startproc
  93              		@ args = 0, pretend = 0, frame = 0
  94              		@ frame_needed = 0, uses_anonymous_args = 0
  95 0000 08B5     		push	{r3, lr}
  96              		.cfi_def_cfa_offset 8
  97              		.cfi_offset 3, -8
  98              		.cfi_offset 14, -4
  99              		.loc 1 245 0
 100 0002 0620     		movs	r0, #6
 101 0004 FFF7FEFF 		bl	nvicDisableVector
 102              	.LVL7:
 103              		.loc 1 246 0
 104 0008 0720     		movs	r0, #7
 105 000a FFF7FEFF 		bl	nvicDisableVector
 106              	.LVL8:
 107              		.loc 1 247 0
 108 000e 0820     		movs	r0, #8
 109 0010 FFF7FEFF 		bl	nvicDisableVector
 110              	.LVL9:
 111              		.loc 1 248 0
 112 0014 0920     		movs	r0, #9
 113 0016 FFF7FEFF 		bl	nvicDisableVector
 114              	.LVL10:
ARM GAS  C:\Users\14122\AppData\Local\Temp\ccz6EvhC.s 			page 3


 115              		.loc 1 249 0
 116 001a 0A20     		movs	r0, #10
 117 001c FFF7FEFF 		bl	nvicDisableVector
 118              	.LVL11:
 119              		.loc 1 250 0
 120 0020 1720     		movs	r0, #23
 121 0022 FFF7FEFF 		bl	nvicDisableVector
 122              	.LVL12:
 123              		.loc 1 253 0
 124 0026 BDE80840 		pop	{r3, lr}
 125              		.cfi_restore 14
 126              		.cfi_restore 3
 127              		.cfi_def_cfa_offset 0
 128              		.loc 1 251 0
 129 002a 2820     		movs	r0, #40
 130 002c FFF7FEBF 		b	nvicDisableVector
 131              	.LVL13:
 132              		.cfi_endproc
 133              	.LFE254:
 134              		.size	irqDeinit, .-irqDeinit
 135              		.text
 136              	.Letext0:
 137              		.file 2 "c:\\chibistudio\\tools\\gnu tools arm embedded\\7.0 2017q4\\lib\\gcc\\arm-none-eabi\\7.2.
 138              		.file 3 "c:\\chibistudio\\tools\\gnu tools arm embedded\\7.0 2017q4\\arm-none-eabi\\include\\machi
 139              		.file 4 "c:\\chibistudio\\tools\\gnu tools arm embedded\\7.0 2017q4\\arm-none-eabi\\include\\sys\\
 140              		.file 5 ".//os/common/ports/ARMCMx/compilers/GCC/chtypes.h"
 141              		.file 6 ".//os/rt/include/chsystypes.h"
 142              		.file 7 ".//os/rt/include/chschd.h"
 143              		.file 8 ".//os/rt/include/chtime.h"
 144              		.file 9 ".//os/common/ext/ARM/CMSIS/Core/Include/core_cm3.h"
 145              		.file 10 ".//os/common/ext/ST/STM32F1xx/system_stm32f1xx.h"
 146              		.file 11 ".//os/common/ext/ST/STM32F1xx/stm32f103xb.h"
 147              		.file 12 ".//os/common/ports/ARMCMx/chcore.h"
 148              		.file 13 ".//os/common/ports/ARMCMx/chcore_v7m.h"
 149              		.file 14 ".//os/rt/include/chsem.h"
 150              		.file 15 ".//os/rt/include/chmtx.h"
 151              		.file 16 ".//os/rt/include/chsys.h"
 152              		.file 17 ".//os/rt/include/chregistry.h"
 153              		.file 18 ".//os/rt/include/chevents.h"
 154              		.file 19 ".//os/lib/include/chmemcore.h"
 155              		.file 20 ".//os/lib/include/chmempools.h"
 156              		.file 21 ".//os/lib/include/chfactory.h"
 157              		.file 22 ".//os/hal/ports/STM32/LLD/DMAv1/stm32_dma.h"
 158              		.file 23 ".//os/hal/include/hal_pal.h"
 159              		.file 24 ".//os/hal/ports/STM32/LLD/GPIOv1/hal_pal_lld.h"
 160              		.file 25 ".//os/hal/include/hal_can.h"
 161              		.file 26 ".//os/hal/ports/STM32/LLD/CANv1/hal_can_lld.h"
 162              		.file 27 ".//os/hal/include/hal_uart.h"
 163              		.file 28 ".//os/hal/ports/STM32/LLD/USARTv1/hal_uart_lld.h"
 164              		.file 29 ".//os/hal/ports/common/ARMCMx/nvic.h"