ARM GAS  C:\Users\14122\AppData\Local\Temp\ccFZBToa.s 			page 1


   1              		.cpu cortex-m3
   2              		.eabi_attribute 20, 1
   3              		.eabi_attribute 21, 1
   4              		.eabi_attribute 23, 3
   5              		.eabi_attribute 24, 1
   6              		.eabi_attribute 25, 1
   7              		.eabi_attribute 26, 1
   8              		.eabi_attribute 30, 2
   9              		.eabi_attribute 34, 1
  10              		.eabi_attribute 18, 4
  11              		.file	"stm32_dma.c"
  12              		.text
  13              	.Ltext0:
  14              		.cfi_sections	.debug_frame
  15              		.section	.text.Vector6C,"ax",%progbits
  16              		.align	1
  17              		.p2align 4,,15
  18              		.global	Vector6C
  19              		.syntax unified
  20              		.thumb
  21              		.thumb_func
  22              		.fpu softvfp
  23              		.type	Vector6C, %function
  24              	Vector6C:
  25              	.LFB253:
  26              		.file 1 ".//os/hal/ports/STM32/LLD/DMAv1/stm32_dma.c"
  27              		.loc 1 257 0
  28              		.cfi_startproc
  29              		@ args = 0, pretend = 0, frame = 0
  30              		@ frame_needed = 0, uses_anonymous_args = 0
  31              	.LVL0:
  32 0000 08B5     		push	{r3, lr}
  33              		.cfi_def_cfa_offset 8
  34              		.cfi_offset 3, -8
  35              		.cfi_offset 14, -4
  36              	.LBB2:
  37              		.loc 1 261 0
  38 0002 094B     		ldr	r3, .L10
  39 0004 094A     		ldr	r2, .L10+4
  40 0006 1968     		ldr	r1, [r3]
  41 0008 1268     		ldr	r2, [r2]
  42 000a 01F00E01 		and	r1, r1, #14
  43              	.LVL1:
  44 000e 0A42     		tst	r2, r1
  45 0010 05D0     		beq	.L3
  46              		.loc 1 261 0 is_stmt 0 discriminator 1
  47 0012 074A     		ldr	r2, .L10+8
  48 0014 5960     		str	r1, [r3, #4]
  49 0016 1368     		ldr	r3, [r2]
  50 0018 0BB1     		cbz	r3, .L3
  51              		.loc 1 261 0 discriminator 2
  52 001a 5068     		ldr	r0, [r2, #4]
  53 001c 9847     		blx	r3
  54              	.LVL2:
  55              	.L3:
  56              	.LBE2:
  57              		.loc 1 264 0 is_stmt 1
ARM GAS  C:\Users\14122\AppData\Local\Temp\ccFZBToa.s 			page 2


  58 001e BDE80840 		pop	{r3, lr}
  59              		.cfi_restore 14
  60              		.cfi_restore 3
  61              		.cfi_def_cfa_offset 0
  62              		.loc 1 263 0
  63 0022 FFF7FEBF 		b	_port_irq_epilogue
  64              	.LVL3:
  65              	.L11:
  66 0026 00BF     		.align	2
  67              	.L10:
  68 0028 00000240 		.word	1073872896
  69 002c 08000240 		.word	1073872904
  70 0030 00000000 		.word	.LANCHOR0
  71              		.cfi_endproc
  72              	.LFE253:
  73              		.size	Vector6C, .-Vector6C
  74              		.section	.text.Vector70,"ax",%progbits
  75              		.align	1
  76              		.p2align 4,,15
  77              		.global	Vector70
  78              		.syntax unified
  79              		.thumb
  80              		.thumb_func
  81              		.fpu softvfp
  82              		.type	Vector70, %function
  83              	Vector70:
  84              	.LFB254:
  85              		.loc 1 273 0
  86              		.cfi_startproc
  87              		@ args = 0, pretend = 0, frame = 0
  88              		@ frame_needed = 0, uses_anonymous_args = 0
  89              	.LVL4:
  90              	.LBB3:
  91              		.loc 1 277 0
  92 0000 0B4B     		ldr	r3, .L23
  93 0002 0C4A     		ldr	r2, .L23+4
  94 0004 1968     		ldr	r1, [r3]
  95 0006 1268     		ldr	r2, [r2]
  96 0008 0909     		lsrs	r1, r1, #4
  97 000a 01F00E01 		and	r1, r1, #14
  98              	.LVL5:
  99 000e 0A42     		tst	r2, r1
 100 0010 0BD0     		beq	.L20
 101              		.loc 1 277 0 is_stmt 0 discriminator 1
 102 0012 0948     		ldr	r0, .L23+8
 103              	.LBE3:
 104              		.loc 1 273 0 is_stmt 1 discriminator 1
 105 0014 10B5     		push	{r4, lr}
 106              		.cfi_def_cfa_offset 8
 107              		.cfi_offset 4, -8
 108              		.cfi_offset 14, -4
 109              	.LBB4:
 110              		.loc 1 277 0 discriminator 1
 111 0016 8468     		ldr	r4, [r0, #8]
 112 0018 0A01     		lsls	r2, r1, #4
 113 001a 5A60     		str	r2, [r3, #4]
 114 001c 0CB1     		cbz	r4, .L14
ARM GAS  C:\Users\14122\AppData\Local\Temp\ccFZBToa.s 			page 3


 115              		.loc 1 277 0 is_stmt 0 discriminator 2
 116 001e C068     		ldr	r0, [r0, #12]
 117 0020 A047     		blx	r4
 118              	.LVL6:
 119              	.L14:
 120              	.LBE4:
 121              		.loc 1 280 0 is_stmt 1
 122 0022 BDE81040 		pop	{r4, lr}
 123              		.cfi_restore 14
 124              		.cfi_restore 4
 125              		.cfi_def_cfa_offset 0
 126              		.loc 1 279 0
 127 0026 FFF7FEBF 		b	_port_irq_epilogue
 128              	.LVL7:
 129              	.L20:
 130 002a FFF7FEBF 		b	_port_irq_epilogue
 131              	.LVL8:
 132              	.L24:
 133 002e 00BF     		.align	2
 134              	.L23:
 135 0030 00000240 		.word	1073872896
 136 0034 1C000240 		.word	1073872924
 137 0038 00000000 		.word	.LANCHOR0
 138              		.cfi_endproc
 139              	.LFE254:
 140              		.size	Vector70, .-Vector70
 141              		.section	.text.Vector74,"ax",%progbits
 142              		.align	1
 143              		.p2align 4,,15
 144              		.global	Vector74
 145              		.syntax unified
 146              		.thumb
 147              		.thumb_func
 148              		.fpu softvfp
 149              		.type	Vector74, %function
 150              	Vector74:
 151              	.LFB255:
 152              		.loc 1 289 0
 153              		.cfi_startproc
 154              		@ args = 0, pretend = 0, frame = 0
 155              		@ frame_needed = 0, uses_anonymous_args = 0
 156              	.LVL9:
 157              	.LBB5:
 158              		.loc 1 293 0
 159 0000 0B4B     		ldr	r3, .L36
 160 0002 0C4A     		ldr	r2, .L36+4
 161 0004 1968     		ldr	r1, [r3]
 162 0006 1268     		ldr	r2, [r2]
 163 0008 090A     		lsrs	r1, r1, #8
 164 000a 01F00E01 		and	r1, r1, #14
 165              	.LVL10:
 166 000e 0A42     		tst	r2, r1
 167 0010 0BD0     		beq	.L33
 168              		.loc 1 293 0 is_stmt 0 discriminator 1
 169 0012 0948     		ldr	r0, .L36+8
 170              	.LBE5:
 171              		.loc 1 289 0 is_stmt 1 discriminator 1
ARM GAS  C:\Users\14122\AppData\Local\Temp\ccFZBToa.s 			page 4


 172 0014 10B5     		push	{r4, lr}
 173              		.cfi_def_cfa_offset 8
 174              		.cfi_offset 4, -8
 175              		.cfi_offset 14, -4
 176              	.LBB6:
 177              		.loc 1 293 0 discriminator 1
 178 0016 0469     		ldr	r4, [r0, #16]
 179 0018 0A02     		lsls	r2, r1, #8
 180 001a 5A60     		str	r2, [r3, #4]
 181 001c 0CB1     		cbz	r4, .L27
 182              		.loc 1 293 0 is_stmt 0 discriminator 2
 183 001e 4069     		ldr	r0, [r0, #20]
 184 0020 A047     		blx	r4
 185              	.LVL11:
 186              	.L27:
 187              	.LBE6:
 188              		.loc 1 296 0 is_stmt 1
 189 0022 BDE81040 		pop	{r4, lr}
 190              		.cfi_restore 14
 191              		.cfi_restore 4
 192              		.cfi_def_cfa_offset 0
 193              		.loc 1 295 0
 194 0026 FFF7FEBF 		b	_port_irq_epilogue
 195              	.LVL12:
 196              	.L33:
 197 002a FFF7FEBF 		b	_port_irq_epilogue
 198              	.LVL13:
 199              	.L37:
 200 002e 00BF     		.align	2
 201              	.L36:
 202 0030 00000240 		.word	1073872896
 203 0034 30000240 		.word	1073872944
 204 0038 00000000 		.word	.LANCHOR0
 205              		.cfi_endproc
 206              	.LFE255:
 207              		.size	Vector74, .-Vector74
 208              		.section	.text.Vector78,"ax",%progbits
 209              		.align	1
 210              		.p2align 4,,15
 211              		.global	Vector78
 212              		.syntax unified
 213              		.thumb
 214              		.thumb_func
 215              		.fpu softvfp
 216              		.type	Vector78, %function
 217              	Vector78:
 218              	.LFB256:
 219              		.loc 1 305 0
 220              		.cfi_startproc
 221              		@ args = 0, pretend = 0, frame = 0
 222              		@ frame_needed = 0, uses_anonymous_args = 0
 223              	.LVL14:
 224              	.LBB7:
 225              		.loc 1 309 0
 226 0000 0B4B     		ldr	r3, .L49
 227 0002 0C4A     		ldr	r2, .L49+4
 228 0004 1968     		ldr	r1, [r3]
ARM GAS  C:\Users\14122\AppData\Local\Temp\ccFZBToa.s 			page 5


 229 0006 1268     		ldr	r2, [r2]
 230 0008 090B     		lsrs	r1, r1, #12
 231 000a 01F00E01 		and	r1, r1, #14
 232              	.LVL15:
 233 000e 0A42     		tst	r2, r1
 234 0010 0BD0     		beq	.L46
 235              		.loc 1 309 0 is_stmt 0 discriminator 1
 236 0012 0948     		ldr	r0, .L49+8
 237              	.LBE7:
 238              		.loc 1 305 0 is_stmt 1 discriminator 1
 239 0014 10B5     		push	{r4, lr}
 240              		.cfi_def_cfa_offset 8
 241              		.cfi_offset 4, -8
 242              		.cfi_offset 14, -4
 243              	.LBB8:
 244              		.loc 1 309 0 discriminator 1
 245 0016 8469     		ldr	r4, [r0, #24]
 246 0018 0A03     		lsls	r2, r1, #12
 247 001a 5A60     		str	r2, [r3, #4]
 248 001c 0CB1     		cbz	r4, .L40
 249              		.loc 1 309 0 is_stmt 0 discriminator 2
 250 001e C069     		ldr	r0, [r0, #28]
 251 0020 A047     		blx	r4
 252              	.LVL16:
 253              	.L40:
 254              	.LBE8:
 255              		.loc 1 312 0 is_stmt 1
 256 0022 BDE81040 		pop	{r4, lr}
 257              		.cfi_restore 14
 258              		.cfi_restore 4
 259              		.cfi_def_cfa_offset 0
 260              		.loc 1 311 0
 261 0026 FFF7FEBF 		b	_port_irq_epilogue
 262              	.LVL17:
 263              	.L46:
 264 002a FFF7FEBF 		b	_port_irq_epilogue
 265              	.LVL18:
 266              	.L50:
 267 002e 00BF     		.align	2
 268              	.L49:
 269 0030 00000240 		.word	1073872896
 270 0034 44000240 		.word	1073872964
 271 0038 00000000 		.word	.LANCHOR0
 272              		.cfi_endproc
 273              	.LFE256:
 274              		.size	Vector78, .-Vector78
 275              		.section	.text.Vector7C,"ax",%progbits
 276              		.align	1
 277              		.p2align 4,,15
 278              		.global	Vector7C
 279              		.syntax unified
 280              		.thumb
 281              		.thumb_func
 282              		.fpu softvfp
 283              		.type	Vector7C, %function
 284              	Vector7C:
 285              	.LFB257:
ARM GAS  C:\Users\14122\AppData\Local\Temp\ccFZBToa.s 			page 6


 286              		.loc 1 321 0
 287              		.cfi_startproc
 288              		@ args = 0, pretend = 0, frame = 0
 289              		@ frame_needed = 0, uses_anonymous_args = 0
 290              	.LVL19:
 291              	.LBB9:
 292              		.loc 1 325 0
 293 0000 0B4B     		ldr	r3, .L62
 294 0002 0C4A     		ldr	r2, .L62+4
 295 0004 1968     		ldr	r1, [r3]
 296 0006 1268     		ldr	r2, [r2]
 297 0008 090C     		lsrs	r1, r1, #16
 298 000a 01F00E01 		and	r1, r1, #14
 299              	.LVL20:
 300 000e 0A42     		tst	r2, r1
 301 0010 0BD0     		beq	.L59
 302              		.loc 1 325 0 is_stmt 0 discriminator 1
 303 0012 0948     		ldr	r0, .L62+8
 304              	.LBE9:
 305              		.loc 1 321 0 is_stmt 1 discriminator 1
 306 0014 10B5     		push	{r4, lr}
 307              		.cfi_def_cfa_offset 8
 308              		.cfi_offset 4, -8
 309              		.cfi_offset 14, -4
 310              	.LBB10:
 311              		.loc 1 325 0 discriminator 1
 312 0016 046A     		ldr	r4, [r0, #32]
 313 0018 0A04     		lsls	r2, r1, #16
 314 001a 5A60     		str	r2, [r3, #4]
 315 001c 0CB1     		cbz	r4, .L53
 316              		.loc 1 325 0 is_stmt 0 discriminator 2
 317 001e 406A     		ldr	r0, [r0, #36]
 318 0020 A047     		blx	r4
 319              	.LVL21:
 320              	.L53:
 321              	.LBE10:
 322              		.loc 1 328 0 is_stmt 1
 323 0022 BDE81040 		pop	{r4, lr}
 324              		.cfi_restore 14
 325              		.cfi_restore 4
 326              		.cfi_def_cfa_offset 0
 327              		.loc 1 327 0
 328 0026 FFF7FEBF 		b	_port_irq_epilogue
 329              	.LVL22:
 330              	.L59:
 331 002a FFF7FEBF 		b	_port_irq_epilogue
 332              	.LVL23:
 333              	.L63:
 334 002e 00BF     		.align	2
 335              	.L62:
 336 0030 00000240 		.word	1073872896
 337 0034 58000240 		.word	1073872984
 338 0038 00000000 		.word	.LANCHOR0
 339              		.cfi_endproc
 340              	.LFE257:
 341              		.size	Vector7C, .-Vector7C
 342              		.section	.text.Vector80,"ax",%progbits
ARM GAS  C:\Users\14122\AppData\Local\Temp\ccFZBToa.s 			page 7


 343              		.align	1
 344              		.p2align 4,,15
 345              		.global	Vector80
 346              		.syntax unified
 347              		.thumb
 348              		.thumb_func
 349              		.fpu softvfp
 350              		.type	Vector80, %function
 351              	Vector80:
 352              	.LFB258:
 353              		.loc 1 337 0
 354              		.cfi_startproc
 355              		@ args = 0, pretend = 0, frame = 0
 356              		@ frame_needed = 0, uses_anonymous_args = 0
 357              	.LVL24:
 358              	.LBB11:
 359              		.loc 1 341 0
 360 0000 0B4B     		ldr	r3, .L75
 361 0002 0C4A     		ldr	r2, .L75+4
 362 0004 1968     		ldr	r1, [r3]
 363 0006 1268     		ldr	r2, [r2]
 364 0008 090D     		lsrs	r1, r1, #20
 365 000a 01F00E01 		and	r1, r1, #14
 366              	.LVL25:
 367 000e 0A42     		tst	r2, r1
 368 0010 0BD0     		beq	.L72
 369              		.loc 1 341 0 is_stmt 0 discriminator 1
 370 0012 0948     		ldr	r0, .L75+8
 371              	.LBE11:
 372              		.loc 1 337 0 is_stmt 1 discriminator 1
 373 0014 10B5     		push	{r4, lr}
 374              		.cfi_def_cfa_offset 8
 375              		.cfi_offset 4, -8
 376              		.cfi_offset 14, -4
 377              	.LBB12:
 378              		.loc 1 341 0 discriminator 1
 379 0016 846A     		ldr	r4, [r0, #40]
 380 0018 0A05     		lsls	r2, r1, #20
 381 001a 5A60     		str	r2, [r3, #4]
 382 001c 0CB1     		cbz	r4, .L66
 383              		.loc 1 341 0 is_stmt 0 discriminator 2
 384 001e C06A     		ldr	r0, [r0, #44]
 385 0020 A047     		blx	r4
 386              	.LVL26:
 387              	.L66:
 388              	.LBE12:
 389              		.loc 1 344 0 is_stmt 1
 390 0022 BDE81040 		pop	{r4, lr}
 391              		.cfi_restore 14
 392              		.cfi_restore 4
 393              		.cfi_def_cfa_offset 0
 394              		.loc 1 343 0
 395 0026 FFF7FEBF 		b	_port_irq_epilogue
 396              	.LVL27:
 397              	.L72:
 398 002a FFF7FEBF 		b	_port_irq_epilogue
 399              	.LVL28:
ARM GAS  C:\Users\14122\AppData\Local\Temp\ccFZBToa.s 			page 8


 400              	.L76:
 401 002e 00BF     		.align	2
 402              	.L75:
 403 0030 00000240 		.word	1073872896
 404 0034 6C000240 		.word	1073873004
 405 0038 00000000 		.word	.LANCHOR0
 406              		.cfi_endproc
 407              	.LFE258:
 408              		.size	Vector80, .-Vector80
 409              		.section	.text.Vector84,"ax",%progbits
 410              		.align	1
 411              		.p2align 4,,15
 412              		.global	Vector84
 413              		.syntax unified
 414              		.thumb
 415              		.thumb_func
 416              		.fpu softvfp
 417              		.type	Vector84, %function
 418              	Vector84:
 419              	.LFB259:
 420              		.loc 1 353 0
 421              		.cfi_startproc
 422              		@ args = 0, pretend = 0, frame = 0
 423              		@ frame_needed = 0, uses_anonymous_args = 0
 424              	.LVL29:
 425              	.LBB13:
 426              		.loc 1 357 0
 427 0000 0B4B     		ldr	r3, .L88
 428 0002 0C4A     		ldr	r2, .L88+4
 429 0004 1968     		ldr	r1, [r3]
 430 0006 1268     		ldr	r2, [r2]
 431 0008 090E     		lsrs	r1, r1, #24
 432 000a 01F00E01 		and	r1, r1, #14
 433              	.LVL30:
 434 000e 0A42     		tst	r2, r1
 435 0010 0BD0     		beq	.L85
 436              		.loc 1 357 0 is_stmt 0 discriminator 1
 437 0012 0948     		ldr	r0, .L88+8
 438              	.LBE13:
 439              		.loc 1 353 0 is_stmt 1 discriminator 1
 440 0014 10B5     		push	{r4, lr}
 441              		.cfi_def_cfa_offset 8
 442              		.cfi_offset 4, -8
 443              		.cfi_offset 14, -4
 444              	.LBB14:
 445              		.loc 1 357 0 discriminator 1
 446 0016 046B     		ldr	r4, [r0, #48]
 447 0018 0A06     		lsls	r2, r1, #24
 448 001a 5A60     		str	r2, [r3, #4]
 449 001c 0CB1     		cbz	r4, .L79
 450              		.loc 1 357 0 is_stmt 0 discriminator 2
 451 001e 406B     		ldr	r0, [r0, #52]
 452 0020 A047     		blx	r4
 453              	.LVL31:
 454              	.L79:
 455              	.LBE14:
 456              		.loc 1 360 0 is_stmt 1
ARM GAS  C:\Users\14122\AppData\Local\Temp\ccFZBToa.s 			page 9


 457 0022 BDE81040 		pop	{r4, lr}
 458              		.cfi_restore 14
 459              		.cfi_restore 4
 460              		.cfi_def_cfa_offset 0
 461              		.loc 1 359 0
 462 0026 FFF7FEBF 		b	_port_irq_epilogue
 463              	.LVL32:
 464              	.L85:
 465 002a FFF7FEBF 		b	_port_irq_epilogue
 466              	.LVL33:
 467              	.L89:
 468 002e 00BF     		.align	2
 469              	.L88:
 470 0030 00000240 		.word	1073872896
 471 0034 80000240 		.word	1073873024
 472 0038 00000000 		.word	.LANCHOR0
 473              		.cfi_endproc
 474              	.LFE259:
 475              		.size	Vector84, .-Vector84
 476              		.section	.text.dmaInit,"ax",%progbits
 477              		.align	1
 478              		.p2align 4,,15
 479              		.global	dmaInit
 480              		.syntax unified
 481              		.thumb
 482              		.thumb_func
 483              		.fpu softvfp
 484              		.type	dmaInit, %function
 485              	dmaInit:
 486              	.LFB260:
 487              		.loc 1 484 0
 488              		.cfi_startproc
 489              		@ args = 0, pretend = 0, frame = 0
 490              		@ frame_needed = 0, uses_anonymous_args = 0
 491              		@ link register save eliminated.
 492 0000 30B4     		push	{r4, r5}
 493              		.cfi_def_cfa_offset 8
 494              		.cfi_offset 4, -8
 495              		.cfi_offset 5, -4
 496              		.loc 1 487 0
 497 0002 0024     		movs	r4, #0
 498 0004 0C4D     		ldr	r5, .L96
 499              		.loc 1 489 0
 500 0006 2346     		mov	r3, r4
 501              		.loc 1 490 0
 502 0008 2146     		mov	r1, r4
 503              		.loc 1 488 0
 504 000a C5E90044 		strd	r4, r4, [r5]
 505              	.LVL34:
 506 000e 0B4A     		ldr	r2, .L96+4
 507 0010 0B48     		ldr	r0, .L96+8
 508 0012 0C4C     		ldr	r4, .L96+12
 509 0014 01E0     		b	.L92
 510              	.LVL35:
 511              	.L95:
 512 0016 52F8100C 		ldr	r0, [r2, #-16]
 513              	.LVL36:
ARM GAS  C:\Users\14122\AppData\Local\Temp\ccFZBToa.s 			page 10


 514              	.L92:
 515              		.loc 1 490 0 discriminator 3
 516 001a 0160     		str	r1, [r0]
 517              		.loc 1 491 0 discriminator 3
 518 001c 44F83310 		str	r1, [r4, r3, lsl #3]
 519              		.loc 1 489 0 discriminator 3
 520 0020 0133     		adds	r3, r3, #1
 521              	.LVL37:
 522 0022 072B     		cmp	r3, #7
 523 0024 02F11002 		add	r2, r2, #16
 524 0028 F5D1     		bne	.L95
 525              		.loc 1 497 0
 526 002a 30BC     		pop	{r4, r5}
 527              		.cfi_restore 5
 528              		.cfi_restore 4
 529              		.cfi_def_cfa_offset 0
 530              		.loc 1 493 0
 531 002c 4FF0FF32 		mov	r2, #-1
 532 0030 054B     		ldr	r3, .L96+16
 533              	.LVL38:
 534 0032 5A60     		str	r2, [r3, #4]
 535              		.loc 1 497 0
 536 0034 7047     		bx	lr
 537              	.L97:
 538 0036 00BF     		.align	2
 539              	.L96:
 540 0038 00000000 		.word	.LANCHOR1
 541 003c 14000000 		.word	.LANCHOR2+20
 542 0040 08000240 		.word	1073872904
 543 0044 00000000 		.word	.LANCHOR0
 544 0048 00000240 		.word	1073872896
 545              		.cfi_endproc
 546              	.LFE260:
 547              		.size	dmaInit, .-dmaInit
 548              		.section	.text.dmaStreamAllocate,"ax",%progbits
 549              		.align	1
 550              		.p2align 4,,15
 551              		.global	dmaStreamAllocate
 552              		.syntax unified
 553              		.thumb
 554              		.thumb_func
 555              		.fpu softvfp
 556              		.type	dmaStreamAllocate, %function
 557              	dmaStreamAllocate:
 558              	.LFB261:
 559              		.loc 1 526 0
 560              		.cfi_startproc
 561              		@ args = 0, pretend = 0, frame = 0
 562              		@ frame_needed = 0, uses_anonymous_args = 0
 563              	.LVL39:
 564 0000 F8B5     		push	{r3, r4, r5, r6, r7, lr}
 565              		.cfi_def_cfa_offset 24
 566              		.cfi_offset 3, -24
 567              		.cfi_offset 4, -20
 568              		.cfi_offset 5, -16
 569              		.cfi_offset 6, -12
 570              		.cfi_offset 7, -8
ARM GAS  C:\Users\14122\AppData\Local\Temp\ccFZBToa.s 			page 11


 571              		.cfi_offset 14, -4
 572              		.loc 1 531 0
 573 0002 0124     		movs	r4, #1
 574 0004 204E     		ldr	r6, .L109
 575 0006 90F80EC0 		ldrb	ip, [r0, #14]	@ zero_extendqisi2
 576 000a 3568     		ldr	r5, [r6]
 577 000c 04FA0CF7 		lsl	r7, r4, ip
 578 0010 3D42     		tst	r5, r7
 579 0012 2CD1     		bne	.L103
 580              		.loc 1 535 0
 581 0014 1D4C     		ldr	r4, .L109+4
 582              		.loc 1 536 0
 583 0016 04EBCC0E 		add	lr, r4, ip, lsl #3
 584 001a CEF80430 		str	r3, [lr, #4]
 585              		.loc 1 539 0
 586 001e 6B06     		lsls	r3, r5, #25
 587              	.LVL40:
 588              		.loc 1 535 0
 589 0020 44F83C20 		str	r2, [r4, ip, lsl #3]
 590              		.loc 1 539 0
 591 0024 05D1     		bne	.L100
 592              		.loc 1 540 0
 593 0026 1A4B     		ldr	r3, .L109+8
 594 0028 5C69     		ldr	r4, [r3, #20]
 595 002a 44F00104 		orr	r4, r4, #1
 596 002e 5C61     		str	r4, [r3, #20]
 597 0030 5B69     		ldr	r3, [r3, #20]
 598              	.L100:
 599              		.loc 1 549 0
 600 0032 0E24     		movs	r4, #14
 601              		.loc 1 550 0
 602 0034 4FF0000E 		mov	lr, #0
 603              	.LVL41:
 604              		.loc 1 549 0
 605 0038 4368     		ldr	r3, [r0, #4]
 606 003a D3F800C0 		ldr	ip, [r3]
 607              	.LVL42:
 608 003e 2CF00F0C 		bic	ip, ip, #15
 609 0042 C3F800C0 		str	ip, [r3]
 610 0046 90F80DC0 		ldrb	ip, [r0, #13]	@ zero_extendqisi2
 611 004a 04FA0CFC 		lsl	ip, r4, ip
 612 004e 0468     		ldr	r4, [r0]
 613 0050 C4F804C0 		str	ip, [r4, #4]
 614              		.loc 1 550 0
 615 0054 C3F800E0 		str	lr, [r3]
 616              		.loc 1 554 0
 617 0058 2AB1     		cbz	r2, .L101
 618              		.loc 1 555 0
 619 005a 7368     		ldr	r3, [r6, #4]
 620 005c 8268     		ldr	r2, [r0, #8]
 621              	.LVL43:
 622 005e 1342     		tst	r3, r2
 623 0060 07D0     		beq	.L108
 624              	.LVL44:
 625              	.L102:
 626              		.loc 1 558 0
 627 0062 3B43     		orrs	r3, r3, r7
ARM GAS  C:\Users\14122\AppData\Local\Temp\ccFZBToa.s 			page 12


 628 0064 7360     		str	r3, [r6, #4]
 629              	.L101:
 630              		.loc 1 562 0
 631 0066 3D43     		orrs	r5, r5, r7
 632 0068 3560     		str	r5, [r6]
 633              		.loc 1 564 0
 634 006a 0020     		movs	r0, #0
 635              		.loc 1 565 0
 636 006c F8BD     		pop	{r3, r4, r5, r6, r7, pc}
 637              	.LVL45:
 638              	.L103:
 639              		.loc 1 532 0
 640 006e 2046     		mov	r0, r4
 641              	.LVL46:
 642              		.loc 1 565 0
 643 0070 F8BD     		pop	{r3, r4, r5, r6, r7, pc}
 644              	.LVL47:
 645              	.L108:
 646 0072 0446     		mov	r4, r0
 647 0074 0127     		movs	r7, #1
 648              		.loc 1 556 0
 649 0076 C07B     		ldrb	r0, [r0, #15]	@ zero_extendqisi2
 650              	.LVL48:
 651 0078 FFF7FEFF 		bl	nvicEnableVector
 652              	.LVL49:
 653 007c D6E90053 		ldrd	r5, r3, [r6]
 654 0080 A27B     		ldrb	r2, [r4, #14]	@ zero_extendqisi2
 655 0082 9740     		lsls	r7, r7, r2
 656 0084 EDE7     		b	.L102
 657              	.L110:
 658 0086 00BF     		.align	2
 659              	.L109:
 660 0088 00000000 		.word	.LANCHOR1
 661 008c 00000000 		.word	.LANCHOR0
 662 0090 00100240 		.word	1073876992
 663              		.cfi_endproc
 664              	.LFE261:
 665              		.size	dmaStreamAllocate, .-dmaStreamAllocate
 666              		.section	.text.dmaStreamRelease,"ax",%progbits
 667              		.align	1
 668              		.p2align 4,,15
 669              		.global	dmaStreamRelease
 670              		.syntax unified
 671              		.thumb
 672              		.thumb_func
 673              		.fpu softvfp
 674              		.type	dmaStreamRelease, %function
 675              	dmaStreamRelease:
 676              	.LFB262:
 677              		.loc 1 580 0
 678              		.cfi_startproc
 679              		@ args = 0, pretend = 0, frame = 0
 680              		@ frame_needed = 0, uses_anonymous_args = 0
 681              	.LVL50:
 682              		.loc 1 589 0
 683 0000 0123     		movs	r3, #1
 684              		.loc 1 580 0
ARM GAS  C:\Users\14122\AppData\Local\Temp\ccFZBToa.s 			page 13


 685 0002 70B5     		push	{r4, r5, r6, lr}
 686              		.cfi_def_cfa_offset 16
 687              		.cfi_offset 4, -16
 688              		.cfi_offset 5, -12
 689              		.cfi_offset 6, -8
 690              		.cfi_offset 14, -4
 691              		.loc 1 589 0
 692 0004 817B     		ldrb	r1, [r0, #14]	@ zero_extendqisi2
 693 0006 124C     		ldr	r4, .L116
 694 0008 8B40     		lsls	r3, r3, r1
 695 000a DB43     		mvns	r3, r3
 696              		.loc 1 590 0
 697 000c D4E90025 		ldrd	r2, r5, [r4]
 698              		.loc 1 593 0
 699 0010 8668     		ldr	r6, [r0, #8]
 700              		.loc 1 589 0
 701 0012 1A40     		ands	r2, r2, r3
 702              		.loc 1 593 0
 703 0014 3242     		tst	r2, r6
 704              		.loc 1 590 0
 705 0016 03EA0503 		and	r3, r3, r5
 706 001a C4E90023 		strd	r2, r3, [r4]
 707              		.loc 1 593 0
 708 001e 0FD0     		beq	.L115
 709              	.LVL51:
 710              	.L112:
 711              		.loc 1 598 0
 712 0020 0020     		movs	r0, #0
 713 0022 0C4B     		ldr	r3, .L116+4
 714              		.loc 1 599 0
 715 0024 03EBC104 		add	r4, r3, r1, lsl #3
 716              		.loc 1 598 0
 717 0028 43F83100 		str	r0, [r3, r1, lsl #3]
 718              		.loc 1 602 0
 719 002c 5306     		lsls	r3, r2, #25
 720              		.loc 1 599 0
 721 002e 6060     		str	r0, [r4, #4]
 722              		.loc 1 602 0
 723 0030 05D1     		bne	.L111
 724              		.loc 1 603 0
 725 0032 094B     		ldr	r3, .L116+8
 726 0034 5A69     		ldr	r2, [r3, #20]
 727 0036 22F00102 		bic	r2, r2, #1
 728 003a 5A61     		str	r2, [r3, #20]
 729 003c 5B69     		ldr	r3, [r3, #20]
 730              	.L111:
 731              		.loc 1 610 0
 732 003e 70BD     		pop	{r4, r5, r6, pc}
 733              	.LVL52:
 734              	.L115:
 735 0040 0546     		mov	r5, r0
 736              		.loc 1 594 0
 737 0042 C07B     		ldrb	r0, [r0, #15]	@ zero_extendqisi2
 738              	.LVL53:
 739 0044 FFF7FEFF 		bl	nvicDisableVector
 740              	.LVL54:
 741 0048 A97B     		ldrb	r1, [r5, #14]	@ zero_extendqisi2
ARM GAS  C:\Users\14122\AppData\Local\Temp\ccFZBToa.s 			page 14


 742 004a 2268     		ldr	r2, [r4]
 743 004c E8E7     		b	.L112
 744              	.L117:
 745 004e 00BF     		.align	2
 746              	.L116:
 747 0050 00000000 		.word	.LANCHOR1
 748 0054 00000000 		.word	.LANCHOR0
 749 0058 00100240 		.word	1073876992
 750              		.cfi_endproc
 751              	.LFE262:
 752              		.size	dmaStreamRelease, .-dmaStreamRelease
 753              		.global	_stm32_dma_isr_redir
 754              		.global	_stm32_dma_streams
 755              		.section	.bss._stm32_dma_isr_redir,"aw",%nobits
 756              		.align	2
 757              		.set	.LANCHOR0,. + 0
 758              		.type	_stm32_dma_isr_redir, %object
 759              		.size	_stm32_dma_isr_redir, 56
 760              	_stm32_dma_isr_redir:
 761 0000 00000000 		.space	56
 761      00000000 
 761      00000000 
 761      00000000 
 761      00000000 
 762              		.section	.bss.dma,"aw",%nobits
 763              		.align	2
 764              		.set	.LANCHOR1,. + 0
 765              		.type	dma, %object
 766              		.size	dma, 8
 767              	dma:
 768 0000 00000000 		.space	8
 768      00000000 
 769              		.section	.rodata._stm32_dma_streams,"a",%progbits
 770              		.align	2
 771              		.set	.LANCHOR2,. + 0
 772              		.type	_stm32_dma_streams, %object
 773              		.size	_stm32_dma_streams, 112
 774              	_stm32_dma_streams:
 775 0000 00000240 		.word	1073872896
 776 0004 08000240 		.word	1073872904
 777 0008 01000000 		.word	1
 778 000c 00       		.byte	0
 779 000d 00       		.byte	0
 780 000e 00       		.byte	0
 781 000f 0B       		.byte	11
 782 0010 00000240 		.word	1073872896
 783 0014 1C000240 		.word	1073872924
 784 0018 02000000 		.word	2
 785 001c 00       		.byte	0
 786 001d 04       		.byte	4
 787 001e 01       		.byte	1
 788 001f 0C       		.byte	12
 789 0020 00000240 		.word	1073872896
 790 0024 30000240 		.word	1073872944
 791 0028 04000000 		.word	4
 792 002c 00       		.byte	0
 793 002d 08       		.byte	8
ARM GAS  C:\Users\14122\AppData\Local\Temp\ccFZBToa.s 			page 15


 794 002e 02       		.byte	2
 795 002f 0D       		.byte	13
 796 0030 00000240 		.word	1073872896
 797 0034 44000240 		.word	1073872964
 798 0038 08000000 		.word	8
 799 003c 00       		.byte	0
 800 003d 0C       		.byte	12
 801 003e 03       		.byte	3
 802 003f 0E       		.byte	14
 803 0040 00000240 		.word	1073872896
 804 0044 58000240 		.word	1073872984
 805 0048 10000000 		.word	16
 806 004c 00       		.byte	0
 807 004d 10       		.byte	16
 808 004e 04       		.byte	4
 809 004f 0F       		.byte	15
 810 0050 00000240 		.word	1073872896
 811 0054 6C000240 		.word	1073873004
 812 0058 20000000 		.word	32
 813 005c 00       		.byte	0
 814 005d 14       		.byte	20
 815 005e 05       		.byte	5
 816 005f 10       		.byte	16
 817 0060 00000240 		.word	1073872896
 818 0064 80000240 		.word	1073873024
 819 0068 40000000 		.word	64
 820 006c 00       		.byte	0
 821 006d 18       		.byte	24
 822 006e 06       		.byte	6
 823 006f 11       		.byte	17
 824              		.text
 825              	.Letext0:
 826              		.file 2 "c:\\chibistudio\\tools\\gnu tools arm embedded\\7.0 2017q4\\lib\\gcc\\arm-none-eabi\\7.2.
 827              		.file 3 "c:\\chibistudio\\tools\\gnu tools arm embedded\\7.0 2017q4\\arm-none-eabi\\include\\machi
 828              		.file 4 "c:\\chibistudio\\tools\\gnu tools arm embedded\\7.0 2017q4\\arm-none-eabi\\include\\sys\\
 829              		.file 5 ".//os/common/ports/ARMCMx/compilers/GCC/chtypes.h"
 830              		.file 6 ".//os/rt/include/chsystypes.h"
 831              		.file 7 ".//os/rt/include/chschd.h"
 832              		.file 8 ".//os/rt/include/chtime.h"
 833              		.file 9 ".//os/common/ext/ARM/CMSIS/Core/Include/core_cm3.h"
 834              		.file 10 ".//os/common/ext/ST/STM32F1xx/system_stm32f1xx.h"
 835              		.file 11 ".//os/common/ext/ST/STM32F1xx/stm32f103xb.h"
 836              		.file 12 ".//os/common/ports/ARMCMx/chcore.h"
 837              		.file 13 ".//os/common/ports/ARMCMx/chcore_v7m.h"
 838              		.file 14 ".//os/rt/include/chsem.h"
 839              		.file 15 ".//os/rt/include/chmtx.h"
 840              		.file 16 ".//os/rt/include/chsys.h"
 841              		.file 17 ".//os/rt/include/chregistry.h"
 842              		.file 18 ".//os/rt/include/chevents.h"
 843              		.file 19 ".//os/lib/include/chmemcore.h"
 844              		.file 20 ".//os/lib/include/chmempools.h"
 845              		.file 21 ".//os/lib/include/chfactory.h"
 846              		.file 22 ".//os/hal/ports/STM32/LLD/DMAv1/stm32_dma.h"
 847              		.file 23 ".//os/hal/include/hal_pal.h"
 848              		.file 24 ".//os/hal/ports/STM32/LLD/GPIOv1/hal_pal_lld.h"
 849              		.file 25 ".//os/hal/include/hal_can.h"
 850              		.file 26 ".//os/hal/ports/STM32/LLD/CANv1/hal_can_lld.h"
ARM GAS  C:\Users\14122\AppData\Local\Temp\ccFZBToa.s 			page 16


 851              		.file 27 ".//os/hal/include/hal_uart.h"
 852              		.file 28 ".//os/hal/ports/STM32/LLD/USARTv1/hal_uart_lld.h"
 853              		.file 29 ".//os/hal/ports/common/ARMCMx/nvic.h"